
dist\sam_e70_xplained_ultra\debug\sam_e70_xplained_ultra.X.debug.elf:     file format elf32-littlearm


Disassembly of section .vectors:

00400000 <exception_table>:
  400000:	f0 ff 45 20 ad a0 40 00 45 8a 40 00 a5 d6 40 00     ..E ..@.E.@...@.
  400010:	d1 d6 40 00 e7 d6 40 00 fd d6 40 00 00 00 00 00     ..@...@...@.....
	...
  40002c:	0d 42 40 00 bb d6 40 00 00 00 00 00 0d 42 40 00     .B@...@......B@.
  40003c:	0d 42 40 00 0d 42 40 00 0d 42 40 00 0d 42 40 00     .B@..B@..B@..B@.
  40004c:	0d 42 40 00 0d 42 40 00 0d 42 40 00 0d 42 40 00     .B@..B@..B@..B@.
  40005c:	0d 42 40 00 0d 42 40 00 00 00 00 00 0d 42 40 00     .B@..B@......B@.
  40006c:	0d 42 40 00 0d 42 40 00 0d 42 40 00 65 9e 40 00     .B@..B@..B@.e.@.
  40007c:	0d 42 40 00 0d 42 40 00 0d 42 40 00 0d 42 40 00     .B@..B@..B@..B@.
  40008c:	0d 42 40 00 0d 42 40 00 0d 42 40 00 0d 42 40 00     .B@..B@..B@..B@.
  40009c:	0d 42 40 00 0d 42 40 00 0d 42 40 00 e5 d3 40 00     .B@..B@..B@...@.
  4000ac:	0d 42 40 00 0d 42 40 00 0d 42 40 00 0d 42 40 00     .B@..B@..B@..B@.
  4000bc:	0d 42 40 00 0d 42 40 00 0d 42 40 00 0d 42 40 00     .B@..B@..B@..B@.
  4000cc:	0d 42 40 00 0d 42 40 00 0d 42 40 00 0d 42 40 00     .B@..B@..B@..B@.
  4000dc:	0d 42 40 00 0d 42 40 00 0d 42 40 00 0d 42 40 00     .B@..B@..B@..B@.
  4000ec:	0d 42 40 00 0d 42 40 00 0d 42 40 00 0d 42 40 00     .B@..B@..B@..B@.
  4000fc:	0d 42 40 00 0d 42 40 00 0d 42 40 00 0d 42 40 00     .B@..B@..B@..B@.
  40010c:	0d 42 40 00 0d 42 40 00 00 00 00 00 00 00 00 00     .B@..B@.........
  40011c:	00 00 00 00 0d 42 40 00 0d 42 40 00 0d 42 40 00     .....B@..B@..B@.
  40012c:	0d 42 40 00 0d 42 40 00 0d 42 40 00 0d 42 40 00     .B@..B@..B@..B@.
  40013c:	0d 42 40 00 0d 42 40 00 0d 42 40 00 0d 42 40 00     .B@..B@..B@..B@.
  40014c:	0d 42 40 00 0d 42 40 00 0d 42 40 00 0d 42 40 00     .B@..B@..B@..B@.
  40015c:	0d 42 40 00 0d 42 40 00 0d 42 40 00                 .B@..B@..B@.

Disassembly of section .text:

00400168 <_init>:
  400168:	b5f8      	push	{r3, r4, r5, r6, r7, lr}
  40016a:	bf00      	nop
  40016c:	bcf8      	pop	{r3, r4, r5, r6, r7}
  40016e:	bc08      	pop	{r3}
  400170:	469e      	mov	lr, r3
  400172:	4770      	bx	lr

00400174 <__init_array_start>:
  400174:	0040d779 	.word	0x0040d779

00400178 <__frame_dummy_init_array_entry>:
  400178:	0040c491                                ..@.

0040017c <_fini>:
  40017c:	b5f8      	push	{r3, r4, r5, r6, r7, lr}
  40017e:	bf00      	nop
  400180:	bcf8      	pop	{r3, r4, r5, r6, r7}
  400182:	bc08      	pop	{r3}
  400184:	469e      	mov	lr, r3
  400186:	4770      	bx	lr

00400188 <__fini_array_start>:
  400188:	0040c46d 	.word	0x0040c46d

Disassembly of section .ARM.exidx:

0040018c <.ARM.exidx>:
  40018c:	000085dc 	.word	0x000085dc
  400190:	00000001 	.word	0x00000001

Disassembly of section .text._Transform%30:

00400194 <_Transform>:

#define R(i) h(i)+=S1(e(i))+Ch(e(i),f(i),g(i))+K[i+j]+(j?blk2(i):blk0(i));\
    d(i)+=h(i);h(i)+=S0(a(i))+Maj(a(i),b(i),c(i))

static int _Transform(Sha512* sha512)
{
  400194:	e92d 4ff0 	stmdb	sp!, {r4, r5, r6, r7, r8, r9, sl, fp, lr}

00400198 <.LCFI0>:
  400198:	f2ad 7d94 	subw	sp, sp, #1940	; 0x794

0040019c <.LCFI1>:
  40019c:	f8cd 06cc 	str.w	r0, [sp, #1740]	; 0x6cc
#else
    word64 W[16];
#endif

    /* Copy digest to working vars */
    XMEMCPY(T, sha512->digest, sizeof(T));
  4001a0:	f100 0418 	add.w	r4, r0, #24
  4001a4:	f50d 66ea 	add.w	r6, sp, #1872	; 0x750
  4001a8:	f100 0758 	add.w	r7, r0, #88	; 0x58

004001ac <.LVL2>:
  4001ac:	4635      	mov	r5, r6
  4001ae:	6820      	ldr	r0, [r4, #0]
  4001b0:	6861      	ldr	r1, [r4, #4]
  4001b2:	68a2      	ldr	r2, [r4, #8]
  4001b4:	68e3      	ldr	r3, [r4, #12]
  4001b6:	c50f      	stmia	r5!, {r0, r1, r2, r3}
  4001b8:	3410      	adds	r4, #16
  4001ba:	462e      	mov	r6, r5
  4001bc:	42bc      	cmp	r4, r7
  4001be:	d1f5      	bne.n	4001ac <.LVL2>

004001c0 <.LVL3>:
  4001c0:	f50d 63da 	add.w	r3, sp, #1744	; 0x6d0
  4001c4:	e9d3 3400 	ldrd	r3, r4, [r3]
  4001c8:	e9cd 341c 	strd	r3, r4, [sp, #112]	; 0x70
  4001cc:	f50d 63ed 	add.w	r3, sp, #1896	; 0x768
  4001d0:	e9d3 ab00 	ldrd	sl, fp, [r3]
  4001d4:	f50d 63ea 	add.w	r3, sp, #1872	; 0x750
  4001d8:	e9d3 3400 	ldrd	r3, r4, [r3]
  4001dc:	4625      	mov	r5, r4
  4001de:	461c      	mov	r4, r3
  4001e0:	f50d 63eb 	add.w	r3, sp, #1880	; 0x758
  4001e4:	e9d3 2300 	ldrd	r2, r3, [r3]
  4001e8:	e9cd 2318 	strd	r2, r3, [sp, #96]	; 0x60
  4001ec:	f50d 63ec 	add.w	r3, sp, #1888	; 0x760
  4001f0:	e9d3 2300 	ldrd	r2, r3, [r3]
  4001f4:	e9cd 232a 	strd	r2, r3, [sp, #168]	; 0xa8
  4001f8:	f50d 63f1 	add.w	r3, sp, #1928	; 0x788
  4001fc:	e9d3 2300 	ldrd	r2, r3, [r3]
  400200:	e9cd 2306 	strd	r2, r3, [sp, #24]
  400204:	f50d 63dc 	add.w	r3, sp, #1760	; 0x6e0
  400208:	e9d3 2300 	ldrd	r2, r3, [r3]
  40020c:	e9cd 231e 	strd	r2, r3, [sp, #120]	; 0x78
  400210:	f50d 63dd 	add.w	r3, sp, #1768	; 0x6e8
  400214:	e9d3 2300 	ldrd	r2, r3, [r3]
  400218:	e9cd 2320 	strd	r2, r3, [sp, #128]	; 0x80
  40021c:	f50d 63db 	add.w	r3, sp, #1752	; 0x6d8
  400220:	e9d3 2300 	ldrd	r2, r3, [r3]
  400224:	e9cd 2308 	strd	r2, r3, [sp, #32]
  400228:	f50d 63de 	add.w	r3, sp, #1776	; 0x6f0
  40022c:	e9d3 2300 	ldrd	r2, r3, [r3]
  400230:	e9cd 2322 	strd	r2, r3, [sp, #136]	; 0x88
  400234:	f50d 63df 	add.w	r3, sp, #1784	; 0x6f8
  400238:	e9d3 2300 	ldrd	r2, r3, [r3]
  40023c:	e9cd 230a 	strd	r2, r3, [sp, #40]	; 0x28
  400240:	f50d 63e0 	add.w	r3, sp, #1792	; 0x700
  400244:	e9d3 2300 	ldrd	r2, r3, [r3]
  400248:	e9cd 230e 	strd	r2, r3, [sp, #56]	; 0x38
  40024c:	f50d 63e1 	add.w	r3, sp, #1800	; 0x708
  400250:	e9d3 2300 	ldrd	r2, r3, [r3]
  400254:	e9cd 2310 	strd	r2, r3, [sp, #64]	; 0x40
  400258:	f50d 63e3 	add.w	r3, sp, #1816	; 0x718
  40025c:	e9d3 2300 	ldrd	r2, r3, [r3]
  400260:	e9cd 2312 	strd	r2, r3, [sp, #72]	; 0x48
  400264:	f50d 63f0 	add.w	r3, sp, #1920	; 0x780
  400268:	e9d3 2300 	ldrd	r2, r3, [r3]
  40026c:	e9cd 2304 	strd	r2, r3, [sp, #16]
  400270:	f50d 63e2 	add.w	r3, sp, #1808	; 0x710
  400274:	e9d3 2300 	ldrd	r2, r3, [r3]
  400278:	e9cd 2300 	strd	r2, r3, [sp]
  40027c:	f50d 63e4 	add.w	r3, sp, #1824	; 0x720
  400280:	e9d3 2300 	ldrd	r2, r3, [r3]
  400284:	e9cd 2324 	strd	r2, r3, [sp, #144]	; 0x90
  400288:	f50d 63ef 	add.w	r3, sp, #1912	; 0x778
  40028c:	e9d3 8900 	ldrd	r8, r9, [r3]
  400290:	f50d 63e5 	add.w	r3, sp, #1832	; 0x728
  400294:	e9d3 2300 	ldrd	r2, r3, [r3]
  400298:	e9cd 2314 	strd	r2, r3, [sp, #80]	; 0x50
  40029c:	f50d 63ee 	add.w	r3, sp, #1904	; 0x770
  4002a0:	e9d3 2300 	ldrd	r2, r3, [r3]
  4002a4:	e9cd 2302 	strd	r2, r3, [sp, #8]
  4002a8:	f50d 63e6 	add.w	r3, sp, #1840	; 0x730
  4002ac:	e9d3 2300 	ldrd	r2, r3, [r3]
  4002b0:	e9cd 2316 	strd	r2, r3, [sp, #88]	; 0x58
  4002b4:	f50d 63e7 	add.w	r3, sp, #1848	; 0x738
  4002b8:	e9d3 2300 	ldrd	r2, r3, [r3]
  4002bc:	e9cd 2326 	strd	r2, r3, [sp, #152]	; 0x98
  4002c0:	f50d 63e8 	add.w	r3, sp, #1856	; 0x740
  4002c4:	e9d3 2300 	ldrd	r2, r3, [r3]
  4002c8:	e9cd 230c 	strd	r2, r3, [sp, #48]	; 0x30
  4002cc:	f50d 63e9 	add.w	r3, sp, #1864	; 0x748
  4002d0:	e9d3 2300 	ldrd	r2, r3, [r3]
  4002d4:	e9cd 2328 	strd	r2, r3, [sp, #160]	; 0xa0
  4002d8:	4b5a      	ldr	r3, [pc, #360]	; (400444 <.LBE365+0x4e>)
            R(m);
        }
    }
#else
    /* 80 operations, partially loop unrolled */
    for (j = 0; j < 80; j += 16) {
  4002da:	f04f 0c00 	mov.w	ip, #0
  4002de:	469e      	mov	lr, r3
  4002e0:	4667      	mov	r7, ip

004002e2 <.LVL4>:
  4002e2:	f8dd c6cc 	ldr.w	ip, [sp, #1740]	; 0x6cc

004002e6 <.LBB353>:
}


STATIC INLINE word64 rotrFixed64(word64 x, word64 y)
{
    return (x >> y) | (x << (sizeof(y) * 8 - y));
  4002e6:	e9dd 0102 	ldrd	r0, r1, [sp, #8]
  4002ea:	0b83      	lsrs	r3, r0, #14
  4002ec:	ea43 4381 	orr.w	r3, r3, r1, lsl #18
  4002f0:	9370      	str	r3, [sp, #448]	; 0x1c0
  4002f2:	0b8b      	lsrs	r3, r1, #14
  4002f4:	ea43 4380 	orr.w	r3, r3, r0, lsl #18
  4002f8:	9371      	str	r3, [sp, #452]	; 0x1c4

004002fa <.LBB355>:
  4002fa:	0c83      	lsrs	r3, r0, #18
  4002fc:	ea43 3381 	orr.w	r3, r3, r1, lsl #14
  400300:	9372      	str	r3, [sp, #456]	; 0x1c8
  400302:	0c8b      	lsrs	r3, r1, #18
  400304:	ea43 3380 	orr.w	r3, r3, r0, lsl #14
  400308:	9373      	str	r3, [sp, #460]	; 0x1cc

0040030a <.LBE355>:
        R( 0); R( 1); R( 2); R( 3);
  40030a:	ab70      	add	r3, sp, #448	; 0x1c0
  40030c:	e9d3 2300 	ldrd	r2, r3, [r3]
  400310:	a972      	add	r1, sp, #456	; 0x1c8
  400312:	e9d1 0100 	ldrd	r0, r1, [r1]
  400316:	4042      	eors	r2, r0
  400318:	404b      	eors	r3, r1
  40031a:	4610      	mov	r0, r2
  40031c:	4619      	mov	r1, r3

0040031e <.LBB357>:
  40031e:	9b03      	ldr	r3, [sp, #12]
  400320:	05db      	lsls	r3, r3, #23
  400322:	9a02      	ldr	r2, [sp, #8]
  400324:	ea43 2352 	orr.w	r3, r3, r2, lsr #9
  400328:	9375      	str	r3, [sp, #468]	; 0x1d4
  40032a:	05d3      	lsls	r3, r2, #23
  40032c:	9a03      	ldr	r2, [sp, #12]
  40032e:	ea43 2352 	orr.w	r3, r3, r2, lsr #9
  400332:	9374      	str	r3, [sp, #464]	; 0x1d0

00400334 <.LBE357>:
  400334:	ab74      	add	r3, sp, #464	; 0x1d0
  400336:	e9d3 2300 	ldrd	r2, r3, [r3]
  40033a:	4042      	eors	r2, r0
  40033c:	404b      	eors	r3, r1
  40033e:	e9cd 231a 	strd	r2, r3, [sp, #104]	; 0x68
  400342:	e9dd 2304 	ldrd	r2, r3, [sp, #16]
  400346:	ea82 0208 	eor.w	r2, r2, r8
  40034a:	ea83 0309 	eor.w	r3, r3, r9
  40034e:	e9dd 0102 	ldrd	r0, r1, [sp, #8]
  400352:	4010      	ands	r0, r2
  400354:	4019      	ands	r1, r3
  400356:	4602      	mov	r2, r0
  400358:	460b      	mov	r3, r1
  40035a:	e9dd 0104 	ldrd	r0, r1, [sp, #16]
  40035e:	4050      	eors	r0, r2
  400360:	4059      	eors	r1, r3
  400362:	4602      	mov	r2, r0
  400364:	460b      	mov	r3, r1
  400366:	e9dd 011a 	ldrd	r0, r1, [sp, #104]	; 0x68
  40036a:	1880      	adds	r0, r0, r2
  40036c:	4159      	adcs	r1, r3
  40036e:	e9cd 011a 	strd	r0, r1, [sp, #104]	; 0x68
  400372:	4676      	mov	r6, lr
  400374:	e9de 2300 	ldrd	r2, r3, [lr]
  400378:	e9cd 232c 	strd	r2, r3, [sp, #176]	; 0xb0
  40037c:	2f00      	cmp	r7, #0
  40037e:	f002 8255 	beq.w	40282c <.LCFI3>

00400382 <.LBB359>:
  400382:	e9dd 010c 	ldrd	r0, r1, [sp, #48]	; 0x30
  400386:	0cc3      	lsrs	r3, r0, #19
  400388:	ea43 3341 	orr.w	r3, r3, r1, lsl #13
  40038c:	9376      	str	r3, [sp, #472]	; 0x1d8
  40038e:	0ccb      	lsrs	r3, r1, #19
  400390:	ea43 3340 	orr.w	r3, r3, r0, lsl #13
  400394:	9377      	str	r3, [sp, #476]	; 0x1dc

00400396 <.LBB361>:
  400396:	00cb      	lsls	r3, r1, #3
  400398:	ea43 7350 	orr.w	r3, r3, r0, lsr #29
  40039c:	9379      	str	r3, [sp, #484]	; 0x1e4
  40039e:	00c3      	lsls	r3, r0, #3
  4003a0:	ea43 7351 	orr.w	r3, r3, r1, lsr #29
  4003a4:	9378      	str	r3, [sp, #480]	; 0x1e0

004003a6 <.LBE361>:
  4003a6:	ab76      	add	r3, sp, #472	; 0x1d8
  4003a8:	e9d3 2300 	ldrd	r2, r3, [r3]
  4003ac:	a978      	add	r1, sp, #480	; 0x1e0
  4003ae:	e9d1 0100 	ldrd	r0, r1, [r1]
  4003b2:	4042      	eors	r2, r0
  4003b4:	404b      	eors	r3, r1
  4003b6:	990c      	ldr	r1, [sp, #48]	; 0x30
  4003b8:	0989      	lsrs	r1, r1, #6
  4003ba:	980d      	ldr	r0, [sp, #52]	; 0x34
  4003bc:	ea41 6180 	orr.w	r1, r1, r0, lsl #26
  4003c0:	9130      	str	r1, [sp, #192]	; 0xc0
  4003c2:	0981      	lsrs	r1, r0, #6
  4003c4:	9131      	str	r1, [sp, #196]	; 0xc4
  4003c6:	e9dd 0130 	ldrd	r0, r1, [sp, #192]	; 0xc0
  4003ca:	4050      	eors	r0, r2
  4003cc:	4059      	eors	r1, r3
  4003ce:	e9cd 012e 	strd	r0, r1, [sp, #184]	; 0xb8

004003d2 <.LBB363>:
  4003d2:	e9dd 2308 	ldrd	r2, r3, [sp, #32]
  4003d6:	0851      	lsrs	r1, r2, #1
  4003d8:	ea41 71c3 	orr.w	r1, r1, r3, lsl #31
  4003dc:	917a      	str	r1, [sp, #488]	; 0x1e8
  4003de:	0859      	lsrs	r1, r3, #1
  4003e0:	ea41 71c2 	orr.w	r1, r1, r2, lsl #31
  4003e4:	917b      	str	r1, [sp, #492]	; 0x1ec

004003e6 <.LBB365>:
  4003e6:	0a11      	lsrs	r1, r2, #8
  4003e8:	ea41 6103 	orr.w	r1, r1, r3, lsl #24
  4003ec:	917c      	str	r1, [sp, #496]	; 0x1f0
  4003ee:	0a19      	lsrs	r1, r3, #8
  4003f0:	ea41 6102 	orr.w	r1, r1, r2, lsl #24
  4003f4:	917d      	str	r1, [sp, #500]	; 0x1f4

004003f6 <.LBE365>:
  4003f6:	ab7a      	add	r3, sp, #488	; 0x1e8
  4003f8:	e9d3 0100 	ldrd	r0, r1, [r3]
  4003fc:	ab7c      	add	r3, sp, #496	; 0x1f0
  4003fe:	e9d3 2300 	ldrd	r2, r3, [r3]
  400402:	4050      	eors	r0, r2
  400404:	4059      	eors	r1, r3
  400406:	9b08      	ldr	r3, [sp, #32]
  400408:	09db      	lsrs	r3, r3, #7
  40040a:	9a09      	ldr	r2, [sp, #36]	; 0x24
  40040c:	ea43 6342 	orr.w	r3, r3, r2, lsl #25
  400410:	9332      	str	r3, [sp, #200]	; 0xc8
  400412:	09d3      	lsrs	r3, r2, #7
  400414:	9333      	str	r3, [sp, #204]	; 0xcc
  400416:	e9dd 2332 	ldrd	r2, r3, [sp, #200]	; 0xc8
  40041a:	4042      	eors	r2, r0
  40041c:	404b      	eors	r3, r1
  40041e:	4610      	mov	r0, r2
  400420:	4619      	mov	r1, r3
  400422:	e9dd 232e 	ldrd	r2, r3, [sp, #184]	; 0xb8
  400426:	1812      	adds	r2, r2, r0
  400428:	414b      	adcs	r3, r1
  40042a:	e9dd 0112 	ldrd	r0, r1, [sp, #72]	; 0x48
  40042e:	1880      	adds	r0, r0, r2
  400430:	4159      	adcs	r1, r3
  400432:	4602      	mov	r2, r0
  400434:	460b      	mov	r3, r1
  400436:	e9dd 011c 	ldrd	r0, r1, [sp, #112]	; 0x70
  40043a:	1880      	adds	r0, r0, r2
  40043c:	4159      	adcs	r1, r3
  40043e:	e9cd 011c 	strd	r0, r1, [sp, #112]	; 0x70
  400442:	e001      	b.n	400448 <.LBE365+0x52>
  400444:	00408f68 	.word	0x00408f68
  400448:	e9dd 231a 	ldrd	r2, r3, [sp, #104]	; 0x68
  40044c:	e9dd 012c 	ldrd	r0, r1, [sp, #176]	; 0xb0
  400450:	1812      	adds	r2, r2, r0
  400452:	414b      	adcs	r3, r1
  400454:	e9dd 011c 	ldrd	r0, r1, [sp, #112]	; 0x70
  400458:	1880      	adds	r0, r0, r2
  40045a:	4159      	adcs	r1, r3
  40045c:	4602      	mov	r2, r0
  40045e:	460b      	mov	r3, r1
  400460:	e9dd 0106 	ldrd	r0, r1, [sp, #24]
  400464:	1880      	adds	r0, r0, r2
  400466:	4159      	adcs	r1, r3
  400468:	4602      	mov	r2, r0
  40046a:	460b      	mov	r3, r1
  40046c:	e9cd 2306 	strd	r2, r3, [sp, #24]
  400470:	eb10 020a 	adds.w	r2, r0, sl
  400474:	eb41 030b 	adc.w	r3, r1, fp
  400478:	e9cd 232c 	strd	r2, r3, [sp, #176]	; 0xb0

0040047c <.LBB367>:
  40047c:	0f23      	lsrs	r3, r4, #28
  40047e:	ea43 1305 	orr.w	r3, r3, r5, lsl #4
  400482:	937e      	str	r3, [sp, #504]	; 0x1f8
  400484:	0f2b      	lsrs	r3, r5, #28
  400486:	ea43 1304 	orr.w	r3, r3, r4, lsl #4
  40048a:	937f      	str	r3, [sp, #508]	; 0x1fc

0040048c <.LBB369>:
  40048c:	07ab      	lsls	r3, r5, #30
  40048e:	ea43 0394 	orr.w	r3, r3, r4, lsr #2
  400492:	9381      	str	r3, [sp, #516]	; 0x204
  400494:	07a3      	lsls	r3, r4, #30
  400496:	ea43 0395 	orr.w	r3, r3, r5, lsr #2
  40049a:	9380      	str	r3, [sp, #512]	; 0x200

0040049c <.LBE369>:
  40049c:	ab7e      	add	r3, sp, #504	; 0x1f8
  40049e:	e9d3 1200 	ldrd	r1, r2, [r3]
  4004a2:	ab80      	add	r3, sp, #512	; 0x200
  4004a4:	e9d3 ab00 	ldrd	sl, fp, [r3]
  4004a8:	ea81 010a 	eor.w	r1, r1, sl
  4004ac:	ea82 020b 	eor.w	r2, r2, fp
  4004b0:	4613      	mov	r3, r2
  4004b2:	460a      	mov	r2, r1

004004b4 <.LBB371>:
  4004b4:	0669      	lsls	r1, r5, #25
  4004b6:	ea41 11d4 	orr.w	r1, r1, r4, lsr #7
  4004ba:	9183      	str	r1, [sp, #524]	; 0x20c
  4004bc:	0661      	lsls	r1, r4, #25
  4004be:	ea41 11d5 	orr.w	r1, r1, r5, lsr #7
  4004c2:	9182      	str	r1, [sp, #520]	; 0x208

004004c4 <.LBE371>:
  4004c4:	a982      	add	r1, sp, #520	; 0x208
  4004c6:	e9d1 0100 	ldrd	r0, r1, [r1]
  4004ca:	4050      	eors	r0, r2
  4004cc:	4059      	eors	r1, r3
  4004ce:	e9cd 011a 	strd	r0, r1, [sp, #104]	; 0x68
  4004d2:	e9dd ab18 	ldrd	sl, fp, [sp, #96]	; 0x60
  4004d6:	4650      	mov	r0, sl
  4004d8:	4659      	mov	r1, fp
  4004da:	4320      	orrs	r0, r4
  4004dc:	4329      	orrs	r1, r5
  4004de:	e9dd 232a 	ldrd	r2, r3, [sp, #168]	; 0xa8
  4004e2:	4002      	ands	r2, r0
  4004e4:	400b      	ands	r3, r1
  4004e6:	4650      	mov	r0, sl
  4004e8:	4659      	mov	r1, fp
  4004ea:	4020      	ands	r0, r4
  4004ec:	4029      	ands	r1, r5
  4004ee:	4310      	orrs	r0, r2
  4004f0:	4319      	orrs	r1, r3
  4004f2:	e9dd 231a 	ldrd	r2, r3, [sp, #104]	; 0x68
  4004f6:	1812      	adds	r2, r2, r0
  4004f8:	414b      	adcs	r3, r1
  4004fa:	4610      	mov	r0, r2
  4004fc:	4619      	mov	r1, r3
  4004fe:	e9dd 2306 	ldrd	r2, r3, [sp, #24]
  400502:	1812      	adds	r2, r2, r0
  400504:	414b      	adcs	r3, r1
  400506:	e9cd 2306 	strd	r2, r3, [sp, #24]

0040050a <.LBB373>:
  40050a:	e9dd ab2c 	ldrd	sl, fp, [sp, #176]	; 0xb0
  40050e:	4653      	mov	r3, sl
  400510:	0b9b      	lsrs	r3, r3, #14
  400512:	465a      	mov	r2, fp
  400514:	ea43 438b 	orr.w	r3, r3, fp, lsl #18
  400518:	9384      	str	r3, [sp, #528]	; 0x210
  40051a:	0b93      	lsrs	r3, r2, #14
  40051c:	4652      	mov	r2, sl
  40051e:	ea43 438a 	orr.w	r3, r3, sl, lsl #18
  400522:	9385      	str	r3, [sp, #532]	; 0x214

00400524 <.LBB375>:
  400524:	0c93      	lsrs	r3, r2, #18
  400526:	465a      	mov	r2, fp
  400528:	ea43 338b 	orr.w	r3, r3, fp, lsl #14
  40052c:	9386      	str	r3, [sp, #536]	; 0x218
  40052e:	0c93      	lsrs	r3, r2, #18
  400530:	ea43 338a 	orr.w	r3, r3, sl, lsl #14
  400534:	9387      	str	r3, [sp, #540]	; 0x21c

00400536 <.LBE375>:
  400536:	ab84      	add	r3, sp, #528	; 0x210
  400538:	e9d3 2300 	ldrd	r2, r3, [r3]
  40053c:	a986      	add	r1, sp, #536	; 0x218
  40053e:	e9d1 0100 	ldrd	r0, r1, [r1]
  400542:	4042      	eors	r2, r0
  400544:	404b      	eors	r3, r1

00400546 <.LBB377>:
  400546:	4659      	mov	r1, fp
  400548:	05c9      	lsls	r1, r1, #23
  40054a:	4650      	mov	r0, sl
  40054c:	ea41 215a 	orr.w	r1, r1, sl, lsr #9
  400550:	9189      	str	r1, [sp, #548]	; 0x224
  400552:	05c1      	lsls	r1, r0, #23
  400554:	ea41 215b 	orr.w	r1, r1, fp, lsr #9
  400558:	9188      	str	r1, [sp, #544]	; 0x220

0040055a <.LBE377>:
  40055a:	a988      	add	r1, sp, #544	; 0x220
  40055c:	e9d1 0100 	ldrd	r0, r1, [r1]
  400560:	4050      	eors	r0, r2
  400562:	4059      	eors	r1, r3
  400564:	e9cd 011a 	strd	r0, r1, [sp, #104]	; 0x68
  400568:	e9dd 0102 	ldrd	r0, r1, [sp, #8]
  40056c:	ea80 0008 	eor.w	r0, r0, r8
  400570:	ea81 0109 	eor.w	r1, r1, r9
  400574:	4652      	mov	r2, sl
  400576:	465b      	mov	r3, fp
  400578:	4002      	ands	r2, r0
  40057a:	400b      	ands	r3, r1
  40057c:	ea82 0a08 	eor.w	sl, r2, r8
  400580:	ea83 0b09 	eor.w	fp, r3, r9
  400584:	e9d6 2302 	ldrd	r2, r3, [r6, #8]
  400588:	e9dd 0104 	ldrd	r0, r1, [sp, #16]
  40058c:	1880      	adds	r0, r0, r2
  40058e:	4159      	adcs	r1, r3
  400590:	eb1a 0000 	adds.w	r0, sl, r0
  400594:	eb4b 0101 	adc.w	r1, fp, r1
  400598:	e9cd 0104 	strd	r0, r1, [sp, #16]
  40059c:	2f00      	cmp	r7, #0
  40059e:	f002 814b 	beq.w	402838 <.LCFI3+0xc>

004005a2 <.LBB379>:
  4005a2:	e9dd 0128 	ldrd	r0, r1, [sp, #160]	; 0xa0
  4005a6:	0cc3      	lsrs	r3, r0, #19
  4005a8:	ea43 3341 	orr.w	r3, r3, r1, lsl #13
  4005ac:	938a      	str	r3, [sp, #552]	; 0x228
  4005ae:	0ccb      	lsrs	r3, r1, #19
  4005b0:	ea43 3340 	orr.w	r3, r3, r0, lsl #13
  4005b4:	938b      	str	r3, [sp, #556]	; 0x22c

004005b6 <.LBB381>:
  4005b6:	00cb      	lsls	r3, r1, #3
  4005b8:	ea43 7350 	orr.w	r3, r3, r0, lsr #29
  4005bc:	938d      	str	r3, [sp, #564]	; 0x234
  4005be:	00c3      	lsls	r3, r0, #3
  4005c0:	ea43 7351 	orr.w	r3, r3, r1, lsr #29
  4005c4:	938c      	str	r3, [sp, #560]	; 0x230

004005c6 <.LBE381>:
  4005c6:	ab8a      	add	r3, sp, #552	; 0x228
  4005c8:	e9d3 2300 	ldrd	r2, r3, [r3]
  4005cc:	f50d 7a0c 	add.w	sl, sp, #560	; 0x230
  4005d0:	e9da ab00 	ldrd	sl, fp, [sl]
  4005d4:	ea82 020a 	eor.w	r2, r2, sl
  4005d8:	ea83 030b 	eor.w	r3, r3, fp
  4005dc:	468b      	mov	fp, r1
  4005de:	0981      	lsrs	r1, r0, #6
  4005e0:	4658      	mov	r0, fp
  4005e2:	ea41 618b 	orr.w	r1, r1, fp, lsl #26
  4005e6:	9134      	str	r1, [sp, #208]	; 0xd0
  4005e8:	0981      	lsrs	r1, r0, #6
  4005ea:	9135      	str	r1, [sp, #212]	; 0xd4
  4005ec:	e9dd 0134 	ldrd	r0, r1, [sp, #208]	; 0xd0
  4005f0:	4050      	eors	r0, r2
  4005f2:	4059      	eors	r1, r3
  4005f4:	4602      	mov	r2, r0
  4005f6:	460b      	mov	r3, r1
  4005f8:	e9dd 0124 	ldrd	r0, r1, [sp, #144]	; 0x90
  4005fc:	e9dd ab08 	ldrd	sl, fp, [sp, #32]
  400600:	eb10 000a 	adds.w	r0, r0, sl
  400604:	eb41 010b 	adc.w	r1, r1, fp
  400608:	eb12 0a00 	adds.w	sl, r2, r0
  40060c:	eb43 0b01 	adc.w	fp, r3, r1
  400610:	e9cd ab08 	strd	sl, fp, [sp, #32]

00400614 <.LBB383>:
  400614:	e9dd 231e 	ldrd	r2, r3, [sp, #120]	; 0x78
  400618:	0851      	lsrs	r1, r2, #1
  40061a:	ea41 71c3 	orr.w	r1, r1, r3, lsl #31
  40061e:	918e      	str	r1, [sp, #568]	; 0x238
  400620:	0859      	lsrs	r1, r3, #1
  400622:	ea41 71c2 	orr.w	r1, r1, r2, lsl #31
  400626:	918f      	str	r1, [sp, #572]	; 0x23c

00400628 <.LBB385>:
  400628:	0a11      	lsrs	r1, r2, #8
  40062a:	ea41 6103 	orr.w	r1, r1, r3, lsl #24
  40062e:	9190      	str	r1, [sp, #576]	; 0x240
  400630:	0a19      	lsrs	r1, r3, #8
  400632:	ea41 6102 	orr.w	r1, r1, r2, lsl #24
  400636:	9191      	str	r1, [sp, #580]	; 0x244

00400638 <.LBE385>:
  400638:	a98e      	add	r1, sp, #568	; 0x238
  40063a:	e9d1 0100 	ldrd	r0, r1, [r1]
  40063e:	f50d 7a10 	add.w	sl, sp, #576	; 0x240
  400642:	e9da ab00 	ldrd	sl, fp, [sl]
  400646:	ea80 000a 	eor.w	r0, r0, sl
  40064a:	ea81 010b 	eor.w	r1, r1, fp
  40064e:	469b      	mov	fp, r3
  400650:	09d3      	lsrs	r3, r2, #7
  400652:	465a      	mov	r2, fp
  400654:	ea43 634b 	orr.w	r3, r3, fp, lsl #25
  400658:	9336      	str	r3, [sp, #216]	; 0xd8
  40065a:	09d3      	lsrs	r3, r2, #7
  40065c:	9337      	str	r3, [sp, #220]	; 0xdc
  40065e:	e9dd 2336 	ldrd	r2, r3, [sp, #216]	; 0xd8
  400662:	4042      	eors	r2, r0
  400664:	404b      	eors	r3, r1
  400666:	4610      	mov	r0, r2
  400668:	4619      	mov	r1, r3
  40066a:	e9dd 2308 	ldrd	r2, r3, [sp, #32]
  40066e:	1812      	adds	r2, r2, r0
  400670:	414b      	adcs	r3, r1
  400672:	e9cd 2308 	strd	r2, r3, [sp, #32]
  400676:	e9dd 231a 	ldrd	r2, r3, [sp, #104]	; 0x68
  40067a:	e9dd 0104 	ldrd	r0, r1, [sp, #16]
  40067e:	1812      	adds	r2, r2, r0
  400680:	414b      	adcs	r3, r1
  400682:	e9dd 0108 	ldrd	r0, r1, [sp, #32]
  400686:	1880      	adds	r0, r0, r2
  400688:	4159      	adcs	r1, r3
  40068a:	e9dd 232a 	ldrd	r2, r3, [sp, #168]	; 0xa8
  40068e:	e9cd 011a 	strd	r0, r1, [sp, #104]	; 0x68
  400692:	1812      	adds	r2, r2, r0
  400694:	414b      	adcs	r3, r1
  400696:	e9cd 2304 	strd	r2, r3, [sp, #16]

0040069a <.LBB387>:
  40069a:	e9dd 0106 	ldrd	r0, r1, [sp, #24]
  40069e:	0f03      	lsrs	r3, r0, #28
  4006a0:	ea43 1301 	orr.w	r3, r3, r1, lsl #4
  4006a4:	9392      	str	r3, [sp, #584]	; 0x248
  4006a6:	0f0b      	lsrs	r3, r1, #28
  4006a8:	ea43 1300 	orr.w	r3, r3, r0, lsl #4
  4006ac:	9393      	str	r3, [sp, #588]	; 0x24c

004006ae <.LBB389>:
  4006ae:	078b      	lsls	r3, r1, #30
  4006b0:	ea43 0390 	orr.w	r3, r3, r0, lsr #2
  4006b4:	9395      	str	r3, [sp, #596]	; 0x254
  4006b6:	0783      	lsls	r3, r0, #30
  4006b8:	ea43 0391 	orr.w	r3, r3, r1, lsr #2
  4006bc:	9394      	str	r3, [sp, #592]	; 0x250

004006be <.LBE389>:
  4006be:	ab92      	add	r3, sp, #584	; 0x248
  4006c0:	e9d3 2300 	ldrd	r2, r3, [r3]
  4006c4:	f50d 7a14 	add.w	sl, sp, #592	; 0x250
  4006c8:	e9da ab00 	ldrd	sl, fp, [sl]
  4006cc:	ea82 020a 	eor.w	r2, r2, sl
  4006d0:	ea83 030b 	eor.w	r3, r3, fp

004006d4 <.LBB391>:
  4006d4:	4682      	mov	sl, r0
  4006d6:	0649      	lsls	r1, r1, #25
  4006d8:	ea41 11da 	orr.w	r1, r1, sl, lsr #7
  4006dc:	9197      	str	r1, [sp, #604]	; 0x25c
  4006de:	e9dd ab06 	ldrd	sl, fp, [sp, #24]
  4006e2:	4651      	mov	r1, sl
  4006e4:	0649      	lsls	r1, r1, #25
  4006e6:	ea41 11db 	orr.w	r1, r1, fp, lsr #7
  4006ea:	9196      	str	r1, [sp, #600]	; 0x258

004006ec <.LBE391>:
  4006ec:	a996      	add	r1, sp, #600	; 0x258
  4006ee:	e9d1 0100 	ldrd	r0, r1, [r1]
  4006f2:	4050      	eors	r0, r2
  4006f4:	4059      	eors	r1, r3
  4006f6:	e9cd 012a 	strd	r0, r1, [sp, #168]	; 0xa8
  4006fa:	e9dd ab06 	ldrd	sl, fp, [sp, #24]
  4006fe:	4650      	mov	r0, sl
  400700:	4659      	mov	r1, fp
  400702:	4320      	orrs	r0, r4
  400704:	4329      	orrs	r1, r5
  400706:	e9dd 2318 	ldrd	r2, r3, [sp, #96]	; 0x60
  40070a:	4002      	ands	r2, r0
  40070c:	400b      	ands	r3, r1
  40070e:	4610      	mov	r0, r2
  400710:	4619      	mov	r1, r3
  400712:	4652      	mov	r2, sl
  400714:	465b      	mov	r3, fp
  400716:	4022      	ands	r2, r4
  400718:	402b      	ands	r3, r5
  40071a:	4302      	orrs	r2, r0
  40071c:	430b      	orrs	r3, r1
  40071e:	4610      	mov	r0, r2
  400720:	4619      	mov	r1, r3
  400722:	e9dd 232a 	ldrd	r2, r3, [sp, #168]	; 0xa8
  400726:	1812      	adds	r2, r2, r0
  400728:	414b      	adcs	r3, r1
  40072a:	4610      	mov	r0, r2
  40072c:	4619      	mov	r1, r3
  40072e:	e9dd 231a 	ldrd	r2, r3, [sp, #104]	; 0x68
  400732:	1812      	adds	r2, r2, r0
  400734:	414b      	adcs	r3, r1
  400736:	e9cd 232a 	strd	r2, r3, [sp, #168]	; 0xa8

0040073a <.LBB393>:
  40073a:	e9dd 0104 	ldrd	r0, r1, [sp, #16]
  40073e:	0b83      	lsrs	r3, r0, #14
  400740:	ea43 4381 	orr.w	r3, r3, r1, lsl #18
  400744:	9398      	str	r3, [sp, #608]	; 0x260
  400746:	0b8b      	lsrs	r3, r1, #14
  400748:	ea43 4380 	orr.w	r3, r3, r0, lsl #18
  40074c:	9399      	str	r3, [sp, #612]	; 0x264

0040074e <.LBB395>:
  40074e:	0c83      	lsrs	r3, r0, #18
  400750:	ea43 3381 	orr.w	r3, r3, r1, lsl #14
  400754:	939a      	str	r3, [sp, #616]	; 0x268
  400756:	0c8b      	lsrs	r3, r1, #18
  400758:	ea43 3380 	orr.w	r3, r3, r0, lsl #14
  40075c:	939b      	str	r3, [sp, #620]	; 0x26c

0040075e <.LBE395>:
  40075e:	ab98      	add	r3, sp, #608	; 0x260
  400760:	e9d3 2300 	ldrd	r2, r3, [r3]
  400764:	f50d 7a1a 	add.w	sl, sp, #616	; 0x268
  400768:	e9da ab00 	ldrd	sl, fp, [sl]
  40076c:	ea82 020a 	eor.w	r2, r2, sl
  400770:	ea83 030b 	eor.w	r3, r3, fp

00400774 <.LBB397>:
  400774:	4682      	mov	sl, r0
  400776:	468b      	mov	fp, r1
  400778:	05c9      	lsls	r1, r1, #23
  40077a:	4650      	mov	r0, sl
  40077c:	ea41 215a 	orr.w	r1, r1, sl, lsr #9
  400780:	919d      	str	r1, [sp, #628]	; 0x274
  400782:	05c1      	lsls	r1, r0, #23
  400784:	ea41 215b 	orr.w	r1, r1, fp, lsr #9
  400788:	919c      	str	r1, [sp, #624]	; 0x270

0040078a <.LBE397>:
  40078a:	a99c      	add	r1, sp, #624	; 0x270
  40078c:	e9d1 0100 	ldrd	r0, r1, [r1]
  400790:	4050      	eors	r0, r2
  400792:	4059      	eors	r1, r3
  400794:	e9cd 011a 	strd	r0, r1, [sp, #104]	; 0x68
  400798:	e9dd ab02 	ldrd	sl, fp, [sp, #8]
  40079c:	4650      	mov	r0, sl
  40079e:	4659      	mov	r1, fp
  4007a0:	e9dd 232c 	ldrd	r2, r3, [sp, #176]	; 0xb0
  4007a4:	4042      	eors	r2, r0
  4007a6:	404b      	eors	r3, r1
  4007a8:	4610      	mov	r0, r2
  4007aa:	4619      	mov	r1, r3
  4007ac:	e9dd 2304 	ldrd	r2, r3, [sp, #16]
  4007b0:	4002      	ands	r2, r0
  4007b2:	400b      	ands	r3, r1
  4007b4:	4610      	mov	r0, r2
  4007b6:	4619      	mov	r1, r3
  4007b8:	4652      	mov	r2, sl
  4007ba:	465b      	mov	r3, fp
  4007bc:	4042      	eors	r2, r0
  4007be:	404b      	eors	r3, r1
  4007c0:	4610      	mov	r0, r2
  4007c2:	4619      	mov	r1, r3
  4007c4:	e9d6 2304 	ldrd	r2, r3, [r6, #16]
  4007c8:	eb18 0802 	adds.w	r8, r8, r2
  4007cc:	eb49 0903 	adc.w	r9, r9, r3
  4007d0:	eb18 0800 	adds.w	r8, r8, r0
  4007d4:	eb49 0901 	adc.w	r9, r9, r1
  4007d8:	2f00      	cmp	r7, #0
  4007da:	f002 8033 	beq.w	402844 <.LCFI3+0x18>

004007de <.LBB399>:
  4007de:	e9dd 0120 	ldrd	r0, r1, [sp, #128]	; 0x80
  4007e2:	0843      	lsrs	r3, r0, #1
  4007e4:	ea43 73c1 	orr.w	r3, r3, r1, lsl #31
  4007e8:	939e      	str	r3, [sp, #632]	; 0x278
  4007ea:	084b      	lsrs	r3, r1, #1
  4007ec:	ea43 73c0 	orr.w	r3, r3, r0, lsl #31
  4007f0:	939f      	str	r3, [sp, #636]	; 0x27c

004007f2 <.LBB401>:
  4007f2:	0a03      	lsrs	r3, r0, #8
  4007f4:	ea43 6301 	orr.w	r3, r3, r1, lsl #24
  4007f8:	93a0      	str	r3, [sp, #640]	; 0x280
  4007fa:	0a0b      	lsrs	r3, r1, #8
  4007fc:	ea43 6300 	orr.w	r3, r3, r0, lsl #24
  400800:	93a1      	str	r3, [sp, #644]	; 0x284

00400802 <.LBE401>:
  400802:	ab9e      	add	r3, sp, #632	; 0x278
  400804:	e9d3 2300 	ldrd	r2, r3, [r3]
  400808:	f50d 7a20 	add.w	sl, sp, #640	; 0x280
  40080c:	e9da ab00 	ldrd	sl, fp, [sl]
  400810:	ea82 020a 	eor.w	r2, r2, sl
  400814:	ea83 030b 	eor.w	r3, r3, fp
  400818:	468b      	mov	fp, r1
  40081a:	09c1      	lsrs	r1, r0, #7
  40081c:	4658      	mov	r0, fp
  40081e:	ea41 614b 	orr.w	r1, r1, fp, lsl #25
  400822:	9138      	str	r1, [sp, #224]	; 0xe0
  400824:	09c1      	lsrs	r1, r0, #7
  400826:	9139      	str	r1, [sp, #228]	; 0xe4
  400828:	e9dd 0138 	ldrd	r0, r1, [sp, #224]	; 0xe0
  40082c:	4050      	eors	r0, r2
  40082e:	4059      	eors	r1, r3
  400830:	4602      	mov	r2, r0
  400832:	460b      	mov	r3, r1
  400834:	e9dd 011e 	ldrd	r0, r1, [sp, #120]	; 0x78
  400838:	e9dd ab14 	ldrd	sl, fp, [sp, #80]	; 0x50
  40083c:	eb10 000a 	adds.w	r0, r0, sl
  400840:	eb41 010b 	adc.w	r1, r1, fp
  400844:	eb12 0a00 	adds.w	sl, r2, r0
  400848:	eb43 0b01 	adc.w	fp, r3, r1
  40084c:	e9cd ab1e 	strd	sl, fp, [sp, #120]	; 0x78

00400850 <.LBB403>:
  400850:	e9dd 231c 	ldrd	r2, r3, [sp, #112]	; 0x70
  400854:	0cd1      	lsrs	r1, r2, #19
  400856:	ea41 3143 	orr.w	r1, r1, r3, lsl #13
  40085a:	91a2      	str	r1, [sp, #648]	; 0x288
  40085c:	0cd9      	lsrs	r1, r3, #19
  40085e:	ea41 3142 	orr.w	r1, r1, r2, lsl #13
  400862:	91a3      	str	r1, [sp, #652]	; 0x28c

00400864 <.LBB405>:
  400864:	00d9      	lsls	r1, r3, #3
  400866:	ea41 7152 	orr.w	r1, r1, r2, lsr #29
  40086a:	91a5      	str	r1, [sp, #660]	; 0x294
  40086c:	00d1      	lsls	r1, r2, #3
  40086e:	ea41 7153 	orr.w	r1, r1, r3, lsr #29
  400872:	91a4      	str	r1, [sp, #656]	; 0x290

00400874 <.LBE405>:
  400874:	a9a2      	add	r1, sp, #648	; 0x288
  400876:	e9d1 0100 	ldrd	r0, r1, [r1]
  40087a:	f50d 7a24 	add.w	sl, sp, #656	; 0x290
  40087e:	e9da ab00 	ldrd	sl, fp, [sl]
  400882:	ea80 000a 	eor.w	r0, r0, sl
  400886:	ea81 010b 	eor.w	r1, r1, fp
  40088a:	469b      	mov	fp, r3
  40088c:	0993      	lsrs	r3, r2, #6
  40088e:	465a      	mov	r2, fp
  400890:	ea43 638b 	orr.w	r3, r3, fp, lsl #26
  400894:	933a      	str	r3, [sp, #232]	; 0xe8
  400896:	0993      	lsrs	r3, r2, #6
  400898:	933b      	str	r3, [sp, #236]	; 0xec
  40089a:	e9dd 233a 	ldrd	r2, r3, [sp, #232]	; 0xe8
  40089e:	4042      	eors	r2, r0
  4008a0:	404b      	eors	r3, r1
  4008a2:	4610      	mov	r0, r2
  4008a4:	4619      	mov	r1, r3
  4008a6:	e9dd 231e 	ldrd	r2, r3, [sp, #120]	; 0x78
  4008aa:	1812      	adds	r2, r2, r0
  4008ac:	414b      	adcs	r3, r1
  4008ae:	e9cd 231e 	strd	r2, r3, [sp, #120]	; 0x78
  4008b2:	e9dd 231a 	ldrd	r2, r3, [sp, #104]	; 0x68
  4008b6:	eb12 0208 	adds.w	r2, r2, r8
  4008ba:	eb43 0309 	adc.w	r3, r3, r9
  4008be:	4690      	mov	r8, r2
  4008c0:	4699      	mov	r9, r3
  4008c2:	e9dd 231e 	ldrd	r2, r3, [sp, #120]	; 0x78
  4008c6:	eb12 0208 	adds.w	r2, r2, r8
  4008ca:	eb43 0309 	adc.w	r3, r3, r9
  4008ce:	e9dd 8918 	ldrd	r8, r9, [sp, #96]	; 0x60
  4008d2:	e9cd 231a 	strd	r2, r3, [sp, #104]	; 0x68
  4008d6:	eb18 0802 	adds.w	r8, r8, r2
  4008da:	eb49 0903 	adc.w	r9, r9, r3
  4008de:	e9cd 8918 	strd	r8, r9, [sp, #96]	; 0x60

004008e2 <.LBB407>:
  4008e2:	e9dd 012a 	ldrd	r0, r1, [sp, #168]	; 0xa8
  4008e6:	0f03      	lsrs	r3, r0, #28
  4008e8:	ea43 1301 	orr.w	r3, r3, r1, lsl #4
  4008ec:	93a6      	str	r3, [sp, #664]	; 0x298
  4008ee:	0f0b      	lsrs	r3, r1, #28
  4008f0:	ea43 1300 	orr.w	r3, r3, r0, lsl #4
  4008f4:	93a7      	str	r3, [sp, #668]	; 0x29c

004008f6 <.LBB409>:
  4008f6:	078b      	lsls	r3, r1, #30
  4008f8:	ea43 0390 	orr.w	r3, r3, r0, lsr #2
  4008fc:	93a9      	str	r3, [sp, #676]	; 0x2a4
  4008fe:	0783      	lsls	r3, r0, #30
  400900:	ea43 0391 	orr.w	r3, r3, r1, lsr #2
  400904:	93a8      	str	r3, [sp, #672]	; 0x2a0

00400906 <.LBE409>:
  400906:	aba6      	add	r3, sp, #664	; 0x298
  400908:	e9d3 2300 	ldrd	r2, r3, [r3]
  40090c:	f50d 7828 	add.w	r8, sp, #672	; 0x2a0
  400910:	e9d8 ab00 	ldrd	sl, fp, [r8]
  400914:	ea82 020a 	eor.w	r2, r2, sl
  400918:	ea83 030b 	eor.w	r3, r3, fp

0040091c <.LBB411>:
  40091c:	4680      	mov	r8, r0
  40091e:	4689      	mov	r9, r1
  400920:	0649      	lsls	r1, r1, #25
  400922:	4640      	mov	r0, r8
  400924:	ea41 11d8 	orr.w	r1, r1, r8, lsr #7
  400928:	91ab      	str	r1, [sp, #684]	; 0x2ac
  40092a:	0641      	lsls	r1, r0, #25
  40092c:	ea41 11d9 	orr.w	r1, r1, r9, lsr #7
  400930:	91aa      	str	r1, [sp, #680]	; 0x2a8

00400932 <.LBE411>:
  400932:	a9aa      	add	r1, sp, #680	; 0x2a8
  400934:	e9d1 0100 	ldrd	r0, r1, [r1]
  400938:	4050      	eors	r0, r2
  40093a:	4059      	eors	r1, r3
  40093c:	e9cd 012e 	strd	r0, r1, [sp, #184]	; 0xb8
  400940:	e9dd ab06 	ldrd	sl, fp, [sp, #24]
  400944:	4652      	mov	r2, sl
  400946:	465b      	mov	r3, fp
  400948:	4640      	mov	r0, r8
  40094a:	4649      	mov	r1, r9
  40094c:	4302      	orrs	r2, r0
  40094e:	430b      	orrs	r3, r1
  400950:	4022      	ands	r2, r4
  400952:	402b      	ands	r3, r5
  400954:	f50d 61d8 	add.w	r1, sp, #1728	; 0x6c0
  400958:	e9c1 2300 	strd	r2, r3, [r1]
  40095c:	4650      	mov	r0, sl
  40095e:	4659      	mov	r1, fp
  400960:	4642      	mov	r2, r8
  400962:	464b      	mov	r3, r9
  400964:	4010      	ands	r0, r2
  400966:	4019      	ands	r1, r3
  400968:	f50d 63d8 	add.w	r3, sp, #1728	; 0x6c0
  40096c:	e9d3 9a00 	ldrd	r9, sl, [r3]
  400970:	ea49 0900 	orr.w	r9, r9, r0
  400974:	ea4a 0a01 	orr.w	sl, sl, r1
  400978:	e9dd 232e 	ldrd	r2, r3, [sp, #184]	; 0xb8
  40097c:	eb12 0209 	adds.w	r2, r2, r9
  400980:	eb43 030a 	adc.w	r3, r3, sl
  400984:	4610      	mov	r0, r2
  400986:	4619      	mov	r1, r3
  400988:	e9dd 231a 	ldrd	r2, r3, [sp, #104]	; 0x68
  40098c:	1812      	adds	r2, r2, r0
  40098e:	414b      	adcs	r3, r1
  400990:	e9cd 232e 	strd	r2, r3, [sp, #184]	; 0xb8

00400994 <.LBB413>:
  400994:	e9dd 8918 	ldrd	r8, r9, [sp, #96]	; 0x60
  400998:	4643      	mov	r3, r8
  40099a:	0b9b      	lsrs	r3, r3, #14
  40099c:	464a      	mov	r2, r9
  40099e:	ea43 4389 	orr.w	r3, r3, r9, lsl #18
  4009a2:	93ac      	str	r3, [sp, #688]	; 0x2b0
  4009a4:	0b93      	lsrs	r3, r2, #14
  4009a6:	4642      	mov	r2, r8
  4009a8:	ea43 4388 	orr.w	r3, r3, r8, lsl #18
  4009ac:	93ad      	str	r3, [sp, #692]	; 0x2b4

004009ae <.LBB415>:
  4009ae:	0c93      	lsrs	r3, r2, #18
  4009b0:	464a      	mov	r2, r9
  4009b2:	ea43 3389 	orr.w	r3, r3, r9, lsl #14
  4009b6:	93ae      	str	r3, [sp, #696]	; 0x2b8
  4009b8:	0c93      	lsrs	r3, r2, #18
  4009ba:	ea43 3388 	orr.w	r3, r3, r8, lsl #14
  4009be:	93af      	str	r3, [sp, #700]	; 0x2bc

004009c0 <.LBE415>:
  4009c0:	abac      	add	r3, sp, #688	; 0x2b0
  4009c2:	e9d3 2300 	ldrd	r2, r3, [r3]
  4009c6:	a9ae      	add	r1, sp, #696	; 0x2b8
  4009c8:	e9d1 0100 	ldrd	r0, r1, [r1]
  4009cc:	4042      	eors	r2, r0
  4009ce:	404b      	eors	r3, r1

004009d0 <.LBB417>:
  4009d0:	4649      	mov	r1, r9
  4009d2:	05c9      	lsls	r1, r1, #23
  4009d4:	4640      	mov	r0, r8
  4009d6:	ea41 2158 	orr.w	r1, r1, r8, lsr #9
  4009da:	91b1      	str	r1, [sp, #708]	; 0x2c4
  4009dc:	05c1      	lsls	r1, r0, #23
  4009de:	ea41 2159 	orr.w	r1, r1, r9, lsr #9
  4009e2:	91b0      	str	r1, [sp, #704]	; 0x2c0

004009e4 <.LBE417>:
  4009e4:	a9b0      	add	r1, sp, #704	; 0x2c0
  4009e6:	e9d1 0100 	ldrd	r0, r1, [r1]
  4009ea:	4050      	eors	r0, r2
  4009ec:	4059      	eors	r1, r3
  4009ee:	e9cd 011a 	strd	r0, r1, [sp, #104]	; 0x68
  4009f2:	e9dd 0104 	ldrd	r0, r1, [sp, #16]
  4009f6:	e9dd ab2c 	ldrd	sl, fp, [sp, #176]	; 0xb0
  4009fa:	4652      	mov	r2, sl
  4009fc:	465b      	mov	r3, fp
  4009fe:	4042      	eors	r2, r0
  400a00:	404b      	eors	r3, r1
  400a02:	4610      	mov	r0, r2
  400a04:	4619      	mov	r1, r3
  400a06:	4642      	mov	r2, r8
  400a08:	464b      	mov	r3, r9
  400a0a:	4002      	ands	r2, r0
  400a0c:	400b      	ands	r3, r1
  400a0e:	ea8a 0802 	eor.w	r8, sl, r2
  400a12:	ea8b 0903 	eor.w	r9, fp, r3
  400a16:	e9d6 2306 	ldrd	r2, r3, [r6, #24]
  400a1a:	e9dd 0102 	ldrd	r0, r1, [sp, #8]
  400a1e:	1880      	adds	r0, r0, r2
  400a20:	4159      	adcs	r1, r3
  400a22:	eb18 0000 	adds.w	r0, r8, r0
  400a26:	eb49 0101 	adc.w	r1, r9, r1
  400a2a:	e9cd 0102 	strd	r0, r1, [sp, #8]
  400a2e:	2f00      	cmp	r7, #0
  400a30:	f001 870e 	beq.w	402850 <.LCFI3+0x24>

00400a34 <.LBB419>:
  400a34:	e9dd 8922 	ldrd	r8, r9, [sp, #136]	; 0x88
  400a38:	4643      	mov	r3, r8
  400a3a:	085b      	lsrs	r3, r3, #1
  400a3c:	464a      	mov	r2, r9
  400a3e:	ea43 73c9 	orr.w	r3, r3, r9, lsl #31
  400a42:	93b2      	str	r3, [sp, #712]	; 0x2c8
  400a44:	0853      	lsrs	r3, r2, #1
  400a46:	4642      	mov	r2, r8
  400a48:	ea43 73c8 	orr.w	r3, r3, r8, lsl #31
  400a4c:	93b3      	str	r3, [sp, #716]	; 0x2cc

00400a4e <.LBB421>:
  400a4e:	0a13      	lsrs	r3, r2, #8
  400a50:	464a      	mov	r2, r9
  400a52:	ea43 6309 	orr.w	r3, r3, r9, lsl #24
  400a56:	93b4      	str	r3, [sp, #720]	; 0x2d0
  400a58:	0a13      	lsrs	r3, r2, #8
  400a5a:	ea43 6308 	orr.w	r3, r3, r8, lsl #24
  400a5e:	93b5      	str	r3, [sp, #724]	; 0x2d4

00400a60 <.LBE421>:
  400a60:	abb2      	add	r3, sp, #712	; 0x2c8
  400a62:	e9d3 2300 	ldrd	r2, r3, [r3]
  400a66:	a9b4      	add	r1, sp, #720	; 0x2d0
  400a68:	e9d1 ab00 	ldrd	sl, fp, [r1]
  400a6c:	ea82 020a 	eor.w	r2, r2, sl
  400a70:	ea83 030b 	eor.w	r3, r3, fp
  400a74:	4641      	mov	r1, r8
  400a76:	09c9      	lsrs	r1, r1, #7
  400a78:	4648      	mov	r0, r9
  400a7a:	ea41 6149 	orr.w	r1, r1, r9, lsl #25
  400a7e:	913c      	str	r1, [sp, #240]	; 0xf0
  400a80:	09c1      	lsrs	r1, r0, #7
  400a82:	913d      	str	r1, [sp, #244]	; 0xf4
  400a84:	e9dd 013c 	ldrd	r0, r1, [sp, #240]	; 0xf0
  400a88:	4050      	eors	r0, r2
  400a8a:	4059      	eors	r1, r3
  400a8c:	4602      	mov	r2, r0
  400a8e:	460b      	mov	r3, r1
  400a90:	e9dd 0120 	ldrd	r0, r1, [sp, #128]	; 0x80
  400a94:	e9dd ab16 	ldrd	sl, fp, [sp, #88]	; 0x58
  400a98:	eb10 000a 	adds.w	r0, r0, sl
  400a9c:	eb41 010b 	adc.w	r1, r1, fp
  400aa0:	eb12 0800 	adds.w	r8, r2, r0
  400aa4:	eb43 0901 	adc.w	r9, r3, r1
  400aa8:	e9cd 8920 	strd	r8, r9, [sp, #128]	; 0x80

00400aac <.LBB423>:
  400aac:	e9dd 8908 	ldrd	r8, r9, [sp, #32]
  400ab0:	4641      	mov	r1, r8
  400ab2:	0cc9      	lsrs	r1, r1, #19
  400ab4:	4648      	mov	r0, r9
  400ab6:	ea41 3149 	orr.w	r1, r1, r9, lsl #13
  400aba:	91b6      	str	r1, [sp, #728]	; 0x2d8
  400abc:	0cc1      	lsrs	r1, r0, #19
  400abe:	4640      	mov	r0, r8
  400ac0:	ea41 3148 	orr.w	r1, r1, r8, lsl #13
  400ac4:	91b7      	str	r1, [sp, #732]	; 0x2dc

00400ac6 <.LBB425>:
  400ac6:	4649      	mov	r1, r9
  400ac8:	00c9      	lsls	r1, r1, #3
  400aca:	ea41 7158 	orr.w	r1, r1, r8, lsr #29
  400ace:	91b9      	str	r1, [sp, #740]	; 0x2e4
  400ad0:	00c1      	lsls	r1, r0, #3
  400ad2:	ea41 7159 	orr.w	r1, r1, r9, lsr #29
  400ad6:	91b8      	str	r1, [sp, #736]	; 0x2e0

00400ad8 <.LBE425>:
  400ad8:	abb6      	add	r3, sp, #728	; 0x2d8
  400ada:	e9d3 0100 	ldrd	r0, r1, [r3]
  400ade:	abb8      	add	r3, sp, #736	; 0x2e0
  400ae0:	e9d3 ab00 	ldrd	sl, fp, [r3]
  400ae4:	ea80 000a 	eor.w	r0, r0, sl
  400ae8:	ea81 010b 	eor.w	r1, r1, fp
  400aec:	4643      	mov	r3, r8
  400aee:	099b      	lsrs	r3, r3, #6
  400af0:	464a      	mov	r2, r9
  400af2:	ea43 6389 	orr.w	r3, r3, r9, lsl #26
  400af6:	933e      	str	r3, [sp, #248]	; 0xf8
  400af8:	0993      	lsrs	r3, r2, #6
  400afa:	933f      	str	r3, [sp, #252]	; 0xfc
  400afc:	e9dd 233e 	ldrd	r2, r3, [sp, #248]	; 0xf8
  400b00:	4042      	eors	r2, r0
  400b02:	404b      	eors	r3, r1
  400b04:	4610      	mov	r0, r2
  400b06:	4619      	mov	r1, r3
  400b08:	e9dd 2320 	ldrd	r2, r3, [sp, #128]	; 0x80
  400b0c:	1812      	adds	r2, r2, r0
  400b0e:	414b      	adcs	r3, r1
  400b10:	e9cd 2320 	strd	r2, r3, [sp, #128]	; 0x80
  400b14:	e9dd 231a 	ldrd	r2, r3, [sp, #104]	; 0x68
  400b18:	e9dd 0102 	ldrd	r0, r1, [sp, #8]
  400b1c:	1812      	adds	r2, r2, r0
  400b1e:	414b      	adcs	r3, r1
  400b20:	e9dd 0120 	ldrd	r0, r1, [sp, #128]	; 0x80
  400b24:	1880      	adds	r0, r0, r2
  400b26:	4159      	adcs	r1, r3
  400b28:	e9cd 0102 	strd	r0, r1, [sp, #8]
  400b2c:	1902      	adds	r2, r0, r4
  400b2e:	eb41 0305 	adc.w	r3, r1, r5
  400b32:	e9cd 231a 	strd	r2, r3, [sp, #104]	; 0x68

00400b36 <.LBB427>:
  400b36:	e9dd 452e 	ldrd	r4, r5, [sp, #184]	; 0xb8
  400b3a:	0f23      	lsrs	r3, r4, #28
  400b3c:	ea43 1305 	orr.w	r3, r3, r5, lsl #4
  400b40:	93ba      	str	r3, [sp, #744]	; 0x2e8
  400b42:	0f2b      	lsrs	r3, r5, #28
  400b44:	ea43 1304 	orr.w	r3, r3, r4, lsl #4
  400b48:	93bb      	str	r3, [sp, #748]	; 0x2ec

00400b4a <.LBB429>:
  400b4a:	07ab      	lsls	r3, r5, #30
  400b4c:	ea43 0394 	orr.w	r3, r3, r4, lsr #2
  400b50:	93bd      	str	r3, [sp, #756]	; 0x2f4
  400b52:	07a3      	lsls	r3, r4, #30
  400b54:	ea43 0395 	orr.w	r3, r3, r5, lsr #2
  400b58:	93bc      	str	r3, [sp, #752]	; 0x2f0

00400b5a <.LBE429>:
  400b5a:	abba      	add	r3, sp, #744	; 0x2e8
  400b5c:	e9d3 1200 	ldrd	r1, r2, [r3]
  400b60:	abbc      	add	r3, sp, #752	; 0x2f0
  400b62:	e9d3 ab00 	ldrd	sl, fp, [r3]
  400b66:	ea81 010a 	eor.w	r1, r1, sl
  400b6a:	ea82 020b 	eor.w	r2, r2, fp
  400b6e:	4613      	mov	r3, r2
  400b70:	460a      	mov	r2, r1

00400b72 <.LBB431>:
  400b72:	0669      	lsls	r1, r5, #25
  400b74:	ea41 11d4 	orr.w	r1, r1, r4, lsr #7
  400b78:	91bf      	str	r1, [sp, #764]	; 0x2fc
  400b7a:	0661      	lsls	r1, r4, #25
  400b7c:	ea41 11d5 	orr.w	r1, r1, r5, lsr #7
  400b80:	91be      	str	r1, [sp, #760]	; 0x2f8

00400b82 <.LBE431>:
  400b82:	a9be      	add	r1, sp, #760	; 0x2f8
  400b84:	e9d1 0100 	ldrd	r0, r1, [r1]
  400b88:	4050      	eors	r0, r2
  400b8a:	4059      	eors	r1, r3
  400b8c:	f50d 63d8 	add.w	r3, sp, #1728	; 0x6c0
  400b90:	e9c3 0100 	strd	r0, r1, [r3]
  400b94:	e9dd ab2a 	ldrd	sl, fp, [sp, #168]	; 0xa8
  400b98:	4650      	mov	r0, sl
  400b9a:	4659      	mov	r1, fp
  400b9c:	46a0      	mov	r8, r4
  400b9e:	4320      	orrs	r0, r4
  400ba0:	4329      	orrs	r1, r5
  400ba2:	e9dd 3406 	ldrd	r3, r4, [sp, #24]
  400ba6:	4003      	ands	r3, r0
  400ba8:	400c      	ands	r4, r1
  400baa:	4618      	mov	r0, r3
  400bac:	4621      	mov	r1, r4
  400bae:	4652      	mov	r2, sl
  400bb0:	465b      	mov	r3, fp
  400bb2:	4644      	mov	r4, r8
  400bb4:	4022      	ands	r2, r4
  400bb6:	402b      	ands	r3, r5
  400bb8:	4310      	orrs	r0, r2
  400bba:	4319      	orrs	r1, r3
  400bbc:	f50d 63d8 	add.w	r3, sp, #1728	; 0x6c0
  400bc0:	e9d3 3400 	ldrd	r3, r4, [r3]
  400bc4:	181b      	adds	r3, r3, r0
  400bc6:	414c      	adcs	r4, r1
  400bc8:	4621      	mov	r1, r4
  400bca:	e9dd 4502 	ldrd	r4, r5, [sp, #8]
  400bce:	18e4      	adds	r4, r4, r3
  400bd0:	414d      	adcs	r5, r1

00400bd2 <.LBB433>:
  400bd2:	e9dd 011a 	ldrd	r0, r1, [sp, #104]	; 0x68
  400bd6:	0b83      	lsrs	r3, r0, #14
  400bd8:	ea43 4381 	orr.w	r3, r3, r1, lsl #18
  400bdc:	93c0      	str	r3, [sp, #768]	; 0x300
  400bde:	0b8b      	lsrs	r3, r1, #14
  400be0:	ea43 4380 	orr.w	r3, r3, r0, lsl #18
  400be4:	93c1      	str	r3, [sp, #772]	; 0x304

00400be6 <.LBB435>:
  400be6:	0c83      	lsrs	r3, r0, #18
  400be8:	ea43 3381 	orr.w	r3, r3, r1, lsl #14
  400bec:	93c2      	str	r3, [sp, #776]	; 0x308
  400bee:	0c8b      	lsrs	r3, r1, #18
  400bf0:	ea43 3380 	orr.w	r3, r3, r0, lsl #14
  400bf4:	93c3      	str	r3, [sp, #780]	; 0x30c

00400bf6 <.LBE435>:
        R( 4); R( 5); R( 6); R( 7);
  400bf6:	abc0      	add	r3, sp, #768	; 0x300
  400bf8:	e9d3 2300 	ldrd	r2, r3, [r3]
  400bfc:	f50d 7842 	add.w	r8, sp, #776	; 0x308
  400c00:	e9d8 ab00 	ldrd	sl, fp, [r8]
  400c04:	ea82 020a 	eor.w	r2, r2, sl
  400c08:	ea83 030b 	eor.w	r3, r3, fp

00400c0c <.LBB437>:
  400c0c:	4682      	mov	sl, r0
  400c0e:	468b      	mov	fp, r1
  400c10:	05c9      	lsls	r1, r1, #23
  400c12:	4650      	mov	r0, sl
  400c14:	ea41 215a 	orr.w	r1, r1, sl, lsr #9
  400c18:	91c5      	str	r1, [sp, #788]	; 0x314
  400c1a:	05c1      	lsls	r1, r0, #23
  400c1c:	ea41 215b 	orr.w	r1, r1, fp, lsr #9
  400c20:	91c4      	str	r1, [sp, #784]	; 0x310

00400c22 <.LBE437>:
  400c22:	a9c4      	add	r1, sp, #784	; 0x310
  400c24:	e9d1 0100 	ldrd	r0, r1, [r1]
  400c28:	4050      	eors	r0, r2
  400c2a:	4059      	eors	r1, r3
  400c2c:	e9cd 0102 	strd	r0, r1, [sp, #8]
  400c30:	e9dd 8904 	ldrd	r8, r9, [sp, #16]
  400c34:	4640      	mov	r0, r8
  400c36:	4649      	mov	r1, r9
  400c38:	e9dd 2318 	ldrd	r2, r3, [sp, #96]	; 0x60
  400c3c:	4042      	eors	r2, r0
  400c3e:	404b      	eors	r3, r1
  400c40:	4610      	mov	r0, r2
  400c42:	4619      	mov	r1, r3
  400c44:	4652      	mov	r2, sl
  400c46:	465b      	mov	r3, fp
  400c48:	4002      	ands	r2, r0
  400c4a:	400b      	ands	r3, r1
  400c4c:	4610      	mov	r0, r2
  400c4e:	4619      	mov	r1, r3
  400c50:	4642      	mov	r2, r8
  400c52:	464b      	mov	r3, r9
  400c54:	4042      	eors	r2, r0
  400c56:	404b      	eors	r3, r1
  400c58:	4610      	mov	r0, r2
  400c5a:	4619      	mov	r1, r3
  400c5c:	e9d6 2308 	ldrd	r2, r3, [r6, #32]
  400c60:	e9dd ab2c 	ldrd	sl, fp, [sp, #176]	; 0xb0
  400c64:	eb1a 0a02 	adds.w	sl, sl, r2
  400c68:	eb4b 0b03 	adc.w	fp, fp, r3
  400c6c:	eb1a 0200 	adds.w	r2, sl, r0
  400c70:	eb4b 0301 	adc.w	r3, fp, r1
  400c74:	e9cd 232c 	strd	r2, r3, [sp, #176]	; 0xb0
  400c78:	2f00      	cmp	r7, #0
  400c7a:	f001 85ef 	beq.w	40285c <.LCFI3+0x30>

00400c7e <.LBB439>:
  400c7e:	e9dd 890a 	ldrd	r8, r9, [sp, #40]	; 0x28
  400c82:	4643      	mov	r3, r8
  400c84:	085b      	lsrs	r3, r3, #1
  400c86:	464a      	mov	r2, r9
  400c88:	ea43 73c9 	orr.w	r3, r3, r9, lsl #31
  400c8c:	93c6      	str	r3, [sp, #792]	; 0x318
  400c8e:	0853      	lsrs	r3, r2, #1
  400c90:	4642      	mov	r2, r8
  400c92:	ea43 73c8 	orr.w	r3, r3, r8, lsl #31
  400c96:	93c7      	str	r3, [sp, #796]	; 0x31c

00400c98 <.LBB441>:
  400c98:	0a13      	lsrs	r3, r2, #8
  400c9a:	464a      	mov	r2, r9
  400c9c:	ea43 6309 	orr.w	r3, r3, r9, lsl #24
  400ca0:	93c8      	str	r3, [sp, #800]	; 0x320
  400ca2:	0a13      	lsrs	r3, r2, #8
  400ca4:	ea43 6308 	orr.w	r3, r3, r8, lsl #24
  400ca8:	93c9      	str	r3, [sp, #804]	; 0x324

00400caa <.LBE441>:
  400caa:	abc6      	add	r3, sp, #792	; 0x318
  400cac:	e9d3 2300 	ldrd	r2, r3, [r3]
  400cb0:	a9c8      	add	r1, sp, #800	; 0x320
  400cb2:	e9d1 ab00 	ldrd	sl, fp, [r1]
  400cb6:	ea82 020a 	eor.w	r2, r2, sl
  400cba:	ea83 030b 	eor.w	r3, r3, fp
  400cbe:	4641      	mov	r1, r8
  400cc0:	09c9      	lsrs	r1, r1, #7
  400cc2:	4648      	mov	r0, r9
  400cc4:	ea41 6149 	orr.w	r1, r1, r9, lsl #25
  400cc8:	9140      	str	r1, [sp, #256]	; 0x100
  400cca:	09c1      	lsrs	r1, r0, #7
  400ccc:	9141      	str	r1, [sp, #260]	; 0x104
  400cce:	a940      	add	r1, sp, #256	; 0x100
  400cd0:	e9d1 0100 	ldrd	r0, r1, [r1]
  400cd4:	4050      	eors	r0, r2
  400cd6:	4059      	eors	r1, r3
  400cd8:	4602      	mov	r2, r0
  400cda:	460b      	mov	r3, r1
  400cdc:	e9dd 0122 	ldrd	r0, r1, [sp, #136]	; 0x88
  400ce0:	e9dd ab26 	ldrd	sl, fp, [sp, #152]	; 0x98
  400ce4:	eb10 000a 	adds.w	r0, r0, sl
  400ce8:	eb41 010b 	adc.w	r1, r1, fp
  400cec:	eb12 0800 	adds.w	r8, r2, r0
  400cf0:	eb43 0901 	adc.w	r9, r3, r1
  400cf4:	e9cd 8922 	strd	r8, r9, [sp, #136]	; 0x88

00400cf8 <.LBB443>:
  400cf8:	e9dd 891e 	ldrd	r8, r9, [sp, #120]	; 0x78
  400cfc:	4641      	mov	r1, r8
  400cfe:	0cc9      	lsrs	r1, r1, #19
  400d00:	4648      	mov	r0, r9
  400d02:	ea41 3149 	orr.w	r1, r1, r9, lsl #13
  400d06:	91ca      	str	r1, [sp, #808]	; 0x328
  400d08:	0cc1      	lsrs	r1, r0, #19
  400d0a:	4640      	mov	r0, r8
  400d0c:	ea41 3148 	orr.w	r1, r1, r8, lsl #13
  400d10:	91cb      	str	r1, [sp, #812]	; 0x32c

00400d12 <.LBB445>:
  400d12:	4649      	mov	r1, r9
  400d14:	00c9      	lsls	r1, r1, #3
  400d16:	ea41 7158 	orr.w	r1, r1, r8, lsr #29
  400d1a:	91cd      	str	r1, [sp, #820]	; 0x334
  400d1c:	00c1      	lsls	r1, r0, #3
  400d1e:	ea41 7159 	orr.w	r1, r1, r9, lsr #29
  400d22:	91cc      	str	r1, [sp, #816]	; 0x330

00400d24 <.LBE445>:
  400d24:	abca      	add	r3, sp, #808	; 0x328
  400d26:	e9d3 0100 	ldrd	r0, r1, [r3]
  400d2a:	abcc      	add	r3, sp, #816	; 0x330
  400d2c:	e9d3 ab00 	ldrd	sl, fp, [r3]
  400d30:	ea80 000a 	eor.w	r0, r0, sl
  400d34:	ea81 010b 	eor.w	r1, r1, fp
  400d38:	4643      	mov	r3, r8
  400d3a:	099b      	lsrs	r3, r3, #6
  400d3c:	464a      	mov	r2, r9
  400d3e:	ea43 6389 	orr.w	r3, r3, r9, lsl #26
  400d42:	9342      	str	r3, [sp, #264]	; 0x108
  400d44:	0993      	lsrs	r3, r2, #6
  400d46:	9343      	str	r3, [sp, #268]	; 0x10c
  400d48:	ab42      	add	r3, sp, #264	; 0x108
  400d4a:	e9d3 2300 	ldrd	r2, r3, [r3]
  400d4e:	4042      	eors	r2, r0
  400d50:	404b      	eors	r3, r1
  400d52:	4610      	mov	r0, r2
  400d54:	4619      	mov	r1, r3
  400d56:	e9dd 2322 	ldrd	r2, r3, [sp, #136]	; 0x88
  400d5a:	1812      	adds	r2, r2, r0
  400d5c:	414b      	adcs	r3, r1
  400d5e:	e9cd 2322 	strd	r2, r3, [sp, #136]	; 0x88
  400d62:	e9dd 2302 	ldrd	r2, r3, [sp, #8]
  400d66:	e9dd 012c 	ldrd	r0, r1, [sp, #176]	; 0xb0
  400d6a:	1880      	adds	r0, r0, r2
  400d6c:	4159      	adcs	r1, r3
  400d6e:	e9dd 2322 	ldrd	r2, r3, [sp, #136]	; 0x88
  400d72:	1812      	adds	r2, r2, r0
  400d74:	414b      	adcs	r3, r1
  400d76:	4690      	mov	r8, r2
  400d78:	4699      	mov	r9, r3
  400d7a:	e9dd 2306 	ldrd	r2, r3, [sp, #24]
  400d7e:	eb12 0208 	adds.w	r2, r2, r8
  400d82:	eb43 0309 	adc.w	r3, r3, r9
  400d86:	e9cd 2306 	strd	r2, r3, [sp, #24]

00400d8a <.LBB447>:
  400d8a:	0f23      	lsrs	r3, r4, #28
  400d8c:	ea43 1305 	orr.w	r3, r3, r5, lsl #4
  400d90:	93ce      	str	r3, [sp, #824]	; 0x338
  400d92:	0f2b      	lsrs	r3, r5, #28
  400d94:	ea43 1304 	orr.w	r3, r3, r4, lsl #4
  400d98:	93cf      	str	r3, [sp, #828]	; 0x33c

00400d9a <.LBB449>:
  400d9a:	07ab      	lsls	r3, r5, #30
  400d9c:	ea43 0394 	orr.w	r3, r3, r4, lsr #2
  400da0:	93d1      	str	r3, [sp, #836]	; 0x344
  400da2:	07a3      	lsls	r3, r4, #30
  400da4:	ea43 0395 	orr.w	r3, r3, r5, lsr #2
  400da8:	93d0      	str	r3, [sp, #832]	; 0x340

00400daa <.LBE449>:
  400daa:	abce      	add	r3, sp, #824	; 0x338
  400dac:	e9d3 2300 	ldrd	r2, r3, [r3]
  400db0:	a9d0      	add	r1, sp, #832	; 0x340
  400db2:	e9d1 ab00 	ldrd	sl, fp, [r1]
  400db6:	ea82 020a 	eor.w	r2, r2, sl
  400dba:	ea83 030b 	eor.w	r3, r3, fp

00400dbe <.LBB451>:
  400dbe:	0669      	lsls	r1, r5, #25
  400dc0:	ea41 11d4 	orr.w	r1, r1, r4, lsr #7
  400dc4:	91d3      	str	r1, [sp, #844]	; 0x34c
  400dc6:	0661      	lsls	r1, r4, #25
  400dc8:	ea41 11d5 	orr.w	r1, r1, r5, lsr #7
  400dcc:	91d2      	str	r1, [sp, #840]	; 0x348

00400dce <.LBE451>:
  400dce:	a9d2      	add	r1, sp, #840	; 0x348
  400dd0:	e9d1 ab00 	ldrd	sl, fp, [r1]
  400dd4:	ea8a 0a02 	eor.w	sl, sl, r2
  400dd8:	ea8b 0b03 	eor.w	fp, fp, r3
  400ddc:	e9cd ab02 	strd	sl, fp, [sp, #8]
  400de0:	e9dd ab2e 	ldrd	sl, fp, [sp, #184]	; 0xb8
  400de4:	4650      	mov	r0, sl
  400de6:	4659      	mov	r1, fp
  400de8:	4320      	orrs	r0, r4
  400dea:	4329      	orrs	r1, r5
  400dec:	e9dd 232a 	ldrd	r2, r3, [sp, #168]	; 0xa8
  400df0:	4002      	ands	r2, r0
  400df2:	400b      	ands	r3, r1
  400df4:	ea0a 0a04 	and.w	sl, sl, r4
  400df8:	ea0b 0b05 	and.w	fp, fp, r5
  400dfc:	ea4a 0a02 	orr.w	sl, sl, r2
  400e00:	ea4b 0b03 	orr.w	fp, fp, r3
  400e04:	e9dd 2302 	ldrd	r2, r3, [sp, #8]
  400e08:	eb12 020a 	adds.w	r2, r2, sl
  400e0c:	eb43 030b 	adc.w	r3, r3, fp
  400e10:	eb18 0a02 	adds.w	sl, r8, r2
  400e14:	eb49 0b03 	adc.w	fp, r9, r3

00400e18 <.LBB453>:
  400e18:	e9dd 8906 	ldrd	r8, r9, [sp, #24]
  400e1c:	4643      	mov	r3, r8
  400e1e:	0b9b      	lsrs	r3, r3, #14
  400e20:	464a      	mov	r2, r9
  400e22:	ea43 4389 	orr.w	r3, r3, r9, lsl #18
  400e26:	93d4      	str	r3, [sp, #848]	; 0x350
  400e28:	0b93      	lsrs	r3, r2, #14
  400e2a:	4642      	mov	r2, r8
  400e2c:	ea43 4388 	orr.w	r3, r3, r8, lsl #18
  400e30:	93d5      	str	r3, [sp, #852]	; 0x354

00400e32 <.LBB455>:
  400e32:	0c93      	lsrs	r3, r2, #18
  400e34:	464a      	mov	r2, r9
  400e36:	ea43 3389 	orr.w	r3, r3, r9, lsl #14
  400e3a:	93d6      	str	r3, [sp, #856]	; 0x358
  400e3c:	0c93      	lsrs	r3, r2, #18
  400e3e:	ea43 3388 	orr.w	r3, r3, r8, lsl #14
  400e42:	93d7      	str	r3, [sp, #860]	; 0x35c

00400e44 <.LBE455>:
  400e44:	abd4      	add	r3, sp, #848	; 0x350
  400e46:	e9d3 2300 	ldrd	r2, r3, [r3]
  400e4a:	a9d6      	add	r1, sp, #856	; 0x358
  400e4c:	e9d1 0100 	ldrd	r0, r1, [r1]
  400e50:	4042      	eors	r2, r0
  400e52:	404b      	eors	r3, r1

00400e54 <.LBB457>:
  400e54:	4649      	mov	r1, r9
  400e56:	05c9      	lsls	r1, r1, #23
  400e58:	4640      	mov	r0, r8
  400e5a:	ea41 2158 	orr.w	r1, r1, r8, lsr #9
  400e5e:	91d9      	str	r1, [sp, #868]	; 0x364
  400e60:	05c1      	lsls	r1, r0, #23
  400e62:	ea41 2159 	orr.w	r1, r1, r9, lsr #9
  400e66:	91d8      	str	r1, [sp, #864]	; 0x360

00400e68 <.LBE457>:
  400e68:	a9d8      	add	r1, sp, #864	; 0x360
  400e6a:	e9d1 0100 	ldrd	r0, r1, [r1]
  400e6e:	4050      	eors	r0, r2
  400e70:	4059      	eors	r1, r3
  400e72:	e9cd 0102 	strd	r0, r1, [sp, #8]
  400e76:	e9dd 011a 	ldrd	r0, r1, [sp, #104]	; 0x68
  400e7a:	e9dd 2318 	ldrd	r2, r3, [sp, #96]	; 0x60
  400e7e:	4042      	eors	r2, r0
  400e80:	404b      	eors	r3, r1
  400e82:	4610      	mov	r0, r2
  400e84:	4619      	mov	r1, r3
  400e86:	4642      	mov	r2, r8
  400e88:	464b      	mov	r3, r9
  400e8a:	4002      	ands	r2, r0
  400e8c:	400b      	ands	r3, r1
  400e8e:	e9dd 8918 	ldrd	r8, r9, [sp, #96]	; 0x60
  400e92:	ea88 0802 	eor.w	r8, r8, r2
  400e96:	ea89 0903 	eor.w	r9, r9, r3
  400e9a:	e9d6 230a 	ldrd	r2, r3, [r6, #40]	; 0x28
  400e9e:	e9dd 0104 	ldrd	r0, r1, [sp, #16]
  400ea2:	1880      	adds	r0, r0, r2
  400ea4:	4159      	adcs	r1, r3
  400ea6:	eb18 0000 	adds.w	r0, r8, r0
  400eaa:	eb49 0101 	adc.w	r1, r9, r1
  400eae:	e9cd 0104 	strd	r0, r1, [sp, #16]
  400eb2:	2f00      	cmp	r7, #0
  400eb4:	f001 84d8 	beq.w	402868 <.LCFI3+0x3c>

00400eb8 <.LBB459>:
  400eb8:	e9dd 890e 	ldrd	r8, r9, [sp, #56]	; 0x38
  400ebc:	4643      	mov	r3, r8
  400ebe:	085b      	lsrs	r3, r3, #1
  400ec0:	464a      	mov	r2, r9
  400ec2:	ea43 73c9 	orr.w	r3, r3, r9, lsl #31
  400ec6:	93da      	str	r3, [sp, #872]	; 0x368
  400ec8:	0853      	lsrs	r3, r2, #1
  400eca:	4642      	mov	r2, r8
  400ecc:	ea43 73c8 	orr.w	r3, r3, r8, lsl #31
  400ed0:	93db      	str	r3, [sp, #876]	; 0x36c

00400ed2 <.LBB461>:
  400ed2:	0a13      	lsrs	r3, r2, #8
  400ed4:	464a      	mov	r2, r9
  400ed6:	ea43 6309 	orr.w	r3, r3, r9, lsl #24
  400eda:	93dc      	str	r3, [sp, #880]	; 0x370
  400edc:	0a13      	lsrs	r3, r2, #8
  400ede:	ea43 6308 	orr.w	r3, r3, r8, lsl #24
  400ee2:	93dd      	str	r3, [sp, #884]	; 0x374

00400ee4 <.LBE461>:
  400ee4:	abda      	add	r3, sp, #872	; 0x368
  400ee6:	e9d3 2300 	ldrd	r2, r3, [r3]
  400eea:	a9dc      	add	r1, sp, #880	; 0x370
  400eec:	e9d1 0100 	ldrd	r0, r1, [r1]
  400ef0:	4042      	eors	r2, r0
  400ef2:	404b      	eors	r3, r1
  400ef4:	4641      	mov	r1, r8
  400ef6:	09c9      	lsrs	r1, r1, #7
  400ef8:	4648      	mov	r0, r9
  400efa:	ea41 6149 	orr.w	r1, r1, r9, lsl #25
  400efe:	9144      	str	r1, [sp, #272]	; 0x110
  400f00:	09c1      	lsrs	r1, r0, #7
  400f02:	9145      	str	r1, [sp, #276]	; 0x114
  400f04:	a944      	add	r1, sp, #272	; 0x110
  400f06:	e9d1 0100 	ldrd	r0, r1, [r1]
  400f0a:	4050      	eors	r0, r2
  400f0c:	4059      	eors	r1, r3
  400f0e:	4680      	mov	r8, r0
  400f10:	4689      	mov	r9, r1
  400f12:	e9dd 010a 	ldrd	r0, r1, [sp, #40]	; 0x28
  400f16:	e9dd 230c 	ldrd	r2, r3, [sp, #48]	; 0x30
  400f1a:	1880      	adds	r0, r0, r2
  400f1c:	4159      	adcs	r1, r3
  400f1e:	eb18 0200 	adds.w	r2, r8, r0
  400f22:	eb49 0301 	adc.w	r3, r9, r1
  400f26:	e9cd 230a 	strd	r2, r3, [sp, #40]	; 0x28

00400f2a <.LBB463>:
  400f2a:	e9dd 8920 	ldrd	r8, r9, [sp, #128]	; 0x80
  400f2e:	4641      	mov	r1, r8
  400f30:	0cc9      	lsrs	r1, r1, #19
  400f32:	4648      	mov	r0, r9
  400f34:	ea41 3149 	orr.w	r1, r1, r9, lsl #13
  400f38:	91de      	str	r1, [sp, #888]	; 0x378
  400f3a:	0cc1      	lsrs	r1, r0, #19
  400f3c:	4640      	mov	r0, r8
  400f3e:	ea41 3148 	orr.w	r1, r1, r8, lsl #13
  400f42:	91df      	str	r1, [sp, #892]	; 0x37c

00400f44 <.LBB465>:
  400f44:	4649      	mov	r1, r9
  400f46:	00c9      	lsls	r1, r1, #3
  400f48:	ea41 7158 	orr.w	r1, r1, r8, lsr #29
  400f4c:	91e1      	str	r1, [sp, #900]	; 0x384
  400f4e:	00c1      	lsls	r1, r0, #3
  400f50:	ea41 7159 	orr.w	r1, r1, r9, lsr #29
  400f54:	91e0      	str	r1, [sp, #896]	; 0x380

00400f56 <.LBE465>:
  400f56:	abde      	add	r3, sp, #888	; 0x378
  400f58:	e9d3 0100 	ldrd	r0, r1, [r3]
  400f5c:	abe0      	add	r3, sp, #896	; 0x380
  400f5e:	e9d3 2300 	ldrd	r2, r3, [r3]
  400f62:	4050      	eors	r0, r2
  400f64:	4059      	eors	r1, r3
  400f66:	4643      	mov	r3, r8
  400f68:	099b      	lsrs	r3, r3, #6
  400f6a:	464a      	mov	r2, r9
  400f6c:	ea43 6389 	orr.w	r3, r3, r9, lsl #26
  400f70:	9346      	str	r3, [sp, #280]	; 0x118
  400f72:	0993      	lsrs	r3, r2, #6
  400f74:	9347      	str	r3, [sp, #284]	; 0x11c
  400f76:	ab46      	add	r3, sp, #280	; 0x118
  400f78:	e9d3 2300 	ldrd	r2, r3, [r3]
  400f7c:	4042      	eors	r2, r0
  400f7e:	404b      	eors	r3, r1
  400f80:	4610      	mov	r0, r2
  400f82:	4619      	mov	r1, r3
  400f84:	e9dd 230a 	ldrd	r2, r3, [sp, #40]	; 0x28
  400f88:	1812      	adds	r2, r2, r0
  400f8a:	414b      	adcs	r3, r1
  400f8c:	e9cd 230a 	strd	r2, r3, [sp, #40]	; 0x28
  400f90:	e9dd 2302 	ldrd	r2, r3, [sp, #8]
  400f94:	e9dd 0104 	ldrd	r0, r1, [sp, #16]
  400f98:	1812      	adds	r2, r2, r0
  400f9a:	414b      	adcs	r3, r1
  400f9c:	e9dd 010a 	ldrd	r0, r1, [sp, #40]	; 0x28
  400fa0:	1880      	adds	r0, r0, r2
  400fa2:	4159      	adcs	r1, r3
  400fa4:	e9dd 232a 	ldrd	r2, r3, [sp, #168]	; 0xa8
  400fa8:	e9cd 0102 	strd	r0, r1, [sp, #8]
  400fac:	1812      	adds	r2, r2, r0
  400fae:	414b      	adcs	r3, r1
  400fb0:	e9cd 2304 	strd	r2, r3, [sp, #16]

00400fb4 <.LBB467>:
  400fb4:	ea4f 731a 	mov.w	r3, sl, lsr #28
  400fb8:	ea43 130b 	orr.w	r3, r3, fp, lsl #4
  400fbc:	93e2      	str	r3, [sp, #904]	; 0x388
  400fbe:	ea4f 731b 	mov.w	r3, fp, lsr #28
  400fc2:	ea43 130a 	orr.w	r3, r3, sl, lsl #4
  400fc6:	93e3      	str	r3, [sp, #908]	; 0x38c

00400fc8 <.LBB469>:
  400fc8:	ea4f 738b 	mov.w	r3, fp, lsl #30
  400fcc:	ea43 039a 	orr.w	r3, r3, sl, lsr #2
  400fd0:	93e5      	str	r3, [sp, #916]	; 0x394
  400fd2:	ea4f 738a 	mov.w	r3, sl, lsl #30
  400fd6:	ea43 039b 	orr.w	r3, r3, fp, lsr #2
  400fda:	93e4      	str	r3, [sp, #912]	; 0x390

00400fdc <.LBE469>:
  400fdc:	abe2      	add	r3, sp, #904	; 0x388
  400fde:	e9d3 1200 	ldrd	r1, r2, [r3]
  400fe2:	abe4      	add	r3, sp, #912	; 0x390
  400fe4:	e9d3 8900 	ldrd	r8, r9, [r3]
  400fe8:	ea81 0108 	eor.w	r1, r1, r8
  400fec:	ea82 0209 	eor.w	r2, r2, r9
  400ff0:	4613      	mov	r3, r2
  400ff2:	460a      	mov	r2, r1

00400ff4 <.LBB471>:
  400ff4:	ea4f 614b 	mov.w	r1, fp, lsl #25
  400ff8:	ea41 11da 	orr.w	r1, r1, sl, lsr #7
  400ffc:	91e7      	str	r1, [sp, #924]	; 0x39c
  400ffe:	ea4f 614a 	mov.w	r1, sl, lsl #25
  401002:	ea41 11db 	orr.w	r1, r1, fp, lsr #7
  401006:	91e6      	str	r1, [sp, #920]	; 0x398

00401008 <.LBE471>:
  401008:	a9e6      	add	r1, sp, #920	; 0x398
  40100a:	e9d1 0100 	ldrd	r0, r1, [r1]
  40100e:	4050      	eors	r0, r2
  401010:	4059      	eors	r1, r3
  401012:	4680      	mov	r8, r0
  401014:	4689      	mov	r9, r1
  401016:	ea44 000a 	orr.w	r0, r4, sl
  40101a:	ea45 010b 	orr.w	r1, r5, fp
  40101e:	e9dd 232e 	ldrd	r2, r3, [sp, #184]	; 0xb8
  401022:	4002      	ands	r2, r0
  401024:	400b      	ands	r3, r1
  401026:	4610      	mov	r0, r2
  401028:	4619      	mov	r1, r3
  40102a:	ea04 020a 	and.w	r2, r4, sl
  40102e:	ea05 030b 	and.w	r3, r5, fp
  401032:	4302      	orrs	r2, r0
  401034:	430b      	orrs	r3, r1
  401036:	eb12 0008 	adds.w	r0, r2, r8
  40103a:	eb43 0109 	adc.w	r1, r3, r9
  40103e:	e9dd 2302 	ldrd	r2, r3, [sp, #8]
  401042:	1812      	adds	r2, r2, r0
  401044:	414b      	adcs	r3, r1
  401046:	e9cd 232a 	strd	r2, r3, [sp, #168]	; 0xa8

0040104a <.LBB473>:
  40104a:	e9dd 0104 	ldrd	r0, r1, [sp, #16]
  40104e:	0b83      	lsrs	r3, r0, #14
  401050:	ea43 4381 	orr.w	r3, r3, r1, lsl #18
  401054:	93e8      	str	r3, [sp, #928]	; 0x3a0
  401056:	0b8b      	lsrs	r3, r1, #14
  401058:	ea43 4380 	orr.w	r3, r3, r0, lsl #18
  40105c:	93e9      	str	r3, [sp, #932]	; 0x3a4

0040105e <.LBB475>:
  40105e:	0c83      	lsrs	r3, r0, #18
  401060:	ea43 3381 	orr.w	r3, r3, r1, lsl #14
  401064:	93ea      	str	r3, [sp, #936]	; 0x3a8
  401066:	0c8b      	lsrs	r3, r1, #18
  401068:	ea43 3380 	orr.w	r3, r3, r0, lsl #14
  40106c:	93eb      	str	r3, [sp, #940]	; 0x3ac

0040106e <.LBE475>:
  40106e:	abe8      	add	r3, sp, #928	; 0x3a0
  401070:	e9d3 2300 	ldrd	r2, r3, [r3]
  401074:	f50d 786a 	add.w	r8, sp, #936	; 0x3a8
  401078:	e9d8 8900 	ldrd	r8, r9, [r8]
  40107c:	ea82 0208 	eor.w	r2, r2, r8
  401080:	ea83 0309 	eor.w	r3, r3, r9

00401084 <.LBB477>:
  401084:	4680      	mov	r8, r0
  401086:	4689      	mov	r9, r1
  401088:	05c9      	lsls	r1, r1, #23
  40108a:	4640      	mov	r0, r8
  40108c:	ea41 2158 	orr.w	r1, r1, r8, lsr #9
  401090:	91ed      	str	r1, [sp, #948]	; 0x3b4
  401092:	05c1      	lsls	r1, r0, #23
  401094:	ea41 2159 	orr.w	r1, r1, r9, lsr #9
  401098:	91ec      	str	r1, [sp, #944]	; 0x3b0

0040109a <.LBE477>:
  40109a:	a9ec      	add	r1, sp, #944	; 0x3b0
  40109c:	e9d1 0100 	ldrd	r0, r1, [r1]
  4010a0:	4050      	eors	r0, r2
  4010a2:	4059      	eors	r1, r3
  4010a4:	e9cd 0102 	strd	r0, r1, [sp, #8]
  4010a8:	e9dd 011a 	ldrd	r0, r1, [sp, #104]	; 0x68
  4010ac:	e9dd 8906 	ldrd	r8, r9, [sp, #24]
  4010b0:	ea80 0008 	eor.w	r0, r0, r8
  4010b4:	ea81 0109 	eor.w	r1, r1, r9
  4010b8:	e9dd 2304 	ldrd	r2, r3, [sp, #16]
  4010bc:	4002      	ands	r2, r0
  4010be:	400b      	ands	r3, r1
  4010c0:	4610      	mov	r0, r2
  4010c2:	4619      	mov	r1, r3
  4010c4:	e9dd 231a 	ldrd	r2, r3, [sp, #104]	; 0x68
  4010c8:	4042      	eors	r2, r0
  4010ca:	404b      	eors	r3, r1
  4010cc:	4610      	mov	r0, r2
  4010ce:	4619      	mov	r1, r3
  4010d0:	e9d6 230c 	ldrd	r2, r3, [r6, #48]	; 0x30
  4010d4:	e9dd 8918 	ldrd	r8, r9, [sp, #96]	; 0x60
  4010d8:	eb18 0802 	adds.w	r8, r8, r2
  4010dc:	eb49 0903 	adc.w	r9, r9, r3
  4010e0:	eb18 0200 	adds.w	r2, r8, r0
  4010e4:	eb49 0301 	adc.w	r3, r9, r1
  4010e8:	e9cd 2318 	strd	r2, r3, [sp, #96]	; 0x60
  4010ec:	2f00      	cmp	r7, #0
  4010ee:	f001 83c1 	beq.w	402874 <.LCFI3+0x48>

004010f2 <.LBB479>:
  4010f2:	e9dd 0110 	ldrd	r0, r1, [sp, #64]	; 0x40
  4010f6:	0843      	lsrs	r3, r0, #1
  4010f8:	ea43 73c1 	orr.w	r3, r3, r1, lsl #31
  4010fc:	93ee      	str	r3, [sp, #952]	; 0x3b8
  4010fe:	084b      	lsrs	r3, r1, #1
  401100:	ea43 73c0 	orr.w	r3, r3, r0, lsl #31
  401104:	93ef      	str	r3, [sp, #956]	; 0x3bc

00401106 <.LBB481>:
  401106:	0a03      	lsrs	r3, r0, #8
  401108:	ea43 6301 	orr.w	r3, r3, r1, lsl #24
  40110c:	93f0      	str	r3, [sp, #960]	; 0x3c0
  40110e:	0a0b      	lsrs	r3, r1, #8
  401110:	ea43 6300 	orr.w	r3, r3, r0, lsl #24
  401114:	93f1      	str	r3, [sp, #964]	; 0x3c4

00401116 <.LBE481>:
  401116:	abee      	add	r3, sp, #952	; 0x3b8
  401118:	e9d3 2300 	ldrd	r2, r3, [r3]
  40111c:	f50d 7870 	add.w	r8, sp, #960	; 0x3c0
  401120:	e9d8 8900 	ldrd	r8, r9, [r8]
  401124:	ea82 0208 	eor.w	r2, r2, r8
  401128:	ea83 0309 	eor.w	r3, r3, r9
  40112c:	4689      	mov	r9, r1
  40112e:	09c1      	lsrs	r1, r0, #7
  401130:	4648      	mov	r0, r9
  401132:	ea41 6149 	orr.w	r1, r1, r9, lsl #25
  401136:	9148      	str	r1, [sp, #288]	; 0x120
  401138:	09c1      	lsrs	r1, r0, #7
  40113a:	9149      	str	r1, [sp, #292]	; 0x124
  40113c:	a948      	add	r1, sp, #288	; 0x120
  40113e:	e9d1 0100 	ldrd	r0, r1, [r1]
  401142:	4050      	eors	r0, r2
  401144:	4059      	eors	r1, r3
  401146:	4602      	mov	r2, r0
  401148:	460b      	mov	r3, r1
  40114a:	e9dd 0128 	ldrd	r0, r1, [sp, #160]	; 0xa0
  40114e:	e9dd 890e 	ldrd	r8, r9, [sp, #56]	; 0x38
  401152:	eb10 0008 	adds.w	r0, r0, r8
  401156:	eb41 0109 	adc.w	r1, r1, r9
  40115a:	eb12 0800 	adds.w	r8, r2, r0
  40115e:	eb43 0901 	adc.w	r9, r3, r1
  401162:	e9cd 890e 	strd	r8, r9, [sp, #56]	; 0x38

00401166 <.LBB483>:
  401166:	e9dd 2322 	ldrd	r2, r3, [sp, #136]	; 0x88
  40116a:	0cd1      	lsrs	r1, r2, #19
  40116c:	ea41 3143 	orr.w	r1, r1, r3, lsl #13
  401170:	91f2      	str	r1, [sp, #968]	; 0x3c8
  401172:	0cd9      	lsrs	r1, r3, #19
  401174:	ea41 3142 	orr.w	r1, r1, r2, lsl #13
  401178:	91f3      	str	r1, [sp, #972]	; 0x3cc

0040117a <.LBB485>:
  40117a:	00d9      	lsls	r1, r3, #3
  40117c:	ea41 7152 	orr.w	r1, r1, r2, lsr #29
  401180:	91f5      	str	r1, [sp, #980]	; 0x3d4
  401182:	00d1      	lsls	r1, r2, #3
  401184:	ea41 7153 	orr.w	r1, r1, r3, lsr #29
  401188:	91f4      	str	r1, [sp, #976]	; 0x3d0

0040118a <.LBE485>:
  40118a:	a9f2      	add	r1, sp, #968	; 0x3c8
  40118c:	e9d1 0100 	ldrd	r0, r1, [r1]
  401190:	f50d 7874 	add.w	r8, sp, #976	; 0x3d0
  401194:	e9d8 8900 	ldrd	r8, r9, [r8]
  401198:	ea80 0008 	eor.w	r0, r0, r8
  40119c:	ea81 0109 	eor.w	r1, r1, r9
  4011a0:	4699      	mov	r9, r3
  4011a2:	0993      	lsrs	r3, r2, #6
  4011a4:	464a      	mov	r2, r9
  4011a6:	ea43 6389 	orr.w	r3, r3, r9, lsl #26
  4011aa:	934a      	str	r3, [sp, #296]	; 0x128
  4011ac:	0993      	lsrs	r3, r2, #6
  4011ae:	934b      	str	r3, [sp, #300]	; 0x12c
  4011b0:	ab4a      	add	r3, sp, #296	; 0x128
  4011b2:	e9d3 2300 	ldrd	r2, r3, [r3]
  4011b6:	4042      	eors	r2, r0
  4011b8:	404b      	eors	r3, r1
  4011ba:	4610      	mov	r0, r2
  4011bc:	4619      	mov	r1, r3
  4011be:	e9dd 230e 	ldrd	r2, r3, [sp, #56]	; 0x38
  4011c2:	1812      	adds	r2, r2, r0
  4011c4:	414b      	adcs	r3, r1
  4011c6:	e9cd 230e 	strd	r2, r3, [sp, #56]	; 0x38
  4011ca:	e9dd 2302 	ldrd	r2, r3, [sp, #8]
  4011ce:	e9dd 0118 	ldrd	r0, r1, [sp, #96]	; 0x60
  4011d2:	1880      	adds	r0, r0, r2
  4011d4:	4159      	adcs	r1, r3
  4011d6:	e9dd 230e 	ldrd	r2, r3, [sp, #56]	; 0x38
  4011da:	1812      	adds	r2, r2, r0
  4011dc:	414b      	adcs	r3, r1
  4011de:	4610      	mov	r0, r2
  4011e0:	4619      	mov	r1, r3
  4011e2:	e9dd 232e 	ldrd	r2, r3, [sp, #184]	; 0xb8
  4011e6:	e9cd 0118 	strd	r0, r1, [sp, #96]	; 0x60
  4011ea:	1880      	adds	r0, r0, r2
  4011ec:	4159      	adcs	r1, r3
  4011ee:	4602      	mov	r2, r0
  4011f0:	460b      	mov	r3, r1
  4011f2:	e9cd 2302 	strd	r2, r3, [sp, #8]

004011f6 <.LBB487>:
  4011f6:	e9dd 892a 	ldrd	r8, r9, [sp, #168]	; 0xa8
  4011fa:	4643      	mov	r3, r8
  4011fc:	0f1b      	lsrs	r3, r3, #28
  4011fe:	464a      	mov	r2, r9
  401200:	ea43 1309 	orr.w	r3, r3, r9, lsl #4
  401204:	93f6      	str	r3, [sp, #984]	; 0x3d8
  401206:	0f13      	lsrs	r3, r2, #28
  401208:	4642      	mov	r2, r8
  40120a:	ea43 1308 	orr.w	r3, r3, r8, lsl #4
  40120e:	93f7      	str	r3, [sp, #988]	; 0x3dc

00401210 <.LBB489>:
  401210:	464b      	mov	r3, r9
  401212:	079b      	lsls	r3, r3, #30
  401214:	ea43 0398 	orr.w	r3, r3, r8, lsr #2
  401218:	93f9      	str	r3, [sp, #996]	; 0x3e4
  40121a:	0793      	lsls	r3, r2, #30
  40121c:	ea43 0399 	orr.w	r3, r3, r9, lsr #2
  401220:	93f8      	str	r3, [sp, #992]	; 0x3e0

00401222 <.LBE489>:
  401222:	abf6      	add	r3, sp, #984	; 0x3d8
  401224:	e9d3 2300 	ldrd	r2, r3, [r3]
  401228:	a9f8      	add	r1, sp, #992	; 0x3e0
  40122a:	e9d1 0100 	ldrd	r0, r1, [r1]
  40122e:	4042      	eors	r2, r0
  401230:	404b      	eors	r3, r1

00401232 <.LBB491>:
  401232:	4649      	mov	r1, r9
  401234:	0649      	lsls	r1, r1, #25
  401236:	4640      	mov	r0, r8
  401238:	ea41 11d8 	orr.w	r1, r1, r8, lsr #7
  40123c:	91fb      	str	r1, [sp, #1004]	; 0x3ec
  40123e:	0641      	lsls	r1, r0, #25
  401240:	ea41 11d9 	orr.w	r1, r1, r9, lsr #7
  401244:	91fa      	str	r1, [sp, #1000]	; 0x3e8

00401246 <.LBE491>:
  401246:	a9fa      	add	r1, sp, #1000	; 0x3e8
  401248:	e9d1 0100 	ldrd	r0, r1, [r1]
  40124c:	4050      	eors	r0, r2
  40124e:	4059      	eors	r1, r3
  401250:	4602      	mov	r2, r0
  401252:	460b      	mov	r3, r1
  401254:	ea48 000a 	orr.w	r0, r8, sl
  401258:	ea49 010b 	orr.w	r1, r9, fp
  40125c:	4020      	ands	r0, r4
  40125e:	4029      	ands	r1, r5
  401260:	ea08 080a 	and.w	r8, r8, sl
  401264:	ea09 090b 	and.w	r9, r9, fp
  401268:	ea48 0800 	orr.w	r8, r8, r0
  40126c:	ea49 0901 	orr.w	r9, r9, r1
  401270:	eb18 0002 	adds.w	r0, r8, r2
  401274:	eb49 0103 	adc.w	r1, r9, r3
  401278:	e9dd 8918 	ldrd	r8, r9, [sp, #96]	; 0x60
  40127c:	eb18 0800 	adds.w	r8, r8, r0
  401280:	eb49 0901 	adc.w	r9, r9, r1

00401284 <.LBB493>:
  401284:	e9dd 0102 	ldrd	r0, r1, [sp, #8]
  401288:	0b83      	lsrs	r3, r0, #14
  40128a:	ea43 4381 	orr.w	r3, r3, r1, lsl #18
  40128e:	93fc      	str	r3, [sp, #1008]	; 0x3f0
  401290:	0b8b      	lsrs	r3, r1, #14
  401292:	ea43 4380 	orr.w	r3, r3, r0, lsl #18
  401296:	93fd      	str	r3, [sp, #1012]	; 0x3f4

00401298 <.LBB495>:
  401298:	0c83      	lsrs	r3, r0, #18
  40129a:	ea43 3381 	orr.w	r3, r3, r1, lsl #14
  40129e:	93fe      	str	r3, [sp, #1016]	; 0x3f8
  4012a0:	0c8b      	lsrs	r3, r1, #18
  4012a2:	ea43 3380 	orr.w	r3, r3, r0, lsl #14
  4012a6:	93ff      	str	r3, [sp, #1020]	; 0x3fc

004012a8 <.LBE495>:
  4012a8:	abfc      	add	r3, sp, #1008	; 0x3f0
  4012aa:	e9d3 2300 	ldrd	r2, r3, [r3]
  4012ae:	a9fe      	add	r1, sp, #1016	; 0x3f8
  4012b0:	e9d1 0100 	ldrd	r0, r1, [r1]
  4012b4:	4042      	eors	r2, r0
  4012b6:	404b      	eors	r3, r1

004012b8 <.LBB497>:
  4012b8:	9903      	ldr	r1, [sp, #12]
  4012ba:	05c9      	lsls	r1, r1, #23
  4012bc:	9802      	ldr	r0, [sp, #8]
  4012be:	ea41 2150 	orr.w	r1, r1, r0, lsr #9
  4012c2:	f8cd 1404 	str.w	r1, [sp, #1028]	; 0x404
  4012c6:	05c1      	lsls	r1, r0, #23
  4012c8:	9803      	ldr	r0, [sp, #12]
  4012ca:	ea41 2150 	orr.w	r1, r1, r0, lsr #9
  4012ce:	f8cd 1400 	str.w	r1, [sp, #1024]	; 0x400

004012d2 <.LBE497>:
  4012d2:	f50d 6180 	add.w	r1, sp, #1024	; 0x400
  4012d6:	e9d1 0100 	ldrd	r0, r1, [r1]
  4012da:	4050      	eors	r0, r2
  4012dc:	4059      	eors	r1, r3
  4012de:	e9cd 0118 	strd	r0, r1, [sp, #96]	; 0x60
  4012e2:	e9dd 0106 	ldrd	r0, r1, [sp, #24]
  4012e6:	e9dd 2304 	ldrd	r2, r3, [sp, #16]
  4012ea:	4050      	eors	r0, r2
  4012ec:	4059      	eors	r1, r3
  4012ee:	e9dd 2302 	ldrd	r2, r3, [sp, #8]
  4012f2:	4002      	ands	r2, r0
  4012f4:	400b      	ands	r3, r1
  4012f6:	4610      	mov	r0, r2
  4012f8:	4619      	mov	r1, r3
  4012fa:	e9dd 2306 	ldrd	r2, r3, [sp, #24]
  4012fe:	4042      	eors	r2, r0
  401300:	404b      	eors	r3, r1
  401302:	e9cd 232c 	strd	r2, r3, [sp, #176]	; 0xb0
  401306:	e9d6 230e 	ldrd	r2, r3, [r6, #56]	; 0x38
  40130a:	e9dd 011a 	ldrd	r0, r1, [sp, #104]	; 0x68
  40130e:	1880      	adds	r0, r0, r2
  401310:	4159      	adcs	r1, r3
  401312:	4602      	mov	r2, r0
  401314:	460b      	mov	r3, r1
  401316:	e9dd 012c 	ldrd	r0, r1, [sp, #176]	; 0xb0
  40131a:	1880      	adds	r0, r0, r2
  40131c:	4159      	adcs	r1, r3
  40131e:	e9cd 011a 	strd	r0, r1, [sp, #104]	; 0x68
  401322:	2f00      	cmp	r7, #0
  401324:	f001 82ac 	beq.w	402880 <.LCFI3+0x54>

00401328 <.LBB499>:
  401328:	e9dd 0100 	ldrd	r0, r1, [sp]
  40132c:	0843      	lsrs	r3, r0, #1
  40132e:	ea43 73c1 	orr.w	r3, r3, r1, lsl #31
  401332:	f8cd 3408 	str.w	r3, [sp, #1032]	; 0x408
  401336:	084b      	lsrs	r3, r1, #1
  401338:	ea43 73c0 	orr.w	r3, r3, r0, lsl #31
  40133c:	f8cd 340c 	str.w	r3, [sp, #1036]	; 0x40c

00401340 <.LBB501>:
  401340:	0a03      	lsrs	r3, r0, #8
  401342:	ea43 6301 	orr.w	r3, r3, r1, lsl #24
  401346:	f8cd 3410 	str.w	r3, [sp, #1040]	; 0x410
  40134a:	0a0b      	lsrs	r3, r1, #8
  40134c:	ea43 6300 	orr.w	r3, r3, r0, lsl #24
  401350:	f8cd 3414 	str.w	r3, [sp, #1044]	; 0x414

00401354 <.LBE501>:
  401354:	f50d 6381 	add.w	r3, sp, #1032	; 0x408
  401358:	e9d3 2300 	ldrd	r2, r3, [r3]
  40135c:	f50d 6182 	add.w	r1, sp, #1040	; 0x410
  401360:	e9d1 0100 	ldrd	r0, r1, [r1]
  401364:	4042      	eors	r2, r0
  401366:	404b      	eors	r3, r1
  401368:	9900      	ldr	r1, [sp, #0]
  40136a:	09c9      	lsrs	r1, r1, #7
  40136c:	9801      	ldr	r0, [sp, #4]
  40136e:	ea41 6140 	orr.w	r1, r1, r0, lsl #25
  401372:	914c      	str	r1, [sp, #304]	; 0x130
  401374:	09c1      	lsrs	r1, r0, #7
  401376:	914d      	str	r1, [sp, #308]	; 0x134
  401378:	a94c      	add	r1, sp, #304	; 0x130
  40137a:	e9d1 0100 	ldrd	r0, r1, [r1]
  40137e:	4050      	eors	r0, r2
  401380:	4059      	eors	r1, r3
  401382:	4602      	mov	r2, r0
  401384:	460b      	mov	r3, r1
  401386:	e9dd 0110 	ldrd	r0, r1, [sp, #64]	; 0x40
  40138a:	1880      	adds	r0, r0, r2
  40138c:	4159      	adcs	r1, r3
  40138e:	4602      	mov	r2, r0
  401390:	460b      	mov	r3, r1
  401392:	e9dd 011c 	ldrd	r0, r1, [sp, #112]	; 0x70
  401396:	1880      	adds	r0, r0, r2
  401398:	4159      	adcs	r1, r3
  40139a:	e9cd 0110 	strd	r0, r1, [sp, #64]	; 0x40

0040139e <.LBB503>:
  40139e:	e9dd 230a 	ldrd	r2, r3, [sp, #40]	; 0x28
  4013a2:	0cd1      	lsrs	r1, r2, #19
  4013a4:	ea41 3143 	orr.w	r1, r1, r3, lsl #13
  4013a8:	f8cd 1418 	str.w	r1, [sp, #1048]	; 0x418
  4013ac:	0cd9      	lsrs	r1, r3, #19
  4013ae:	ea41 3142 	orr.w	r1, r1, r2, lsl #13
  4013b2:	f8cd 141c 	str.w	r1, [sp, #1052]	; 0x41c

004013b6 <.LBB505>:
  4013b6:	00d9      	lsls	r1, r3, #3
  4013b8:	ea41 7152 	orr.w	r1, r1, r2, lsr #29
  4013bc:	f8cd 1424 	str.w	r1, [sp, #1060]	; 0x424
  4013c0:	00d1      	lsls	r1, r2, #3
  4013c2:	ea41 7153 	orr.w	r1, r1, r3, lsr #29
  4013c6:	f8cd 1420 	str.w	r1, [sp, #1056]	; 0x420

004013ca <.LBE505>:
  4013ca:	f50d 6383 	add.w	r3, sp, #1048	; 0x418
  4013ce:	e9d3 0100 	ldrd	r0, r1, [r3]
  4013d2:	f50d 6384 	add.w	r3, sp, #1056	; 0x420
  4013d6:	e9d3 2300 	ldrd	r2, r3, [r3]
  4013da:	4050      	eors	r0, r2
  4013dc:	4059      	eors	r1, r3
  4013de:	9b0a      	ldr	r3, [sp, #40]	; 0x28
  4013e0:	099b      	lsrs	r3, r3, #6
  4013e2:	9a0b      	ldr	r2, [sp, #44]	; 0x2c
  4013e4:	ea43 6382 	orr.w	r3, r3, r2, lsl #26
  4013e8:	934e      	str	r3, [sp, #312]	; 0x138
  4013ea:	0993      	lsrs	r3, r2, #6
  4013ec:	934f      	str	r3, [sp, #316]	; 0x13c
  4013ee:	ab4e      	add	r3, sp, #312	; 0x138
  4013f0:	e9d3 2300 	ldrd	r2, r3, [r3]
  4013f4:	4042      	eors	r2, r0
  4013f6:	404b      	eors	r3, r1
  4013f8:	4610      	mov	r0, r2
  4013fa:	4619      	mov	r1, r3
  4013fc:	e9dd 2310 	ldrd	r2, r3, [sp, #64]	; 0x40
  401400:	1812      	adds	r2, r2, r0
  401402:	414b      	adcs	r3, r1
  401404:	e9cd 2310 	strd	r2, r3, [sp, #64]	; 0x40
  401408:	e9dd 2318 	ldrd	r2, r3, [sp, #96]	; 0x60
  40140c:	e9dd 011a 	ldrd	r0, r1, [sp, #104]	; 0x68
  401410:	1812      	adds	r2, r2, r0
  401412:	414b      	adcs	r3, r1
  401414:	e9dd 0110 	ldrd	r0, r1, [sp, #64]	; 0x40
  401418:	1880      	adds	r0, r0, r2
  40141a:	4159      	adcs	r1, r3
  40141c:	e9cd 011a 	strd	r0, r1, [sp, #104]	; 0x68
  401420:	1902      	adds	r2, r0, r4
  401422:	eb41 0305 	adc.w	r3, r1, r5
  401426:	e9cd 2318 	strd	r2, r3, [sp, #96]	; 0x60

0040142a <.LBB507>:
  40142a:	ea4f 7318 	mov.w	r3, r8, lsr #28
  40142e:	ea43 1309 	orr.w	r3, r3, r9, lsl #4
  401432:	f8cd 3428 	str.w	r3, [sp, #1064]	; 0x428
  401436:	ea4f 7319 	mov.w	r3, r9, lsr #28
  40143a:	ea43 1308 	orr.w	r3, r3, r8, lsl #4
  40143e:	f8cd 342c 	str.w	r3, [sp, #1068]	; 0x42c

00401442 <.LBB509>:
  401442:	ea4f 7389 	mov.w	r3, r9, lsl #30
  401446:	ea43 0398 	orr.w	r3, r3, r8, lsr #2
  40144a:	f8cd 3434 	str.w	r3, [sp, #1076]	; 0x434
  40144e:	ea4f 7388 	mov.w	r3, r8, lsl #30
  401452:	ea43 0399 	orr.w	r3, r3, r9, lsr #2
  401456:	f8cd 3430 	str.w	r3, [sp, #1072]	; 0x430

0040145a <.LBE509>:
  40145a:	f50d 6385 	add.w	r3, sp, #1064	; 0x428
  40145e:	e9d3 1200 	ldrd	r1, r2, [r3]
  401462:	f50d 6386 	add.w	r3, sp, #1072	; 0x430
  401466:	e9d3 3400 	ldrd	r3, r4, [r3]
  40146a:	4059      	eors	r1, r3
  40146c:	4062      	eors	r2, r4
  40146e:	4613      	mov	r3, r2
  401470:	460a      	mov	r2, r1

00401472 <.LBB511>:
  401472:	ea4f 6149 	mov.w	r1, r9, lsl #25
  401476:	ea41 11d8 	orr.w	r1, r1, r8, lsr #7
  40147a:	f8cd 143c 	str.w	r1, [sp, #1084]	; 0x43c
  40147e:	ea4f 6148 	mov.w	r1, r8, lsl #25
  401482:	ea41 11d9 	orr.w	r1, r1, r9, lsr #7
  401486:	f8cd 1438 	str.w	r1, [sp, #1080]	; 0x438

0040148a <.LBE511>:
  40148a:	f50d 6187 	add.w	r1, sp, #1080	; 0x438
  40148e:	e9d1 0100 	ldrd	r0, r1, [r1]
  401492:	4050      	eors	r0, r2
  401494:	4059      	eors	r1, r3
  401496:	4602      	mov	r2, r0
  401498:	460b      	mov	r3, r1
  40149a:	e9dd 452a 	ldrd	r4, r5, [sp, #168]	; 0xa8
  40149e:	ea44 0008 	orr.w	r0, r4, r8
  4014a2:	ea45 0109 	orr.w	r1, r5, r9
  4014a6:	ea00 000a 	and.w	r0, r0, sl
  4014aa:	ea01 010b 	and.w	r1, r1, fp
  4014ae:	ea04 0408 	and.w	r4, r4, r8
  4014b2:	ea05 0509 	and.w	r5, r5, r9
  4014b6:	4320      	orrs	r0, r4
  4014b8:	4329      	orrs	r1, r5
  4014ba:	1880      	adds	r0, r0, r2
  4014bc:	4159      	adcs	r1, r3
  4014be:	e9dd 341a 	ldrd	r3, r4, [sp, #104]	; 0x68
  4014c2:	181b      	adds	r3, r3, r0
  4014c4:	414c      	adcs	r4, r1
  4014c6:	e9cd 341a 	strd	r3, r4, [sp, #104]	; 0x68

004014ca <.LBB513>:
  4014ca:	e9dd 4518 	ldrd	r4, r5, [sp, #96]	; 0x60
  4014ce:	0ba3      	lsrs	r3, r4, #14
  4014d0:	ea43 4385 	orr.w	r3, r3, r5, lsl #18
  4014d4:	f8cd 3440 	str.w	r3, [sp, #1088]	; 0x440
  4014d8:	0bab      	lsrs	r3, r5, #14
  4014da:	ea43 4384 	orr.w	r3, r3, r4, lsl #18
  4014de:	f8cd 3444 	str.w	r3, [sp, #1092]	; 0x444

004014e2 <.LBB515>:
  4014e2:	0ca3      	lsrs	r3, r4, #18
  4014e4:	ea43 3385 	orr.w	r3, r3, r5, lsl #14
  4014e8:	f8cd 3448 	str.w	r3, [sp, #1096]	; 0x448
  4014ec:	0cab      	lsrs	r3, r5, #18
  4014ee:	ea43 3384 	orr.w	r3, r3, r4, lsl #14
  4014f2:	f8cd 344c 	str.w	r3, [sp, #1100]	; 0x44c

004014f6 <.LBE515>:
        R( 8); R( 9); R(10); R(11);
  4014f6:	f50d 6388 	add.w	r3, sp, #1088	; 0x440
  4014fa:	e9d3 2300 	ldrd	r2, r3, [r3]
  4014fe:	f50d 6189 	add.w	r1, sp, #1096	; 0x448
  401502:	e9d1 0100 	ldrd	r0, r1, [r1]
  401506:	4042      	eors	r2, r0
  401508:	404b      	eors	r3, r1

0040150a <.LBB517>:
  40150a:	05e9      	lsls	r1, r5, #23
  40150c:	ea41 2154 	orr.w	r1, r1, r4, lsr #9
  401510:	f8cd 1454 	str.w	r1, [sp, #1108]	; 0x454
  401514:	05e1      	lsls	r1, r4, #23
  401516:	ea41 2155 	orr.w	r1, r1, r5, lsr #9
  40151a:	f8cd 1450 	str.w	r1, [sp, #1104]	; 0x450

0040151e <.LBE517>:
  40151e:	f50d 618a 	add.w	r1, sp, #1104	; 0x450
  401522:	e9d1 0100 	ldrd	r0, r1, [r1]
  401526:	4050      	eors	r0, r2
  401528:	4059      	eors	r1, r3
  40152a:	e9cd 012c 	strd	r0, r1, [sp, #176]	; 0xb0
  40152e:	e9dd 3404 	ldrd	r3, r4, [sp, #16]
  401532:	e9dd 1202 	ldrd	r1, r2, [sp, #8]
  401536:	404b      	eors	r3, r1
  401538:	4054      	eors	r4, r2
  40153a:	4625      	mov	r5, r4
  40153c:	461c      	mov	r4, r3
  40153e:	e9dd 2318 	ldrd	r2, r3, [sp, #96]	; 0x60
  401542:	4022      	ands	r2, r4
  401544:	402b      	ands	r3, r5
  401546:	4614      	mov	r4, r2
  401548:	461d      	mov	r5, r3
  40154a:	e9dd 2304 	ldrd	r2, r3, [sp, #16]
  40154e:	4062      	eors	r2, r4
  401550:	406b      	eors	r3, r5
  401552:	4614      	mov	r4, r2
  401554:	461d      	mov	r5, r3
  401556:	e9d6 2310 	ldrd	r2, r3, [r6, #64]	; 0x40
  40155a:	e9dd 0106 	ldrd	r0, r1, [sp, #24]
  40155e:	1880      	adds	r0, r0, r2
  401560:	4159      	adcs	r1, r3
  401562:	1820      	adds	r0, r4, r0
  401564:	eb45 0101 	adc.w	r1, r5, r1
  401568:	e9cd 0106 	strd	r0, r1, [sp, #24]
  40156c:	2f00      	cmp	r7, #0
  40156e:	f001 818d 	beq.w	40288c <.LCFI3+0x60>

00401572 <.LBB519>:
  401572:	e9dd 4512 	ldrd	r4, r5, [sp, #72]	; 0x48
  401576:	0863      	lsrs	r3, r4, #1
  401578:	ea43 73c5 	orr.w	r3, r3, r5, lsl #31
  40157c:	f8cd 3458 	str.w	r3, [sp, #1112]	; 0x458
  401580:	086b      	lsrs	r3, r5, #1
  401582:	ea43 73c4 	orr.w	r3, r3, r4, lsl #31
  401586:	f8cd 345c 	str.w	r3, [sp, #1116]	; 0x45c

0040158a <.LBB521>:
  40158a:	0a23      	lsrs	r3, r4, #8
  40158c:	ea43 6305 	orr.w	r3, r3, r5, lsl #24
  401590:	f8cd 3460 	str.w	r3, [sp, #1120]	; 0x460
  401594:	0a2b      	lsrs	r3, r5, #8
  401596:	ea43 6304 	orr.w	r3, r3, r4, lsl #24
  40159a:	f8cd 3464 	str.w	r3, [sp, #1124]	; 0x464

0040159e <.LBE521>:
  40159e:	f50d 638b 	add.w	r3, sp, #1112	; 0x458
  4015a2:	e9d3 2300 	ldrd	r2, r3, [r3]
  4015a6:	f50d 618c 	add.w	r1, sp, #1120	; 0x460
  4015aa:	e9d1 0100 	ldrd	r0, r1, [r1]
  4015ae:	4042      	eors	r2, r0
  4015b0:	404b      	eors	r3, r1
  4015b2:	09e1      	lsrs	r1, r4, #7
  4015b4:	ea41 6145 	orr.w	r1, r1, r5, lsl #25
  4015b8:	9150      	str	r1, [sp, #320]	; 0x140
  4015ba:	09e9      	lsrs	r1, r5, #7
  4015bc:	9151      	str	r1, [sp, #324]	; 0x144
  4015be:	a950      	add	r1, sp, #320	; 0x140
  4015c0:	e9d1 0100 	ldrd	r0, r1, [r1]
  4015c4:	4050      	eors	r0, r2
  4015c6:	4059      	eors	r1, r3
  4015c8:	4602      	mov	r2, r0
  4015ca:	460b      	mov	r3, r1
  4015cc:	e9dd 0100 	ldrd	r0, r1, [sp]
  4015d0:	1880      	adds	r0, r0, r2
  4015d2:	4159      	adcs	r1, r3
  4015d4:	4602      	mov	r2, r0
  4015d6:	460b      	mov	r3, r1
  4015d8:	e9dd 0108 	ldrd	r0, r1, [sp, #32]
  4015dc:	1880      	adds	r0, r0, r2
  4015de:	4159      	adcs	r1, r3
  4015e0:	e9cd 0100 	strd	r0, r1, [sp]

004015e4 <.LBB523>:
  4015e4:	e9dd 450e 	ldrd	r4, r5, [sp, #56]	; 0x38
  4015e8:	0ce1      	lsrs	r1, r4, #19
  4015ea:	ea41 3145 	orr.w	r1, r1, r5, lsl #13
  4015ee:	f8cd 1468 	str.w	r1, [sp, #1128]	; 0x468
  4015f2:	0ce9      	lsrs	r1, r5, #19
  4015f4:	ea41 3144 	orr.w	r1, r1, r4, lsl #13
  4015f8:	f8cd 146c 	str.w	r1, [sp, #1132]	; 0x46c

004015fc <.LBB525>:
  4015fc:	00e9      	lsls	r1, r5, #3
  4015fe:	ea41 7154 	orr.w	r1, r1, r4, lsr #29
  401602:	f8cd 1474 	str.w	r1, [sp, #1140]	; 0x474
  401606:	00e1      	lsls	r1, r4, #3
  401608:	ea41 7155 	orr.w	r1, r1, r5, lsr #29
  40160c:	f8cd 1470 	str.w	r1, [sp, #1136]	; 0x470

00401610 <.LBE525>:
  401610:	f50d 638d 	add.w	r3, sp, #1128	; 0x468
  401614:	e9d3 0100 	ldrd	r0, r1, [r3]
  401618:	f50d 638e 	add.w	r3, sp, #1136	; 0x470
  40161c:	e9d3 2300 	ldrd	r2, r3, [r3]
  401620:	4050      	eors	r0, r2
  401622:	4059      	eors	r1, r3
  401624:	09a4      	lsrs	r4, r4, #6
  401626:	9d0f      	ldr	r5, [sp, #60]	; 0x3c
  401628:	ea44 6485 	orr.w	r4, r4, r5, lsl #26
  40162c:	9452      	str	r4, [sp, #328]	; 0x148
  40162e:	09ac      	lsrs	r4, r5, #6
  401630:	9453      	str	r4, [sp, #332]	; 0x14c
  401632:	ab52      	add	r3, sp, #328	; 0x148
  401634:	e9d3 4500 	ldrd	r4, r5, [r3]
  401638:	4044      	eors	r4, r0
  40163a:	404d      	eors	r5, r1
  40163c:	4620      	mov	r0, r4
  40163e:	e9dd 3400 	ldrd	r3, r4, [sp]
  401642:	181b      	adds	r3, r3, r0
  401644:	416c      	adcs	r4, r5
  401646:	e9cd 3400 	strd	r3, r4, [sp]
  40164a:	e9dd 452c 	ldrd	r4, r5, [sp, #176]	; 0xb0
  40164e:	e9dd 2306 	ldrd	r2, r3, [sp, #24]
  401652:	1912      	adds	r2, r2, r4
  401654:	416b      	adcs	r3, r5
  401656:	4614      	mov	r4, r2
  401658:	461d      	mov	r5, r3
  40165a:	e9dd 2300 	ldrd	r2, r3, [sp]
  40165e:	1912      	adds	r2, r2, r4
  401660:	416b      	adcs	r3, r5
  401662:	461c      	mov	r4, r3
  401664:	4613      	mov	r3, r2
  401666:	e9cd 3406 	strd	r3, r4, [sp, #24]
  40166a:	eb12 020a 	adds.w	r2, r2, sl
  40166e:	eb44 030b 	adc.w	r3, r4, fp
  401672:	4692      	mov	sl, r2
  401674:	469b      	mov	fp, r3

00401676 <.LBB527>:
  401676:	e9dd 451a 	ldrd	r4, r5, [sp, #104]	; 0x68
  40167a:	0f23      	lsrs	r3, r4, #28
  40167c:	ea43 1305 	orr.w	r3, r3, r5, lsl #4
  401680:	f8cd 3478 	str.w	r3, [sp, #1144]	; 0x478
  401684:	0f2b      	lsrs	r3, r5, #28
  401686:	ea43 1304 	orr.w	r3, r3, r4, lsl #4
  40168a:	f8cd 347c 	str.w	r3, [sp, #1148]	; 0x47c

0040168e <.LBB529>:
  40168e:	07ab      	lsls	r3, r5, #30
  401690:	ea43 0394 	orr.w	r3, r3, r4, lsr #2
  401694:	f8cd 3484 	str.w	r3, [sp, #1156]	; 0x484
  401698:	07a3      	lsls	r3, r4, #30
  40169a:	ea43 0395 	orr.w	r3, r3, r5, lsr #2
  40169e:	f8cd 3480 	str.w	r3, [sp, #1152]	; 0x480

004016a2 <.LBE529>:
  4016a2:	f50d 638f 	add.w	r3, sp, #1144	; 0x478
  4016a6:	e9d3 2300 	ldrd	r2, r3, [r3]
  4016aa:	f50d 6190 	add.w	r1, sp, #1152	; 0x480
  4016ae:	e9d1 0100 	ldrd	r0, r1, [r1]
  4016b2:	4042      	eors	r2, r0
  4016b4:	404b      	eors	r3, r1

004016b6 <.LBB531>:
  4016b6:	0669      	lsls	r1, r5, #25
  4016b8:	ea41 11d4 	orr.w	r1, r1, r4, lsr #7
  4016bc:	f8cd 148c 	str.w	r1, [sp, #1164]	; 0x48c
  4016c0:	0661      	lsls	r1, r4, #25
  4016c2:	ea41 11d5 	orr.w	r1, r1, r5, lsr #7
  4016c6:	f8cd 1488 	str.w	r1, [sp, #1160]	; 0x488

004016ca <.LBE531>:
  4016ca:	f50d 6191 	add.w	r1, sp, #1160	; 0x488
  4016ce:	e9d1 0100 	ldrd	r0, r1, [r1]
  4016d2:	4050      	eors	r0, r2
  4016d4:	4059      	eors	r1, r3
  4016d6:	e9cd 012c 	strd	r0, r1, [sp, #176]	; 0xb0
  4016da:	ea44 0008 	orr.w	r0, r4, r8
  4016de:	ea45 0109 	orr.w	r1, r5, r9
  4016e2:	e9dd 232a 	ldrd	r2, r3, [sp, #168]	; 0xa8
  4016e6:	4002      	ands	r2, r0
  4016e8:	400b      	ands	r3, r1
  4016ea:	ea04 0408 	and.w	r4, r4, r8
  4016ee:	ea05 0509 	and.w	r5, r5, r9
  4016f2:	4314      	orrs	r4, r2
  4016f4:	431d      	orrs	r5, r3
  4016f6:	4620      	mov	r0, r4
  4016f8:	4629      	mov	r1, r5
  4016fa:	e9dd 452c 	ldrd	r4, r5, [sp, #176]	; 0xb0
  4016fe:	1824      	adds	r4, r4, r0
  401700:	414d      	adcs	r5, r1
  401702:	4620      	mov	r0, r4
  401704:	e9dd 3406 	ldrd	r3, r4, [sp, #24]
  401708:	181b      	adds	r3, r3, r0
  40170a:	416c      	adcs	r4, r5
  40170c:	e9cd 3406 	strd	r3, r4, [sp, #24]

00401710 <.LBB533>:
  401710:	ea4f 339a 	mov.w	r3, sl, lsr #14
  401714:	ea43 438b 	orr.w	r3, r3, fp, lsl #18
  401718:	f8cd 3490 	str.w	r3, [sp, #1168]	; 0x490
  40171c:	ea4f 339b 	mov.w	r3, fp, lsr #14
  401720:	ea43 438a 	orr.w	r3, r3, sl, lsl #18
  401724:	f8cd 3494 	str.w	r3, [sp, #1172]	; 0x494

00401728 <.LBB535>:
  401728:	ea4f 439a 	mov.w	r3, sl, lsr #18
  40172c:	ea43 338b 	orr.w	r3, r3, fp, lsl #14
  401730:	f8cd 3498 	str.w	r3, [sp, #1176]	; 0x498
  401734:	ea4f 439b 	mov.w	r3, fp, lsr #18
  401738:	ea43 338a 	orr.w	r3, r3, sl, lsl #14
  40173c:	f8cd 349c 	str.w	r3, [sp, #1180]	; 0x49c

00401740 <.LBE535>:
  401740:	f50d 6392 	add.w	r3, sp, #1168	; 0x490
  401744:	e9d3 2300 	ldrd	r2, r3, [r3]
  401748:	f50d 6193 	add.w	r1, sp, #1176	; 0x498
  40174c:	e9d1 0100 	ldrd	r0, r1, [r1]
  401750:	4042      	eors	r2, r0
  401752:	404b      	eors	r3, r1

00401754 <.LBB537>:
  401754:	ea4f 51cb 	mov.w	r1, fp, lsl #23
  401758:	ea41 215a 	orr.w	r1, r1, sl, lsr #9
  40175c:	f8cd 14a4 	str.w	r1, [sp, #1188]	; 0x4a4
  401760:	ea4f 51ca 	mov.w	r1, sl, lsl #23
  401764:	ea41 215b 	orr.w	r1, r1, fp, lsr #9
  401768:	f8cd 14a0 	str.w	r1, [sp, #1184]	; 0x4a0

0040176c <.LBE537>:
  40176c:	f50d 6194 	add.w	r1, sp, #1184	; 0x4a0
  401770:	e9d1 0100 	ldrd	r0, r1, [r1]
  401774:	4050      	eors	r0, r2
  401776:	4059      	eors	r1, r3
  401778:	e9cd 012c 	strd	r0, r1, [sp, #176]	; 0xb0
  40177c:	e9dd 2302 	ldrd	r2, r3, [sp, #8]
  401780:	4614      	mov	r4, r2
  401782:	461d      	mov	r5, r3
  401784:	e9dd 0118 	ldrd	r0, r1, [sp, #96]	; 0x60
  401788:	4044      	eors	r4, r0
  40178a:	404d      	eors	r5, r1
  40178c:	ea04 040a 	and.w	r4, r4, sl
  401790:	ea05 050b 	and.w	r5, r5, fp
  401794:	4062      	eors	r2, r4
  401796:	406b      	eors	r3, r5
  401798:	4614      	mov	r4, r2
  40179a:	461d      	mov	r5, r3
  40179c:	e9d6 2312 	ldrd	r2, r3, [r6, #72]	; 0x48
  4017a0:	e9dd 0104 	ldrd	r0, r1, [sp, #16]
  4017a4:	1880      	adds	r0, r0, r2
  4017a6:	4159      	adcs	r1, r3
  4017a8:	1820      	adds	r0, r4, r0
  4017aa:	eb45 0101 	adc.w	r1, r5, r1
  4017ae:	e9cd 0104 	strd	r0, r1, [sp, #16]
  4017b2:	2f00      	cmp	r7, #0
  4017b4:	f001 8070 	beq.w	402898 <.LCFI3+0x6c>

004017b8 <.LBB539>:
  4017b8:	e9dd 4524 	ldrd	r4, r5, [sp, #144]	; 0x90
  4017bc:	0863      	lsrs	r3, r4, #1
  4017be:	ea43 73c5 	orr.w	r3, r3, r5, lsl #31
  4017c2:	f8cd 34a8 	str.w	r3, [sp, #1192]	; 0x4a8
  4017c6:	086b      	lsrs	r3, r5, #1
  4017c8:	ea43 73c4 	orr.w	r3, r3, r4, lsl #31
  4017cc:	f8cd 34ac 	str.w	r3, [sp, #1196]	; 0x4ac

004017d0 <.LBB541>:
  4017d0:	0a23      	lsrs	r3, r4, #8
  4017d2:	ea43 6305 	orr.w	r3, r3, r5, lsl #24
  4017d6:	f8cd 34b0 	str.w	r3, [sp, #1200]	; 0x4b0
  4017da:	0a2b      	lsrs	r3, r5, #8
  4017dc:	ea43 6304 	orr.w	r3, r3, r4, lsl #24
  4017e0:	f8cd 34b4 	str.w	r3, [sp, #1204]	; 0x4b4

004017e4 <.LBE541>:
  4017e4:	f50d 6395 	add.w	r3, sp, #1192	; 0x4a8
  4017e8:	e9d3 2300 	ldrd	r2, r3, [r3]
  4017ec:	f50d 6196 	add.w	r1, sp, #1200	; 0x4b0
  4017f0:	e9d1 0100 	ldrd	r0, r1, [r1]
  4017f4:	4042      	eors	r2, r0
  4017f6:	404b      	eors	r3, r1
  4017f8:	09e1      	lsrs	r1, r4, #7
  4017fa:	ea41 6145 	orr.w	r1, r1, r5, lsl #25
  4017fe:	9154      	str	r1, [sp, #336]	; 0x150
  401800:	09e9      	lsrs	r1, r5, #7
  401802:	9155      	str	r1, [sp, #340]	; 0x154
  401804:	a954      	add	r1, sp, #336	; 0x150
  401806:	e9d1 0100 	ldrd	r0, r1, [r1]
  40180a:	4050      	eors	r0, r2
  40180c:	4059      	eors	r1, r3
  40180e:	4602      	mov	r2, r0
  401810:	460b      	mov	r3, r1
  401812:	e9dd 0112 	ldrd	r0, r1, [sp, #72]	; 0x48
  401816:	1880      	adds	r0, r0, r2
  401818:	4159      	adcs	r1, r3
  40181a:	4602      	mov	r2, r0
  40181c:	460b      	mov	r3, r1
  40181e:	e9dd 011e 	ldrd	r0, r1, [sp, #120]	; 0x78
  401822:	1880      	adds	r0, r0, r2
  401824:	4159      	adcs	r1, r3
  401826:	e9cd 0112 	strd	r0, r1, [sp, #72]	; 0x48

0040182a <.LBB543>:
  40182a:	e9dd 4510 	ldrd	r4, r5, [sp, #64]	; 0x40
  40182e:	0ce1      	lsrs	r1, r4, #19
  401830:	ea41 3145 	orr.w	r1, r1, r5, lsl #13
  401834:	f8cd 14b8 	str.w	r1, [sp, #1208]	; 0x4b8
  401838:	0ce9      	lsrs	r1, r5, #19
  40183a:	ea41 3144 	orr.w	r1, r1, r4, lsl #13
  40183e:	f8cd 14bc 	str.w	r1, [sp, #1212]	; 0x4bc

00401842 <.LBB545>:
  401842:	00e9      	lsls	r1, r5, #3
  401844:	ea41 7154 	orr.w	r1, r1, r4, lsr #29
  401848:	f8cd 14c4 	str.w	r1, [sp, #1220]	; 0x4c4
  40184c:	00e1      	lsls	r1, r4, #3
  40184e:	ea41 7155 	orr.w	r1, r1, r5, lsr #29
  401852:	f8cd 14c0 	str.w	r1, [sp, #1216]	; 0x4c0

00401856 <.LBE545>:
  401856:	f50d 6397 	add.w	r3, sp, #1208	; 0x4b8
  40185a:	e9d3 0100 	ldrd	r0, r1, [r3]
  40185e:	f50d 6398 	add.w	r3, sp, #1216	; 0x4c0
  401862:	e9d3 2300 	ldrd	r2, r3, [r3]
  401866:	4050      	eors	r0, r2
  401868:	4059      	eors	r1, r3
  40186a:	09a4      	lsrs	r4, r4, #6
  40186c:	9d11      	ldr	r5, [sp, #68]	; 0x44
  40186e:	ea44 6485 	orr.w	r4, r4, r5, lsl #26
  401872:	9456      	str	r4, [sp, #344]	; 0x158
  401874:	09ac      	lsrs	r4, r5, #6
  401876:	9457      	str	r4, [sp, #348]	; 0x15c
  401878:	ab56      	add	r3, sp, #344	; 0x158
  40187a:	e9d3 4500 	ldrd	r4, r5, [r3]
  40187e:	4044      	eors	r4, r0
  401880:	404d      	eors	r5, r1
  401882:	4620      	mov	r0, r4
  401884:	e9dd 3412 	ldrd	r3, r4, [sp, #72]	; 0x48
  401888:	181b      	adds	r3, r3, r0
  40188a:	416c      	adcs	r4, r5
  40188c:	e9cd 3412 	strd	r3, r4, [sp, #72]	; 0x48
  401890:	e9dd 452c 	ldrd	r4, r5, [sp, #176]	; 0xb0
  401894:	e9dd 2304 	ldrd	r2, r3, [sp, #16]
  401898:	1912      	adds	r2, r2, r4
  40189a:	416b      	adcs	r3, r5
  40189c:	4614      	mov	r4, r2
  40189e:	461d      	mov	r5, r3
  4018a0:	e9dd 2312 	ldrd	r2, r3, [sp, #72]	; 0x48
  4018a4:	1912      	adds	r2, r2, r4
  4018a6:	416b      	adcs	r3, r5
  4018a8:	4610      	mov	r0, r2
  4018aa:	4619      	mov	r1, r3
  4018ac:	e9dd 232a 	ldrd	r2, r3, [sp, #168]	; 0xa8
  4018b0:	e9cd 012a 	strd	r0, r1, [sp, #168]	; 0xa8
  4018b4:	1880      	adds	r0, r0, r2
  4018b6:	4159      	adcs	r1, r3
  4018b8:	4602      	mov	r2, r0
  4018ba:	460b      	mov	r3, r1
  4018bc:	e9cd 2304 	strd	r2, r3, [sp, #16]

004018c0 <.LBB547>:
  4018c0:	e9dd 0106 	ldrd	r0, r1, [sp, #24]
  4018c4:	0f03      	lsrs	r3, r0, #28
  4018c6:	ea43 1301 	orr.w	r3, r3, r1, lsl #4
  4018ca:	f8cd 34c8 	str.w	r3, [sp, #1224]	; 0x4c8
  4018ce:	0f0b      	lsrs	r3, r1, #28
  4018d0:	ea43 1300 	orr.w	r3, r3, r0, lsl #4
  4018d4:	f8cd 34cc 	str.w	r3, [sp, #1228]	; 0x4cc

004018d8 <.LBB549>:
  4018d8:	078b      	lsls	r3, r1, #30
  4018da:	ea43 0390 	orr.w	r3, r3, r0, lsr #2
  4018de:	f8cd 34d4 	str.w	r3, [sp, #1236]	; 0x4d4
  4018e2:	0783      	lsls	r3, r0, #30
  4018e4:	ea43 0391 	orr.w	r3, r3, r1, lsr #2
  4018e8:	f8cd 34d0 	str.w	r3, [sp, #1232]	; 0x4d0

004018ec <.LBE549>:
  4018ec:	f50d 6399 	add.w	r3, sp, #1224	; 0x4c8
  4018f0:	e9d3 3400 	ldrd	r3, r4, [r3]
  4018f4:	f50d 629a 	add.w	r2, sp, #1232	; 0x4d0
  4018f8:	e9d2 1200 	ldrd	r1, r2, [r2]
  4018fc:	404b      	eors	r3, r1
  4018fe:	4054      	eors	r4, r2
  401900:	461a      	mov	r2, r3
  401902:	4623      	mov	r3, r4

00401904 <.LBB551>:
  401904:	e9dd 4506 	ldrd	r4, r5, [sp, #24]
  401908:	0669      	lsls	r1, r5, #25
  40190a:	ea41 11d4 	orr.w	r1, r1, r4, lsr #7
  40190e:	f8cd 14dc 	str.w	r1, [sp, #1244]	; 0x4dc
  401912:	0661      	lsls	r1, r4, #25
  401914:	ea41 11d5 	orr.w	r1, r1, r5, lsr #7
  401918:	f8cd 14d8 	str.w	r1, [sp, #1240]	; 0x4d8

0040191c <.LBE551>:
  40191c:	f50d 619b 	add.w	r1, sp, #1240	; 0x4d8
  401920:	e9d1 0100 	ldrd	r0, r1, [r1]
  401924:	4050      	eors	r0, r2
  401926:	4059      	eors	r1, r3
  401928:	e9cd 012c 	strd	r0, r1, [sp, #176]	; 0xb0
  40192c:	e9dd 231a 	ldrd	r2, r3, [sp, #104]	; 0x68
  401930:	4322      	orrs	r2, r4
  401932:	432b      	orrs	r3, r5
  401934:	ea02 0208 	and.w	r2, r2, r8
  401938:	ea03 0309 	and.w	r3, r3, r9
  40193c:	e9cd 232e 	strd	r2, r3, [sp, #184]	; 0xb8
  401940:	e9dd 121a 	ldrd	r1, r2, [sp, #104]	; 0x68
  401944:	4623      	mov	r3, r4
  401946:	4019      	ands	r1, r3
  401948:	402a      	ands	r2, r5
  40194a:	4608      	mov	r0, r1
  40194c:	e9dd 452e 	ldrd	r4, r5, [sp, #184]	; 0xb8
  401950:	4304      	orrs	r4, r0
  401952:	4315      	orrs	r5, r2
  401954:	e9dd 232c 	ldrd	r2, r3, [sp, #176]	; 0xb0
  401958:	1912      	adds	r2, r2, r4
  40195a:	416b      	adcs	r3, r5
  40195c:	4619      	mov	r1, r3
  40195e:	e9dd 342a 	ldrd	r3, r4, [sp, #168]	; 0xa8
  401962:	189b      	adds	r3, r3, r2
  401964:	414c      	adcs	r4, r1
  401966:	e9cd 342a 	strd	r3, r4, [sp, #168]	; 0xa8

0040196a <.LBB553>:
  40196a:	e9dd 4504 	ldrd	r4, r5, [sp, #16]
  40196e:	0ba3      	lsrs	r3, r4, #14
  401970:	ea43 4385 	orr.w	r3, r3, r5, lsl #18
  401974:	f8cd 34e0 	str.w	r3, [sp, #1248]	; 0x4e0
  401978:	0bab      	lsrs	r3, r5, #14
  40197a:	ea43 4384 	orr.w	r3, r3, r4, lsl #18
  40197e:	f8cd 34e4 	str.w	r3, [sp, #1252]	; 0x4e4

00401982 <.LBB555>:
  401982:	0ca3      	lsrs	r3, r4, #18
  401984:	ea43 3385 	orr.w	r3, r3, r5, lsl #14
  401988:	f8cd 34e8 	str.w	r3, [sp, #1256]	; 0x4e8
  40198c:	0cab      	lsrs	r3, r5, #18
  40198e:	ea43 3384 	orr.w	r3, r3, r4, lsl #14
  401992:	f8cd 34ec 	str.w	r3, [sp, #1260]	; 0x4ec

00401996 <.LBE555>:
  401996:	f50d 639c 	add.w	r3, sp, #1248	; 0x4e0
  40199a:	e9d3 2300 	ldrd	r2, r3, [r3]
  40199e:	f50d 619d 	add.w	r1, sp, #1256	; 0x4e8
  4019a2:	e9d1 0100 	ldrd	r0, r1, [r1]
  4019a6:	4042      	eors	r2, r0
  4019a8:	404b      	eors	r3, r1

004019aa <.LBB557>:
  4019aa:	05e9      	lsls	r1, r5, #23
  4019ac:	ea41 2154 	orr.w	r1, r1, r4, lsr #9
  4019b0:	f8cd 14f4 	str.w	r1, [sp, #1268]	; 0x4f4
  4019b4:	05e1      	lsls	r1, r4, #23
  4019b6:	ea41 2155 	orr.w	r1, r1, r5, lsr #9
  4019ba:	f8cd 14f0 	str.w	r1, [sp, #1264]	; 0x4f0

004019be <.LBE557>:
  4019be:	f50d 619e 	add.w	r1, sp, #1264	; 0x4f0
  4019c2:	e9d1 0100 	ldrd	r0, r1, [r1]
  4019c6:	4050      	eors	r0, r2
  4019c8:	4059      	eors	r1, r3
  4019ca:	e9cd 012c 	strd	r0, r1, [sp, #176]	; 0xb0
  4019ce:	e9dd 0118 	ldrd	r0, r1, [sp, #96]	; 0x60
  4019d2:	ea80 030a 	eor.w	r3, r0, sl
  4019d6:	ea81 040b 	eor.w	r4, r1, fp
  4019da:	4625      	mov	r5, r4
  4019dc:	461c      	mov	r4, r3
  4019de:	e9dd 2304 	ldrd	r2, r3, [sp, #16]
  4019e2:	4022      	ands	r2, r4
  4019e4:	402b      	ands	r3, r5
  4019e6:	4614      	mov	r4, r2
  4019e8:	461d      	mov	r5, r3
  4019ea:	4602      	mov	r2, r0
  4019ec:	460b      	mov	r3, r1
  4019ee:	4062      	eors	r2, r4
  4019f0:	406b      	eors	r3, r5
  4019f2:	4614      	mov	r4, r2
  4019f4:	461d      	mov	r5, r3
  4019f6:	e9d6 2314 	ldrd	r2, r3, [r6, #80]	; 0x50
  4019fa:	e9dd 0102 	ldrd	r0, r1, [sp, #8]
  4019fe:	1880      	adds	r0, r0, r2
  401a00:	4159      	adcs	r1, r3
  401a02:	1820      	adds	r0, r4, r0
  401a04:	eb45 0101 	adc.w	r1, r5, r1
  401a08:	e9cd 0102 	strd	r0, r1, [sp, #8]
  401a0c:	2f00      	cmp	r7, #0
  401a0e:	f000 8749 	beq.w	4028a4 <.LCFI3+0x78>

00401a12 <.LBB559>:
  401a12:	e9dd 4514 	ldrd	r4, r5, [sp, #80]	; 0x50
  401a16:	0863      	lsrs	r3, r4, #1
  401a18:	ea43 73c5 	orr.w	r3, r3, r5, lsl #31
  401a1c:	f8cd 34f8 	str.w	r3, [sp, #1272]	; 0x4f8
  401a20:	086b      	lsrs	r3, r5, #1
  401a22:	ea43 73c4 	orr.w	r3, r3, r4, lsl #31
  401a26:	f8cd 34fc 	str.w	r3, [sp, #1276]	; 0x4fc

00401a2a <.LBB561>:
  401a2a:	0a23      	lsrs	r3, r4, #8
  401a2c:	ea43 6305 	orr.w	r3, r3, r5, lsl #24
  401a30:	f8cd 3500 	str.w	r3, [sp, #1280]	; 0x500
  401a34:	0a2b      	lsrs	r3, r5, #8
  401a36:	ea43 6304 	orr.w	r3, r3, r4, lsl #24
  401a3a:	f8cd 3504 	str.w	r3, [sp, #1284]	; 0x504

00401a3e <.LBE561>:
  401a3e:	f50d 639f 	add.w	r3, sp, #1272	; 0x4f8
  401a42:	e9d3 2300 	ldrd	r2, r3, [r3]
  401a46:	f50d 61a0 	add.w	r1, sp, #1280	; 0x500
  401a4a:	e9d1 0100 	ldrd	r0, r1, [r1]
  401a4e:	4042      	eors	r2, r0
  401a50:	404b      	eors	r3, r1
  401a52:	09e1      	lsrs	r1, r4, #7
  401a54:	ea41 6145 	orr.w	r1, r1, r5, lsl #25
  401a58:	9158      	str	r1, [sp, #352]	; 0x160
  401a5a:	09e9      	lsrs	r1, r5, #7
  401a5c:	9159      	str	r1, [sp, #356]	; 0x164
  401a5e:	a958      	add	r1, sp, #352	; 0x160
  401a60:	e9d1 0100 	ldrd	r0, r1, [r1]
  401a64:	4050      	eors	r0, r2
  401a66:	4059      	eors	r1, r3
  401a68:	4602      	mov	r2, r0
  401a6a:	460b      	mov	r3, r1
  401a6c:	e9dd 0124 	ldrd	r0, r1, [sp, #144]	; 0x90
  401a70:	1880      	adds	r0, r0, r2
  401a72:	4159      	adcs	r1, r3
  401a74:	4602      	mov	r2, r0
  401a76:	460b      	mov	r3, r1
  401a78:	e9dd 0120 	ldrd	r0, r1, [sp, #128]	; 0x80
  401a7c:	1880      	adds	r0, r0, r2
  401a7e:	4159      	adcs	r1, r3
  401a80:	e9cd 0124 	strd	r0, r1, [sp, #144]	; 0x90

00401a84 <.LBB563>:
  401a84:	e9dd 4500 	ldrd	r4, r5, [sp]
  401a88:	0ce1      	lsrs	r1, r4, #19
  401a8a:	ea41 3145 	orr.w	r1, r1, r5, lsl #13
  401a8e:	f8cd 1508 	str.w	r1, [sp, #1288]	; 0x508
  401a92:	0ce9      	lsrs	r1, r5, #19
  401a94:	ea41 3144 	orr.w	r1, r1, r4, lsl #13
  401a98:	f8cd 150c 	str.w	r1, [sp, #1292]	; 0x50c

00401a9c <.LBB565>:
  401a9c:	00e9      	lsls	r1, r5, #3
  401a9e:	ea41 7154 	orr.w	r1, r1, r4, lsr #29
  401aa2:	f8cd 1514 	str.w	r1, [sp, #1300]	; 0x514
  401aa6:	00e1      	lsls	r1, r4, #3
  401aa8:	ea41 7155 	orr.w	r1, r1, r5, lsr #29
  401aac:	f8cd 1510 	str.w	r1, [sp, #1296]	; 0x510

00401ab0 <.LBE565>:
  401ab0:	f50d 63a1 	add.w	r3, sp, #1288	; 0x508
  401ab4:	e9d3 0100 	ldrd	r0, r1, [r3]
  401ab8:	f50d 63a2 	add.w	r3, sp, #1296	; 0x510
  401abc:	e9d3 2300 	ldrd	r2, r3, [r3]
  401ac0:	4050      	eors	r0, r2
  401ac2:	4059      	eors	r1, r3
  401ac4:	09a4      	lsrs	r4, r4, #6
  401ac6:	9d01      	ldr	r5, [sp, #4]
  401ac8:	ea44 6485 	orr.w	r4, r4, r5, lsl #26
  401acc:	945a      	str	r4, [sp, #360]	; 0x168
  401ace:	09ac      	lsrs	r4, r5, #6
  401ad0:	945b      	str	r4, [sp, #364]	; 0x16c
  401ad2:	ab5a      	add	r3, sp, #360	; 0x168
  401ad4:	e9d3 4500 	ldrd	r4, r5, [r3]
  401ad8:	4044      	eors	r4, r0
  401ada:	404d      	eors	r5, r1
  401adc:	4620      	mov	r0, r4
  401ade:	e9dd 3424 	ldrd	r3, r4, [sp, #144]	; 0x90
  401ae2:	181b      	adds	r3, r3, r0
  401ae4:	416c      	adcs	r4, r5
  401ae6:	e9cd 3424 	strd	r3, r4, [sp, #144]	; 0x90
  401aea:	e9dd 452c 	ldrd	r4, r5, [sp, #176]	; 0xb0
  401aee:	e9dd 2302 	ldrd	r2, r3, [sp, #8]
  401af2:	1912      	adds	r2, r2, r4
  401af4:	416b      	adcs	r3, r5
  401af6:	4614      	mov	r4, r2
  401af8:	461d      	mov	r5, r3
  401afa:	e9dd 2324 	ldrd	r2, r3, [sp, #144]	; 0x90
  401afe:	1912      	adds	r2, r2, r4
  401b00:	416b      	adcs	r3, r5
  401b02:	461c      	mov	r4, r3
  401b04:	4613      	mov	r3, r2
  401b06:	e9cd 3402 	strd	r3, r4, [sp, #8]
  401b0a:	eb12 0208 	adds.w	r2, r2, r8
  401b0e:	eb44 0309 	adc.w	r3, r4, r9
  401b12:	4690      	mov	r8, r2
  401b14:	4699      	mov	r9, r3

00401b16 <.LBB567>:
  401b16:	e9dd 452a 	ldrd	r4, r5, [sp, #168]	; 0xa8
  401b1a:	0f23      	lsrs	r3, r4, #28
  401b1c:	ea43 1305 	orr.w	r3, r3, r5, lsl #4
  401b20:	f8cd 3518 	str.w	r3, [sp, #1304]	; 0x518
  401b24:	0f2b      	lsrs	r3, r5, #28
  401b26:	ea43 1304 	orr.w	r3, r3, r4, lsl #4
  401b2a:	f8cd 351c 	str.w	r3, [sp, #1308]	; 0x51c

00401b2e <.LBB569>:
  401b2e:	07ab      	lsls	r3, r5, #30
  401b30:	ea43 0394 	orr.w	r3, r3, r4, lsr #2
  401b34:	f8cd 3524 	str.w	r3, [sp, #1316]	; 0x524
  401b38:	07a3      	lsls	r3, r4, #30
  401b3a:	ea43 0395 	orr.w	r3, r3, r5, lsr #2
  401b3e:	f8cd 3520 	str.w	r3, [sp, #1312]	; 0x520

00401b42 <.LBE569>:
  401b42:	f50d 63a3 	add.w	r3, sp, #1304	; 0x518
  401b46:	e9d3 2300 	ldrd	r2, r3, [r3]
  401b4a:	f50d 61a4 	add.w	r1, sp, #1312	; 0x520
  401b4e:	e9d1 0100 	ldrd	r0, r1, [r1]
  401b52:	4042      	eors	r2, r0
  401b54:	404b      	eors	r3, r1

00401b56 <.LBB571>:
  401b56:	0669      	lsls	r1, r5, #25
  401b58:	ea41 11d4 	orr.w	r1, r1, r4, lsr #7
  401b5c:	f8cd 152c 	str.w	r1, [sp, #1324]	; 0x52c
  401b60:	0661      	lsls	r1, r4, #25
  401b62:	ea41 11d5 	orr.w	r1, r1, r5, lsr #7
  401b66:	f8cd 1528 	str.w	r1, [sp, #1320]	; 0x528

00401b6a <.LBE571>:
  401b6a:	f50d 61a5 	add.w	r1, sp, #1320	; 0x528
  401b6e:	e9d1 0100 	ldrd	r0, r1, [r1]
  401b72:	4050      	eors	r0, r2
  401b74:	4059      	eors	r1, r3
  401b76:	e9cd 012c 	strd	r0, r1, [sp, #176]	; 0xb0
  401b7a:	e9dd 2306 	ldrd	r2, r3, [sp, #24]
  401b7e:	4322      	orrs	r2, r4
  401b80:	432b      	orrs	r3, r5
  401b82:	4610      	mov	r0, r2
  401b84:	4619      	mov	r1, r3
  401b86:	e9dd 231a 	ldrd	r2, r3, [sp, #104]	; 0x68
  401b8a:	4002      	ands	r2, r0
  401b8c:	400b      	ands	r3, r1
  401b8e:	4610      	mov	r0, r2
  401b90:	4619      	mov	r1, r3
  401b92:	e9dd 2306 	ldrd	r2, r3, [sp, #24]
  401b96:	4022      	ands	r2, r4
  401b98:	402b      	ands	r3, r5
  401b9a:	4302      	orrs	r2, r0
  401b9c:	430b      	orrs	r3, r1
  401b9e:	e9dd 452c 	ldrd	r4, r5, [sp, #176]	; 0xb0
  401ba2:	18a4      	adds	r4, r4, r2
  401ba4:	415d      	adcs	r5, r3
  401ba6:	4620      	mov	r0, r4
  401ba8:	e9dd 3402 	ldrd	r3, r4, [sp, #8]
  401bac:	181b      	adds	r3, r3, r0
  401bae:	416c      	adcs	r4, r5
  401bb0:	e9cd 3402 	strd	r3, r4, [sp, #8]

00401bb4 <.LBB573>:
  401bb4:	ea4f 3398 	mov.w	r3, r8, lsr #14
  401bb8:	ea43 4389 	orr.w	r3, r3, r9, lsl #18
  401bbc:	f8cd 3530 	str.w	r3, [sp, #1328]	; 0x530
  401bc0:	ea4f 3399 	mov.w	r3, r9, lsr #14
  401bc4:	ea43 4388 	orr.w	r3, r3, r8, lsl #18
  401bc8:	f8cd 3534 	str.w	r3, [sp, #1332]	; 0x534

00401bcc <.LBB575>:
  401bcc:	ea4f 4398 	mov.w	r3, r8, lsr #18
  401bd0:	ea43 3389 	orr.w	r3, r3, r9, lsl #14
  401bd4:	f8cd 3538 	str.w	r3, [sp, #1336]	; 0x538
  401bd8:	ea4f 4399 	mov.w	r3, r9, lsr #18
  401bdc:	ea43 3388 	orr.w	r3, r3, r8, lsl #14
  401be0:	f8cd 353c 	str.w	r3, [sp, #1340]	; 0x53c

00401be4 <.LBE575>:
  401be4:	f50d 63a6 	add.w	r3, sp, #1328	; 0x530
  401be8:	e9d3 2300 	ldrd	r2, r3, [r3]
  401bec:	f50d 61a7 	add.w	r1, sp, #1336	; 0x538
  401bf0:	e9d1 0100 	ldrd	r0, r1, [r1]
  401bf4:	4042      	eors	r2, r0
  401bf6:	404b      	eors	r3, r1

00401bf8 <.LBB577>:
  401bf8:	ea4f 51c9 	mov.w	r1, r9, lsl #23
  401bfc:	ea41 2158 	orr.w	r1, r1, r8, lsr #9
  401c00:	f8cd 1544 	str.w	r1, [sp, #1348]	; 0x544
  401c04:	ea4f 51c8 	mov.w	r1, r8, lsl #23
  401c08:	ea41 2159 	orr.w	r1, r1, r9, lsr #9
  401c0c:	f8cd 1540 	str.w	r1, [sp, #1344]	; 0x540

00401c10 <.LBE577>:
  401c10:	f50d 61a8 	add.w	r1, sp, #1344	; 0x540
  401c14:	e9d1 0100 	ldrd	r0, r1, [r1]
  401c18:	4050      	eors	r0, r2
  401c1a:	4059      	eors	r1, r3
  401c1c:	e9cd 012c 	strd	r0, r1, [sp, #176]	; 0xb0
  401c20:	e9dd 4504 	ldrd	r4, r5, [sp, #16]
  401c24:	ea84 040a 	eor.w	r4, r4, sl
  401c28:	ea85 050b 	eor.w	r5, r5, fp
  401c2c:	ea04 0408 	and.w	r4, r4, r8
  401c30:	ea05 0509 	and.w	r5, r5, r9
  401c34:	ea84 040a 	eor.w	r4, r4, sl
  401c38:	ea85 050b 	eor.w	r5, r5, fp
  401c3c:	e9d6 2316 	ldrd	r2, r3, [r6, #88]	; 0x58
  401c40:	e9dd 0118 	ldrd	r0, r1, [sp, #96]	; 0x60
  401c44:	1880      	adds	r0, r0, r2
  401c46:	4159      	adcs	r1, r3
  401c48:	1820      	adds	r0, r4, r0
  401c4a:	eb45 0101 	adc.w	r1, r5, r1
  401c4e:	e9cd 0118 	strd	r0, r1, [sp, #96]	; 0x60
  401c52:	2f00      	cmp	r7, #0
  401c54:	f000 862c 	beq.w	4028b0 <.LCFI3+0x84>

00401c58 <.LBB579>:
  401c58:	e9dd 4516 	ldrd	r4, r5, [sp, #88]	; 0x58
  401c5c:	0863      	lsrs	r3, r4, #1
  401c5e:	ea43 73c5 	orr.w	r3, r3, r5, lsl #31
  401c62:	f8cd 3548 	str.w	r3, [sp, #1352]	; 0x548
  401c66:	086b      	lsrs	r3, r5, #1
  401c68:	ea43 73c4 	orr.w	r3, r3, r4, lsl #31
  401c6c:	f8cd 354c 	str.w	r3, [sp, #1356]	; 0x54c

00401c70 <.LBB581>:
  401c70:	0a23      	lsrs	r3, r4, #8
  401c72:	ea43 6305 	orr.w	r3, r3, r5, lsl #24
  401c76:	f8cd 3550 	str.w	r3, [sp, #1360]	; 0x550
  401c7a:	0a2b      	lsrs	r3, r5, #8
  401c7c:	ea43 6304 	orr.w	r3, r3, r4, lsl #24
  401c80:	f8cd 3554 	str.w	r3, [sp, #1364]	; 0x554

00401c84 <.LBE581>:
  401c84:	f50d 63a9 	add.w	r3, sp, #1352	; 0x548
  401c88:	e9d3 2300 	ldrd	r2, r3, [r3]
  401c8c:	f50d 61aa 	add.w	r1, sp, #1360	; 0x550
  401c90:	e9d1 0100 	ldrd	r0, r1, [r1]
  401c94:	4042      	eors	r2, r0
  401c96:	404b      	eors	r3, r1
  401c98:	09e1      	lsrs	r1, r4, #7
  401c9a:	ea41 6145 	orr.w	r1, r1, r5, lsl #25
  401c9e:	915c      	str	r1, [sp, #368]	; 0x170
  401ca0:	09e9      	lsrs	r1, r5, #7
  401ca2:	915d      	str	r1, [sp, #372]	; 0x174
  401ca4:	a95c      	add	r1, sp, #368	; 0x170
  401ca6:	e9d1 0100 	ldrd	r0, r1, [r1]
  401caa:	4050      	eors	r0, r2
  401cac:	4059      	eors	r1, r3
  401cae:	4602      	mov	r2, r0
  401cb0:	460b      	mov	r3, r1
  401cb2:	e9dd 0114 	ldrd	r0, r1, [sp, #80]	; 0x50
  401cb6:	1880      	adds	r0, r0, r2
  401cb8:	4159      	adcs	r1, r3
  401cba:	4602      	mov	r2, r0
  401cbc:	460b      	mov	r3, r1
  401cbe:	e9dd 0122 	ldrd	r0, r1, [sp, #136]	; 0x88
  401cc2:	1880      	adds	r0, r0, r2
  401cc4:	4159      	adcs	r1, r3
  401cc6:	e9cd 0114 	strd	r0, r1, [sp, #80]	; 0x50

00401cca <.LBB583>:
  401cca:	e9dd 4512 	ldrd	r4, r5, [sp, #72]	; 0x48
  401cce:	0ce1      	lsrs	r1, r4, #19
  401cd0:	ea41 3145 	orr.w	r1, r1, r5, lsl #13
  401cd4:	f8cd 1558 	str.w	r1, [sp, #1368]	; 0x558
  401cd8:	0ce9      	lsrs	r1, r5, #19
  401cda:	ea41 3144 	orr.w	r1, r1, r4, lsl #13
  401cde:	f8cd 155c 	str.w	r1, [sp, #1372]	; 0x55c

00401ce2 <.LBB585>:
  401ce2:	00e9      	lsls	r1, r5, #3
  401ce4:	ea41 7154 	orr.w	r1, r1, r4, lsr #29
  401ce8:	f8cd 1564 	str.w	r1, [sp, #1380]	; 0x564
  401cec:	00e1      	lsls	r1, r4, #3
  401cee:	ea41 7155 	orr.w	r1, r1, r5, lsr #29
  401cf2:	f8cd 1560 	str.w	r1, [sp, #1376]	; 0x560

00401cf6 <.LBE585>:
  401cf6:	f50d 63ab 	add.w	r3, sp, #1368	; 0x558
  401cfa:	e9d3 0100 	ldrd	r0, r1, [r3]
  401cfe:	f50d 63ac 	add.w	r3, sp, #1376	; 0x560
  401d02:	e9d3 2300 	ldrd	r2, r3, [r3]
  401d06:	4050      	eors	r0, r2
  401d08:	4059      	eors	r1, r3
  401d0a:	09a4      	lsrs	r4, r4, #6
  401d0c:	9d13      	ldr	r5, [sp, #76]	; 0x4c
  401d0e:	ea44 6485 	orr.w	r4, r4, r5, lsl #26
  401d12:	945e      	str	r4, [sp, #376]	; 0x178
  401d14:	09ac      	lsrs	r4, r5, #6
  401d16:	945f      	str	r4, [sp, #380]	; 0x17c
  401d18:	ab5e      	add	r3, sp, #376	; 0x178
  401d1a:	e9d3 4500 	ldrd	r4, r5, [r3]
  401d1e:	4044      	eors	r4, r0
  401d20:	404d      	eors	r5, r1
  401d22:	4620      	mov	r0, r4
  401d24:	e9dd 3414 	ldrd	r3, r4, [sp, #80]	; 0x50
  401d28:	181b      	adds	r3, r3, r0
  401d2a:	416c      	adcs	r4, r5
  401d2c:	e9cd 3414 	strd	r3, r4, [sp, #80]	; 0x50
  401d30:	e9dd 452c 	ldrd	r4, r5, [sp, #176]	; 0xb0
  401d34:	e9dd 2318 	ldrd	r2, r3, [sp, #96]	; 0x60
  401d38:	1912      	adds	r2, r2, r4
  401d3a:	416b      	adcs	r3, r5
  401d3c:	4614      	mov	r4, r2
  401d3e:	461d      	mov	r5, r3
  401d40:	e9dd 2314 	ldrd	r2, r3, [sp, #80]	; 0x50
  401d44:	1912      	adds	r2, r2, r4
  401d46:	416b      	adcs	r3, r5
  401d48:	4610      	mov	r0, r2
  401d4a:	4619      	mov	r1, r3
  401d4c:	e9dd 231a 	ldrd	r2, r3, [sp, #104]	; 0x68
  401d50:	e9cd 0118 	strd	r0, r1, [sp, #96]	; 0x60
  401d54:	1880      	adds	r0, r0, r2
  401d56:	4159      	adcs	r1, r3
  401d58:	4602      	mov	r2, r0
  401d5a:	460b      	mov	r3, r1
  401d5c:	e9cd 231a 	strd	r2, r3, [sp, #104]	; 0x68

00401d60 <.LBB587>:
  401d60:	e9dd 0102 	ldrd	r0, r1, [sp, #8]
  401d64:	0f03      	lsrs	r3, r0, #28
  401d66:	ea43 1301 	orr.w	r3, r3, r1, lsl #4
  401d6a:	f8cd 3568 	str.w	r3, [sp, #1384]	; 0x568
  401d6e:	0f0b      	lsrs	r3, r1, #28
  401d70:	ea43 1300 	orr.w	r3, r3, r0, lsl #4
  401d74:	f8cd 356c 	str.w	r3, [sp, #1388]	; 0x56c

00401d78 <.LBB589>:
  401d78:	078b      	lsls	r3, r1, #30
  401d7a:	ea43 0390 	orr.w	r3, r3, r0, lsr #2
  401d7e:	f8cd 3574 	str.w	r3, [sp, #1396]	; 0x574
  401d82:	0783      	lsls	r3, r0, #30
  401d84:	ea43 0391 	orr.w	r3, r3, r1, lsr #2
  401d88:	f8cd 3570 	str.w	r3, [sp, #1392]	; 0x570

00401d8c <.LBE589>:
  401d8c:	f50d 63ad 	add.w	r3, sp, #1384	; 0x568
  401d90:	e9d3 3400 	ldrd	r3, r4, [r3]
  401d94:	f50d 62ae 	add.w	r2, sp, #1392	; 0x570
  401d98:	e9d2 1200 	ldrd	r1, r2, [r2]
  401d9c:	404b      	eors	r3, r1
  401d9e:	4054      	eors	r4, r2
  401da0:	461a      	mov	r2, r3
  401da2:	4623      	mov	r3, r4

00401da4 <.LBB591>:
  401da4:	e9dd 4502 	ldrd	r4, r5, [sp, #8]
  401da8:	0669      	lsls	r1, r5, #25
  401daa:	ea41 11d4 	orr.w	r1, r1, r4, lsr #7
  401dae:	f8cd 157c 	str.w	r1, [sp, #1404]	; 0x57c
  401db2:	0661      	lsls	r1, r4, #25
  401db4:	ea41 11d5 	orr.w	r1, r1, r5, lsr #7
  401db8:	f8cd 1578 	str.w	r1, [sp, #1400]	; 0x578

00401dbc <.LBE591>:
  401dbc:	f50d 61af 	add.w	r1, sp, #1400	; 0x578
  401dc0:	e9d1 0100 	ldrd	r0, r1, [r1]
  401dc4:	4050      	eors	r0, r2
  401dc6:	4059      	eors	r1, r3
  401dc8:	e9cd 012c 	strd	r0, r1, [sp, #176]	; 0xb0
  401dcc:	e9dd 232a 	ldrd	r2, r3, [sp, #168]	; 0xa8
  401dd0:	4322      	orrs	r2, r4
  401dd2:	432b      	orrs	r3, r5
  401dd4:	4619      	mov	r1, r3
  401dd6:	e9dd 3406 	ldrd	r3, r4, [sp, #24]
  401dda:	4013      	ands	r3, r2
  401ddc:	400c      	ands	r4, r1
  401dde:	e9cd 342e 	strd	r3, r4, [sp, #184]	; 0xb8
  401de2:	e9dd 122a 	ldrd	r1, r2, [sp, #168]	; 0xa8
  401de6:	e9dd 3402 	ldrd	r3, r4, [sp, #8]
  401dea:	4019      	ands	r1, r3
  401dec:	4022      	ands	r2, r4
  401dee:	4608      	mov	r0, r1
  401df0:	e9dd 452e 	ldrd	r4, r5, [sp, #184]	; 0xb8
  401df4:	4304      	orrs	r4, r0
  401df6:	4315      	orrs	r5, r2
  401df8:	e9dd 232c 	ldrd	r2, r3, [sp, #176]	; 0xb0
  401dfc:	1912      	adds	r2, r2, r4
  401dfe:	416b      	adcs	r3, r5
  401e00:	4619      	mov	r1, r3
  401e02:	e9dd 3418 	ldrd	r3, r4, [sp, #96]	; 0x60
  401e06:	189b      	adds	r3, r3, r2
  401e08:	414c      	adcs	r4, r1
  401e0a:	e9cd 342c 	strd	r3, r4, [sp, #176]	; 0xb0

00401e0e <.LBB593>:
  401e0e:	e9dd 451a 	ldrd	r4, r5, [sp, #104]	; 0x68
  401e12:	0ba3      	lsrs	r3, r4, #14
  401e14:	ea43 4385 	orr.w	r3, r3, r5, lsl #18
  401e18:	f8cd 3580 	str.w	r3, [sp, #1408]	; 0x580
  401e1c:	0bab      	lsrs	r3, r5, #14
  401e1e:	ea43 4384 	orr.w	r3, r3, r4, lsl #18
  401e22:	f8cd 3584 	str.w	r3, [sp, #1412]	; 0x584

00401e26 <.LBB595>:
  401e26:	0ca3      	lsrs	r3, r4, #18
  401e28:	ea43 3385 	orr.w	r3, r3, r5, lsl #14
  401e2c:	f8cd 3588 	str.w	r3, [sp, #1416]	; 0x588
  401e30:	0cab      	lsrs	r3, r5, #18
  401e32:	ea43 3384 	orr.w	r3, r3, r4, lsl #14
  401e36:	f8cd 358c 	str.w	r3, [sp, #1420]	; 0x58c

00401e3a <.LBE595>:
        R(12); R(13); R(14); R(15);
  401e3a:	f50d 63b0 	add.w	r3, sp, #1408	; 0x580
  401e3e:	e9d3 2300 	ldrd	r2, r3, [r3]
  401e42:	f50d 61b1 	add.w	r1, sp, #1416	; 0x588
  401e46:	e9d1 0100 	ldrd	r0, r1, [r1]
  401e4a:	4042      	eors	r2, r0
  401e4c:	404b      	eors	r3, r1

00401e4e <.LBB597>:
  401e4e:	05e9      	lsls	r1, r5, #23
  401e50:	ea41 2154 	orr.w	r1, r1, r4, lsr #9
  401e54:	f8cd 1594 	str.w	r1, [sp, #1428]	; 0x594
  401e58:	05e1      	lsls	r1, r4, #23
  401e5a:	ea41 2155 	orr.w	r1, r1, r5, lsr #9
  401e5e:	f8cd 1590 	str.w	r1, [sp, #1424]	; 0x590

00401e62 <.LBE597>:
  401e62:	f50d 61b2 	add.w	r1, sp, #1424	; 0x590
  401e66:	e9d1 0100 	ldrd	r0, r1, [r1]
  401e6a:	4050      	eors	r0, r2
  401e6c:	4059      	eors	r1, r3
  401e6e:	e9cd 0118 	strd	r0, r1, [sp, #96]	; 0x60
  401e72:	e9dd 0104 	ldrd	r0, r1, [sp, #16]
  401e76:	ea80 0308 	eor.w	r3, r0, r8
  401e7a:	ea81 0409 	eor.w	r4, r1, r9
  401e7e:	4625      	mov	r5, r4
  401e80:	461c      	mov	r4, r3
  401e82:	e9dd 231a 	ldrd	r2, r3, [sp, #104]	; 0x68
  401e86:	4022      	ands	r2, r4
  401e88:	402b      	ands	r3, r5
  401e8a:	4614      	mov	r4, r2
  401e8c:	461d      	mov	r5, r3
  401e8e:	4602      	mov	r2, r0
  401e90:	460b      	mov	r3, r1
  401e92:	4062      	eors	r2, r4
  401e94:	406b      	eors	r3, r5
  401e96:	4614      	mov	r4, r2
  401e98:	461d      	mov	r5, r3
  401e9a:	e9d6 2318 	ldrd	r2, r3, [r6, #96]	; 0x60
  401e9e:	eb12 020a 	adds.w	r2, r2, sl
  401ea2:	eb43 030b 	adc.w	r3, r3, fp
  401ea6:	18a4      	adds	r4, r4, r2
  401ea8:	415d      	adcs	r5, r3
  401eaa:	2f00      	cmp	r7, #0
  401eac:	f000 8506 	beq.w	4028bc <.LCFI3+0x90>

00401eb0 <.LBB599>:
  401eb0:	e9dd ab26 	ldrd	sl, fp, [sp, #152]	; 0x98
  401eb4:	4653      	mov	r3, sl
  401eb6:	085b      	lsrs	r3, r3, #1
  401eb8:	465a      	mov	r2, fp
  401eba:	ea43 73cb 	orr.w	r3, r3, fp, lsl #31
  401ebe:	f8cd 3598 	str.w	r3, [sp, #1432]	; 0x598
  401ec2:	0853      	lsrs	r3, r2, #1
  401ec4:	4652      	mov	r2, sl
  401ec6:	ea43 73ca 	orr.w	r3, r3, sl, lsl #31
  401eca:	f8cd 359c 	str.w	r3, [sp, #1436]	; 0x59c

00401ece <.LBB601>:
  401ece:	0a13      	lsrs	r3, r2, #8
  401ed0:	465a      	mov	r2, fp
  401ed2:	ea43 630b 	orr.w	r3, r3, fp, lsl #24
  401ed6:	f8cd 35a0 	str.w	r3, [sp, #1440]	; 0x5a0
  401eda:	0a13      	lsrs	r3, r2, #8
  401edc:	ea43 630a 	orr.w	r3, r3, sl, lsl #24
  401ee0:	f8cd 35a4 	str.w	r3, [sp, #1444]	; 0x5a4

00401ee4 <.LBE601>:
  401ee4:	f50d 63b3 	add.w	r3, sp, #1432	; 0x598
  401ee8:	e9d3 2300 	ldrd	r2, r3, [r3]
  401eec:	f50d 61b4 	add.w	r1, sp, #1440	; 0x5a0
  401ef0:	e9d1 0100 	ldrd	r0, r1, [r1]
  401ef4:	4042      	eors	r2, r0
  401ef6:	404b      	eors	r3, r1
  401ef8:	4651      	mov	r1, sl
  401efa:	09c9      	lsrs	r1, r1, #7
  401efc:	4658      	mov	r0, fp
  401efe:	ea41 614b 	orr.w	r1, r1, fp, lsl #25
  401f02:	9160      	str	r1, [sp, #384]	; 0x180
  401f04:	09c1      	lsrs	r1, r0, #7
  401f06:	9161      	str	r1, [sp, #388]	; 0x184
  401f08:	a960      	add	r1, sp, #384	; 0x180
  401f0a:	e9d1 0100 	ldrd	r0, r1, [r1]
  401f0e:	4050      	eors	r0, r2
  401f10:	4059      	eors	r1, r3
  401f12:	4602      	mov	r2, r0
  401f14:	460b      	mov	r3, r1
  401f16:	e9dd 0116 	ldrd	r0, r1, [sp, #88]	; 0x58
  401f1a:	1880      	adds	r0, r0, r2
  401f1c:	4159      	adcs	r1, r3
  401f1e:	4602      	mov	r2, r0
  401f20:	460b      	mov	r3, r1
  401f22:	e9dd 010a 	ldrd	r0, r1, [sp, #40]	; 0x28
  401f26:	1880      	adds	r0, r0, r2
  401f28:	4159      	adcs	r1, r3
  401f2a:	e9cd 0116 	strd	r0, r1, [sp, #88]	; 0x58

00401f2e <.LBB603>:
  401f2e:	e9dd ab24 	ldrd	sl, fp, [sp, #144]	; 0x90
  401f32:	4651      	mov	r1, sl
  401f34:	0cc9      	lsrs	r1, r1, #19
  401f36:	4658      	mov	r0, fp
  401f38:	ea41 314b 	orr.w	r1, r1, fp, lsl #13
  401f3c:	f8cd 15a8 	str.w	r1, [sp, #1448]	; 0x5a8
  401f40:	0cc1      	lsrs	r1, r0, #19
  401f42:	4650      	mov	r0, sl
  401f44:	ea41 314a 	orr.w	r1, r1, sl, lsl #13
  401f48:	f8cd 15ac 	str.w	r1, [sp, #1452]	; 0x5ac

00401f4c <.LBB605>:
  401f4c:	4659      	mov	r1, fp
  401f4e:	00c9      	lsls	r1, r1, #3
  401f50:	ea41 715a 	orr.w	r1, r1, sl, lsr #29
  401f54:	f8cd 15b4 	str.w	r1, [sp, #1460]	; 0x5b4
  401f58:	00c1      	lsls	r1, r0, #3
  401f5a:	ea41 715b 	orr.w	r1, r1, fp, lsr #29
  401f5e:	f8cd 15b0 	str.w	r1, [sp, #1456]	; 0x5b0

00401f62 <.LBE605>:
  401f62:	f50d 63b5 	add.w	r3, sp, #1448	; 0x5a8
  401f66:	e9d3 0100 	ldrd	r0, r1, [r3]
  401f6a:	f50d 63b6 	add.w	r3, sp, #1456	; 0x5b0
  401f6e:	e9d3 2300 	ldrd	r2, r3, [r3]
  401f72:	4050      	eors	r0, r2
  401f74:	4059      	eors	r1, r3
  401f76:	4653      	mov	r3, sl
  401f78:	099b      	lsrs	r3, r3, #6
  401f7a:	465a      	mov	r2, fp
  401f7c:	ea43 638b 	orr.w	r3, r3, fp, lsl #26
  401f80:	9362      	str	r3, [sp, #392]	; 0x188
  401f82:	0993      	lsrs	r3, r2, #6
  401f84:	9363      	str	r3, [sp, #396]	; 0x18c
  401f86:	ab62      	add	r3, sp, #392	; 0x188
  401f88:	e9d3 2300 	ldrd	r2, r3, [r3]
  401f8c:	4042      	eors	r2, r0
  401f8e:	404b      	eors	r3, r1
  401f90:	4610      	mov	r0, r2
  401f92:	4619      	mov	r1, r3
  401f94:	e9dd 2316 	ldrd	r2, r3, [sp, #88]	; 0x58
  401f98:	1812      	adds	r2, r2, r0
  401f9a:	414b      	adcs	r3, r1
  401f9c:	e9cd 2316 	strd	r2, r3, [sp, #88]	; 0x58
  401fa0:	e9dd 2318 	ldrd	r2, r3, [sp, #96]	; 0x60
  401fa4:	1912      	adds	r2, r2, r4
  401fa6:	416b      	adcs	r3, r5
  401fa8:	e9dd ab16 	ldrd	sl, fp, [sp, #88]	; 0x58
  401fac:	eb1a 0a02 	adds.w	sl, sl, r2
  401fb0:	eb4b 0b03 	adc.w	fp, fp, r3
  401fb4:	4651      	mov	r1, sl
  401fb6:	465a      	mov	r2, fp
  401fb8:	e9dd 3406 	ldrd	r3, r4, [sp, #24]
  401fbc:	e9cd 1218 	strd	r1, r2, [sp, #96]	; 0x60
  401fc0:	eb1a 0103 	adds.w	r1, sl, r3
  401fc4:	eb4b 0204 	adc.w	r2, fp, r4
  401fc8:	460b      	mov	r3, r1
  401fca:	4614      	mov	r4, r2
  401fcc:	e9cd 3406 	strd	r3, r4, [sp, #24]

00401fd0 <.LBB607>:
  401fd0:	e9dd 452c 	ldrd	r4, r5, [sp, #176]	; 0xb0
  401fd4:	0f23      	lsrs	r3, r4, #28
  401fd6:	ea43 1305 	orr.w	r3, r3, r5, lsl #4
  401fda:	f8cd 35b8 	str.w	r3, [sp, #1464]	; 0x5b8
  401fde:	0f2b      	lsrs	r3, r5, #28
  401fe0:	ea43 1304 	orr.w	r3, r3, r4, lsl #4
  401fe4:	f8cd 35bc 	str.w	r3, [sp, #1468]	; 0x5bc

00401fe8 <.LBB609>:
  401fe8:	07ab      	lsls	r3, r5, #30
  401fea:	ea43 0394 	orr.w	r3, r3, r4, lsr #2
  401fee:	f8cd 35c4 	str.w	r3, [sp, #1476]	; 0x5c4
  401ff2:	07a3      	lsls	r3, r4, #30
  401ff4:	ea43 0395 	orr.w	r3, r3, r5, lsr #2
  401ff8:	f8cd 35c0 	str.w	r3, [sp, #1472]	; 0x5c0

00401ffc <.LBE609>:
  401ffc:	f50d 63b7 	add.w	r3, sp, #1464	; 0x5b8
  402000:	e9d3 2300 	ldrd	r2, r3, [r3]
  402004:	f50d 61b8 	add.w	r1, sp, #1472	; 0x5c0
  402008:	e9d1 ab00 	ldrd	sl, fp, [r1]
  40200c:	ea82 020a 	eor.w	r2, r2, sl
  402010:	ea83 030b 	eor.w	r3, r3, fp

00402014 <.LBB611>:
  402014:	0669      	lsls	r1, r5, #25
  402016:	ea41 11d4 	orr.w	r1, r1, r4, lsr #7
  40201a:	f8cd 15cc 	str.w	r1, [sp, #1484]	; 0x5cc
  40201e:	0661      	lsls	r1, r4, #25
  402020:	ea41 11d5 	orr.w	r1, r1, r5, lsr #7
  402024:	f8cd 15c8 	str.w	r1, [sp, #1480]	; 0x5c8

00402028 <.LBE611>:
  402028:	f50d 61b9 	add.w	r1, sp, #1480	; 0x5c8
  40202c:	e9d1 0100 	ldrd	r0, r1, [r1]
  402030:	4050      	eors	r0, r2
  402032:	4059      	eors	r1, r3
  402034:	e9cd 012e 	strd	r0, r1, [sp, #184]	; 0xb8
  402038:	e9dd 2302 	ldrd	r2, r3, [sp, #8]
  40203c:	4610      	mov	r0, r2
  40203e:	4619      	mov	r1, r3
  402040:	4320      	orrs	r0, r4
  402042:	4329      	orrs	r1, r5
  402044:	e9dd ab2a 	ldrd	sl, fp, [sp, #168]	; 0xa8
  402048:	ea0a 0a00 	and.w	sl, sl, r0
  40204c:	ea0b 0b01 	and.w	fp, fp, r1
  402050:	4650      	mov	r0, sl
  402052:	4659      	mov	r1, fp
  402054:	4022      	ands	r2, r4
  402056:	402b      	ands	r3, r5
  402058:	4310      	orrs	r0, r2
  40205a:	4319      	orrs	r1, r3
  40205c:	e9dd 342e 	ldrd	r3, r4, [sp, #184]	; 0xb8
  402060:	181b      	adds	r3, r3, r0
  402062:	414c      	adcs	r4, r1
  402064:	e9dd ab18 	ldrd	sl, fp, [sp, #96]	; 0x60
  402068:	eb1a 0a03 	adds.w	sl, sl, r3
  40206c:	eb4b 0b04 	adc.w	fp, fp, r4

00402070 <.LBB613>:
  402070:	e9dd 0106 	ldrd	r0, r1, [sp, #24]
  402074:	0b83      	lsrs	r3, r0, #14
  402076:	ea43 4381 	orr.w	r3, r3, r1, lsl #18
  40207a:	f8cd 35d0 	str.w	r3, [sp, #1488]	; 0x5d0
  40207e:	0b8b      	lsrs	r3, r1, #14
  402080:	ea43 4380 	orr.w	r3, r3, r0, lsl #18
  402084:	f8cd 35d4 	str.w	r3, [sp, #1492]	; 0x5d4

00402088 <.LBB615>:
  402088:	0c83      	lsrs	r3, r0, #18
  40208a:	ea43 3381 	orr.w	r3, r3, r1, lsl #14
  40208e:	f8cd 35d8 	str.w	r3, [sp, #1496]	; 0x5d8
  402092:	0c8b      	lsrs	r3, r1, #18
  402094:	ea43 3380 	orr.w	r3, r3, r0, lsl #14
  402098:	f8cd 35dc 	str.w	r3, [sp, #1500]	; 0x5dc

0040209c <.LBE615>:
  40209c:	f50d 63ba 	add.w	r3, sp, #1488	; 0x5d0
  4020a0:	e9d3 4500 	ldrd	r4, r5, [r3]
  4020a4:	f50d 63bb 	add.w	r3, sp, #1496	; 0x5d8
  4020a8:	e9d3 2300 	ldrd	r2, r3, [r3]
  4020ac:	4054      	eors	r4, r2
  4020ae:	405d      	eors	r5, r3

004020b0 <.LBB617>:
  4020b0:	05c9      	lsls	r1, r1, #23
  4020b2:	9b06      	ldr	r3, [sp, #24]
  4020b4:	ea41 2353 	orr.w	r3, r1, r3, lsr #9
  4020b8:	f8cd 35e4 	str.w	r3, [sp, #1508]	; 0x5e4
  4020bc:	9b06      	ldr	r3, [sp, #24]
  4020be:	05d9      	lsls	r1, r3, #23
  4020c0:	9b07      	ldr	r3, [sp, #28]
  4020c2:	ea41 2353 	orr.w	r3, r1, r3, lsr #9
  4020c6:	f8cd 35e0 	str.w	r3, [sp, #1504]	; 0x5e0

004020ca <.LBE617>:
  4020ca:	f50d 63bc 	add.w	r3, sp, #1504	; 0x5e0
  4020ce:	e9d3 2300 	ldrd	r2, r3, [r3]
  4020d2:	4062      	eors	r2, r4
  4020d4:	406b      	eors	r3, r5
  4020d6:	e9cd 2318 	strd	r2, r3, [sp, #96]	; 0x60
  4020da:	e9dd 011a 	ldrd	r0, r1, [sp, #104]	; 0x68
  4020de:	ea80 0008 	eor.w	r0, r0, r8
  4020e2:	ea81 0109 	eor.w	r1, r1, r9
  4020e6:	e9dd 3406 	ldrd	r3, r4, [sp, #24]
  4020ea:	4003      	ands	r3, r0
  4020ec:	400c      	ands	r4, r1
  4020ee:	ea83 0008 	eor.w	r0, r3, r8
  4020f2:	ea84 0109 	eor.w	r1, r4, r9
  4020f6:	e9d6 231a 	ldrd	r2, r3, [r6, #104]	; 0x68
  4020fa:	e9dd 4504 	ldrd	r4, r5, [sp, #16]
  4020fe:	18a4      	adds	r4, r4, r2
  402100:	415d      	adcs	r5, r3
  402102:	1904      	adds	r4, r0, r4
  402104:	eb41 0505 	adc.w	r5, r1, r5
  402108:	e9cd 4504 	strd	r4, r5, [sp, #16]
  40210c:	2f00      	cmp	r7, #0
  40210e:	f000 83db 	beq.w	4028c8 <.LCFI3+0x9c>

00402112 <.LBB619>:
  402112:	e9dd 450c 	ldrd	r4, r5, [sp, #48]	; 0x30
  402116:	0863      	lsrs	r3, r4, #1
  402118:	ea43 73c5 	orr.w	r3, r3, r5, lsl #31
  40211c:	f8cd 35e8 	str.w	r3, [sp, #1512]	; 0x5e8
  402120:	086b      	lsrs	r3, r5, #1
  402122:	ea43 73c4 	orr.w	r3, r3, r4, lsl #31
  402126:	f8cd 35ec 	str.w	r3, [sp, #1516]	; 0x5ec

0040212a <.LBB621>:
  40212a:	0a23      	lsrs	r3, r4, #8
  40212c:	ea43 6305 	orr.w	r3, r3, r5, lsl #24
  402130:	f8cd 35f0 	str.w	r3, [sp, #1520]	; 0x5f0
  402134:	0a2b      	lsrs	r3, r5, #8
  402136:	ea43 6304 	orr.w	r3, r3, r4, lsl #24
  40213a:	f8cd 35f4 	str.w	r3, [sp, #1524]	; 0x5f4

0040213e <.LBE621>:
  40213e:	f50d 63bd 	add.w	r3, sp, #1512	; 0x5e8
  402142:	e9d3 2300 	ldrd	r2, r3, [r3]
  402146:	f50d 61be 	add.w	r1, sp, #1520	; 0x5f0
  40214a:	e9d1 0100 	ldrd	r0, r1, [r1]
  40214e:	4042      	eors	r2, r0
  402150:	404b      	eors	r3, r1
  402152:	09e1      	lsrs	r1, r4, #7
  402154:	ea41 6145 	orr.w	r1, r1, r5, lsl #25
  402158:	9164      	str	r1, [sp, #400]	; 0x190
  40215a:	09e9      	lsrs	r1, r5, #7
  40215c:	9165      	str	r1, [sp, #404]	; 0x194
  40215e:	a964      	add	r1, sp, #400	; 0x190
  402160:	e9d1 0100 	ldrd	r0, r1, [r1]
  402164:	4050      	eors	r0, r2
  402166:	4059      	eors	r1, r3
  402168:	4602      	mov	r2, r0
  40216a:	460b      	mov	r3, r1
  40216c:	e9dd 0126 	ldrd	r0, r1, [sp, #152]	; 0x98
  402170:	1880      	adds	r0, r0, r2
  402172:	4159      	adcs	r1, r3
  402174:	4602      	mov	r2, r0
  402176:	460b      	mov	r3, r1
  402178:	e9dd 010e 	ldrd	r0, r1, [sp, #56]	; 0x38
  40217c:	1880      	adds	r0, r0, r2
  40217e:	4159      	adcs	r1, r3
  402180:	e9cd 0126 	strd	r0, r1, [sp, #152]	; 0x98

00402184 <.LBB623>:
  402184:	e9dd 4514 	ldrd	r4, r5, [sp, #80]	; 0x50
  402188:	0ce1      	lsrs	r1, r4, #19
  40218a:	ea41 3145 	orr.w	r1, r1, r5, lsl #13
  40218e:	f8cd 15f8 	str.w	r1, [sp, #1528]	; 0x5f8
  402192:	0ce9      	lsrs	r1, r5, #19
  402194:	ea41 3144 	orr.w	r1, r1, r4, lsl #13
  402198:	f8cd 15fc 	str.w	r1, [sp, #1532]	; 0x5fc

0040219c <.LBB625>:
  40219c:	00e9      	lsls	r1, r5, #3
  40219e:	ea41 7154 	orr.w	r1, r1, r4, lsr #29
  4021a2:	f8cd 1604 	str.w	r1, [sp, #1540]	; 0x604
  4021a6:	00e1      	lsls	r1, r4, #3
  4021a8:	ea41 7155 	orr.w	r1, r1, r5, lsr #29
  4021ac:	f8cd 1600 	str.w	r1, [sp, #1536]	; 0x600

004021b0 <.LBE625>:
  4021b0:	f50d 63bf 	add.w	r3, sp, #1528	; 0x5f8
  4021b4:	e9d3 0100 	ldrd	r0, r1, [r3]
  4021b8:	f50d 63c0 	add.w	r3, sp, #1536	; 0x600
  4021bc:	e9d3 2300 	ldrd	r2, r3, [r3]
  4021c0:	4050      	eors	r0, r2
  4021c2:	4059      	eors	r1, r3
  4021c4:	09a4      	lsrs	r4, r4, #6
  4021c6:	9d15      	ldr	r5, [sp, #84]	; 0x54
  4021c8:	ea44 6485 	orr.w	r4, r4, r5, lsl #26
  4021cc:	9466      	str	r4, [sp, #408]	; 0x198
  4021ce:	09ac      	lsrs	r4, r5, #6
  4021d0:	9467      	str	r4, [sp, #412]	; 0x19c
  4021d2:	ab66      	add	r3, sp, #408	; 0x198
  4021d4:	e9d3 4500 	ldrd	r4, r5, [r3]
  4021d8:	4044      	eors	r4, r0
  4021da:	404d      	eors	r5, r1
  4021dc:	4620      	mov	r0, r4
  4021de:	e9dd 3426 	ldrd	r3, r4, [sp, #152]	; 0x98
  4021e2:	181b      	adds	r3, r3, r0
  4021e4:	416c      	adcs	r4, r5
  4021e6:	e9cd 3426 	strd	r3, r4, [sp, #152]	; 0x98
  4021ea:	e9dd 4504 	ldrd	r4, r5, [sp, #16]
  4021ee:	e9dd 2318 	ldrd	r2, r3, [sp, #96]	; 0x60
  4021f2:	1912      	adds	r2, r2, r4
  4021f4:	416b      	adcs	r3, r5
  4021f6:	4614      	mov	r4, r2
  4021f8:	461d      	mov	r5, r3
  4021fa:	e9dd 2326 	ldrd	r2, r3, [sp, #152]	; 0x98
  4021fe:	1912      	adds	r2, r2, r4
  402200:	416b      	adcs	r3, r5
  402202:	4610      	mov	r0, r2
  402204:	4619      	mov	r1, r3
  402206:	e9dd 232a 	ldrd	r2, r3, [sp, #168]	; 0xa8
  40220a:	e9cd 0118 	strd	r0, r1, [sp, #96]	; 0x60
  40220e:	1880      	adds	r0, r0, r2
  402210:	4159      	adcs	r1, r3
  402212:	4602      	mov	r2, r0
  402214:	460b      	mov	r3, r1
  402216:	e9cd 2304 	strd	r2, r3, [sp, #16]

0040221a <.LBB627>:
  40221a:	ea4f 731a 	mov.w	r3, sl, lsr #28
  40221e:	ea43 130b 	orr.w	r3, r3, fp, lsl #4
  402222:	f8cd 3608 	str.w	r3, [sp, #1544]	; 0x608
  402226:	ea4f 731b 	mov.w	r3, fp, lsr #28
  40222a:	ea43 130a 	orr.w	r3, r3, sl, lsl #4
  40222e:	f8cd 360c 	str.w	r3, [sp, #1548]	; 0x60c

00402232 <.LBB629>:
  402232:	ea4f 738b 	mov.w	r3, fp, lsl #30
  402236:	ea43 039a 	orr.w	r3, r3, sl, lsr #2
  40223a:	f8cd 3614 	str.w	r3, [sp, #1556]	; 0x614
  40223e:	ea4f 738a 	mov.w	r3, sl, lsl #30
  402242:	ea43 039b 	orr.w	r3, r3, fp, lsr #2
  402246:	f8cd 3610 	str.w	r3, [sp, #1552]	; 0x610

0040224a <.LBE629>:
  40224a:	f50d 63c1 	add.w	r3, sp, #1544	; 0x608
  40224e:	e9d3 3400 	ldrd	r3, r4, [r3]
  402252:	f50d 62c2 	add.w	r2, sp, #1552	; 0x610
  402256:	e9d2 1200 	ldrd	r1, r2, [r2]
  40225a:	404b      	eors	r3, r1
  40225c:	4054      	eors	r4, r2
  40225e:	461a      	mov	r2, r3
  402260:	4623      	mov	r3, r4

00402262 <.LBB631>:
  402262:	ea4f 614b 	mov.w	r1, fp, lsl #25
  402266:	ea41 11da 	orr.w	r1, r1, sl, lsr #7
  40226a:	f8cd 161c 	str.w	r1, [sp, #1564]	; 0x61c
  40226e:	ea4f 614a 	mov.w	r1, sl, lsl #25
  402272:	ea41 11db 	orr.w	r1, r1, fp, lsr #7
  402276:	f8cd 1618 	str.w	r1, [sp, #1560]	; 0x618

0040227a <.LBE631>:
  40227a:	f50d 61c3 	add.w	r1, sp, #1560	; 0x618
  40227e:	e9d1 4500 	ldrd	r4, r5, [r1]
  402282:	4054      	eors	r4, r2
  402284:	405d      	eors	r5, r3
  402286:	e9cd 452a 	strd	r4, r5, [sp, #168]	; 0xa8
  40228a:	e9dd 452c 	ldrd	r4, r5, [sp, #176]	; 0xb0
  40228e:	ea44 000a 	orr.w	r0, r4, sl
  402292:	ea45 010b 	orr.w	r1, r5, fp
  402296:	e9dd 2302 	ldrd	r2, r3, [sp, #8]
  40229a:	4002      	ands	r2, r0
  40229c:	400b      	ands	r3, r1
  40229e:	ea04 040a 	and.w	r4, r4, sl
  4022a2:	ea05 050b 	and.w	r5, r5, fp
  4022a6:	4314      	orrs	r4, r2
  4022a8:	431d      	orrs	r5, r3
  4022aa:	e9dd 232a 	ldrd	r2, r3, [sp, #168]	; 0xa8
  4022ae:	1912      	adds	r2, r2, r4
  4022b0:	416b      	adcs	r3, r5
  4022b2:	4619      	mov	r1, r3
  4022b4:	e9dd 3418 	ldrd	r3, r4, [sp, #96]	; 0x60
  4022b8:	189b      	adds	r3, r3, r2
  4022ba:	414c      	adcs	r4, r1
  4022bc:	e9cd 342a 	strd	r3, r4, [sp, #168]	; 0xa8

004022c0 <.LBB633>:
  4022c0:	e9dd 0104 	ldrd	r0, r1, [sp, #16]
  4022c4:	0b83      	lsrs	r3, r0, #14
  4022c6:	ea43 4381 	orr.w	r3, r3, r1, lsl #18
  4022ca:	f8cd 3620 	str.w	r3, [sp, #1568]	; 0x620
  4022ce:	0b8b      	lsrs	r3, r1, #14
  4022d0:	ea43 4380 	orr.w	r3, r3, r0, lsl #18
  4022d4:	f8cd 3624 	str.w	r3, [sp, #1572]	; 0x624

004022d8 <.LBB635>:
  4022d8:	0c83      	lsrs	r3, r0, #18
  4022da:	ea43 3381 	orr.w	r3, r3, r1, lsl #14
  4022de:	f8cd 3628 	str.w	r3, [sp, #1576]	; 0x628
  4022e2:	0c8b      	lsrs	r3, r1, #18
  4022e4:	ea43 3380 	orr.w	r3, r3, r0, lsl #14
  4022e8:	f8cd 362c 	str.w	r3, [sp, #1580]	; 0x62c

004022ec <.LBE635>:
  4022ec:	f50d 63c4 	add.w	r3, sp, #1568	; 0x620
  4022f0:	e9d3 4500 	ldrd	r4, r5, [r3]
  4022f4:	f50d 63c5 	add.w	r3, sp, #1576	; 0x628
  4022f8:	e9d3 2300 	ldrd	r2, r3, [r3]
  4022fc:	4054      	eors	r4, r2
  4022fe:	405d      	eors	r5, r3

00402300 <.LBB637>:
  402300:	05c9      	lsls	r1, r1, #23
  402302:	9b04      	ldr	r3, [sp, #16]
  402304:	ea41 2353 	orr.w	r3, r1, r3, lsr #9
  402308:	f8cd 3634 	str.w	r3, [sp, #1588]	; 0x634
  40230c:	9b04      	ldr	r3, [sp, #16]
  40230e:	05d9      	lsls	r1, r3, #23
  402310:	9b05      	ldr	r3, [sp, #20]
  402312:	ea41 2353 	orr.w	r3, r1, r3, lsr #9
  402316:	f8cd 3630 	str.w	r3, [sp, #1584]	; 0x630

0040231a <.LBE637>:
  40231a:	f50d 63c6 	add.w	r3, sp, #1584	; 0x630
  40231e:	e9d3 2300 	ldrd	r2, r3, [r3]
  402322:	4062      	eors	r2, r4
  402324:	406b      	eors	r3, r5
  402326:	e9cd 2318 	strd	r2, r3, [sp, #96]	; 0x60
  40232a:	e9dd 011a 	ldrd	r0, r1, [sp, #104]	; 0x68
  40232e:	e9dd 2306 	ldrd	r2, r3, [sp, #24]
  402332:	4050      	eors	r0, r2
  402334:	4059      	eors	r1, r3
  402336:	e9dd 3404 	ldrd	r3, r4, [sp, #16]
  40233a:	4003      	ands	r3, r0
  40233c:	400c      	ands	r4, r1
  40233e:	4618      	mov	r0, r3
  402340:	4621      	mov	r1, r4
  402342:	e9dd 341a 	ldrd	r3, r4, [sp, #104]	; 0x68
  402346:	4043      	eors	r3, r0
  402348:	404c      	eors	r4, r1
  40234a:	4618      	mov	r0, r3
  40234c:	e9d6 231c 	ldrd	r2, r3, [r6, #112]	; 0x70
  402350:	eb18 0802 	adds.w	r8, r8, r2
  402354:	eb49 0903 	adc.w	r9, r9, r3
  402358:	eb18 0800 	adds.w	r8, r8, r0
  40235c:	eb49 0904 	adc.w	r9, r9, r4
  402360:	2f00      	cmp	r7, #0
  402362:	f000 82b6 	beq.w	4028d2 <.LCFI3+0xa6>

00402366 <.LBB639>:
  402366:	e9dd 4528 	ldrd	r4, r5, [sp, #160]	; 0xa0
  40236a:	0863      	lsrs	r3, r4, #1
  40236c:	ea43 73c5 	orr.w	r3, r3, r5, lsl #31
  402370:	f8cd 3638 	str.w	r3, [sp, #1592]	; 0x638
  402374:	086b      	lsrs	r3, r5, #1
  402376:	ea43 73c4 	orr.w	r3, r3, r4, lsl #31
  40237a:	f8cd 363c 	str.w	r3, [sp, #1596]	; 0x63c

0040237e <.LBB641>:
  40237e:	0a23      	lsrs	r3, r4, #8
  402380:	ea43 6305 	orr.w	r3, r3, r5, lsl #24
  402384:	f8cd 3640 	str.w	r3, [sp, #1600]	; 0x640
  402388:	0a2b      	lsrs	r3, r5, #8
  40238a:	ea43 6304 	orr.w	r3, r3, r4, lsl #24
  40238e:	f8cd 3644 	str.w	r3, [sp, #1604]	; 0x644

00402392 <.LBE641>:
  402392:	f50d 63c7 	add.w	r3, sp, #1592	; 0x638
  402396:	e9d3 2300 	ldrd	r2, r3, [r3]
  40239a:	f50d 61c8 	add.w	r1, sp, #1600	; 0x640
  40239e:	e9d1 0100 	ldrd	r0, r1, [r1]
  4023a2:	4042      	eors	r2, r0
  4023a4:	404b      	eors	r3, r1
  4023a6:	09e1      	lsrs	r1, r4, #7
  4023a8:	ea41 6145 	orr.w	r1, r1, r5, lsl #25
  4023ac:	9168      	str	r1, [sp, #416]	; 0x1a0
  4023ae:	09e9      	lsrs	r1, r5, #7
  4023b0:	9169      	str	r1, [sp, #420]	; 0x1a4
  4023b2:	a968      	add	r1, sp, #416	; 0x1a0
  4023b4:	e9d1 0100 	ldrd	r0, r1, [r1]
  4023b8:	4050      	eors	r0, r2
  4023ba:	4059      	eors	r1, r3
  4023bc:	4602      	mov	r2, r0
  4023be:	460b      	mov	r3, r1
  4023c0:	e9dd 010c 	ldrd	r0, r1, [sp, #48]	; 0x30
  4023c4:	1880      	adds	r0, r0, r2
  4023c6:	4159      	adcs	r1, r3
  4023c8:	4602      	mov	r2, r0
  4023ca:	460b      	mov	r3, r1
  4023cc:	e9dd 0110 	ldrd	r0, r1, [sp, #64]	; 0x40
  4023d0:	1880      	adds	r0, r0, r2
  4023d2:	4159      	adcs	r1, r3
  4023d4:	e9cd 010c 	strd	r0, r1, [sp, #48]	; 0x30

004023d8 <.LBB643>:
  4023d8:	e9dd 4516 	ldrd	r4, r5, [sp, #88]	; 0x58
  4023dc:	0ce1      	lsrs	r1, r4, #19
  4023de:	ea41 3145 	orr.w	r1, r1, r5, lsl #13
  4023e2:	f8cd 1648 	str.w	r1, [sp, #1608]	; 0x648
  4023e6:	0ce9      	lsrs	r1, r5, #19
  4023e8:	ea41 3144 	orr.w	r1, r1, r4, lsl #13
  4023ec:	f8cd 164c 	str.w	r1, [sp, #1612]	; 0x64c

004023f0 <.LBB645>:
  4023f0:	00e9      	lsls	r1, r5, #3
  4023f2:	ea41 7154 	orr.w	r1, r1, r4, lsr #29
  4023f6:	f8cd 1654 	str.w	r1, [sp, #1620]	; 0x654
  4023fa:	00e1      	lsls	r1, r4, #3
  4023fc:	ea41 7155 	orr.w	r1, r1, r5, lsr #29
  402400:	f8cd 1650 	str.w	r1, [sp, #1616]	; 0x650

00402404 <.LBE645>:
  402404:	f50d 63c9 	add.w	r3, sp, #1608	; 0x648
  402408:	e9d3 0100 	ldrd	r0, r1, [r3]
  40240c:	f50d 63ca 	add.w	r3, sp, #1616	; 0x650
  402410:	e9d3 2300 	ldrd	r2, r3, [r3]
  402414:	4050      	eors	r0, r2
  402416:	4059      	eors	r1, r3
  402418:	09a4      	lsrs	r4, r4, #6
  40241a:	9d17      	ldr	r5, [sp, #92]	; 0x5c
  40241c:	ea44 6485 	orr.w	r4, r4, r5, lsl #26
  402420:	946a      	str	r4, [sp, #424]	; 0x1a8
  402422:	09ac      	lsrs	r4, r5, #6
  402424:	946b      	str	r4, [sp, #428]	; 0x1ac
  402426:	ab6a      	add	r3, sp, #424	; 0x1a8
  402428:	e9d3 4500 	ldrd	r4, r5, [r3]
  40242c:	4044      	eors	r4, r0
  40242e:	404d      	eors	r5, r1
  402430:	4620      	mov	r0, r4
  402432:	e9dd 340c 	ldrd	r3, r4, [sp, #48]	; 0x30
  402436:	181b      	adds	r3, r3, r0
  402438:	416c      	adcs	r4, r5
  40243a:	e9cd 340c 	strd	r3, r4, [sp, #48]	; 0x30
  40243e:	e9dd 4518 	ldrd	r4, r5, [sp, #96]	; 0x60
  402442:	eb14 0408 	adds.w	r4, r4, r8
  402446:	eb45 0509 	adc.w	r5, r5, r9
  40244a:	e9dd 230c 	ldrd	r2, r3, [sp, #48]	; 0x30
  40244e:	1912      	adds	r2, r2, r4
  402450:	416b      	adcs	r3, r5
  402452:	461c      	mov	r4, r3
  402454:	4613      	mov	r3, r2
  402456:	e9dd 8902 	ldrd	r8, r9, [sp, #8]
  40245a:	e9cd 3402 	strd	r3, r4, [sp, #8]
  40245e:	eb12 0208 	adds.w	r2, r2, r8
  402462:	eb44 0309 	adc.w	r3, r4, r9
  402466:	4690      	mov	r8, r2
  402468:	4699      	mov	r9, r3

0040246a <.LBB647>:
  40246a:	e9dd 452a 	ldrd	r4, r5, [sp, #168]	; 0xa8
  40246e:	0f23      	lsrs	r3, r4, #28
  402470:	ea43 1305 	orr.w	r3, r3, r5, lsl #4
  402474:	f8cd 3658 	str.w	r3, [sp, #1624]	; 0x658
  402478:	0f2b      	lsrs	r3, r5, #28
  40247a:	ea43 1304 	orr.w	r3, r3, r4, lsl #4
  40247e:	f8cd 365c 	str.w	r3, [sp, #1628]	; 0x65c

00402482 <.LBB649>:
  402482:	07ab      	lsls	r3, r5, #30
  402484:	ea43 0394 	orr.w	r3, r3, r4, lsr #2
  402488:	f8cd 3664 	str.w	r3, [sp, #1636]	; 0x664
  40248c:	07a3      	lsls	r3, r4, #30
  40248e:	ea43 0395 	orr.w	r3, r3, r5, lsr #2
  402492:	f8cd 3660 	str.w	r3, [sp, #1632]	; 0x660

00402496 <.LBE649>:
  402496:	f50d 63cb 	add.w	r3, sp, #1624	; 0x658
  40249a:	e9d3 2300 	ldrd	r2, r3, [r3]
  40249e:	f50d 61cc 	add.w	r1, sp, #1632	; 0x660
  4024a2:	e9d1 0100 	ldrd	r0, r1, [r1]
  4024a6:	4042      	eors	r2, r0
  4024a8:	404b      	eors	r3, r1

004024aa <.LBB651>:
  4024aa:	0669      	lsls	r1, r5, #25
  4024ac:	ea41 11d4 	orr.w	r1, r1, r4, lsr #7
  4024b0:	f8cd 166c 	str.w	r1, [sp, #1644]	; 0x66c
  4024b4:	0661      	lsls	r1, r4, #25
  4024b6:	ea41 11d5 	orr.w	r1, r1, r5, lsr #7
  4024ba:	f8cd 1668 	str.w	r1, [sp, #1640]	; 0x668

004024be <.LBE651>:
  4024be:	f50d 61cd 	add.w	r1, sp, #1640	; 0x668
  4024c2:	e9d1 0100 	ldrd	r0, r1, [r1]
  4024c6:	4050      	eors	r0, r2
  4024c8:	4059      	eors	r1, r3
  4024ca:	e9cd 0118 	strd	r0, r1, [sp, #96]	; 0x60
  4024ce:	ea44 000a 	orr.w	r0, r4, sl
  4024d2:	ea45 010b 	orr.w	r1, r5, fp
  4024d6:	e9dd 232c 	ldrd	r2, r3, [sp, #176]	; 0xb0
  4024da:	4002      	ands	r2, r0
  4024dc:	400b      	ands	r3, r1
  4024de:	ea04 040a 	and.w	r4, r4, sl
  4024e2:	ea05 050b 	and.w	r5, r5, fp
  4024e6:	4314      	orrs	r4, r2
  4024e8:	431d      	orrs	r5, r3
  4024ea:	4620      	mov	r0, r4
  4024ec:	4629      	mov	r1, r5
  4024ee:	e9dd 4518 	ldrd	r4, r5, [sp, #96]	; 0x60
  4024f2:	1824      	adds	r4, r4, r0
  4024f4:	414d      	adcs	r5, r1
  4024f6:	4620      	mov	r0, r4
  4024f8:	e9dd 3402 	ldrd	r3, r4, [sp, #8]
  4024fc:	181b      	adds	r3, r3, r0
  4024fe:	416c      	adcs	r4, r5
  402500:	e9cd 3418 	strd	r3, r4, [sp, #96]	; 0x60

00402504 <.LBB653>:
  402504:	ea4f 3398 	mov.w	r3, r8, lsr #14
  402508:	ea43 4389 	orr.w	r3, r3, r9, lsl #18
  40250c:	f8cd 3670 	str.w	r3, [sp, #1648]	; 0x670
  402510:	ea4f 3399 	mov.w	r3, r9, lsr #14
  402514:	ea43 4388 	orr.w	r3, r3, r8, lsl #18
  402518:	f8cd 3674 	str.w	r3, [sp, #1652]	; 0x674

0040251c <.LBB655>:
  40251c:	ea4f 4398 	mov.w	r3, r8, lsr #18
  402520:	ea43 3389 	orr.w	r3, r3, r9, lsl #14
  402524:	f8cd 3678 	str.w	r3, [sp, #1656]	; 0x678
  402528:	ea4f 4399 	mov.w	r3, r9, lsr #18
  40252c:	ea43 3388 	orr.w	r3, r3, r8, lsl #14
  402530:	f8cd 367c 	str.w	r3, [sp, #1660]	; 0x67c

00402534 <.LBE655>:
  402534:	f50d 63ce 	add.w	r3, sp, #1648	; 0x670
  402538:	e9d3 2300 	ldrd	r2, r3, [r3]
  40253c:	f50d 61cf 	add.w	r1, sp, #1656	; 0x678
  402540:	e9d1 0100 	ldrd	r0, r1, [r1]
  402544:	4042      	eors	r2, r0
  402546:	404b      	eors	r3, r1

00402548 <.LBB657>:
  402548:	ea4f 51c9 	mov.w	r1, r9, lsl #23
  40254c:	ea41 2158 	orr.w	r1, r1, r8, lsr #9
  402550:	f8cd 1684 	str.w	r1, [sp, #1668]	; 0x684
  402554:	ea4f 51c8 	mov.w	r1, r8, lsl #23
  402558:	ea41 2159 	orr.w	r1, r1, r9, lsr #9
  40255c:	f8cd 1680 	str.w	r1, [sp, #1664]	; 0x680

00402560 <.LBE657>:
  402560:	f50d 61d0 	add.w	r1, sp, #1664	; 0x680
  402564:	e9d1 0100 	ldrd	r0, r1, [r1]
  402568:	4050      	eors	r0, r2
  40256a:	4059      	eors	r1, r3
  40256c:	e9cd 012e 	strd	r0, r1, [sp, #184]	; 0xb8
  402570:	e9dd 0106 	ldrd	r0, r1, [sp, #24]
  402574:	4602      	mov	r2, r0
  402576:	460b      	mov	r3, r1
  402578:	e9dd 4504 	ldrd	r4, r5, [sp, #16]
  40257c:	4062      	eors	r2, r4
  40257e:	406b      	eors	r3, r5
  402580:	ea02 0208 	and.w	r2, r2, r8
  402584:	ea03 0309 	and.w	r3, r3, r9
  402588:	4050      	eors	r0, r2
  40258a:	4059      	eors	r1, r3
  40258c:	4602      	mov	r2, r0
  40258e:	460b      	mov	r3, r1
  402590:	e9d6 011e 	ldrd	r0, r1, [r6, #120]	; 0x78
  402594:	e9dd 451a 	ldrd	r4, r5, [sp, #104]	; 0x68
  402598:	1824      	adds	r4, r4, r0
  40259a:	414d      	adcs	r5, r1
  40259c:	1914      	adds	r4, r2, r4
  40259e:	eb43 0505 	adc.w	r5, r3, r5
  4025a2:	e9cd 4502 	strd	r4, r5, [sp, #8]
  4025a6:	2f00      	cmp	r7, #0
  4025a8:	f000 8198 	beq.w	4028dc <.LCFI3+0xb0>

004025ac <.LBB659>:
  4025ac:	e9dd 011c 	ldrd	r0, r1, [sp, #112]	; 0x70
  4025b0:	0843      	lsrs	r3, r0, #1
  4025b2:	ea43 73c1 	orr.w	r3, r3, r1, lsl #31
  4025b6:	f8cd 3688 	str.w	r3, [sp, #1672]	; 0x688
  4025ba:	084b      	lsrs	r3, r1, #1
  4025bc:	ea43 73c0 	orr.w	r3, r3, r0, lsl #31
  4025c0:	f8cd 368c 	str.w	r3, [sp, #1676]	; 0x68c

004025c4 <.LBB661>:
  4025c4:	0a03      	lsrs	r3, r0, #8
  4025c6:	ea43 6301 	orr.w	r3, r3, r1, lsl #24
  4025ca:	f8cd 3690 	str.w	r3, [sp, #1680]	; 0x690
  4025ce:	0a0b      	lsrs	r3, r1, #8
  4025d0:	ea43 6300 	orr.w	r3, r3, r0, lsl #24
  4025d4:	f8cd 3694 	str.w	r3, [sp, #1684]	; 0x694

004025d8 <.LBE661>:
  4025d8:	f50d 63d1 	add.w	r3, sp, #1672	; 0x688
  4025dc:	e9d3 2300 	ldrd	r2, r3, [r3]
  4025e0:	f50d 64d2 	add.w	r4, sp, #1680	; 0x690
  4025e4:	e9d4 4500 	ldrd	r4, r5, [r4]
  4025e8:	4062      	eors	r2, r4
  4025ea:	406b      	eors	r3, r5
  4025ec:	460d      	mov	r5, r1
  4025ee:	09c1      	lsrs	r1, r0, #7
  4025f0:	ea41 6145 	orr.w	r1, r1, r5, lsl #25
  4025f4:	916c      	str	r1, [sp, #432]	; 0x1b0
  4025f6:	09e9      	lsrs	r1, r5, #7
  4025f8:	916d      	str	r1, [sp, #436]	; 0x1b4
  4025fa:	a96c      	add	r1, sp, #432	; 0x1b0
  4025fc:	e9d1 0100 	ldrd	r0, r1, [r1]
  402600:	4050      	eors	r0, r2
  402602:	4059      	eors	r1, r3
  402604:	4602      	mov	r2, r0
  402606:	460b      	mov	r3, r1
  402608:	e9dd 0128 	ldrd	r0, r1, [sp, #160]	; 0xa0
  40260c:	1880      	adds	r0, r0, r2
  40260e:	4159      	adcs	r1, r3
  402610:	4602      	mov	r2, r0
  402612:	460b      	mov	r3, r1
  402614:	e9dd 0100 	ldrd	r0, r1, [sp]
  402618:	1880      	adds	r0, r0, r2
  40261a:	4159      	adcs	r1, r3
  40261c:	e9cd 011a 	strd	r0, r1, [sp, #104]	; 0x68

00402620 <.LBB663>:
  402620:	e9dd 5626 	ldrd	r5, r6, [sp, #152]	; 0x98
  402624:	0ce9      	lsrs	r1, r5, #19
  402626:	ea41 3146 	orr.w	r1, r1, r6, lsl #13
  40262a:	f8cd 1698 	str.w	r1, [sp, #1688]	; 0x698
  40262e:	0cf1      	lsrs	r1, r6, #19
  402630:	ea41 3145 	orr.w	r1, r1, r5, lsl #13
  402634:	f8cd 169c 	str.w	r1, [sp, #1692]	; 0x69c

00402638 <.LBB665>:
  402638:	00f1      	lsls	r1, r6, #3
  40263a:	ea41 7155 	orr.w	r1, r1, r5, lsr #29
  40263e:	f8cd 16a4 	str.w	r1, [sp, #1700]	; 0x6a4
  402642:	00e9      	lsls	r1, r5, #3
  402644:	ea41 7156 	orr.w	r1, r1, r6, lsr #29
  402648:	f8cd 16a0 	str.w	r1, [sp, #1696]	; 0x6a0

0040264c <.LBE665>:
  40264c:	f50d 63d3 	add.w	r3, sp, #1688	; 0x698
  402650:	e9d3 0100 	ldrd	r0, r1, [r3]
  402654:	f50d 63d4 	add.w	r3, sp, #1696	; 0x6a0
  402658:	e9d3 3400 	ldrd	r3, r4, [r3]
  40265c:	4058      	eors	r0, r3
  40265e:	4061      	eors	r1, r4
  402660:	462c      	mov	r4, r5
  402662:	4635      	mov	r5, r6
  402664:	09a6      	lsrs	r6, r4, #6
  402666:	4633      	mov	r3, r6
  402668:	ea43 6685 	orr.w	r6, r3, r5, lsl #26
  40266c:	966e      	str	r6, [sp, #440]	; 0x1b8
  40266e:	09ae      	lsrs	r6, r5, #6
  402670:	966f      	str	r6, [sp, #444]	; 0x1bc
  402672:	ab6e      	add	r3, sp, #440	; 0x1b8
  402674:	e9d3 3400 	ldrd	r3, r4, [r3]
  402678:	4043      	eors	r3, r0
  40267a:	404c      	eors	r4, r1
  40267c:	4618      	mov	r0, r3
  40267e:	4621      	mov	r1, r4
  402680:	e9dd 341a 	ldrd	r3, r4, [sp, #104]	; 0x68
  402684:	181b      	adds	r3, r3, r0
  402686:	414c      	adcs	r4, r1
  402688:	e9cd 3428 	strd	r3, r4, [sp, #160]	; 0xa0
  40268c:	e9dd 452e 	ldrd	r4, r5, [sp, #184]	; 0xb8
  402690:	e9dd 2302 	ldrd	r2, r3, [sp, #8]
  402694:	1912      	adds	r2, r2, r4
  402696:	416b      	adcs	r3, r5
  402698:	4614      	mov	r4, r2
  40269a:	461d      	mov	r5, r3
  40269c:	e9dd 2328 	ldrd	r2, r3, [sp, #160]	; 0xa0
  4026a0:	1912      	adds	r2, r2, r4
  4026a2:	416b      	adcs	r3, r5
  4026a4:	4611      	mov	r1, r2
  4026a6:	461a      	mov	r2, r3
  4026a8:	e9dd 342c 	ldrd	r3, r4, [sp, #176]	; 0xb0
  4026ac:	e9cd 121a 	strd	r1, r2, [sp, #104]	; 0x68
  4026b0:	18c9      	adds	r1, r1, r3
  4026b2:	4162      	adcs	r2, r4
  4026b4:	460b      	mov	r3, r1
  4026b6:	4614      	mov	r4, r2
  4026b8:	e9cd 3402 	strd	r3, r4, [sp, #8]

004026bc <.LBB667>:
  4026bc:	e9dd 4518 	ldrd	r4, r5, [sp, #96]	; 0x60
  4026c0:	0f23      	lsrs	r3, r4, #28
  4026c2:	ea43 1305 	orr.w	r3, r3, r5, lsl #4
  4026c6:	f8cd 36a8 	str.w	r3, [sp, #1704]	; 0x6a8
  4026ca:	0f2b      	lsrs	r3, r5, #28
  4026cc:	ea43 1304 	orr.w	r3, r3, r4, lsl #4
  4026d0:	f8cd 36ac 	str.w	r3, [sp, #1708]	; 0x6ac

004026d4 <.LBB669>:
  4026d4:	07ab      	lsls	r3, r5, #30
  4026d6:	ea43 0394 	orr.w	r3, r3, r4, lsr #2
  4026da:	f8cd 36b4 	str.w	r3, [sp, #1716]	; 0x6b4
  4026de:	07a3      	lsls	r3, r4, #30
  4026e0:	ea43 0395 	orr.w	r3, r3, r5, lsr #2
  4026e4:	f8cd 36b0 	str.w	r3, [sp, #1712]	; 0x6b0

004026e8 <.LBE669>:
  4026e8:	f50d 63d5 	add.w	r3, sp, #1704	; 0x6a8
  4026ec:	e9d3 2300 	ldrd	r2, r3, [r3]
  4026f0:	f50d 61d6 	add.w	r1, sp, #1712	; 0x6b0
  4026f4:	e9d1 0100 	ldrd	r0, r1, [r1]
  4026f8:	4042      	eors	r2, r0
  4026fa:	404b      	eors	r3, r1

004026fc <.LBB671>:
  4026fc:	0669      	lsls	r1, r5, #25
  4026fe:	ea41 11d4 	orr.w	r1, r1, r4, lsr #7
  402702:	f8cd 16bc 	str.w	r1, [sp, #1724]	; 0x6bc
  402706:	0661      	lsls	r1, r4, #25
  402708:	ea41 11d5 	orr.w	r1, r1, r5, lsr #7
  40270c:	f8cd 16b8 	str.w	r1, [sp, #1720]	; 0x6b8

00402710 <.LBE671>:
  402710:	f50d 61d7 	add.w	r1, sp, #1720	; 0x6b8
  402714:	e9d1 4500 	ldrd	r4, r5, [r1]
  402718:	4054      	eors	r4, r2
  40271a:	405d      	eors	r5, r3
  40271c:	e9cd 452c 	strd	r4, r5, [sp, #176]	; 0xb0
  402720:	e9dd 562a 	ldrd	r5, r6, [sp, #168]	; 0xa8
  402724:	462a      	mov	r2, r5
  402726:	4633      	mov	r3, r6
  402728:	e9dd 0118 	ldrd	r0, r1, [sp, #96]	; 0x60
  40272c:	4302      	orrs	r2, r0
  40272e:	430b      	orrs	r3, r1
  402730:	ea02 000a 	and.w	r0, r2, sl
  402734:	ea03 010b 	and.w	r1, r3, fp
  402738:	e9dd 3418 	ldrd	r3, r4, [sp, #96]	; 0x60
  40273c:	401d      	ands	r5, r3
  40273e:	4026      	ands	r6, r4
  402740:	4305      	orrs	r5, r0
  402742:	430e      	orrs	r6, r1
  402744:	e9dd 342c 	ldrd	r3, r4, [sp, #176]	; 0xb0
  402748:	195b      	adds	r3, r3, r5
  40274a:	4174      	adcs	r4, r6
  40274c:	4621      	mov	r1, r4
  40274e:	e9dd 451a 	ldrd	r4, r5, [sp, #104]	; 0x68
  402752:	18e4      	adds	r4, r4, r3
  402754:	414d      	adcs	r5, r1
    for (j = 0; j < 80; j += 16) {
  402756:	3710      	adds	r7, #16
  402758:	f10e 0e80 	add.w	lr, lr, #128	; 0x80
  40275c:	2f50      	cmp	r7, #80	; 0x50
  40275e:	f47d adc2 	bne.w	4002e6 <.LBB353>
    }
#endif /* USE_SLOW_SHA2 */

    /* Add the working vars back into digest */

    sha512->digest[0] += a(0);
  402762:	f8dd 06cc 	ldr.w	r0, [sp, #1740]	; 0x6cc
  402766:	e9d0 2306 	ldrd	r2, r3, [r0, #24]
  40276a:	18a4      	adds	r4, r4, r2
  40276c:	415d      	adcs	r5, r3
  40276e:	4622      	mov	r2, r4
  402770:	462b      	mov	r3, r5
  402772:	e9c0 2306 	strd	r2, r3, [r0, #24]
    sha512->digest[1] += b(0);
  402776:	e9d0 2308 	ldrd	r2, r3, [r0, #32]
  40277a:	e9dd 4518 	ldrd	r4, r5, [sp, #96]	; 0x60
  40277e:	18a4      	adds	r4, r4, r2
  402780:	415d      	adcs	r5, r3
  402782:	4622      	mov	r2, r4
  402784:	462b      	mov	r3, r5
  402786:	e9c0 2308 	strd	r2, r3, [r0, #32]
    sha512->digest[2] += c(0);
  40278a:	e9d0 230a 	ldrd	r2, r3, [r0, #40]	; 0x28
  40278e:	e9dd 452a 	ldrd	r4, r5, [sp, #168]	; 0xa8
  402792:	18a4      	adds	r4, r4, r2
  402794:	415d      	adcs	r5, r3
  402796:	4622      	mov	r2, r4
  402798:	462b      	mov	r3, r5
  40279a:	e9c0 230a 	strd	r2, r3, [r0, #40]	; 0x28
    sha512->digest[3] += d(0);
  40279e:	e9d0 230c 	ldrd	r2, r3, [r0, #48]	; 0x30
  4027a2:	eb12 020a 	adds.w	r2, r2, sl
  4027a6:	eb43 030b 	adc.w	r3, r3, fp
  4027aa:	e9c0 230c 	strd	r2, r3, [r0, #48]	; 0x30
    sha512->digest[4] += e(0);
  4027ae:	e9d0 230e 	ldrd	r2, r3, [r0, #56]	; 0x38
  4027b2:	e9dd 4502 	ldrd	r4, r5, [sp, #8]
  4027b6:	18a4      	adds	r4, r4, r2
  4027b8:	415d      	adcs	r5, r3
  4027ba:	4622      	mov	r2, r4
  4027bc:	462b      	mov	r3, r5
  4027be:	e9c0 230e 	strd	r2, r3, [r0, #56]	; 0x38
    sha512->digest[5] += f(0);
  4027c2:	e9d0 2310 	ldrd	r2, r3, [r0, #64]	; 0x40
  4027c6:	eb12 0208 	adds.w	r2, r2, r8
  4027ca:	eb43 0309 	adc.w	r3, r3, r9
  4027ce:	e9c0 2310 	strd	r2, r3, [r0, #64]	; 0x40
    sha512->digest[6] += g(0);
  4027d2:	e9d0 2312 	ldrd	r2, r3, [r0, #72]	; 0x48
  4027d6:	e9dd 4504 	ldrd	r4, r5, [sp, #16]
  4027da:	18a4      	adds	r4, r4, r2
  4027dc:	415d      	adcs	r5, r3
  4027de:	4622      	mov	r2, r4
  4027e0:	462b      	mov	r3, r5
  4027e2:	e9c0 2312 	strd	r2, r3, [r0, #72]	; 0x48
    sha512->digest[7] += h(0);
  4027e6:	e9d0 2314 	ldrd	r2, r3, [r0, #80]	; 0x50
  4027ea:	e9dd 4506 	ldrd	r4, r5, [sp, #24]
  4027ee:	18a4      	adds	r4, r4, r2
  4027f0:	415d      	adcs	r5, r3
  4027f2:	4622      	mov	r2, r4
  4027f4:	462b      	mov	r3, r5
  4027f6:	e9c0 2314 	strd	r2, r3, [r0, #80]	; 0x50

004027fa <.LBB673>:


/* Make sure compiler doesn't skip */
STATIC INLINE void ForceZero(const void* mem, word32 len)
{
    volatile byte* z = (volatile byte*)mem;
  4027fa:	f50d 63da 	add.w	r3, sp, #1744	; 0x6d0

004027fe <.LVL8>:

    for (w = (volatile word64*)z; len >= sizeof(*w); len -= sizeof(*w))
        *w++ = 0;
    z = (volatile byte*)w;
#endif
    while (len--) *z++ = 0;
  4027fe:	2000      	movs	r0, #0
  402800:	f50d 61ea 	add.w	r1, sp, #1872	; 0x750

00402804 <.LVL9>:
  402804:	1c5a      	adds	r2, r3, #1

00402806 <.LVL10>:
  402806:	7018      	strb	r0, [r3, #0]

00402808 <.LVL11>:
  402808:	4613      	mov	r3, r2
  40280a:	428a      	cmp	r2, r1
  40280c:	d1fa      	bne.n	402804 <.LVL9>
  40280e:	f50d 63ea 	add.w	r3, sp, #1872	; 0x750

00402812 <.LBB675>:
  402812:	2100      	movs	r1, #0

00402814 <.LVL12>:
  402814:	1c5a      	adds	r2, r3, #1

00402816 <.LVL13>:
  402816:	7019      	strb	r1, [r3, #0]

00402818 <.LVL14>:
  402818:	4613      	mov	r3, r2
  40281a:	f50d 60f2 	add.w	r0, sp, #1936	; 0x790
  40281e:	4282      	cmp	r2, r0
  402820:	d1f8      	bne.n	402814 <.LVL12>

00402822 <.LBE675>:
#ifdef WOLFSSL_SMALL_STACK
    XFREE(W, NULL, DYNAMIC_TYPE_TMP_BUFFER);
#endif

    return 0;
}
  402822:	2000      	movs	r0, #0
  402824:	f20d 7d94 	addw	sp, sp, #1940	; 0x794

00402828 <.LCFI2>:
  402828:	e8bd 8ff0 	ldmia.w	sp!, {r4, r5, r6, r7, r8, r9, sl, fp, pc}

0040282c <.LCFI3>:
        R( 0); R( 1); R( 2); R( 3);
  40282c:	e9dc 2316 	ldrd	r2, r3, [ip, #88]	; 0x58
  402830:	e9cd 231c 	strd	r2, r3, [sp, #112]	; 0x70
  402834:	f7fd be08 	b.w	400448 <.LBE365+0x52>
  402838:	e9dc 2318 	ldrd	r2, r3, [ip, #96]	; 0x60
  40283c:	e9cd 2308 	strd	r2, r3, [sp, #32]
  402840:	f7fd bf19 	b.w	400676 <.LBE385+0x3e>
  402844:	e9dc 231a 	ldrd	r2, r3, [ip, #104]	; 0x68
  402848:	e9cd 231e 	strd	r2, r3, [sp, #120]	; 0x78
  40284c:	f7fe b831 	b.w	4008b2 <.LBE405+0x3e>
  402850:	e9dc 231c 	ldrd	r2, r3, [ip, #112]	; 0x70
  402854:	e9cd 2320 	strd	r2, r3, [sp, #128]	; 0x80
  402858:	f7fe b95c 	b.w	400b14 <.LBE425+0x3c>
        R( 4); R( 5); R( 6); R( 7);
  40285c:	e9dc 231e 	ldrd	r2, r3, [ip, #120]	; 0x78
  402860:	e9cd 2322 	strd	r2, r3, [sp, #136]	; 0x88
  402864:	f7fe ba7d 	b.w	400d62 <.LBE445+0x3e>
  402868:	e9dc 2320 	ldrd	r2, r3, [ip, #128]	; 0x80
  40286c:	e9cd 230a 	strd	r2, r3, [sp, #40]	; 0x28
  402870:	f7fe bb8e 	b.w	400f90 <.LBE465+0x3a>
  402874:	e9dc 2322 	ldrd	r2, r3, [ip, #136]	; 0x88
  402878:	e9cd 230e 	strd	r2, r3, [sp, #56]	; 0x38
  40287c:	f7fe bca5 	b.w	4011ca <.LBE485+0x40>
  402880:	e9dc 2324 	ldrd	r2, r3, [ip, #144]	; 0x90
  402884:	e9cd 2310 	strd	r2, r3, [sp, #64]	; 0x40
  402888:	f7fe bdbe 	b.w	401408 <.LBE505+0x3e>
        R( 8); R( 9); R(10); R(11);
  40288c:	e9dc 3426 	ldrd	r3, r4, [ip, #152]	; 0x98
  402890:	e9cd 3400 	strd	r3, r4, [sp]
  402894:	f7fe bed9 	b.w	40164a <.LBE525+0x3a>
  402898:	e9dc 3428 	ldrd	r3, r4, [ip, #160]	; 0xa0
  40289c:	e9cd 3412 	strd	r3, r4, [sp, #72]	; 0x48
  4028a0:	f7fe bff6 	b.w	401890 <.LBE545+0x3a>
  4028a4:	e9dc 342a 	ldrd	r3, r4, [ip, #168]	; 0xa8
  4028a8:	e9cd 3424 	strd	r3, r4, [sp, #144]	; 0x90
  4028ac:	f7ff b91d 	b.w	401aea <.LBE565+0x3a>
  4028b0:	e9dc 342c 	ldrd	r3, r4, [ip, #176]	; 0xb0
  4028b4:	e9cd 3414 	strd	r3, r4, [sp, #80]	; 0x50
  4028b8:	f7ff ba3a 	b.w	401d30 <.LBE585+0x3a>
        R(12); R(13); R(14); R(15);
  4028bc:	e9dc 232e 	ldrd	r2, r3, [ip, #184]	; 0xb8
  4028c0:	e9cd 2316 	strd	r2, r3, [sp, #88]	; 0x58
  4028c4:	f7ff bb6c 	b.w	401fa0 <.LBE605+0x3e>
  4028c8:	e9dc 3430 	ldrd	r3, r4, [ip, #192]	; 0xc0
  4028cc:	e9cd 3426 	strd	r3, r4, [sp, #152]	; 0x98
  4028d0:	e48b      	b.n	4021ea <.LBE625+0x3a>
  4028d2:	e9dc 3432 	ldrd	r3, r4, [ip, #200]	; 0xc8
  4028d6:	e9cd 340c 	strd	r3, r4, [sp, #48]	; 0x30
  4028da:	e5b0      	b.n	40243e <.LBE645+0x3a>
  4028dc:	e9dc 3434 	ldrd	r3, r4, [ip, #208]	; 0xd0
  4028e0:	e9cd 3428 	strd	r3, r4, [sp, #160]	; 0xa0
  4028e4:	e6d2      	b.n	40268c <.LBE665+0x40>

004028e6 <.LFE16>:
  4028e6:	bf00      	nop

Disassembly of section .text._vfprintf_r%31:

004028e8 <_vfprintf_r>:
  4028e8:	e92d 4ff0 	stmdb	sp!, {r4, r5, r6, r7, r8, r9, sl, fp, lr}

004028ec <.LCFI0>:
  4028ec:	ed2d 8b06 	vpush	{d8-d10}

004028f0 <.LCFI1>:
  4028f0:	b0cf      	sub	sp, #316	; 0x13c

004028f2 <.LCFI2>:
  4028f2:	461c      	mov	r4, r3
  4028f4:	9102      	str	r1, [sp, #8]
  4028f6:	4693      	mov	fp, r2
  4028f8:	4605      	mov	r5, r0
  4028fa:	900e      	str	r0, [sp, #56]	; 0x38
  4028fc:	f00a fe34 	bl	40d568 <_localeconv_r>

00402900 <.LVL1>:
  402900:	6803      	ldr	r3, [r0, #0]
  402902:	9316      	str	r3, [sp, #88]	; 0x58
  402904:	4618      	mov	r0, r3
  402906:	f008 fa3b 	bl	40ad80 <strlen>

0040290a <.LVL2>:
  40290a:	940a      	str	r4, [sp, #40]	; 0x28

0040290c <.LVL3>:
  40290c:	9014      	str	r0, [sp, #80]	; 0x50

0040290e <.LBB12>:
  40290e:	b11d      	cbz	r5, 402918 <.LBE12>
  402910:	6bab      	ldr	r3, [r5, #56]	; 0x38
  402912:	2b00      	cmp	r3, #0
  402914:	f000 812c 	beq.w	402b70 <.LBB13>

00402918 <.LBE12>:
  402918:	9802      	ldr	r0, [sp, #8]
  40291a:	f9b0 200c 	ldrsh.w	r2, [r0, #12]
  40291e:	b293      	uxth	r3, r2
  402920:	049e      	lsls	r6, r3, #18
  402922:	d407      	bmi.n	402934 <.LBE12+0x1c>
  402924:	6e41      	ldr	r1, [r0, #100]	; 0x64
  402926:	f442 5300 	orr.w	r3, r2, #8192	; 0x2000
  40292a:	f421 5100 	bic.w	r1, r1, #8192	; 0x2000
  40292e:	8183      	strh	r3, [r0, #12]
  402930:	6641      	str	r1, [r0, #100]	; 0x64
  402932:	b29b      	uxth	r3, r3
  402934:	071d      	lsls	r5, r3, #28

00402936 <.LVL5>:
  402936:	f140 80d8 	bpl.w	402aea <.LVL37>
  40293a:	9a02      	ldr	r2, [sp, #8]
  40293c:	6912      	ldr	r2, [r2, #16]
  40293e:	2a00      	cmp	r2, #0
  402940:	f000 80d3 	beq.w	402aea <.LVL37>
  402944:	f003 031a 	and.w	r3, r3, #26
  402948:	2b0a      	cmp	r3, #10
  40294a:	f000 80dc 	beq.w	402b06 <.LVL38+0x12>

0040294e <.LVL6>:
  40294e:	2300      	movs	r3, #0
  402950:	ed9f 8b89 	vldr	d8, [pc, #548]	; 402b78 <.LVL51+0x2>
  402954:	ed9f 9b8a 	vldr	d9, [pc, #552]	; 402b80 <.LVL51+0xa>
  402958:	9310      	str	r3, [sp, #64]	; 0x40
  40295a:	9324      	str	r3, [sp, #144]	; 0x90
  40295c:	9323      	str	r3, [sp, #140]	; 0x8c

0040295e <.LVL7>:
  40295e:	9315      	str	r3, [sp, #84]	; 0x54
  402960:	9319      	str	r3, [sp, #100]	; 0x64
  402962:	9312      	str	r3, [sp, #72]	; 0x48
  402964:	9318      	str	r3, [sp, #96]	; 0x60
  402966:	9317      	str	r3, [sp, #92]	; 0x5c
  402968:	9306      	str	r3, [sp, #24]
  40296a:	465e      	mov	r6, fp
  40296c:	ab25      	add	r3, sp, #148	; 0x94

0040296e <.LVL8>:
  40296e:	f8df a218 	ldr.w	sl, [pc, #536]	; 402b88 <.LVL51+0x12>
  402972:	f8dd b038 	ldr.w	fp, [sp, #56]	; 0x38

00402976 <.LVL9>:
  402976:	9322      	str	r3, [sp, #136]	; 0x88
  402978:	4699      	mov	r9, r3

0040297a <.LVL10>:
  40297a:	7833      	ldrb	r3, [r6, #0]
  40297c:	4634      	mov	r4, r6

0040297e <.LVL11>:
  40297e:	b1e3      	cbz	r3, 4029ba <.LVL19>
  402980:	2b25      	cmp	r3, #37	; 0x25
  402982:	d102      	bne.n	40298a <.LVL13>
  402984:	e019      	b.n	4029ba <.LVL19>

00402986 <.LVL12>:
  402986:	2b25      	cmp	r3, #37	; 0x25
  402988:	d003      	beq.n	402992 <.LVL15>

0040298a <.LVL13>:
  40298a:	f814 3f01 	ldrb.w	r3, [r4, #1]!

0040298e <.LVL14>:
  40298e:	2b00      	cmp	r3, #0
  402990:	d1f9      	bne.n	402986 <.LVL12>

00402992 <.LVL15>:
  402992:	1ba5      	subs	r5, r4, r6
  402994:	b18d      	cbz	r5, 4029ba <.LVL19>
  402996:	9b23      	ldr	r3, [sp, #140]	; 0x8c
  402998:	9a24      	ldr	r2, [sp, #144]	; 0x90
  40299a:	f8c9 6000 	str.w	r6, [r9]
  40299e:	3301      	adds	r3, #1
  4029a0:	442a      	add	r2, r5
  4029a2:	2b07      	cmp	r3, #7
  4029a4:	f8c9 5004 	str.w	r5, [r9, #4]
  4029a8:	9224      	str	r2, [sp, #144]	; 0x90

004029aa <.LVL16>:
  4029aa:	9323      	str	r3, [sp, #140]	; 0x8c
  4029ac:	f300 80bd 	bgt.w	402b2a <.LCFI5>

004029b0 <.LVL17>:
  4029b0:	f109 0908 	add.w	r9, r9, #8

004029b4 <.LVL18>:
  4029b4:	9b06      	ldr	r3, [sp, #24]
  4029b6:	442b      	add	r3, r5
  4029b8:	9306      	str	r3, [sp, #24]

004029ba <.LVL19>:
  4029ba:	7823      	ldrb	r3, [r4, #0]
  4029bc:	2b00      	cmp	r3, #0
  4029be:	f001 80e1 	beq.w	403b84 <.LDL1>

004029c2 <.LVL20>:
  4029c2:	2300      	movs	r3, #0
  4029c4:	f04f 32ff 	mov.w	r2, #4294967295
  4029c8:	4698      	mov	r8, r3
  4029ca:	9307      	str	r3, [sp, #28]
  4029cc:	f88d 306b 	strb.w	r3, [sp, #107]	; 0x6b
  4029d0:	1c67      	adds	r7, r4, #1

004029d2 <.LVL21>:
  4029d2:	7863      	ldrb	r3, [r4, #1]
  4029d4:	9204      	str	r2, [sp, #16]
  4029d6:	242b      	movs	r4, #43	; 0x2b

004029d8 <.LVL22>:
  4029d8:	2520      	movs	r5, #32

004029da <.LVL23>:
  4029da:	3701      	adds	r7, #1
  4029dc:	f1a3 0220 	sub.w	r2, r3, #32
  4029e0:	2a5a      	cmp	r2, #90	; 0x5a
  4029e2:	f200 83c0 	bhi.w	403166 <.LVL212>
  4029e6:	e8df f012 	tbh	[pc, r2, lsl #1]
  4029ea:	02b2      	.short	0x02b2
  4029ec:	03be03be 	.word	0x03be03be
  4029f0:	03be02bb 	.word	0x03be02bb
  4029f4:	03be03be 	.word	0x03be03be
  4029f8:	03be005f 	.word	0x03be005f
  4029fc:	02bf03be 	.word	0x02bf03be
  402a00:	03be02cc 	.word	0x03be02cc
  402a04:	0315007c 	.word	0x0315007c
  402a08:	032f03be 	.word	0x032f03be
  402a0c:	037c037c 	.word	0x037c037c
  402a10:	037c037c 	.word	0x037c037c
  402a14:	037c037c 	.word	0x037c037c
  402a18:	037c037c 	.word	0x037c037c
  402a1c:	03be037c 	.word	0x03be037c
  402a20:	03be03be 	.word	0x03be03be
  402a24:	03be03be 	.word	0x03be03be
  402a28:	03be03be 	.word	0x03be03be
  402a2c:	03be038c 	.word	0x03be038c
  402a30:	02d00333 	.word	0x02d00333
  402a34:	038c038c 	.word	0x038c038c
  402a38:	03be038c 	.word	0x03be038c
  402a3c:	03be03be 	.word	0x03be03be
  402a40:	02d403be 	.word	0x02d403be
  402a44:	03be03be 	.word	0x03be03be
  402a48:	03be02d8 	.word	0x03be02d8
  402a4c:	03be03be 	.word	0x03be03be
  402a50:	03be02dc 	.word	0x03be02dc
  402a54:	03be0303 	.word	0x03be0303
  402a58:	030703be 	.word	0x030703be
  402a5c:	03be03be 	.word	0x03be03be
  402a60:	03be03be 	.word	0x03be03be
  402a64:	03be03be 	.word	0x03be03be
  402a68:	03be03be 	.word	0x03be03be
  402a6c:	03be038c 	.word	0x03be038c
  402a70:	02270333 	.word	0x02270333
  402a74:	038c038c 	.word	0x038c038c
  402a78:	030b038c 	.word	0x030b038c
  402a7c:	005b0227 	.word	0x005b0227
  402a80:	034903be 	.word	0x034903be
  402a84:	035303be 	.word	0x035303be
  402a88:	036a0297 	.word	0x036a0297
  402a8c:	03be005b 	.word	0x03be005b
  402a90:	007602dc 	.word	0x007602dc
  402a94:	03be00d1 	.word	0x03be00d1
  402a98:	026703be 	.word	0x026703be
  402a9c:	007603be 	.word	0x007603be
  402aa0:	f048 0820 	orr.w	r8, r8, #32
  402aa4:	783b      	ldrb	r3, [r7, #0]
  402aa6:	e798      	b.n	4029da <.LVL23>
  402aa8:	4658      	mov	r0, fp
  402aaa:	f00a fd5d 	bl	40d568 <_localeconv_r>

00402aae <.LVL26>:
  402aae:	6843      	ldr	r3, [r0, #4]
  402ab0:	9317      	str	r3, [sp, #92]	; 0x5c

00402ab2 <.LVL27>:
  402ab2:	4618      	mov	r0, r3
  402ab4:	f008 f964 	bl	40ad80 <strlen>

00402ab8 <.LVL28>:
  402ab8:	9018      	str	r0, [sp, #96]	; 0x60

00402aba <.LVL29>:
  402aba:	4658      	mov	r0, fp
  402abc:	f00a fd54 	bl	40d568 <_localeconv_r>

00402ac0 <.LVL30>:
  402ac0:	6883      	ldr	r3, [r0, #8]
  402ac2:	9312      	str	r3, [sp, #72]	; 0x48

00402ac4 <.LVL31>:
  402ac4:	9b18      	ldr	r3, [sp, #96]	; 0x60

00402ac6 <.LVL32>:
  402ac6:	b133      	cbz	r3, 402ad6 <.LVL33>
  402ac8:	9b12      	ldr	r3, [sp, #72]	; 0x48
  402aca:	b123      	cbz	r3, 402ad6 <.LVL33>
  402acc:	9b12      	ldr	r3, [sp, #72]	; 0x48
  402ace:	781b      	ldrb	r3, [r3, #0]
  402ad0:	2b00      	cmp	r3, #0
  402ad2:	f041 8068 	bne.w	403ba6 <.LVL503>

00402ad6 <.LVL33>:
  402ad6:	783b      	ldrb	r3, [r7, #0]
  402ad8:	e77f      	b.n	4029da <.LVL23>

00402ada <.LVL34>:
  402ada:	9a07      	ldr	r2, [sp, #28]
  402adc:	930a      	str	r3, [sp, #40]	; 0x28
  402ade:	4252      	negs	r2, r2
  402ae0:	9207      	str	r2, [sp, #28]

00402ae2 <.LVL35>:
  402ae2:	f048 0804 	orr.w	r8, r8, #4
  402ae6:	783b      	ldrb	r3, [r7, #0]
  402ae8:	e777      	b.n	4029da <.LVL23>

00402aea <.LVL37>:
  402aea:	9d02      	ldr	r5, [sp, #8]
  402aec:	980e      	ldr	r0, [sp, #56]	; 0x38
  402aee:	4629      	mov	r1, r5
  402af0:	f008 fae0 	bl	40b0b4 <__swsetup_r>

00402af4 <.LVL38>:
  402af4:	2800      	cmp	r0, #0
  402af6:	f041 8009 	bne.w	403b0c <.LVL492>
  402afa:	89ab      	ldrh	r3, [r5, #12]
  402afc:	f003 031a 	and.w	r3, r3, #26
  402b00:	2b0a      	cmp	r3, #10
  402b02:	f47f af24 	bne.w	40294e <.LVL6>
  402b06:	9902      	ldr	r1, [sp, #8]
  402b08:	f9b1 300e 	ldrsh.w	r3, [r1, #14]
  402b0c:	2b00      	cmp	r3, #0
  402b0e:	f6ff af1e 	blt.w	40294e <.LVL6>
  402b12:	4623      	mov	r3, r4
  402b14:	465a      	mov	r2, fp
  402b16:	980e      	ldr	r0, [sp, #56]	; 0x38
  402b18:	f009 fcde 	bl	40c4d8 <__sbprintf>

00402b1c <.LVL39>:
  402b1c:	9006      	str	r0, [sp, #24]
  402b1e:	9806      	ldr	r0, [sp, #24]
  402b20:	b04f      	add	sp, #316	; 0x13c

00402b22 <.LCFI3>:
  402b22:	ecbd 8b06 	vpop	{d8-d10}

00402b26 <.LCFI4>:
  402b26:	e8bd 8ff0 	ldmia.w	sp!, {r4, r5, r6, r7, r8, r9, sl, fp, pc}

00402b2a <.LCFI5>:
  402b2a:	aa22      	add	r2, sp, #136	; 0x88
  402b2c:	9902      	ldr	r1, [sp, #8]
  402b2e:	4658      	mov	r0, fp
  402b30:	f00a fe4a 	bl	40d7c8 <__sprint_r>

00402b34 <.LVL41>:
  402b34:	b980      	cbnz	r0, 402b58 <.LVL48>

00402b36 <.LVL42>:
  402b36:	f10d 0994 	add.w	r9, sp, #148	; 0x94

00402b3a <.LVL43>:
  402b3a:	e73b      	b.n	4029b4 <.LVL18>

00402b3c <.LVL44>:
  402b3c:	aa22      	add	r2, sp, #136	; 0x88

00402b3e <.LVL45>:
  402b3e:	9902      	ldr	r1, [sp, #8]
  402b40:	4658      	mov	r0, fp
  402b42:	f00a fe41 	bl	40d7c8 <__sprint_r>

00402b46 <.LVL46>:
  402b46:	2800      	cmp	r0, #0
  402b48:	f000 816a 	beq.w	402e20 <.LVL122>

00402b4c <.L193>:
  402b4c:	9b09      	ldr	r3, [sp, #36]	; 0x24
  402b4e:	b11b      	cbz	r3, 402b58 <.LVL48>
  402b50:	9909      	ldr	r1, [sp, #36]	; 0x24
  402b52:	980e      	ldr	r0, [sp, #56]	; 0x38
  402b54:	f006 fd94 	bl	409680 <.LFE174>

00402b58 <.LVL48>:
  402b58:	9b02      	ldr	r3, [sp, #8]
  402b5a:	f9b3 300c 	ldrsh.w	r3, [r3, #12]
  402b5e:	065b      	lsls	r3, r3, #25
  402b60:	f100 87d4 	bmi.w	403b0c <.LVL492>

00402b64 <.LVL49>:
  402b64:	9806      	ldr	r0, [sp, #24]
  402b66:	b04f      	add	sp, #316	; 0x13c

00402b68 <.LCFI6>:
  402b68:	ecbd 8b06 	vpop	{d8-d10}

00402b6c <.LCFI7>:
  402b6c:	e8bd 8ff0 	ldmia.w	sp!, {r4, r5, r6, r7, r8, r9, sl, fp, pc}

00402b70 <.LBB13>:
  402b70:	980e      	ldr	r0, [sp, #56]	; 0x38
  402b72:	f00a ff1d 	bl	40d9b0 <.LFE4>

00402b76 <.LVL51>:
  402b76:	e6cf      	b.n	402918 <.LBE12>
	...
  402b80:	ffffffff 	.word	0xffffffff
  402b84:	7fefffff 	.word	0x7fefffff
  402b88:	0040d8e4 	.word	0x0040d8e4

00402b8c <.LVL52>:
  402b8c:	930d      	str	r3, [sp, #52]	; 0x34

00402b8e <.LBE13>:
  402b8e:	4641      	mov	r1, r8

00402b90 <.LVL53>:
  402b90:	068e      	lsls	r6, r1, #26

00402b92 <.LVL54>:
  402b92:	f100 8644 	bmi.w	40381e <.LVL409>
  402b96:	9a0a      	ldr	r2, [sp, #40]	; 0x28
  402b98:	06cd      	lsls	r5, r1, #27
  402b9a:	4613      	mov	r3, r2
  402b9c:	f100 852f 	bmi.w	4035fe <.LVL348>
  402ba0:	064c      	lsls	r4, r1, #25
  402ba2:	f101 80b1 	bmi.w	403d08 <.LVL540>
  402ba6:	0588      	lsls	r0, r1, #22
  402ba8:	f140 8529 	bpl.w	4035fe <.LVL348>

00402bac <.LVL55>:
  402bac:	7814      	ldrb	r4, [r2, #0]
  402bae:	3204      	adds	r2, #4

00402bb0 <.LVL56>:
  402bb0:	2500      	movs	r5, #0
  402bb2:	2301      	movs	r3, #1
  402bb4:	920a      	str	r2, [sp, #40]	; 0x28

00402bb6 <.L154>:
  402bb6:	2200      	movs	r2, #0
  402bb8:	f88d 206b 	strb.w	r2, [sp, #107]	; 0x6b

00402bbc <.L69>:
  402bbc:	9804      	ldr	r0, [sp, #16]
  402bbe:	1c42      	adds	r2, r0, #1
  402bc0:	f000 815b 	beq.w	402e7a <.LVL132>

00402bc4 <.LVL59>:
  402bc4:	ea54 0205 	orrs.w	r2, r4, r5
  402bc8:	f021 0880 	bic.w	r8, r1, #128	; 0x80

00402bcc <.LVL60>:
  402bcc:	f040 815a 	bne.w	402e84 <.LVL133>
  402bd0:	2800      	cmp	r0, #0
  402bd2:	f040 83df 	bne.w	403394 <.LVL265>
  402bd6:	2b00      	cmp	r3, #0
  402bd8:	f040 84be 	bne.w	403558 <.LVL324>
  402bdc:	f011 0301 	ands.w	r3, r1, #1

00402be0 <.LVL61>:
  402be0:	ae4e      	add	r6, sp, #312	; 0x138

00402be2 <.LVL62>:
  402be2:	9308      	str	r3, [sp, #32]
  402be4:	d002      	beq.n	402bec <.LVL64>

00402be6 <.LVL63>:
  402be6:	2330      	movs	r3, #48	; 0x30
  402be8:	f806 3d01 	strb.w	r3, [r6, #-1]!

00402bec <.LVL64>:
  402bec:	2300      	movs	r3, #0
  402bee:	9a08      	ldr	r2, [sp, #32]
  402bf0:	9309      	str	r3, [sp, #36]	; 0x24
  402bf2:	9313      	str	r3, [sp, #76]	; 0x4c
  402bf4:	9311      	str	r3, [sp, #68]	; 0x44
  402bf6:	930f      	str	r3, [sp, #60]	; 0x3c
  402bf8:	9b04      	ldr	r3, [sp, #16]
  402bfa:	4293      	cmp	r3, r2
  402bfc:	bfb8      	it	lt
  402bfe:	4613      	movlt	r3, r2
  402c00:	f89d 206b 	ldrb.w	r2, [sp, #107]	; 0x6b
  402c04:	9303      	str	r3, [sp, #12]

00402c06 <.L63>:
  402c06:	b112      	cbz	r2, 402c0e <.LVL67>

00402c08 <.LVL66>:
  402c08:	9b03      	ldr	r3, [sp, #12]
  402c0a:	3301      	adds	r3, #1
  402c0c:	9303      	str	r3, [sp, #12]

00402c0e <.LVL67>:
  402c0e:	f018 0302 	ands.w	r3, r8, #2
  402c12:	930b      	str	r3, [sp, #44]	; 0x2c
  402c14:	d002      	beq.n	402c1c <.LVL67+0xe>
  402c16:	9b03      	ldr	r3, [sp, #12]
  402c18:	3302      	adds	r3, #2
  402c1a:	9303      	str	r3, [sp, #12]
  402c1c:	f018 0384 	ands.w	r3, r8, #132	; 0x84
  402c20:	930c      	str	r3, [sp, #48]	; 0x30
  402c22:	f040 82be 	bne.w	4031a2 <.LVL221>
  402c26:	9b07      	ldr	r3, [sp, #28]
  402c28:	9903      	ldr	r1, [sp, #12]
  402c2a:	1a5c      	subs	r4, r3, r1

00402c2c <.LVL69>:
  402c2c:	2c00      	cmp	r4, #0
  402c2e:	f340 82b8 	ble.w	4031a2 <.LVL221>
  402c32:	2c10      	cmp	r4, #16
  402c34:	9924      	ldr	r1, [sp, #144]	; 0x90
  402c36:	9a23      	ldr	r2, [sp, #140]	; 0x8c
  402c38:	4db5      	ldr	r5, [pc, #724]	; (402f10 <.LVL147+0x4>)
  402c3a:	dd25      	ble.n	402c88 <.LVL83>
  402c3c:	4648      	mov	r0, r9
  402c3e:	2310      	movs	r3, #16
  402c40:	46c1      	mov	r9, r8
  402c42:	46b0      	mov	r8, r6

00402c44 <.LVL70>:
  402c44:	9e02      	ldr	r6, [sp, #8]
  402c46:	e004      	b.n	402c52 <.LVL74>

00402c48 <.LVL71>:
  402c48:	3c10      	subs	r4, #16

00402c4a <.LVL72>:
  402c4a:	2c10      	cmp	r4, #16
  402c4c:	f100 0008 	add.w	r0, r0, #8

00402c50 <.LVL73>:
  402c50:	dd17      	ble.n	402c82 <.LVL82>

00402c52 <.LVL74>:
  402c52:	3201      	adds	r2, #1
  402c54:	3110      	adds	r1, #16
  402c56:	2a07      	cmp	r2, #7
  402c58:	9124      	str	r1, [sp, #144]	; 0x90

00402c5a <.LVL75>:
  402c5a:	9223      	str	r2, [sp, #140]	; 0x8c
  402c5c:	6005      	str	r5, [r0, #0]
  402c5e:	6043      	str	r3, [r0, #4]
  402c60:	ddf2      	ble.n	402c48 <.LVL71>
  402c62:	aa22      	add	r2, sp, #136	; 0x88
  402c64:	4631      	mov	r1, r6
  402c66:	4658      	mov	r0, fp

00402c68 <.LVL76>:
  402c68:	9305      	str	r3, [sp, #20]
  402c6a:	f00a fdad 	bl	40d7c8 <__sprint_r>

00402c6e <.LVL77>:
  402c6e:	2800      	cmp	r0, #0
  402c70:	f47f af6c 	bne.w	402b4c <.L193>
  402c74:	3c10      	subs	r4, #16

00402c76 <.LVL78>:
  402c76:	2c10      	cmp	r4, #16
  402c78:	9924      	ldr	r1, [sp, #144]	; 0x90
  402c7a:	9a23      	ldr	r2, [sp, #140]	; 0x8c

00402c7c <.LVL79>:
  402c7c:	9b05      	ldr	r3, [sp, #20]

00402c7e <.LVL80>:
  402c7e:	a825      	add	r0, sp, #148	; 0x94

00402c80 <.LVL81>:
  402c80:	dce7      	bgt.n	402c52 <.LVL74>

00402c82 <.LVL82>:
  402c82:	4646      	mov	r6, r8
  402c84:	46c8      	mov	r8, r9
  402c86:	4681      	mov	r9, r0

00402c88 <.LVL83>:
  402c88:	3201      	adds	r2, #1
  402c8a:	1863      	adds	r3, r4, r1
  402c8c:	2a07      	cmp	r2, #7
  402c8e:	9324      	str	r3, [sp, #144]	; 0x90
  402c90:	9223      	str	r2, [sp, #140]	; 0x8c
  402c92:	f8c9 5000 	str.w	r5, [r9]
  402c96:	f8c9 4004 	str.w	r4, [r9, #4]
  402c9a:	f300 8462 	bgt.w	403562 <.LVL327>

00402c9e <.LVL84>:
  402c9e:	f89d 206b 	ldrb.w	r2, [sp, #107]	; 0x6b
  402ca2:	f109 0908 	add.w	r9, r9, #8

00402ca6 <.LVL85>:
  402ca6:	b172      	cbz	r2, 402cc6 <.LVL87>
  402ca8:	9a23      	ldr	r2, [sp, #140]	; 0x8c
  402caa:	3201      	adds	r2, #1
  402cac:	3301      	adds	r3, #1
  402cae:	f10d 006b 	add.w	r0, sp, #107	; 0x6b
  402cb2:	2101      	movs	r1, #1
  402cb4:	2a07      	cmp	r2, #7
  402cb6:	9324      	str	r3, [sp, #144]	; 0x90
  402cb8:	9223      	str	r2, [sp, #140]	; 0x8c
  402cba:	e889 0003 	stmia.w	r9, {r0, r1}
  402cbe:	f300 837f 	bgt.w	4033c0 <.LVL272>

00402cc2 <.LVL86>:
  402cc2:	f109 0908 	add.w	r9, r9, #8

00402cc6 <.LVL87>:
  402cc6:	9a0b      	ldr	r2, [sp, #44]	; 0x2c
  402cc8:	b16a      	cbz	r2, 402ce6 <.LVL89>
  402cca:	9a23      	ldr	r2, [sp, #140]	; 0x8c
  402ccc:	3201      	adds	r2, #1
  402cce:	3302      	adds	r3, #2
  402cd0:	a81b      	add	r0, sp, #108	; 0x6c
  402cd2:	2102      	movs	r1, #2
  402cd4:	2a07      	cmp	r2, #7
  402cd6:	9324      	str	r3, [sp, #144]	; 0x90
  402cd8:	9223      	str	r2, [sp, #140]	; 0x8c
  402cda:	e889 0003 	stmia.w	r9, {r0, r1}
  402cde:	f300 837b 	bgt.w	4033d8 <.LVL276>

00402ce2 <.LVL88>:
  402ce2:	f109 0908 	add.w	r9, r9, #8

00402ce6 <.LVL89>:
  402ce6:	9a0c      	ldr	r2, [sp, #48]	; 0x30
  402ce8:	2a80      	cmp	r2, #128	; 0x80
  402cea:	f000 82b8 	beq.w	40325e <.LVL237>
  402cee:	9a04      	ldr	r2, [sp, #16]
  402cf0:	9908      	ldr	r1, [sp, #32]
  402cf2:	1a54      	subs	r4, r2, r1

00402cf4 <.LVL90>:
  402cf4:	2c00      	cmp	r4, #0
  402cf6:	dd36      	ble.n	402d66 <.LVL105>
  402cf8:	2c10      	cmp	r4, #16
  402cfa:	9a23      	ldr	r2, [sp, #140]	; 0x8c
  402cfc:	dd26      	ble.n	402d4c <.LVL103>
  402cfe:	4649      	mov	r1, r9
  402d00:	2510      	movs	r5, #16
  402d02:	46a1      	mov	r9, r4
  402d04:	9c02      	ldr	r4, [sp, #8]

00402d06 <.LVL91>:
  402d06:	e006      	b.n	402d16 <.LVL95>

00402d08 <.LVL92>:
  402d08:	f1a9 0910 	sub.w	r9, r9, #16

00402d0c <.LVL93>:
  402d0c:	f1b9 0f10 	cmp.w	r9, #16
  402d10:	f101 0108 	add.w	r1, r1, #8

00402d14 <.LVL94>:
  402d14:	dd18      	ble.n	402d48 <.LVL102>

00402d16 <.LVL95>:
  402d16:	3201      	adds	r2, #1
  402d18:	3310      	adds	r3, #16
  402d1a:	2a07      	cmp	r2, #7
  402d1c:	9324      	str	r3, [sp, #144]	; 0x90

00402d1e <.LVL96>:
  402d1e:	9223      	str	r2, [sp, #140]	; 0x8c
  402d20:	f8c1 a000 	str.w	sl, [r1]
  402d24:	604d      	str	r5, [r1, #4]
  402d26:	ddef      	ble.n	402d08 <.LVL92>
  402d28:	aa22      	add	r2, sp, #136	; 0x88
  402d2a:	4621      	mov	r1, r4

00402d2c <.LVL97>:
  402d2c:	4658      	mov	r0, fp
  402d2e:	f00a fd4b 	bl	40d7c8 <__sprint_r>

00402d32 <.LVL98>:
  402d32:	2800      	cmp	r0, #0
  402d34:	f47f af0a 	bne.w	402b4c <.L193>
  402d38:	f1a9 0910 	sub.w	r9, r9, #16

00402d3c <.LVL99>:
  402d3c:	f1b9 0f10 	cmp.w	r9, #16
  402d40:	9b24      	ldr	r3, [sp, #144]	; 0x90
  402d42:	9a23      	ldr	r2, [sp, #140]	; 0x8c

00402d44 <.LVL100>:
  402d44:	a925      	add	r1, sp, #148	; 0x94

00402d46 <.LVL101>:
  402d46:	dce6      	bgt.n	402d16 <.LVL95>

00402d48 <.LVL102>:
  402d48:	464c      	mov	r4, r9
  402d4a:	4689      	mov	r9, r1

00402d4c <.LVL103>:
  402d4c:	3201      	adds	r2, #1
  402d4e:	4423      	add	r3, r4
  402d50:	2a07      	cmp	r2, #7
  402d52:	9324      	str	r3, [sp, #144]	; 0x90
  402d54:	9223      	str	r2, [sp, #140]	; 0x8c
  402d56:	f8c9 a000 	str.w	sl, [r9]
  402d5a:	f8c9 4004 	str.w	r4, [r9, #4]
  402d5e:	f300 8323 	bgt.w	4033a8 <.LVL268>

00402d62 <.LVL104>:
  402d62:	f109 0908 	add.w	r9, r9, #8

00402d66 <.LVL105>:
  402d66:	f418 7f80 	tst.w	r8, #256	; 0x100
  402d6a:	f040 821c 	bne.w	4031a6 <.LVL222>
  402d6e:	9a23      	ldr	r2, [sp, #140]	; 0x8c
  402d70:	9808      	ldr	r0, [sp, #32]
  402d72:	f8c9 6000 	str.w	r6, [r9]
  402d76:	3201      	adds	r2, #1
  402d78:	4403      	add	r3, r0
  402d7a:	2a07      	cmp	r2, #7
  402d7c:	9324      	str	r3, [sp, #144]	; 0x90
  402d7e:	f8c9 0004 	str.w	r0, [r9, #4]
  402d82:	9223      	str	r2, [sp, #140]	; 0x8c
  402d84:	f300 82fa 	bgt.w	40337c <.LVL263>

00402d88 <.LVL106>:
  402d88:	f109 0908 	add.w	r9, r9, #8

00402d8c <.LVL107>:
  402d8c:	f018 0f04 	tst.w	r8, #4
  402d90:	d03b      	beq.n	402e0a <.LVL120>
  402d92:	9a07      	ldr	r2, [sp, #28]
  402d94:	9903      	ldr	r1, [sp, #12]
  402d96:	1a54      	subs	r4, r2, r1

00402d98 <.LVL108>:
  402d98:	2c00      	cmp	r4, #0
  402d9a:	dd36      	ble.n	402e0a <.LVL120>
  402d9c:	2c10      	cmp	r4, #16
  402d9e:	9a23      	ldr	r2, [sp, #140]	; 0x8c
  402da0:	4d5b      	ldr	r5, [pc, #364]	; (402f10 <.LVL147+0x4>)
  402da2:	dd1f      	ble.n	402de4 <.LVL118>
  402da4:	2610      	movs	r6, #16
  402da6:	f8dd 8008 	ldr.w	r8, [sp, #8]
  402daa:	e004      	b.n	402db6 <.LVL112>

00402dac <.LVL109>:
  402dac:	3c10      	subs	r4, #16

00402dae <.LVL110>:
  402dae:	2c10      	cmp	r4, #16
  402db0:	f109 0908 	add.w	r9, r9, #8

00402db4 <.LVL111>:
  402db4:	dd16      	ble.n	402de4 <.LVL118>

00402db6 <.LVL112>:
  402db6:	3201      	adds	r2, #1
  402db8:	3310      	adds	r3, #16
  402dba:	2a07      	cmp	r2, #7
  402dbc:	9324      	str	r3, [sp, #144]	; 0x90

00402dbe <.LVL113>:
  402dbe:	9223      	str	r2, [sp, #140]	; 0x8c
  402dc0:	e889 0060 	stmia.w	r9, {r5, r6}
  402dc4:	ddf2      	ble.n	402dac <.LVL109>
  402dc6:	aa22      	add	r2, sp, #136	; 0x88
  402dc8:	4641      	mov	r1, r8
  402dca:	4658      	mov	r0, fp
  402dcc:	f00a fcfc 	bl	40d7c8 <__sprint_r>

00402dd0 <.LVL114>:
  402dd0:	2800      	cmp	r0, #0
  402dd2:	f47f aebb 	bne.w	402b4c <.L193>
  402dd6:	3c10      	subs	r4, #16

00402dd8 <.LVL115>:
  402dd8:	2c10      	cmp	r4, #16
  402dda:	9b24      	ldr	r3, [sp, #144]	; 0x90
  402ddc:	9a23      	ldr	r2, [sp, #140]	; 0x8c

00402dde <.LVL116>:
  402dde:	f10d 0994 	add.w	r9, sp, #148	; 0x94

00402de2 <.LVL117>:
  402de2:	dce8      	bgt.n	402db6 <.LVL112>

00402de4 <.LVL118>:
  402de4:	3201      	adds	r2, #1
  402de6:	4423      	add	r3, r4
  402de8:	2a07      	cmp	r2, #7
  402dea:	9324      	str	r3, [sp, #144]	; 0x90
  402dec:	9223      	str	r2, [sp, #140]	; 0x8c
  402dee:	f8c9 5000 	str.w	r5, [r9]
  402df2:	f8c9 4004 	str.w	r4, [r9, #4]
  402df6:	dd08      	ble.n	402e0a <.LVL120>
  402df8:	aa22      	add	r2, sp, #136	; 0x88
  402dfa:	9902      	ldr	r1, [sp, #8]
  402dfc:	4658      	mov	r0, fp
  402dfe:	f00a fce3 	bl	40d7c8 <__sprint_r>

00402e02 <.LVL119>:
  402e02:	2800      	cmp	r0, #0
  402e04:	f47f aea2 	bne.w	402b4c <.L193>
  402e08:	9b24      	ldr	r3, [sp, #144]	; 0x90

00402e0a <.LVL120>:
  402e0a:	9a06      	ldr	r2, [sp, #24]
  402e0c:	9907      	ldr	r1, [sp, #28]
  402e0e:	9803      	ldr	r0, [sp, #12]
  402e10:	4281      	cmp	r1, r0
  402e12:	bfac      	ite	ge
  402e14:	1852      	addge	r2, r2, r1
  402e16:	1812      	addlt	r2, r2, r0
  402e18:	9206      	str	r2, [sp, #24]

00402e1a <.LVL121>:
  402e1a:	2b00      	cmp	r3, #0
  402e1c:	f47f ae8e 	bne.w	402b3c <.LVL44>

00402e20 <.LVL122>:
  402e20:	2300      	movs	r3, #0
  402e22:	9323      	str	r3, [sp, #140]	; 0x8c

00402e24 <.LVL123>:
  402e24:	9b09      	ldr	r3, [sp, #36]	; 0x24
  402e26:	b11b      	cbz	r3, 402e30 <.LVL124>
  402e28:	9909      	ldr	r1, [sp, #36]	; 0x24
  402e2a:	4658      	mov	r0, fp
  402e2c:	f006 fc28 	bl	409680 <.LFE174>

00402e30 <.LVL124>:
  402e30:	f10d 0994 	add.w	r9, sp, #148	; 0x94

00402e34 <.LVL125>:
  402e34:	463e      	mov	r6, r7
  402e36:	e5a0      	b.n	40297a <.LVL10>

00402e38 <.LVL126>:
  402e38:	930d      	str	r3, [sp, #52]	; 0x34
  402e3a:	4641      	mov	r1, r8

00402e3c <.LVL127>:
  402e3c:	068c      	lsls	r4, r1, #26
  402e3e:	f100 84d6 	bmi.w	4037ee <.LVL405>
  402e42:	06c8      	lsls	r0, r1, #27
  402e44:	f100 83e7 	bmi.w	403616 <.LVL352>
  402e48:	064a      	lsls	r2, r1, #25
  402e4a:	f100 874b 	bmi.w	403ce4 <.LVL536>
  402e4e:	058b      	lsls	r3, r1, #22
  402e50:	f140 83e1 	bpl.w	403616 <.LVL352>

00402e54 <.LVL128>:
  402e54:	980a      	ldr	r0, [sp, #40]	; 0x28
  402e56:	f990 4000 	ldrsb.w	r4, [r0]

00402e5a <.LVL129>:
  402e5a:	17e5      	asrs	r5, r4, #31
  402e5c:	3004      	adds	r0, #4
  402e5e:	4622      	mov	r2, r4
  402e60:	462b      	mov	r3, r5
  402e62:	900a      	str	r0, [sp, #40]	; 0x28

00402e64 <.LVL130>:
  402e64:	2a00      	cmp	r2, #0
  402e66:	f173 0300 	sbcs.w	r3, r3, #0
  402e6a:	f2c0 8561 	blt.w	403930 <.LVL441>
  402e6e:	9804      	ldr	r0, [sp, #16]
  402e70:	1c42      	adds	r2, r0, #1
  402e72:	f04f 0301 	mov.w	r3, #1

00402e76 <.LVL131>:
  402e76:	f47f aea5 	bne.w	402bc4 <.LVL59>

00402e7a <.LVL132>:
  402e7a:	ea54 0205 	orrs.w	r2, r4, r5
  402e7e:	f000 828a 	beq.w	403396 <.LVL266>
  402e82:	4688      	mov	r8, r1

00402e84 <.LVL133>:
  402e84:	2b01      	cmp	r3, #1
  402e86:	f000 8321 	beq.w	4034cc <.LBE16>
  402e8a:	2b02      	cmp	r3, #2
  402e8c:	f040 82b3 	bne.w	4033f6 <.LVL282>

00402e90 <.LVL134>:
  402e90:	9815      	ldr	r0, [sp, #84]	; 0x54

00402e92 <.LVL135>:
  402e92:	ae4e      	add	r6, sp, #312	; 0x138

00402e94 <.LVL136>:
  402e94:	0923      	lsrs	r3, r4, #4
  402e96:	f004 010f 	and.w	r1, r4, #15
  402e9a:	ea43 7305 	orr.w	r3, r3, r5, lsl #28
  402e9e:	092a      	lsrs	r2, r5, #4
  402ea0:	461c      	mov	r4, r3

00402ea2 <.LVL137>:
  402ea2:	4615      	mov	r5, r2

00402ea4 <.LVL138>:
  402ea4:	5c43      	ldrb	r3, [r0, r1]
  402ea6:	f806 3d01 	strb.w	r3, [r6, #-1]!

00402eaa <.LVL139>:
  402eaa:	ea54 0305 	orrs.w	r3, r4, r5
  402eae:	d1f1      	bne.n	402e94 <.LVL136>

00402eb0 <.LVL140>:
  402eb0:	ab4e      	add	r3, sp, #312	; 0x138
  402eb2:	1b9b      	subs	r3, r3, r6
  402eb4:	9308      	str	r3, [sp, #32]
  402eb6:	e699      	b.n	402bec <.LVL64>

00402eb8 <.LVL141>:
  402eb8:	930d      	str	r3, [sp, #52]	; 0x34
  402eba:	4b16      	ldr	r3, [pc, #88]	; (402f14 <.LVL147+0x8>)
  402ebc:	9315      	str	r3, [sp, #84]	; 0x54

00402ebe <.L49>:
  402ebe:	f018 0f20 	tst.w	r8, #32
  402ec2:	f040 8489 	bne.w	4037d8 <.LVL403>
  402ec6:	9a0a      	ldr	r2, [sp, #40]	; 0x28
  402ec8:	f018 0f10 	tst.w	r8, #16
  402ecc:	4613      	mov	r3, r2
  402ece:	f040 839d 	bne.w	40360c <.LVL350>
  402ed2:	f018 0f40 	tst.w	r8, #64	; 0x40
  402ed6:	f040 86ff 	bne.w	403cd8 <.LVL534>
  402eda:	f418 7f00 	tst.w	r8, #512	; 0x200
  402ede:	f000 8395 	beq.w	40360c <.LVL350>

00402ee2 <.LVL143>:
  402ee2:	3304      	adds	r3, #4

00402ee4 <.LVL144>:
  402ee4:	7814      	ldrb	r4, [r2, #0]
  402ee6:	930a      	str	r3, [sp, #40]	; 0x28
  402ee8:	2500      	movs	r5, #0

00402eea <.LVL145>:
  402eea:	f018 0f01 	tst.w	r8, #1
  402eee:	d00b      	beq.n	402f08 <.LVL145+0x1e>
  402ef0:	ea54 0305 	orrs.w	r3, r4, r5
  402ef4:	d008      	beq.n	402f08 <.LVL145+0x1e>
  402ef6:	2330      	movs	r3, #48	; 0x30
  402ef8:	f89d 2034 	ldrb.w	r2, [sp, #52]	; 0x34
  402efc:	f88d 206d 	strb.w	r2, [sp, #109]	; 0x6d
  402f00:	f048 0802 	orr.w	r8, r8, #2
  402f04:	f88d 306c 	strb.w	r3, [sp, #108]	; 0x6c
  402f08:	f428 6180 	bic.w	r1, r8, #1024	; 0x400

00402f0c <.LVL147>:
  402f0c:	2302      	movs	r3, #2
  402f0e:	e652      	b.n	402bb6 <.L154>
  402f10:	0040d8d4 	.word	0x0040d8d4
  402f14:	0040ce00 	.word	0x0040ce00

00402f18 <.LVL148>:
  402f18:	930d      	str	r3, [sp, #52]	; 0x34
  402f1a:	f018 0f20 	tst.w	r8, #32
  402f1e:	f040 8473 	bne.w	403808 <.LVL407>
  402f22:	9a0a      	ldr	r2, [sp, #40]	; 0x28
  402f24:	f018 0f10 	tst.w	r8, #16
  402f28:	4613      	mov	r3, r2
  402f2a:	f040 837d 	bne.w	403628 <.LVL355>
  402f2e:	f018 0f40 	tst.w	r8, #64	; 0x40
  402f32:	f040 86cb 	bne.w	403ccc <.LVL532>
  402f36:	f418 7f00 	tst.w	r8, #512	; 0x200
  402f3a:	f000 8375 	beq.w	403628 <.LVL355>

00402f3e <.LVL149>:
  402f3e:	3304      	adds	r3, #4

00402f40 <.LVL150>:
  402f40:	7814      	ldrb	r4, [r2, #0]
  402f42:	930a      	str	r3, [sp, #40]	; 0x28
  402f44:	2500      	movs	r5, #0

00402f46 <.LVL151>:
  402f46:	f428 6180 	bic.w	r1, r8, #1024	; 0x400

00402f4a <.LVL152>:
  402f4a:	2300      	movs	r3, #0
  402f4c:	e633      	b.n	402bb6 <.L154>

00402f4e <.LVL153>:
  402f4e:	f89d 306b 	ldrb.w	r3, [sp, #107]	; 0x6b
  402f52:	2b00      	cmp	r3, #0
  402f54:	f47f adbf 	bne.w	402ad6 <.LVL33>
  402f58:	f88d 506b 	strb.w	r5, [sp, #107]	; 0x6b
  402f5c:	783b      	ldrb	r3, [r7, #0]
  402f5e:	e53c      	b.n	4029da <.LVL23>
  402f60:	f048 0801 	orr.w	r8, r8, #1
  402f64:	783b      	ldrb	r3, [r7, #0]
  402f66:	e538      	b.n	4029da <.LVL23>
  402f68:	990a      	ldr	r1, [sp, #40]	; 0x28
  402f6a:	680b      	ldr	r3, [r1, #0]
  402f6c:	9307      	str	r3, [sp, #28]
  402f6e:	461a      	mov	r2, r3
  402f70:	2a00      	cmp	r2, #0
  402f72:	460b      	mov	r3, r1
  402f74:	f103 0304 	add.w	r3, r3, #4

00402f78 <.LVL155>:
  402f78:	f6ff adaf 	blt.w	402ada <.LVL34>
  402f7c:	930a      	str	r3, [sp, #40]	; 0x28
  402f7e:	783b      	ldrb	r3, [r7, #0]

00402f80 <.LVL156>:
  402f80:	e52b      	b.n	4029da <.LVL23>
  402f82:	f88d 406b 	strb.w	r4, [sp, #107]	; 0x6b
  402f86:	783b      	ldrb	r3, [r7, #0]
  402f88:	e527      	b.n	4029da <.LVL23>
  402f8a:	930d      	str	r3, [sp, #52]	; 0x34
  402f8c:	f048 0110 	orr.w	r1, r8, #16

00402f90 <.LVL157>:
  402f90:	e754      	b.n	402e3c <.LVL127>

00402f92 <.LVL158>:
  402f92:	f048 0808 	orr.w	r8, r8, #8
  402f96:	783b      	ldrb	r3, [r7, #0]
  402f98:	e51f      	b.n	4029da <.LVL23>
  402f9a:	930d      	str	r3, [sp, #52]	; 0x34
  402f9c:	f048 0810 	orr.w	r8, r8, #16
  402fa0:	e7bb      	b.n	402f1a <.LVL148+0x2>
  402fa2:	9a0a      	ldr	r2, [sp, #40]	; 0x28
  402fa4:	930d      	str	r3, [sp, #52]	; 0x34
  402fa6:	6816      	ldr	r6, [r2, #0]

00402fa8 <.LVL161>:
  402fa8:	2400      	movs	r4, #0
  402faa:	f88d 406b 	strb.w	r4, [sp, #107]	; 0x6b
  402fae:	1d15      	adds	r5, r2, #4

00402fb0 <.LVL162>:
  402fb0:	2e00      	cmp	r6, #0
  402fb2:	f000 875b 	beq.w	403e6c <.LVL591>
  402fb6:	9a04      	ldr	r2, [sp, #16]
  402fb8:	1c53      	adds	r3, r2, #1
  402fba:	f000 86b9 	beq.w	403d30 <.LVL546>

00402fbe <.LBB14>:
  402fbe:	4621      	mov	r1, r4
  402fc0:	4630      	mov	r0, r6
  402fc2:	f008 fbb5 	bl	40b730 <.LFE0>

00402fc6 <.LVL163>:
  402fc6:	9009      	str	r0, [sp, #36]	; 0x24
  402fc8:	2800      	cmp	r0, #0
  402fca:	f000 87a0 	beq.w	403f0e <.LBB63>
  402fce:	9b09      	ldr	r3, [sp, #36]	; 0x24
  402fd0:	9404      	str	r4, [sp, #16]
  402fd2:	1b9b      	subs	r3, r3, r6
  402fd4:	461a      	mov	r2, r3
  402fd6:	ea22 72e2 	bic.w	r2, r2, r2, asr #31
  402fda:	9308      	str	r3, [sp, #32]

00402fdc <.LBE14>:
  402fdc:	950a      	str	r5, [sp, #40]	; 0x28

00402fde <.LBB15>:
  402fde:	4623      	mov	r3, r4
  402fe0:	9203      	str	r2, [sp, #12]

00402fe2 <.LBE15>:
  402fe2:	9309      	str	r3, [sp, #36]	; 0x24
  402fe4:	9313      	str	r3, [sp, #76]	; 0x4c
  402fe6:	9311      	str	r3, [sp, #68]	; 0x44
  402fe8:	930f      	str	r3, [sp, #60]	; 0x3c
  402fea:	f89d 206b 	ldrb.w	r2, [sp, #107]	; 0x6b
  402fee:	e60a      	b.n	402c06 <.L63>

00402ff0 <.LVL165>:
  402ff0:	930d      	str	r3, [sp, #52]	; 0x34
  402ff2:	f048 0110 	orr.w	r1, r8, #16

00402ff6 <.LVL166>:
  402ff6:	e5cb      	b.n	402b90 <.LVL53>

00402ff8 <.LVL167>:
  402ff8:	930d      	str	r3, [sp, #52]	; 0x34
  402ffa:	4bb8      	ldr	r3, [pc, #736]	; (4032dc <.LVL253+0x4>)
  402ffc:	9315      	str	r3, [sp, #84]	; 0x54

00402ffe <.LVL168>:
  402ffe:	e75e      	b.n	402ebe <.L49>

00403000 <.LVL169>:
  403000:	783b      	ldrb	r3, [r7, #0]
  403002:	2b68      	cmp	r3, #104	; 0x68
  403004:	bf03      	ittte	eq
  403006:	787b      	ldrbeq	r3, [r7, #1]
  403008:	f448 7800 	orreq.w	r8, r8, #512	; 0x200
  40300c:	3701      	addeq	r7, #1

0040300e <.LVL171>:
  40300e:	f048 0840 	orrne.w	r8, r8, #64	; 0x40
  403012:	e4e2      	b.n	4029da <.LVL23>

00403014 <.LVL173>:
  403014:	783b      	ldrb	r3, [r7, #0]
  403016:	2b2a      	cmp	r3, #42	; 0x2a
  403018:	f107 0101 	add.w	r1, r7, #1

0040301c <.LVL174>:
  40301c:	f001 80d6 	beq.w	4041cc <.LVL689>

00403020 <.LVL175>:
  403020:	f1a3 0230 	sub.w	r2, r3, #48	; 0x30
  403024:	2a09      	cmp	r2, #9
  403026:	460f      	mov	r7, r1
  403028:	f200 87b5 	bhi.w	403f96 <.LVL619>
  40302c:	2300      	movs	r3, #0

0040302e <.LVL176>:
  40302e:	4619      	mov	r1, r3

00403030 <.LVL177>:
  403030:	f817 3b01 	ldrb.w	r3, [r7], #1

00403034 <.LVL178>:
  403034:	eb01 0181 	add.w	r1, r1, r1, lsl #2

00403038 <.LVL179>:
  403038:	eb02 0141 	add.w	r1, r2, r1, lsl #1

0040303c <.LVL180>:
  40303c:	f1a3 0230 	sub.w	r2, r3, #48	; 0x30
  403040:	2a09      	cmp	r2, #9
  403042:	d9f5      	bls.n	403030 <.LVL177>
  403044:	9104      	str	r1, [sp, #16]
  403046:	e4c9      	b.n	4029dc <.LVL23+0x2>

00403048 <.LVL181>:
  403048:	f048 0880 	orr.w	r8, r8, #128	; 0x80
  40304c:	783b      	ldrb	r3, [r7, #0]
  40304e:	e4c4      	b.n	4029da <.LVL23>

00403050 <.LVL183>:
  403050:	980a      	ldr	r0, [sp, #40]	; 0x28
  403052:	930d      	str	r3, [sp, #52]	; 0x34
  403054:	6801      	ldr	r1, [r0, #0]
  403056:	f88d 10d4 	strb.w	r1, [sp, #212]	; 0xd4

0040305a <.LVL184>:
  40305a:	2300      	movs	r3, #0
  40305c:	4601      	mov	r1, r0
  40305e:	461a      	mov	r2, r3
  403060:	f88d 306b 	strb.w	r3, [sp, #107]	; 0x6b
  403064:	3104      	adds	r1, #4

00403066 <.LVL185>:
  403066:	2301      	movs	r3, #1
  403068:	9303      	str	r3, [sp, #12]
  40306a:	9209      	str	r2, [sp, #36]	; 0x24
  40306c:	9204      	str	r2, [sp, #16]
  40306e:	9213      	str	r2, [sp, #76]	; 0x4c
  403070:	9211      	str	r2, [sp, #68]	; 0x44
  403072:	920f      	str	r2, [sp, #60]	; 0x3c
  403074:	910a      	str	r1, [sp, #40]	; 0x28
  403076:	9308      	str	r3, [sp, #32]
  403078:	ae35      	add	r6, sp, #212	; 0xd4

0040307a <.LVL186>:
  40307a:	e5c8      	b.n	402c0e <.LVL67>

0040307c <.LVL187>:
  40307c:	783b      	ldrb	r3, [r7, #0]
  40307e:	2b6c      	cmp	r3, #108	; 0x6c
  403080:	bf03      	ittte	eq
  403082:	787b      	ldrbeq	r3, [r7, #1]
  403084:	f048 0820 	orreq.w	r8, r8, #32
  403088:	3701      	addeq	r7, #1

0040308a <.LVL189>:
  40308a:	f048 0810 	orrne.w	r8, r8, #16
  40308e:	e4a4      	b.n	4029da <.LVL23>

00403090 <.LVL191>:
  403090:	f018 0f20 	tst.w	r8, #32
  403094:	f040 862b 	bne.w	403cee <.LVL537>
  403098:	f018 0f10 	tst.w	r8, #16
  40309c:	d178      	bne.n	403190 <.LVL216>
  40309e:	f018 0f40 	tst.w	r8, #64	; 0x40
  4030a2:	f040 86d9 	bne.w	403e58 <.LBE25>
  4030a6:	f418 7f00 	tst.w	r8, #512	; 0x200
  4030aa:	d071      	beq.n	403190 <.LVL216>

004030ac <.LVL192>:
  4030ac:	9a0a      	ldr	r2, [sp, #40]	; 0x28
  4030ae:	6813      	ldr	r3, [r2, #0]
  4030b0:	3204      	adds	r2, #4

004030b2 <.LVL193>:
  4030b2:	920a      	str	r2, [sp, #40]	; 0x28
  4030b4:	f89d 2018 	ldrb.w	r2, [sp, #24]

004030b8 <.LVL194>:
  4030b8:	701a      	strb	r2, [r3, #0]
  4030ba:	463e      	mov	r6, r7

004030bc <.LVL195>:
  4030bc:	e45d      	b.n	40297a <.LVL10>

004030be <.LVL196>:
  4030be:	980a      	ldr	r0, [sp, #40]	; 0x28
  4030c0:	4b87      	ldr	r3, [pc, #540]	; (4032e0 <.LVL253+0x8>)
  4030c2:	6804      	ldr	r4, [r0, #0]
  4030c4:	9315      	str	r3, [sp, #84]	; 0x54

004030c6 <.LVL197>:
  4030c6:	2230      	movs	r2, #48	; 0x30
  4030c8:	2378      	movs	r3, #120	; 0x78
  4030ca:	3004      	adds	r0, #4

004030cc <.LVL198>:
  4030cc:	f88d 306d 	strb.w	r3, [sp, #109]	; 0x6d
  4030d0:	930d      	str	r3, [sp, #52]	; 0x34
  4030d2:	f048 0102 	orr.w	r1, r8, #2
  4030d6:	900a      	str	r0, [sp, #40]	; 0x28
  4030d8:	2500      	movs	r5, #0

004030da <.LVL199>:
  4030da:	f88d 206c 	strb.w	r2, [sp, #108]	; 0x6c

004030de <.LVL200>:
  4030de:	2302      	movs	r3, #2
  4030e0:	e569      	b.n	402bb6 <.L154>

004030e2 <.LVL201>:
  4030e2:	f1a3 0230 	sub.w	r2, r3, #48	; 0x30
  4030e6:	2300      	movs	r3, #0
  4030e8:	4619      	mov	r1, r3

004030ea <.LVL202>:
  4030ea:	f817 3b01 	ldrb.w	r3, [r7], #1

004030ee <.LVL203>:
  4030ee:	eb01 0181 	add.w	r1, r1, r1, lsl #2

004030f2 <.LVL204>:
  4030f2:	eb02 0141 	add.w	r1, r2, r1, lsl #1

004030f6 <.LVL205>:
  4030f6:	f1a3 0230 	sub.w	r2, r3, #48	; 0x30
  4030fa:	2a09      	cmp	r2, #9
  4030fc:	d9f5      	bls.n	4030ea <.LVL202>
  4030fe:	9107      	str	r1, [sp, #28]
  403100:	e46c      	b.n	4029dc <.LVL23+0x2>

00403102 <.LVL206>:
  403102:	9d0a      	ldr	r5, [sp, #40]	; 0x28
  403104:	930d      	str	r3, [sp, #52]	; 0x34
  403106:	f018 0f08 	tst.w	r8, #8
  40310a:	f105 0507 	add.w	r5, r5, #7
  40310e:	f000 84bd 	beq.w	403a8c <.LVL471>
  403112:	f025 0307 	bic.w	r3, r5, #7
  403116:	ed93 8b00 	vldr	d8, [r3]

0040311a <.LVL207>:
  40311a:	f103 0208 	add.w	r2, r3, #8
  40311e:	920a      	str	r2, [sp, #40]	; 0x28

00403120 <.LVL208>:
  403120:	eeb0 7bc8 	vabs.f64	d7, d8
  403124:	eeb4 7b49 	vcmp.f64	d7, d9
  403128:	eef1 fa10 	vmrs	APSR_nzcv, fpscr
  40312c:	f340 8409 	ble.w	403942 <.LVL444>
  403130:	eeb5 8bc0 	vcmpe.f64	d8, #0.0
  403134:	eef1 fa10 	vmrs	APSR_nzcv, fpscr
  403138:	f100 86ad 	bmi.w	403e96 <.LVL593+0xa>
  40313c:	f89d 206b 	ldrb.w	r2, [sp, #107]	; 0x6b
  403140:	4e68      	ldr	r6, [pc, #416]	; (4032e4 <.LVL253+0xc>)

00403142 <.LVL209>:
  403142:	9c0d      	ldr	r4, [sp, #52]	; 0x34
  403144:	2303      	movs	r3, #3
  403146:	2100      	movs	r1, #0
  403148:	4618      	mov	r0, r3
  40314a:	9303      	str	r3, [sp, #12]
  40314c:	1f33      	subs	r3, r6, #4
  40314e:	9109      	str	r1, [sp, #36]	; 0x24
  403150:	f028 0880 	bic.w	r8, r8, #128	; 0x80

00403154 <.LVL210>:
  403154:	2c47      	cmp	r4, #71	; 0x47
  403156:	bfd8      	it	le
  403158:	461e      	movle	r6, r3

0040315a <.LVL211>:
  40315a:	9008      	str	r0, [sp, #32]
  40315c:	9104      	str	r1, [sp, #16]
  40315e:	9113      	str	r1, [sp, #76]	; 0x4c
  403160:	9111      	str	r1, [sp, #68]	; 0x44
  403162:	910f      	str	r1, [sp, #60]	; 0x3c
  403164:	e54f      	b.n	402c06 <.L63>

00403166 <.LVL212>:
  403166:	4619      	mov	r1, r3
  403168:	930d      	str	r3, [sp, #52]	; 0x34
  40316a:	2b00      	cmp	r3, #0
  40316c:	f000 850a 	beq.w	403b84 <.LDL1>

00403170 <.LVL213>:
  403170:	2300      	movs	r3, #0
  403172:	2001      	movs	r0, #1
  403174:	461a      	mov	r2, r3
  403176:	9003      	str	r0, [sp, #12]
  403178:	f88d 10d4 	strb.w	r1, [sp, #212]	; 0xd4

0040317c <.LVL214>:
  40317c:	f88d 306b 	strb.w	r3, [sp, #107]	; 0x6b
  403180:	9309      	str	r3, [sp, #36]	; 0x24
  403182:	9304      	str	r3, [sp, #16]
  403184:	9313      	str	r3, [sp, #76]	; 0x4c
  403186:	9311      	str	r3, [sp, #68]	; 0x44
  403188:	930f      	str	r3, [sp, #60]	; 0x3c
  40318a:	9008      	str	r0, [sp, #32]
  40318c:	ae35      	add	r6, sp, #212	; 0xd4

0040318e <.LVL215>:
  40318e:	e53e      	b.n	402c0e <.LVL67>

00403190 <.LVL216>:
  403190:	9a0a      	ldr	r2, [sp, #40]	; 0x28
  403192:	6813      	ldr	r3, [r2, #0]
  403194:	3204      	adds	r2, #4

00403196 <.LVL217>:
  403196:	920a      	str	r2, [sp, #40]	; 0x28
  403198:	9a06      	ldr	r2, [sp, #24]

0040319a <.LVL218>:
  40319a:	601a      	str	r2, [r3, #0]

0040319c <.LVL219>:
  40319c:	463e      	mov	r6, r7

0040319e <.LVL220>:
  40319e:	f7ff bbec 	b.w	40297a <.LVL10>

004031a2 <.LVL221>:
  4031a2:	9b24      	ldr	r3, [sp, #144]	; 0x90
  4031a4:	e57f      	b.n	402ca6 <.LVL85>

004031a6 <.LVL222>:
  4031a6:	9a0d      	ldr	r2, [sp, #52]	; 0x34
  4031a8:	2a65      	cmp	r2, #101	; 0x65
  4031aa:	f340 809f 	ble.w	4032ec <.LVL254>
  4031ae:	eeb5 8b40 	vcmp.f64	d8, #0.0
  4031b2:	eef1 fa10 	vmrs	APSR_nzcv, fpscr
  4031b6:	f040 8142 	bne.w	40343e <.LVL289>
  4031ba:	9a23      	ldr	r2, [sp, #140]	; 0x8c
  4031bc:	494a      	ldr	r1, [pc, #296]	; (4032e8 <.LVL253+0x10>)
  4031be:	f8c9 1000 	str.w	r1, [r9]
  4031c2:	3201      	adds	r2, #1
  4031c4:	3301      	adds	r3, #1
  4031c6:	2101      	movs	r1, #1
  4031c8:	2a07      	cmp	r2, #7
  4031ca:	9324      	str	r3, [sp, #144]	; 0x90
  4031cc:	9223      	str	r2, [sp, #140]	; 0x8c
  4031ce:	f8c9 1004 	str.w	r1, [r9, #4]
  4031d2:	f300 848f 	bgt.w	403af4 <.LBE47>

004031d6 <.LVL223>:
  4031d6:	f109 0908 	add.w	r9, r9, #8

004031da <.LVL224>:
  4031da:	9b1c      	ldr	r3, [sp, #112]	; 0x70
  4031dc:	9a10      	ldr	r2, [sp, #64]	; 0x40
  4031de:	4293      	cmp	r3, r2
  4031e0:	9b24      	ldr	r3, [sp, #144]	; 0x90
  4031e2:	db03      	blt.n	4031ec <.LVL224+0x12>
  4031e4:	f018 0f01 	tst.w	r8, #1
  4031e8:	f43f add0 	beq.w	402d8c <.LVL107>
  4031ec:	9a23      	ldr	r2, [sp, #140]	; 0x8c
  4031ee:	9814      	ldr	r0, [sp, #80]	; 0x50
  4031f0:	9916      	ldr	r1, [sp, #88]	; 0x58
  4031f2:	f8c9 1000 	str.w	r1, [r9]
  4031f6:	3201      	adds	r2, #1
  4031f8:	4403      	add	r3, r0
  4031fa:	2a07      	cmp	r2, #7
  4031fc:	f8c9 0004 	str.w	r0, [r9, #4]
  403200:	9324      	str	r3, [sp, #144]	; 0x90

00403202 <.LVL225>:
  403202:	9223      	str	r2, [sp, #140]	; 0x8c
  403204:	f300 8587 	bgt.w	403d16 <.LVL542>

00403208 <.LVL226>:
  403208:	f109 0908 	add.w	r9, r9, #8

0040320c <.LVL227>:
  40320c:	9a10      	ldr	r2, [sp, #64]	; 0x40
  40320e:	1e54      	subs	r4, r2, #1
  403210:	2c00      	cmp	r4, #0
  403212:	f77f adbb 	ble.w	402d8c <.LVL107>
  403216:	2c10      	cmp	r4, #16
  403218:	9a23      	ldr	r2, [sp, #140]	; 0x8c
  40321a:	f340 820a 	ble.w	403632 <.LBB18>
  40321e:	2510      	movs	r5, #16
  403220:	9e02      	ldr	r6, [sp, #8]
  403222:	e005      	b.n	403230 <.LVL232>

00403224 <.LVL229>:
  403224:	f109 0908 	add.w	r9, r9, #8

00403228 <.LVL230>:
  403228:	3c10      	subs	r4, #16
  40322a:	2c10      	cmp	r4, #16
  40322c:	f340 8201 	ble.w	403632 <.LBB18>

00403230 <.LVL232>:
  403230:	3201      	adds	r2, #1
  403232:	3310      	adds	r3, #16
  403234:	2a07      	cmp	r2, #7
  403236:	9324      	str	r3, [sp, #144]	; 0x90

00403238 <.LVL233>:
  403238:	9223      	str	r2, [sp, #140]	; 0x8c
  40323a:	f8c9 a000 	str.w	sl, [r9]
  40323e:	f8c9 5004 	str.w	r5, [r9, #4]
  403242:	ddef      	ble.n	403224 <.LVL229>
  403244:	aa22      	add	r2, sp, #136	; 0x88
  403246:	4631      	mov	r1, r6
  403248:	4658      	mov	r0, fp
  40324a:	f00a fabd 	bl	40d7c8 <__sprint_r>

0040324e <.LVL234>:
  40324e:	2800      	cmp	r0, #0
  403250:	f47f ac7c 	bne.w	402b4c <.L193>
  403254:	9b24      	ldr	r3, [sp, #144]	; 0x90
  403256:	9a23      	ldr	r2, [sp, #140]	; 0x8c

00403258 <.LVL235>:
  403258:	f10d 0994 	add.w	r9, sp, #148	; 0x94

0040325c <.LVL236>:
  40325c:	e7e4      	b.n	403228 <.LVL230>

0040325e <.LVL237>:
  40325e:	9a07      	ldr	r2, [sp, #28]
  403260:	9903      	ldr	r1, [sp, #12]
  403262:	1a54      	subs	r4, r2, r1

00403264 <.LVL238>:
  403264:	2c00      	cmp	r4, #0
  403266:	f77f ad42 	ble.w	402cee <.LVL89+0x8>
  40326a:	2c10      	cmp	r4, #16
  40326c:	9a23      	ldr	r2, [sp, #140]	; 0x8c
  40326e:	dd26      	ble.n	4032be <.LVL251>
  403270:	4649      	mov	r1, r9
  403272:	2510      	movs	r5, #16
  403274:	46a1      	mov	r9, r4
  403276:	9c02      	ldr	r4, [sp, #8]

00403278 <.LVL239>:
  403278:	e006      	b.n	403288 <.LVL243>

0040327a <.LVL240>:
  40327a:	f1a9 0910 	sub.w	r9, r9, #16

0040327e <.LVL241>:
  40327e:	f1b9 0f10 	cmp.w	r9, #16
  403282:	f101 0108 	add.w	r1, r1, #8

00403286 <.LVL242>:
  403286:	dd18      	ble.n	4032ba <.LVL250>

00403288 <.LVL243>:
  403288:	3201      	adds	r2, #1
  40328a:	3310      	adds	r3, #16
  40328c:	2a07      	cmp	r2, #7
  40328e:	9324      	str	r3, [sp, #144]	; 0x90

00403290 <.LVL244>:
  403290:	9223      	str	r2, [sp, #140]	; 0x8c
  403292:	f8c1 a000 	str.w	sl, [r1]
  403296:	604d      	str	r5, [r1, #4]
  403298:	ddef      	ble.n	40327a <.LVL240>
  40329a:	aa22      	add	r2, sp, #136	; 0x88
  40329c:	4621      	mov	r1, r4

0040329e <.LVL245>:
  40329e:	4658      	mov	r0, fp
  4032a0:	f00a fa92 	bl	40d7c8 <__sprint_r>

004032a4 <.LVL246>:
  4032a4:	2800      	cmp	r0, #0
  4032a6:	f47f ac51 	bne.w	402b4c <.L193>
  4032aa:	f1a9 0910 	sub.w	r9, r9, #16

004032ae <.LVL247>:
  4032ae:	f1b9 0f10 	cmp.w	r9, #16
  4032b2:	9b24      	ldr	r3, [sp, #144]	; 0x90
  4032b4:	9a23      	ldr	r2, [sp, #140]	; 0x8c

004032b6 <.LVL248>:
  4032b6:	a925      	add	r1, sp, #148	; 0x94

004032b8 <.LVL249>:
  4032b8:	dce6      	bgt.n	403288 <.LVL243>

004032ba <.LVL250>:
  4032ba:	464c      	mov	r4, r9
  4032bc:	4689      	mov	r9, r1

004032be <.LVL251>:
  4032be:	3201      	adds	r2, #1
  4032c0:	4423      	add	r3, r4
  4032c2:	2a07      	cmp	r2, #7
  4032c4:	9324      	str	r3, [sp, #144]	; 0x90
  4032c6:	9223      	str	r2, [sp, #140]	; 0x8c
  4032c8:	f8c9 a000 	str.w	sl, [r9]
  4032cc:	f8c9 4004 	str.w	r4, [r9, #4]
  4032d0:	f300 8321 	bgt.w	403916 <.LBE22>

004032d4 <.LVL252>:
  4032d4:	f109 0908 	add.w	r9, r9, #8

004032d8 <.LVL253>:
  4032d8:	e509      	b.n	402cee <.LVL89+0x8>
  4032da:	bf00      	nop
  4032dc:	0040cdec 	.word	0x0040cdec
  4032e0:	0040ce00 	.word	0x0040ce00
  4032e4:	0040cde0 	.word	0x0040cde0
  4032e8:	0040ce1c 	.word	0x0040ce1c

004032ec <.LVL254>:
  4032ec:	9a10      	ldr	r2, [sp, #64]	; 0x40
  4032ee:	f8c9 6000 	str.w	r6, [r9]
  4032f2:	2a01      	cmp	r2, #1
  4032f4:	9a23      	ldr	r2, [sp, #140]	; 0x8c
  4032f6:	f103 0301 	add.w	r3, r3, #1
  4032fa:	f102 0201 	add.w	r2, r2, #1
  4032fe:	f04f 0101 	mov.w	r1, #1
  403302:	9324      	str	r3, [sp, #144]	; 0x90
  403304:	9223      	str	r2, [sp, #140]	; 0x8c
  403306:	f8c9 1004 	str.w	r1, [r9, #4]
  40330a:	f340 8220 	ble.w	40374e <.LBE27>
  40330e:	2a07      	cmp	r2, #7
  403310:	f300 823c 	bgt.w	40378c <.LBE28>
  403314:	f109 0908 	add.w	r9, r9, #8

00403318 <.LVL255>:
  403318:	9814      	ldr	r0, [sp, #80]	; 0x50
  40331a:	9916      	ldr	r1, [sp, #88]	; 0x58
  40331c:	f8c9 1000 	str.w	r1, [r9]
  403320:	3201      	adds	r2, #1
  403322:	4403      	add	r3, r0
  403324:	2a07      	cmp	r2, #7
  403326:	9324      	str	r3, [sp, #144]	; 0x90

00403328 <.LVL256>:
  403328:	9223      	str	r2, [sp, #140]	; 0x8c
  40332a:	f8c9 0004 	str.w	r0, [r9, #4]
  40332e:	f300 8246 	bgt.w	4037be <.LVL400>
  403332:	f109 0908 	add.w	r9, r9, #8

00403336 <.LVL257>:
  403336:	eeb5 8b40 	vcmp.f64	d8, #0.0
  40333a:	eef1 fa10 	vmrs	APSR_nzcv, fpscr
  40333e:	9910      	ldr	r1, [sp, #64]	; 0x40
  403340:	f000 811e 	beq.w	403580 <.LVL331>
  403344:	3901      	subs	r1, #1
  403346:	3201      	adds	r2, #1
  403348:	3601      	adds	r6, #1

0040334a <.LVL258>:
  40334a:	440b      	add	r3, r1
  40334c:	2a07      	cmp	r2, #7
  40334e:	f8c9 6000 	str.w	r6, [r9]
  403352:	9223      	str	r2, [sp, #140]	; 0x8c
  403354:	9324      	str	r3, [sp, #144]	; 0x90

00403356 <.LVL259>:
  403356:	f8c9 1004 	str.w	r1, [r9, #4]
  40335a:	f300 81ff 	bgt.w	40375c <.LBE27+0xe>

0040335e <.LVL260>:
  40335e:	f109 0908 	add.w	r9, r9, #8

00403362 <.LVL261>:
  403362:	9819      	ldr	r0, [sp, #100]	; 0x64
  403364:	f8c9 0004 	str.w	r0, [r9, #4]
  403368:	3201      	adds	r2, #1
  40336a:	4403      	add	r3, r0
  40336c:	a91e      	add	r1, sp, #120	; 0x78
  40336e:	2a07      	cmp	r2, #7
  403370:	9324      	str	r3, [sp, #144]	; 0x90

00403372 <.LVL262>:
  403372:	9223      	str	r2, [sp, #140]	; 0x8c
  403374:	f8c9 1000 	str.w	r1, [r9]
  403378:	f77f ad06 	ble.w	402d88 <.LVL106>

0040337c <.LVL263>:
  40337c:	aa22      	add	r2, sp, #136	; 0x88
  40337e:	9902      	ldr	r1, [sp, #8]
  403380:	4658      	mov	r0, fp
  403382:	f00a fa21 	bl	40d7c8 <__sprint_r>

00403386 <.LVL264>:
  403386:	2800      	cmp	r0, #0
  403388:	f47f abe0 	bne.w	402b4c <.L193>
  40338c:	9b24      	ldr	r3, [sp, #144]	; 0x90
  40338e:	f10d 0994 	add.w	r9, sp, #148	; 0x94
  403392:	e4fb      	b.n	402d8c <.LVL107>

00403394 <.LVL265>:
  403394:	4641      	mov	r1, r8

00403396 <.LVL266>:
  403396:	2b01      	cmp	r3, #1
  403398:	f000 8128 	beq.w	4035ec <.LVL345>
  40339c:	2b02      	cmp	r3, #2
  40339e:	d127      	bne.n	4033f0 <.LVL280>
  4033a0:	4688      	mov	r8, r1
  4033a2:	2400      	movs	r4, #0

004033a4 <.LVL267>:
  4033a4:	2500      	movs	r5, #0
  4033a6:	e573      	b.n	402e90 <.LVL134>

004033a8 <.LVL268>:
  4033a8:	aa22      	add	r2, sp, #136	; 0x88
  4033aa:	9902      	ldr	r1, [sp, #8]
  4033ac:	4658      	mov	r0, fp
  4033ae:	f00a fa0b 	bl	40d7c8 <__sprint_r>

004033b2 <.LVL269>:
  4033b2:	2800      	cmp	r0, #0
  4033b4:	f47f abca 	bne.w	402b4c <.L193>
  4033b8:	9b24      	ldr	r3, [sp, #144]	; 0x90

004033ba <.LVL270>:
  4033ba:	f10d 0994 	add.w	r9, sp, #148	; 0x94

004033be <.LVL271>:
  4033be:	e4d2      	b.n	402d66 <.LVL105>

004033c0 <.LVL272>:
  4033c0:	aa22      	add	r2, sp, #136	; 0x88
  4033c2:	9902      	ldr	r1, [sp, #8]
  4033c4:	4658      	mov	r0, fp
  4033c6:	f00a f9ff 	bl	40d7c8 <__sprint_r>

004033ca <.LVL273>:
  4033ca:	2800      	cmp	r0, #0
  4033cc:	f47f abbe 	bne.w	402b4c <.L193>
  4033d0:	9b24      	ldr	r3, [sp, #144]	; 0x90

004033d2 <.LVL274>:
  4033d2:	f10d 0994 	add.w	r9, sp, #148	; 0x94

004033d6 <.LVL275>:
  4033d6:	e476      	b.n	402cc6 <.LVL87>

004033d8 <.LVL276>:
  4033d8:	aa22      	add	r2, sp, #136	; 0x88
  4033da:	9902      	ldr	r1, [sp, #8]
  4033dc:	4658      	mov	r0, fp
  4033de:	f00a f9f3 	bl	40d7c8 <__sprint_r>

004033e2 <.LVL277>:
  4033e2:	2800      	cmp	r0, #0
  4033e4:	f47f abb2 	bne.w	402b4c <.L193>
  4033e8:	9b24      	ldr	r3, [sp, #144]	; 0x90

004033ea <.LVL278>:
  4033ea:	f10d 0994 	add.w	r9, sp, #148	; 0x94

004033ee <.LVL279>:
  4033ee:	e47a      	b.n	402ce6 <.LVL89>

004033f0 <.LVL280>:
  4033f0:	4688      	mov	r8, r1
  4033f2:	2400      	movs	r4, #0

004033f4 <.LVL281>:
  4033f4:	2500      	movs	r5, #0

004033f6 <.LVL282>:
  4033f6:	a94e      	add	r1, sp, #312	; 0x138

004033f8 <.LVL283>:
  4033f8:	e000      	b.n	4033fc <.LVL285>

004033fa <.LVL284>:
  4033fa:	4631      	mov	r1, r6

004033fc <.LVL285>:
  4033fc:	08e2      	lsrs	r2, r4, #3
  4033fe:	ea42 7245 	orr.w	r2, r2, r5, lsl #29
  403402:	08e8      	lsrs	r0, r5, #3
  403404:	f004 0307 	and.w	r3, r4, #7
  403408:	4605      	mov	r5, r0
  40340a:	4614      	mov	r4, r2

0040340c <.LVL286>:
  40340c:	3330      	adds	r3, #48	; 0x30
  40340e:	ea54 0205 	orrs.w	r2, r4, r5
  403412:	f801 3c01 	strb.w	r3, [r1, #-1]
  403416:	f101 36ff 	add.w	r6, r1, #4294967295

0040341a <.LVL287>:
  40341a:	d1ee      	bne.n	4033fa <.LVL284>
  40341c:	f018 0f01 	tst.w	r8, #1
  403420:	f43f ad46 	beq.w	402eb0 <.LVL140>
  403424:	2b30      	cmp	r3, #48	; 0x30
  403426:	f43f ad43 	beq.w	402eb0 <.LVL140>
  40342a:	2330      	movs	r3, #48	; 0x30
  40342c:	3902      	subs	r1, #2

0040342e <.LVL288>:
  40342e:	f806 3c01 	strb.w	r3, [r6, #-1]
  403432:	ab4e      	add	r3, sp, #312	; 0x138
  403434:	1a5b      	subs	r3, r3, r1
  403436:	9308      	str	r3, [sp, #32]
  403438:	460e      	mov	r6, r1
  40343a:	f7ff bbd7 	b.w	402bec <.LVL64>

0040343e <.LVL289>:
  40343e:	991c      	ldr	r1, [sp, #112]	; 0x70
  403440:	2900      	cmp	r1, #0
  403442:	f340 8368 	ble.w	403b16 <.LVL493>

00403446 <.LVL290>:
  403446:	9a0f      	ldr	r2, [sp, #60]	; 0x3c
  403448:	9910      	ldr	r1, [sp, #64]	; 0x40
  40344a:	428a      	cmp	r2, r1
  40344c:	bfa8      	it	ge
  40344e:	460a      	movge	r2, r1

00403450 <.LBB16>:
  403450:	2a00      	cmp	r2, #0
  403452:	4614      	mov	r4, r2

00403454 <.LVL291>:
  403454:	dd0d      	ble.n	403472 <.LVL294>
  403456:	9a23      	ldr	r2, [sp, #140]	; 0x8c

00403458 <.LVL292>:
  403458:	f8c9 6000 	str.w	r6, [r9]
  40345c:	3201      	adds	r2, #1
  40345e:	4423      	add	r3, r4
  403460:	2a07      	cmp	r2, #7
  403462:	9324      	str	r3, [sp, #144]	; 0x90
  403464:	f8c9 4004 	str.w	r4, [r9, #4]
  403468:	9223      	str	r2, [sp, #140]	; 0x8c
  40346a:	f300 84e8 	bgt.w	403e3e <.LBB25>

0040346e <.LVL293>:
  40346e:	f109 0908 	add.w	r9, r9, #8

00403472 <.LVL294>:
  403472:	9a0f      	ldr	r2, [sp, #60]	; 0x3c
  403474:	2c00      	cmp	r4, #0
  403476:	bfa8      	it	ge
  403478:	1b12      	subge	r2, r2, r4
  40347a:	2a00      	cmp	r2, #0
  40347c:	4614      	mov	r4, r2

0040347e <.LVL295>:
  40347e:	f340 80ef 	ble.w	403660 <.LBE19>
  403482:	2c10      	cmp	r4, #16
  403484:	9a23      	ldr	r2, [sp, #140]	; 0x8c

00403486 <.LVL296>:
  403486:	f340 830c 	ble.w	403aa2 <.LBB23>
  40348a:	4649      	mov	r1, r9
  40348c:	2510      	movs	r5, #16
  40348e:	46a1      	mov	r9, r4
  403490:	9c02      	ldr	r4, [sp, #8]

00403492 <.LVL297>:
  403492:	e006      	b.n	4034a2 <.LVL301>

00403494 <.LVL298>:
  403494:	3108      	adds	r1, #8

00403496 <.LVL299>:
  403496:	f1a9 0910 	sub.w	r9, r9, #16
  40349a:	f1b9 0f10 	cmp.w	r9, #16
  40349e:	f340 82fe 	ble.w	403a9e <.LVL474>

004034a2 <.LVL301>:
  4034a2:	3201      	adds	r2, #1
  4034a4:	3310      	adds	r3, #16
  4034a6:	2a07      	cmp	r2, #7
  4034a8:	9324      	str	r3, [sp, #144]	; 0x90

004034aa <.LVL302>:
  4034aa:	9223      	str	r2, [sp, #140]	; 0x8c
  4034ac:	f8c1 a000 	str.w	sl, [r1]
  4034b0:	604d      	str	r5, [r1, #4]
  4034b2:	ddef      	ble.n	403494 <.LVL298>
  4034b4:	aa22      	add	r2, sp, #136	; 0x88
  4034b6:	4621      	mov	r1, r4

004034b8 <.LVL303>:
  4034b8:	4658      	mov	r0, fp
  4034ba:	f00a f985 	bl	40d7c8 <__sprint_r>

004034be <.LVL304>:
  4034be:	2800      	cmp	r0, #0
  4034c0:	f47f ab44 	bne.w	402b4c <.L193>
  4034c4:	9b24      	ldr	r3, [sp, #144]	; 0x90
  4034c6:	9a23      	ldr	r2, [sp, #140]	; 0x8c

004034c8 <.LVL305>:
  4034c8:	a925      	add	r1, sp, #148	; 0x94

004034ca <.LVL306>:
  4034ca:	e7e4      	b.n	403496 <.LVL299>

004034cc <.LBE16>:
  4034cc:	2d00      	cmp	r5, #0
  4034ce:	bf08      	it	eq
  4034d0:	2c0a      	cmpeq	r4, #10
  4034d2:	f0c0 808a 	bcc.w	4035ea <.LVL344>
  4034d6:	f408 6380 	and.w	r3, r8, #1024	; 0x400

004034da <.LVL308>:
  4034da:	2200      	movs	r2, #0
  4034dc:	9703      	str	r7, [sp, #12]
  4034de:	f8cd 9014 	str.w	r9, [sp, #20]
  4034e2:	f8cd b020 	str.w	fp, [sp, #32]
  4034e6:	ae4e      	add	r6, sp, #312	; 0x138

004034e8 <.LVL309>:
  4034e8:	46c3      	mov	fp, r8
  4034ea:	f8dd 9048 	ldr.w	r9, [sp, #72]	; 0x48

004034ee <.LVL310>:
  4034ee:	4617      	mov	r7, r2

004034f0 <.LVL311>:
  4034f0:	4698      	mov	r8, r3

004034f2 <.LVL312>:
  4034f2:	e00a      	b.n	40350a <.LVL316+0x6>

004034f4 <.LVL313>:
  4034f4:	2300      	movs	r3, #0
  4034f6:	4620      	mov	r0, r4
  4034f8:	4629      	mov	r1, r5
  4034fa:	220a      	movs	r2, #10
  4034fc:	f009 fe20 	bl	40d140 <.LFE156>
  403500:	4604      	mov	r4, r0

00403502 <.LVL315>:
  403502:	460d      	mov	r5, r1

00403504 <.LVL316>:
  403504:	ea54 0305 	orrs.w	r3, r4, r5
  403508:	d061      	beq.n	4035ce <.LVL340>
  40350a:	220a      	movs	r2, #10
  40350c:	2300      	movs	r3, #0
  40350e:	4620      	mov	r0, r4
  403510:	4629      	mov	r1, r5
  403512:	f009 fe15 	bl	40d140 <.LFE156>
  403516:	3230      	adds	r2, #48	; 0x30
  403518:	f806 2c01 	strb.w	r2, [r6, #-1]
  40351c:	3701      	adds	r7, #1

0040351e <.LVL319>:
  40351e:	3e01      	subs	r6, #1

00403520 <.LVL320>:
  403520:	f1b8 0f00 	cmp.w	r8, #0
  403524:	d0e6      	beq.n	4034f4 <.LVL313>
  403526:	f899 3000 	ldrb.w	r3, [r9]
  40352a:	429f      	cmp	r7, r3
  40352c:	d1e2      	bne.n	4034f4 <.LVL313>
  40352e:	2fff      	cmp	r7, #255	; 0xff
  403530:	d0e0      	beq.n	4034f4 <.LVL313>
  403532:	2d00      	cmp	r5, #0
  403534:	bf08      	it	eq
  403536:	2c0a      	cmpeq	r4, #10
  403538:	d3dc      	bcc.n	4034f4 <.LVL313>
  40353a:	9b18      	ldr	r3, [sp, #96]	; 0x60
  40353c:	9917      	ldr	r1, [sp, #92]	; 0x5c
  40353e:	1af6      	subs	r6, r6, r3
  403540:	4630      	mov	r0, r6
  403542:	461a      	mov	r2, r3
  403544:	f009 f866 	bl	40c614 <.LBE4>

00403548 <.LVL322>:
  403548:	f899 7001 	ldrb.w	r7, [r9, #1]
  40354c:	2f00      	cmp	r7, #0
  40354e:	d0d1      	beq.n	4034f4 <.LVL313>
  403550:	f109 0901 	add.w	r9, r9, #1
  403554:	2700      	movs	r7, #0
  403556:	e7cd      	b.n	4034f4 <.LVL313>

00403558 <.LVL324>:
  403558:	9b04      	ldr	r3, [sp, #16]

0040355a <.LVL325>:
  40355a:	9308      	str	r3, [sp, #32]
  40355c:	ae4e      	add	r6, sp, #312	; 0x138

0040355e <.LVL326>:
  40355e:	f7ff bb45 	b.w	402bec <.LVL64>

00403562 <.LVL327>:
  403562:	aa22      	add	r2, sp, #136	; 0x88
  403564:	9902      	ldr	r1, [sp, #8]
  403566:	4658      	mov	r0, fp
  403568:	f00a f92e 	bl	40d7c8 <__sprint_r>

0040356c <.LVL328>:
  40356c:	2800      	cmp	r0, #0
  40356e:	f47f aaed 	bne.w	402b4c <.L193>
  403572:	f89d 206b 	ldrb.w	r2, [sp, #107]	; 0x6b
  403576:	9b24      	ldr	r3, [sp, #144]	; 0x90

00403578 <.LVL329>:
  403578:	f10d 0994 	add.w	r9, sp, #148	; 0x94

0040357c <.LVL330>:
  40357c:	f7ff bb93 	b.w	402ca6 <.LVL85>

00403580 <.LVL331>:
  403580:	1e4c      	subs	r4, r1, #1
  403582:	2c00      	cmp	r4, #0
  403584:	f77f aeed 	ble.w	403362 <.LVL261>
  403588:	2c10      	cmp	r4, #16
  40358a:	f340 810c 	ble.w	4037a6 <.LVL398>
  40358e:	2510      	movs	r5, #16
  403590:	9e02      	ldr	r6, [sp, #8]

00403592 <.LVL333>:
  403592:	e005      	b.n	4035a0 <.LVL335+0x8>

00403594 <.LVL334>:
  403594:	f109 0908 	add.w	r9, r9, #8

00403598 <.LVL335>:
  403598:	3c10      	subs	r4, #16
  40359a:	2c10      	cmp	r4, #16
  40359c:	f340 8103 	ble.w	4037a6 <.LVL398>
  4035a0:	3201      	adds	r2, #1
  4035a2:	3310      	adds	r3, #16
  4035a4:	2a07      	cmp	r2, #7
  4035a6:	9324      	str	r3, [sp, #144]	; 0x90

004035a8 <.LVL337>:
  4035a8:	9223      	str	r2, [sp, #140]	; 0x8c
  4035aa:	f8c9 a000 	str.w	sl, [r9]
  4035ae:	f8c9 5004 	str.w	r5, [r9, #4]
  4035b2:	ddef      	ble.n	403594 <.LVL334>
  4035b4:	aa22      	add	r2, sp, #136	; 0x88
  4035b6:	4631      	mov	r1, r6
  4035b8:	4658      	mov	r0, fp
  4035ba:	f00a f905 	bl	40d7c8 <__sprint_r>

004035be <.LVL338>:
  4035be:	2800      	cmp	r0, #0
  4035c0:	f47f aac4 	bne.w	402b4c <.L193>
  4035c4:	9b24      	ldr	r3, [sp, #144]	; 0x90
  4035c6:	9a23      	ldr	r2, [sp, #140]	; 0x8c
  4035c8:	f10d 0994 	add.w	r9, sp, #148	; 0x94

004035cc <.LVL339>:
  4035cc:	e7e4      	b.n	403598 <.LVL335>

004035ce <.LVL340>:
  4035ce:	ab4e      	add	r3, sp, #312	; 0x138
  4035d0:	1b9b      	subs	r3, r3, r6
  4035d2:	f8cd 9048 	str.w	r9, [sp, #72]	; 0x48
  4035d6:	46d8      	mov	r8, fp
  4035d8:	9710      	str	r7, [sp, #64]	; 0x40
  4035da:	f8dd b020 	ldr.w	fp, [sp, #32]

004035de <.LVL341>:
  4035de:	f8dd 9014 	ldr.w	r9, [sp, #20]

004035e2 <.LVL342>:
  4035e2:	9f03      	ldr	r7, [sp, #12]

004035e4 <.LVL343>:
  4035e4:	9308      	str	r3, [sp, #32]
  4035e6:	f7ff bb01 	b.w	402bec <.LVL64>

004035ea <.LVL344>:
  4035ea:	4641      	mov	r1, r8

004035ec <.LVL345>:
  4035ec:	ae4e      	add	r6, sp, #312	; 0x138
  4035ee:	3430      	adds	r4, #48	; 0x30

004035f0 <.LVL346>:
  4035f0:	2301      	movs	r3, #1

004035f2 <.LVL347>:
  4035f2:	4688      	mov	r8, r1
  4035f4:	f806 4d01 	strb.w	r4, [r6, #-1]!
  4035f8:	9308      	str	r3, [sp, #32]
  4035fa:	f7ff baf7 	b.w	402bec <.LVL64>

004035fe <.LVL348>:
  4035fe:	3204      	adds	r2, #4
  403600:	681c      	ldr	r4, [r3, #0]
  403602:	920a      	str	r2, [sp, #40]	; 0x28

00403604 <.LVL349>:
  403604:	2301      	movs	r3, #1
  403606:	2500      	movs	r5, #0
  403608:	f7ff bad5 	b.w	402bb6 <.L154>

0040360c <.LVL350>:
  40360c:	681c      	ldr	r4, [r3, #0]
  40360e:	3304      	adds	r3, #4
  403610:	930a      	str	r3, [sp, #40]	; 0x28

00403612 <.LVL351>:
  403612:	2500      	movs	r5, #0
  403614:	e469      	b.n	402eea <.LVL145>

00403616 <.LVL352>:
  403616:	9a0a      	ldr	r2, [sp, #40]	; 0x28
  403618:	6814      	ldr	r4, [r2, #0]
  40361a:	4613      	mov	r3, r2
  40361c:	3304      	adds	r3, #4

0040361e <.LVL353>:
  40361e:	17e5      	asrs	r5, r4, #31
  403620:	930a      	str	r3, [sp, #40]	; 0x28
  403622:	4622      	mov	r2, r4
  403624:	462b      	mov	r3, r5

00403626 <.LVL354>:
  403626:	e41d      	b.n	402e64 <.LVL130>

00403628 <.LVL355>:
  403628:	681c      	ldr	r4, [r3, #0]
  40362a:	3304      	adds	r3, #4
  40362c:	930a      	str	r3, [sp, #40]	; 0x28

0040362e <.LVL356>:
  40362e:	2500      	movs	r5, #0
  403630:	e489      	b.n	402f46 <.LVL151>

00403632 <.LBB18>:
  403632:	3201      	adds	r2, #1
  403634:	4423      	add	r3, r4
  403636:	2a07      	cmp	r2, #7
  403638:	9324      	str	r3, [sp, #144]	; 0x90
  40363a:	9223      	str	r2, [sp, #140]	; 0x8c
  40363c:	f8c9 a000 	str.w	sl, [r9]
  403640:	f8c9 4004 	str.w	r4, [r9, #4]
  403644:	f77f aba0 	ble.w	402d88 <.LVL106>
  403648:	e698      	b.n	40337c <.LVL263>

0040364a <.LBB19>:
  40364a:	aa22      	add	r2, sp, #136	; 0x88
  40364c:	9902      	ldr	r1, [sp, #8]
  40364e:	4658      	mov	r0, fp
  403650:	f00a f8ba 	bl	40d7c8 <__sprint_r>

00403654 <.LVL359>:
  403654:	2800      	cmp	r0, #0
  403656:	f47f aa79 	bne.w	402b4c <.L193>
  40365a:	9b24      	ldr	r3, [sp, #144]	; 0x90

0040365c <.LVL360>:
  40365c:	f10d 0994 	add.w	r9, sp, #148	; 0x94

00403660 <.LBE19>:
  403660:	9a0f      	ldr	r2, [sp, #60]	; 0x3c
  403662:	f418 6f80 	tst.w	r8, #1024	; 0x400
  403666:	4432      	add	r2, r6
  403668:	4615      	mov	r5, r2

0040366a <.LVL362>:
  40366a:	f000 80fd 	beq.w	403868 <.LVL419>

0040366e <.LBB20>:
  40366e:	9910      	ldr	r1, [sp, #64]	; 0x40
  403670:	f8cd 802c 	str.w	r8, [sp, #44]	; 0x2c
  403674:	1871      	adds	r1, r6, r1
  403676:	9104      	str	r1, [sp, #16]
  403678:	f8dd 804c 	ldr.w	r8, [sp, #76]	; 0x4c

0040367c <.LVL363>:
  40367c:	9d02      	ldr	r5, [sp, #8]
  40367e:	9608      	str	r6, [sp, #32]
  403680:	4649      	mov	r1, r9
  403682:	f8dd 9060 	ldr.w	r9, [sp, #96]	; 0x60
  403686:	9705      	str	r7, [sp, #20]
  403688:	4616      	mov	r6, r2

0040368a <.LVL364>:
  40368a:	4618      	mov	r0, r3

0040368c <.LBE20>:
  40368c:	9b11      	ldr	r3, [sp, #68]	; 0x44
  40368e:	2b00      	cmp	r3, #0
  403690:	f000 80d8 	beq.w	403844 <.LVL415+0x2>
  403694:	f1b8 0f00 	cmp.w	r8, #0
  403698:	f000 80cd 	beq.w	403836 <.LBB29>
  40369c:	f108 38ff 	add.w	r8, r8, #4294967295
  4036a0:	9b23      	ldr	r3, [sp, #140]	; 0x8c
  4036a2:	9a17      	ldr	r2, [sp, #92]	; 0x5c
  4036a4:	600a      	str	r2, [r1, #0]
  4036a6:	3301      	adds	r3, #1
  4036a8:	4448      	add	r0, r9
  4036aa:	2b07      	cmp	r3, #7
  4036ac:	9024      	str	r0, [sp, #144]	; 0x90
  4036ae:	f8c1 9004 	str.w	r9, [r1, #4]
  4036b2:	9323      	str	r3, [sp, #140]	; 0x8c
  4036b4:	dc5f      	bgt.n	403776 <.LBB28>

004036b6 <.LVL367>:
  4036b6:	3108      	adds	r1, #8

004036b8 <.LBB21>:
  4036b8:	9a12      	ldr	r2, [sp, #72]	; 0x48
  4036ba:	9c04      	ldr	r4, [sp, #16]
  4036bc:	7813      	ldrb	r3, [r2, #0]
  4036be:	1ba4      	subs	r4, r4, r6

004036c0 <.LVL369>:
  4036c0:	429c      	cmp	r4, r3
  4036c2:	bfa8      	it	ge
  4036c4:	461c      	movge	r4, r3
  4036c6:	2c00      	cmp	r4, #0
  4036c8:	dd0b      	ble.n	4036e2 <.LVL373>
  4036ca:	9b23      	ldr	r3, [sp, #140]	; 0x8c
  4036cc:	600e      	str	r6, [r1, #0]
  4036ce:	3301      	adds	r3, #1
  4036d0:	4420      	add	r0, r4
  4036d2:	2b07      	cmp	r3, #7
  4036d4:	9024      	str	r0, [sp, #144]	; 0x90

004036d6 <.LVL371>:
  4036d6:	604c      	str	r4, [r1, #4]
  4036d8:	9323      	str	r3, [sp, #140]	; 0x8c
  4036da:	f300 81f0 	bgt.w	403abe <.LBB24>

004036de <.LVL372>:
  4036de:	7813      	ldrb	r3, [r2, #0]
  4036e0:	3108      	adds	r1, #8

004036e2 <.LVL373>:
  4036e2:	2c00      	cmp	r4, #0
  4036e4:	bfac      	ite	ge
  4036e6:	1b1c      	subge	r4, r3, r4

004036e8 <.LVL374>:
  4036e8:	461c      	movlt	r4, r3

004036ea <.LVL375>:
  4036ea:	2c00      	cmp	r4, #0
  4036ec:	dd2d      	ble.n	40374a <.LBE21>
  4036ee:	2c10      	cmp	r4, #16
  4036f0:	9a23      	ldr	r2, [sp, #140]	; 0x8c
  4036f2:	dd1d      	ble.n	403730 <.LVL386>
  4036f4:	2710      	movs	r7, #16
  4036f6:	e004      	b.n	403702 <.LVL379>

004036f8 <.LVL376>:
  4036f8:	3c10      	subs	r4, #16

004036fa <.LVL377>:
  4036fa:	2c10      	cmp	r4, #16
  4036fc:	f101 0108 	add.w	r1, r1, #8

00403700 <.LVL378>:
  403700:	dd16      	ble.n	403730 <.LVL386>

00403702 <.LVL379>:
  403702:	3201      	adds	r2, #1
  403704:	3010      	adds	r0, #16
  403706:	2a07      	cmp	r2, #7
  403708:	9024      	str	r0, [sp, #144]	; 0x90

0040370a <.LVL380>:
  40370a:	9223      	str	r2, [sp, #140]	; 0x8c
  40370c:	f8c1 a000 	str.w	sl, [r1]
  403710:	604f      	str	r7, [r1, #4]
  403712:	ddf1      	ble.n	4036f8 <.LVL376>
  403714:	aa22      	add	r2, sp, #136	; 0x88
  403716:	4629      	mov	r1, r5

00403718 <.LVL381>:
  403718:	4658      	mov	r0, fp
  40371a:	f00a f855 	bl	40d7c8 <__sprint_r>

0040371e <.LVL382>:
  40371e:	2800      	cmp	r0, #0
  403720:	f47f aa14 	bne.w	402b4c <.L193>
  403724:	3c10      	subs	r4, #16

00403726 <.LVL383>:
  403726:	2c10      	cmp	r4, #16
  403728:	9824      	ldr	r0, [sp, #144]	; 0x90
  40372a:	9a23      	ldr	r2, [sp, #140]	; 0x8c

0040372c <.LVL384>:
  40372c:	a925      	add	r1, sp, #148	; 0x94

0040372e <.LVL385>:
  40372e:	dce8      	bgt.n	403702 <.LVL379>

00403730 <.LVL386>:
  403730:	3201      	adds	r2, #1
  403732:	4420      	add	r0, r4
  403734:	2a07      	cmp	r2, #7
  403736:	9024      	str	r0, [sp, #144]	; 0x90
  403738:	9223      	str	r2, [sp, #140]	; 0x8c
  40373a:	f8c1 a000 	str.w	sl, [r1]
  40373e:	604c      	str	r4, [r1, #4]
  403740:	f300 81ca 	bgt.w	403ad8 <.LVL483>

00403744 <.LVL387>:
  403744:	9b12      	ldr	r3, [sp, #72]	; 0x48
  403746:	781b      	ldrb	r3, [r3, #0]
  403748:	3108      	adds	r1, #8

0040374a <.LBE21>:
  40374a:	441e      	add	r6, r3
  40374c:	e79e      	b.n	40368c <.LBE20>

0040374e <.LBE27>:
  40374e:	f018 0f01 	tst.w	r8, #1
  403752:	f47f addc 	bne.w	40330e <.LVL254+0x22>
  403756:	2a07      	cmp	r2, #7
  403758:	f77f ae01 	ble.w	40335e <.LVL260>
  40375c:	aa22      	add	r2, sp, #136	; 0x88
  40375e:	9902      	ldr	r1, [sp, #8]
  403760:	4658      	mov	r0, fp
  403762:	f00a f831 	bl	40d7c8 <__sprint_r>

00403766 <.LVL391>:
  403766:	2800      	cmp	r0, #0
  403768:	f47f a9f0 	bne.w	402b4c <.L193>
  40376c:	9b24      	ldr	r3, [sp, #144]	; 0x90
  40376e:	9a23      	ldr	r2, [sp, #140]	; 0x8c
  403770:	f10d 0994 	add.w	r9, sp, #148	; 0x94
  403774:	e5f5      	b.n	403362 <.LVL261>

00403776 <.LBB28>:
  403776:	aa22      	add	r2, sp, #136	; 0x88
  403778:	4629      	mov	r1, r5
  40377a:	4658      	mov	r0, fp
  40377c:	f00a f824 	bl	40d7c8 <__sprint_r>

00403780 <.LVL393>:
  403780:	2800      	cmp	r0, #0
  403782:	f47f a9e3 	bne.w	402b4c <.L193>
  403786:	9824      	ldr	r0, [sp, #144]	; 0x90

00403788 <.LVL394>:
  403788:	a925      	add	r1, sp, #148	; 0x94

0040378a <.LVL395>:
  40378a:	e795      	b.n	4036b8 <.LBB21>

0040378c <.LBE28>:
  40378c:	aa22      	add	r2, sp, #136	; 0x88
  40378e:	9902      	ldr	r1, [sp, #8]
  403790:	4658      	mov	r0, fp
  403792:	f00a f819 	bl	40d7c8 <__sprint_r>

00403796 <.LVL397>:
  403796:	2800      	cmp	r0, #0
  403798:	f47f a9d8 	bne.w	402b4c <.L193>
  40379c:	9b24      	ldr	r3, [sp, #144]	; 0x90
  40379e:	9a23      	ldr	r2, [sp, #140]	; 0x8c
  4037a0:	f10d 0994 	add.w	r9, sp, #148	; 0x94
  4037a4:	e5b8      	b.n	403318 <.LVL255>

004037a6 <.LVL398>:
  4037a6:	3201      	adds	r2, #1
  4037a8:	4423      	add	r3, r4
  4037aa:	2a07      	cmp	r2, #7
  4037ac:	9324      	str	r3, [sp, #144]	; 0x90

004037ae <.LVL399>:
  4037ae:	9223      	str	r2, [sp, #140]	; 0x8c
  4037b0:	f8c9 a000 	str.w	sl, [r9]
  4037b4:	f8c9 4004 	str.w	r4, [r9, #4]
  4037b8:	f77f add1 	ble.w	40335e <.LVL260>
  4037bc:	e7ce      	b.n	40375c <.LBE27+0xe>

004037be <.LVL400>:
  4037be:	aa22      	add	r2, sp, #136	; 0x88
  4037c0:	9902      	ldr	r1, [sp, #8]
  4037c2:	4658      	mov	r0, fp
  4037c4:	f00a f800 	bl	40d7c8 <__sprint_r>

004037c8 <.LVL401>:
  4037c8:	2800      	cmp	r0, #0
  4037ca:	f47f a9bf 	bne.w	402b4c <.L193>
  4037ce:	9b24      	ldr	r3, [sp, #144]	; 0x90
  4037d0:	9a23      	ldr	r2, [sp, #140]	; 0x8c
  4037d2:	f10d 0994 	add.w	r9, sp, #148	; 0x94

004037d6 <.LVL402>:
  4037d6:	e5ae      	b.n	403336 <.LVL257>

004037d8 <.LVL403>:
  4037d8:	9d0a      	ldr	r5, [sp, #40]	; 0x28
  4037da:	3507      	adds	r5, #7
  4037dc:	f025 0307 	bic.w	r3, r5, #7
  4037e0:	f103 0208 	add.w	r2, r3, #8
  4037e4:	920a      	str	r2, [sp, #40]	; 0x28

004037e6 <.LVL404>:
  4037e6:	e9d3 4500 	ldrd	r4, r5, [r3]
  4037ea:	f7ff bb7e 	b.w	402eea <.LVL145>

004037ee <.LVL405>:
  4037ee:	9d0a      	ldr	r5, [sp, #40]	; 0x28
  4037f0:	3507      	adds	r5, #7
  4037f2:	f025 0507 	bic.w	r5, r5, #7
  4037f6:	e9d5 2300 	ldrd	r2, r3, [r5]
  4037fa:	f105 0008 	add.w	r0, r5, #8
  4037fe:	900a      	str	r0, [sp, #40]	; 0x28

00403800 <.LVL406>:
  403800:	4614      	mov	r4, r2
  403802:	461d      	mov	r5, r3
  403804:	f7ff bb2e 	b.w	402e64 <.LVL130>

00403808 <.LVL407>:
  403808:	9d0a      	ldr	r5, [sp, #40]	; 0x28
  40380a:	3507      	adds	r5, #7
  40380c:	f025 0307 	bic.w	r3, r5, #7
  403810:	f103 0208 	add.w	r2, r3, #8
  403814:	920a      	str	r2, [sp, #40]	; 0x28

00403816 <.LVL408>:
  403816:	e9d3 4500 	ldrd	r4, r5, [r3]
  40381a:	f7ff bb94 	b.w	402f46 <.LVL151>

0040381e <.LVL409>:
  40381e:	9d0a      	ldr	r5, [sp, #40]	; 0x28
  403820:	3507      	adds	r5, #7
  403822:	f025 0307 	bic.w	r3, r5, #7
  403826:	f103 0208 	add.w	r2, r3, #8
  40382a:	e9d3 4500 	ldrd	r4, r5, [r3]
  40382e:	920a      	str	r2, [sp, #40]	; 0x28

00403830 <.LVL410>:
  403830:	2301      	movs	r3, #1
  403832:	f7ff b9c0 	b.w	402bb6 <.L154>

00403836 <.LBB29>:
  403836:	9b12      	ldr	r3, [sp, #72]	; 0x48

00403838 <.LVL412>:
  403838:	3b01      	subs	r3, #1
  40383a:	9312      	str	r3, [sp, #72]	; 0x48

0040383c <.LVL413>:
  40383c:	9b11      	ldr	r3, [sp, #68]	; 0x44

0040383e <.LVL414>:
  40383e:	3b01      	subs	r3, #1
  403840:	9311      	str	r3, [sp, #68]	; 0x44

00403842 <.LVL415>:
  403842:	e72d      	b.n	4036a0 <.LBE20+0x14>
  403844:	f1b8 0f00 	cmp.w	r8, #0
  403848:	f47f af28 	bne.w	40369c <.LBE20+0x10>
  40384c:	4634      	mov	r4, r6
  40384e:	9a10      	ldr	r2, [sp, #64]	; 0x40
  403850:	9e08      	ldr	r6, [sp, #32]

00403852 <.LVL416>:
  403852:	9f05      	ldr	r7, [sp, #20]
  403854:	f8dd 802c 	ldr.w	r8, [sp, #44]	; 0x2c

00403858 <.LVL417>:
  403858:	18b2      	adds	r2, r6, r2
  40385a:	4294      	cmp	r4, r2
  40385c:	4689      	mov	r9, r1
  40385e:	4621      	mov	r1, r4
  403860:	bf28      	it	cs
  403862:	4611      	movcs	r1, r2
  403864:	4603      	mov	r3, r0

00403866 <.LVL418>:
  403866:	460d      	mov	r5, r1

00403868 <.LVL419>:
  403868:	9a1c      	ldr	r2, [sp, #112]	; 0x70
  40386a:	9910      	ldr	r1, [sp, #64]	; 0x40
  40386c:	428a      	cmp	r2, r1
  40386e:	f280 819f 	bge.w	403bb0 <.LBB48>
  403872:	9923      	ldr	r1, [sp, #140]	; 0x8c
  403874:	9c14      	ldr	r4, [sp, #80]	; 0x50
  403876:	9816      	ldr	r0, [sp, #88]	; 0x58
  403878:	f8c9 0000 	str.w	r0, [r9]
  40387c:	3101      	adds	r1, #1
  40387e:	4423      	add	r3, r4
  403880:	2907      	cmp	r1, #7
  403882:	9324      	str	r3, [sp, #144]	; 0x90
  403884:	f8c9 4004 	str.w	r4, [r9, #4]
  403888:	9123      	str	r1, [sp, #140]	; 0x8c
  40388a:	f300 8388 	bgt.w	403f9e <.LBB64>

0040388e <.LVL420>:
  40388e:	f109 0908 	add.w	r9, r9, #8

00403892 <.LBB22>:
  403892:	9910      	ldr	r1, [sp, #64]	; 0x40
  403894:	1874      	adds	r4, r6, r1
  403896:	1b64      	subs	r4, r4, r5

00403898 <.LVL422>:
  403898:	1a8a      	subs	r2, r1, r2
  40389a:	4294      	cmp	r4, r2
  40389c:	bfa8      	it	ge
  40389e:	4614      	movge	r4, r2
  4038a0:	2c00      	cmp	r4, #0
  4038a2:	dd0d      	ble.n	4038c0 <.LVL425>
  4038a4:	9923      	ldr	r1, [sp, #140]	; 0x8c
  4038a6:	f8c9 5000 	str.w	r5, [r9]
  4038aa:	3101      	adds	r1, #1
  4038ac:	4423      	add	r3, r4
  4038ae:	2907      	cmp	r1, #7
  4038b0:	9324      	str	r3, [sp, #144]	; 0x90
  4038b2:	f8c9 4004 	str.w	r4, [r9, #4]
  4038b6:	9123      	str	r1, [sp, #140]	; 0x8c
  4038b8:	f300 837e 	bgt.w	403fb8 <.LBB26>

004038bc <.LVL424>:
  4038bc:	f109 0908 	add.w	r9, r9, #8

004038c0 <.LVL425>:
  4038c0:	2c00      	cmp	r4, #0
  4038c2:	bfac      	ite	ge
  4038c4:	1b14      	subge	r4, r2, r4

004038c6 <.LVL426>:
  4038c6:	4614      	movlt	r4, r2

004038c8 <.LVL427>:
  4038c8:	2c00      	cmp	r4, #0
  4038ca:	f77f aa5f 	ble.w	402d8c <.LVL107>
  4038ce:	2c10      	cmp	r4, #16
  4038d0:	9a23      	ldr	r2, [sp, #140]	; 0x8c
  4038d2:	f77f aeae 	ble.w	403632 <.LBB18>
  4038d6:	2510      	movs	r5, #16

004038d8 <.LVL428>:
  4038d8:	9e02      	ldr	r6, [sp, #8]
  4038da:	e005      	b.n	4038e8 <.LVL432>

004038dc <.LVL429>:
  4038dc:	f109 0908 	add.w	r9, r9, #8

004038e0 <.LVL430>:
  4038e0:	3c10      	subs	r4, #16
  4038e2:	2c10      	cmp	r4, #16
  4038e4:	f77f aea5 	ble.w	403632 <.LBB18>

004038e8 <.LVL432>:
  4038e8:	3201      	adds	r2, #1
  4038ea:	3310      	adds	r3, #16
  4038ec:	2a07      	cmp	r2, #7
  4038ee:	9324      	str	r3, [sp, #144]	; 0x90

004038f0 <.LVL433>:
  4038f0:	9223      	str	r2, [sp, #140]	; 0x8c
  4038f2:	f8c9 a000 	str.w	sl, [r9]
  4038f6:	f8c9 5004 	str.w	r5, [r9, #4]
  4038fa:	ddef      	ble.n	4038dc <.LVL429>
  4038fc:	aa22      	add	r2, sp, #136	; 0x88
  4038fe:	4631      	mov	r1, r6
  403900:	4658      	mov	r0, fp
  403902:	f009 ff61 	bl	40d7c8 <__sprint_r>

00403906 <.LVL434>:
  403906:	2800      	cmp	r0, #0
  403908:	f47f a920 	bne.w	402b4c <.L193>
  40390c:	9b24      	ldr	r3, [sp, #144]	; 0x90
  40390e:	9a23      	ldr	r2, [sp, #140]	; 0x8c

00403910 <.LVL435>:
  403910:	f10d 0994 	add.w	r9, sp, #148	; 0x94

00403914 <.LVL436>:
  403914:	e7e4      	b.n	4038e0 <.LVL430>

00403916 <.LBE22>:
  403916:	aa22      	add	r2, sp, #136	; 0x88
  403918:	9902      	ldr	r1, [sp, #8]
  40391a:	4658      	mov	r0, fp
  40391c:	f009 ff54 	bl	40d7c8 <__sprint_r>

00403920 <.LVL438>:
  403920:	2800      	cmp	r0, #0
  403922:	f47f a913 	bne.w	402b4c <.L193>
  403926:	9b24      	ldr	r3, [sp, #144]	; 0x90

00403928 <.LVL439>:
  403928:	f10d 0994 	add.w	r9, sp, #148	; 0x94

0040392c <.LVL440>:
  40392c:	f7ff b9df 	b.w	402cee <.LVL89+0x8>

00403930 <.LVL441>:
  403930:	232d      	movs	r3, #45	; 0x2d
  403932:	4264      	negs	r4, r4

00403934 <.LVL442>:
  403934:	f88d 306b 	strb.w	r3, [sp, #107]	; 0x6b
  403938:	eb65 0545 	sbc.w	r5, r5, r5, lsl #1

0040393c <.LVL443>:
  40393c:	2301      	movs	r3, #1
  40393e:	f7ff b93d 	b.w	402bbc <.L69>

00403942 <.LVL444>:
  403942:	eeb4 8b48 	vcmp.f64	d8, d8
  403946:	eef1 fa10 	vmrs	APSR_nzcv, fpscr
  40394a:	f180 83f3 	bvs.w	404134 <.LBE69>
  40394e:	9b0d      	ldr	r3, [sp, #52]	; 0x34
  403950:	2b61      	cmp	r3, #97	; 0x61
  403952:	f000 829b 	beq.w	403e8c <.LVL593>
  403956:	2b41      	cmp	r3, #65	; 0x41
  403958:	f000 813c 	beq.w	403bd4 <.LVL510>
  40395c:	9b04      	ldr	r3, [sp, #16]
  40395e:	3301      	adds	r3, #1
  403960:	9b0d      	ldr	r3, [sp, #52]	; 0x34
  403962:	f023 0520 	bic.w	r5, r3, #32
  403966:	f000 8385 	beq.w	404074 <.LVL647>
  40396a:	2d47      	cmp	r5, #71	; 0x47
  40396c:	d104      	bne.n	403978 <.LBB30>
  40396e:	9b04      	ldr	r3, [sp, #16]
  403970:	2b00      	cmp	r3, #0
  403972:	bf08      	it	eq
  403974:	2301      	moveq	r3, #1
  403976:	9304      	str	r3, [sp, #16]

00403978 <.LBB30>:
  403978:	ee18 3a90 	vmov	r3, s17

0040397c <.LBE30>:
  40397c:	f448 7280 	orr.w	r2, r8, #256	; 0x100

00403980 <.LBB45>:
  403980:	2b00      	cmp	r3, #0

00403982 <.LBE45>:
  403982:	9203      	str	r2, [sp, #12]

00403984 <.LBB46>:
  403984:	f04f 0300 	mov.w	r3, #0
  403988:	f2c0 82bb 	blt.w	403f02 <.LBB62>
  40398c:	eeb0 ab48 	vmov.f64	d10, d8
  403990:	9305      	str	r3, [sp, #20]
  403992:	9309      	str	r3, [sp, #36]	; 0x24

00403994 <.LVL448>:
  403994:	9b0d      	ldr	r3, [sp, #52]	; 0x34
  403996:	2b66      	cmp	r3, #102	; 0x66
  403998:	f000 8341 	beq.w	40401e <.LBB66>
  40399c:	2b46      	cmp	r3, #70	; 0x46
  40399e:	f000 83b6 	beq.w	40410e <.LBB69>
  4039a2:	eeb0 0b4a 	vmov.f64	d0, d10
  4039a6:	2d45      	cmp	r5, #69	; 0x45
  4039a8:	bf0a      	itet	eq
  4039aa:	9b04      	ldreq	r3, [sp, #16]
  4039ac:	9c04      	ldrne	r4, [sp, #16]
  4039ae:	1c5c      	addeq	r4, r3, #1

004039b0 <.LVL449>:
  4039b0:	aa20      	add	r2, sp, #128	; 0x80

004039b2 <.LVL450>:
  4039b2:	ab1d      	add	r3, sp, #116	; 0x74
  4039b4:	9201      	str	r2, [sp, #4]
  4039b6:	9300      	str	r3, [sp, #0]
  4039b8:	4622      	mov	r2, r4
  4039ba:	ab1c      	add	r3, sp, #112	; 0x70

004039bc <.LVL451>:
  4039bc:	2102      	movs	r1, #2
  4039be:	4658      	mov	r0, fp
  4039c0:	f002 ff76 	bl	4068b0 <_dtoa_r>

004039c4 <.LVL452>:
  4039c4:	9b0d      	ldr	r3, [sp, #52]	; 0x34
  4039c6:	2b67      	cmp	r3, #103	; 0x67
  4039c8:	4606      	mov	r6, r0

004039ca <.LVL453>:
  4039ca:	f040 837a 	bne.w	4040c2 <.LBB67>
  4039ce:	f018 0f01 	tst.w	r8, #1
  4039d2:	f040 8300 	bne.w	403fd6 <.LBB65>

004039d6 <.LVL454>:
  4039d6:	9b20      	ldr	r3, [sp, #128]	; 0x80

004039d8 <.LVL455>:
  4039d8:	46c6      	mov	lr, r8
  4039da:	1b9b      	subs	r3, r3, r6
  4039dc:	f8dd 800c 	ldr.w	r8, [sp, #12]
  4039e0:	9310      	str	r3, [sp, #64]	; 0x40

004039e2 <.LBE46>:
  4039e2:	2d47      	cmp	r5, #71	; 0x47
  4039e4:	f000 81b7 	beq.w	403d56 <.LVL551>
  4039e8:	9b0d      	ldr	r3, [sp, #52]	; 0x34
  4039ea:	2b46      	cmp	r3, #70	; 0x46
  4039ec:	f000 8307 	beq.w	403ffe <.LBE65>
  4039f0:	2b65      	cmp	r3, #101	; 0x65
  4039f2:	f340 8405 	ble.w	404200 <.LVL697>
  4039f6:	9b0d      	ldr	r3, [sp, #52]	; 0x34
  4039f8:	2b66      	cmp	r3, #102	; 0x66
  4039fa:	f000 8300 	beq.w	403ffe <.LBE65>
  4039fe:	9b1c      	ldr	r3, [sp, #112]	; 0x70
  403a00:	930f      	str	r3, [sp, #60]	; 0x3c

00403a02 <.LVL457>:
  403a02:	9b10      	ldr	r3, [sp, #64]	; 0x40
  403a04:	9a0f      	ldr	r2, [sp, #60]	; 0x3c
  403a06:	4619      	mov	r1, r3
  403a08:	4291      	cmp	r1, r2
  403a0a:	4613      	mov	r3, r2
  403a0c:	f300 8263 	bgt.w	403ed6 <.LBE61>

00403a10 <.LVL458>:
  403a10:	f01e 0f01 	tst.w	lr, #1
  403a14:	f000 832b 	beq.w	40406e <.LBE66>
  403a18:	9a14      	ldr	r2, [sp, #80]	; 0x50
  403a1a:	4413      	add	r3, r2
  403a1c:	9308      	str	r3, [sp, #32]

00403a1e <.LVL459>:
  403a1e:	f41e 6f80 	tst.w	lr, #1024	; 0x400
  403a22:	f000 8280 	beq.w	403f26 <.LVL605>
  403a26:	9b0f      	ldr	r3, [sp, #60]	; 0x3c
  403a28:	2b00      	cmp	r3, #0
  403a2a:	f340 827c 	ble.w	403f26 <.LVL605>
  403a2e:	2367      	movs	r3, #103	; 0x67
  403a30:	930d      	str	r3, [sp, #52]	; 0x34

00403a32 <.LVL460>:
  403a32:	9812      	ldr	r0, [sp, #72]	; 0x48
  403a34:	9a0f      	ldr	r2, [sp, #60]	; 0x3c
  403a36:	2300      	movs	r3, #0
  403a38:	9313      	str	r3, [sp, #76]	; 0x4c
  403a3a:	9311      	str	r3, [sp, #68]	; 0x44
  403a3c:	7803      	ldrb	r3, [r0, #0]

00403a3e <.LVL461>:
  403a3e:	2bff      	cmp	r3, #255	; 0xff
  403a40:	d00e      	beq.n	403a60 <.LVL464+0x8>
  403a42:	429a      	cmp	r2, r3
  403a44:	dd0c      	ble.n	403a60 <.LVL464+0x8>
  403a46:	7841      	ldrb	r1, [r0, #1]
  403a48:	1ad2      	subs	r2, r2, r3
  403a4a:	2900      	cmp	r1, #0
  403a4c:	f000 813a 	beq.w	403cc4 <.LBE50>
  403a50:	9b11      	ldr	r3, [sp, #68]	; 0x44
  403a52:	3301      	adds	r3, #1
  403a54:	9311      	str	r3, [sp, #68]	; 0x44

00403a56 <.LVL463>:
  403a56:	460b      	mov	r3, r1

00403a58 <.LVL464>:
  403a58:	2bff      	cmp	r3, #255	; 0xff
  403a5a:	f100 0001 	add.w	r0, r0, #1
  403a5e:	d1f0      	bne.n	403a42 <.LVL461+0x4>
  403a60:	920f      	str	r2, [sp, #60]	; 0x3c
  403a62:	9b11      	ldr	r3, [sp, #68]	; 0x44
  403a64:	9a13      	ldr	r2, [sp, #76]	; 0x4c

00403a66 <.LVL466>:
  403a66:	9908      	ldr	r1, [sp, #32]
  403a68:	9012      	str	r0, [sp, #72]	; 0x48
  403a6a:	4413      	add	r3, r2
  403a6c:	9a18      	ldr	r2, [sp, #96]	; 0x60
  403a6e:	fb02 1303 	mla	r3, r2, r3, r1
  403a72:	9308      	str	r3, [sp, #32]

00403a74 <.LVL467>:
  403a74:	ea23 73e3 	bic.w	r3, r3, r3, asr #31

00403a78 <.LVL468>:
  403a78:	9303      	str	r3, [sp, #12]

00403a7a <.LVL469>:
  403a7a:	9b05      	ldr	r3, [sp, #20]
  403a7c:	2b00      	cmp	r3, #0
  403a7e:	f040 8163 	bne.w	403d48 <.LVL549>
  403a82:	9304      	str	r3, [sp, #16]

00403a84 <.LVL470>:
  403a84:	f89d 206b 	ldrb.w	r2, [sp, #107]	; 0x6b
  403a88:	f7ff b8bd 	b.w	402c06 <.L63>

00403a8c <.LVL471>:
  403a8c:	f025 0507 	bic.w	r5, r5, #7
  403a90:	f105 0308 	add.w	r3, r5, #8
  403a94:	ed95 8b00 	vldr	d8, [r5]

00403a98 <.LVL472>:
  403a98:	930a      	str	r3, [sp, #40]	; 0x28

00403a9a <.LVL473>:
  403a9a:	f7ff bb41 	b.w	403120 <.LVL208>

00403a9e <.LVL474>:
  403a9e:	464c      	mov	r4, r9
  403aa0:	4689      	mov	r9, r1

00403aa2 <.LBB23>:
  403aa2:	3201      	adds	r2, #1
  403aa4:	4423      	add	r3, r4
  403aa6:	2a07      	cmp	r2, #7
  403aa8:	9324      	str	r3, [sp, #144]	; 0x90
  403aaa:	9223      	str	r2, [sp, #140]	; 0x8c
  403aac:	f8c9 a000 	str.w	sl, [r9]
  403ab0:	f8c9 4004 	str.w	r4, [r9, #4]
  403ab4:	f73f adc9 	bgt.w	40364a <.LBB19>

00403ab8 <.LVL476>:
  403ab8:	f109 0908 	add.w	r9, r9, #8

00403abc <.LVL477>:
  403abc:	e5d0      	b.n	403660 <.LBE19>

00403abe <.LBB24>:
  403abe:	aa22      	add	r2, sp, #136	; 0x88
  403ac0:	4629      	mov	r1, r5

00403ac2 <.LVL479>:
  403ac2:	4658      	mov	r0, fp
  403ac4:	f009 fe80 	bl	40d7c8 <__sprint_r>

00403ac8 <.LVL480>:
  403ac8:	2800      	cmp	r0, #0
  403aca:	f47f a83f 	bne.w	402b4c <.L193>
  403ace:	9b12      	ldr	r3, [sp, #72]	; 0x48
  403ad0:	9824      	ldr	r0, [sp, #144]	; 0x90

00403ad2 <.LVL481>:
  403ad2:	781b      	ldrb	r3, [r3, #0]
  403ad4:	a925      	add	r1, sp, #148	; 0x94

00403ad6 <.LVL482>:
  403ad6:	e604      	b.n	4036e2 <.LVL373>

00403ad8 <.LVL483>:
  403ad8:	aa22      	add	r2, sp, #136	; 0x88
  403ada:	4629      	mov	r1, r5
  403adc:	4658      	mov	r0, fp
  403ade:	f009 fe73 	bl	40d7c8 <__sprint_r>

00403ae2 <.LVL484>:
  403ae2:	2800      	cmp	r0, #0
  403ae4:	f47f a832 	bne.w	402b4c <.L193>
  403ae8:	9b12      	ldr	r3, [sp, #72]	; 0x48
  403aea:	9824      	ldr	r0, [sp, #144]	; 0x90

00403aec <.LVL485>:
  403aec:	781b      	ldrb	r3, [r3, #0]
  403aee:	a925      	add	r1, sp, #148	; 0x94

00403af0 <.LBE24>:
  403af0:	441e      	add	r6, r3
  403af2:	e5cb      	b.n	40368c <.LBE20>

00403af4 <.LBE47>:
  403af4:	aa22      	add	r2, sp, #136	; 0x88
  403af6:	9902      	ldr	r1, [sp, #8]
  403af8:	4658      	mov	r0, fp
  403afa:	f009 fe65 	bl	40d7c8 <__sprint_r>

00403afe <.LVL489>:
  403afe:	2800      	cmp	r0, #0
  403b00:	f47f a824 	bne.w	402b4c <.L193>

00403b04 <.LVL490>:
  403b04:	f10d 0994 	add.w	r9, sp, #148	; 0x94

00403b08 <.LVL491>:
  403b08:	f7ff bb67 	b.w	4031da <.LVL224>

00403b0c <.LVL492>:
  403b0c:	f04f 33ff 	mov.w	r3, #4294967295
  403b10:	9306      	str	r3, [sp, #24]
  403b12:	f7ff b827 	b.w	402b64 <.LVL49>

00403b16 <.LVL493>:
  403b16:	9a23      	ldr	r2, [sp, #140]	; 0x8c
  403b18:	48b3      	ldr	r0, [pc, #716]	; (403de8 <.LVL569+0x2>)
  403b1a:	f8c9 0000 	str.w	r0, [r9]
  403b1e:	3201      	adds	r2, #1
  403b20:	3301      	adds	r3, #1
  403b22:	2001      	movs	r0, #1
  403b24:	2a07      	cmp	r2, #7
  403b26:	9324      	str	r3, [sp, #144]	; 0x90
  403b28:	9223      	str	r2, [sp, #140]	; 0x8c
  403b2a:	f8c9 0004 	str.w	r0, [r9, #4]
  403b2e:	dc44      	bgt.n	403bba <.LBE48>

00403b30 <.LVL494>:
  403b30:	f109 0908 	add.w	r9, r9, #8

00403b34 <.LVL495>:
  403b34:	b929      	cbnz	r1, 403b42 <.LVL495+0xe>
  403b36:	9a10      	ldr	r2, [sp, #64]	; 0x40
  403b38:	b91a      	cbnz	r2, 403b42 <.LVL495+0xe>
  403b3a:	f018 0f01 	tst.w	r8, #1
  403b3e:	f43f a925 	beq.w	402d8c <.LVL107>
  403b42:	9a23      	ldr	r2, [sp, #140]	; 0x8c
  403b44:	9c14      	ldr	r4, [sp, #80]	; 0x50

00403b46 <.LVL496>:
  403b46:	9816      	ldr	r0, [sp, #88]	; 0x58
  403b48:	f8c9 0000 	str.w	r0, [r9]
  403b4c:	3201      	adds	r2, #1
  403b4e:	4423      	add	r3, r4
  403b50:	2a07      	cmp	r2, #7
  403b52:	9324      	str	r3, [sp, #144]	; 0x90

00403b54 <.LVL497>:
  403b54:	f8c9 4004 	str.w	r4, [r9, #4]
  403b58:	9223      	str	r2, [sp, #140]	; 0x8c
  403b5a:	f300 820e 	bgt.w	403f7a <.LVL616>
  403b5e:	f109 0908 	add.w	r9, r9, #8

00403b62 <.LVL498>:
  403b62:	2900      	cmp	r1, #0
  403b64:	f2c0 81e6 	blt.w	403f34 <.LVL607>

00403b68 <.LVL499>:
  403b68:	9810      	ldr	r0, [sp, #64]	; 0x40
  403b6a:	f8c9 6000 	str.w	r6, [r9]
  403b6e:	3201      	adds	r2, #1
  403b70:	4403      	add	r3, r0
  403b72:	2a07      	cmp	r2, #7
  403b74:	9324      	str	r3, [sp, #144]	; 0x90

00403b76 <.LVL500>:
  403b76:	9223      	str	r2, [sp, #140]	; 0x8c
  403b78:	f8c9 0004 	str.w	r0, [r9, #4]
  403b7c:	f77f a904 	ble.w	402d88 <.LVL106>
  403b80:	f7ff bbfc 	b.w	40337c <.LVL263>

00403b84 <.LDL1>:
  403b84:	9b24      	ldr	r3, [sp, #144]	; 0x90
  403b86:	2b00      	cmp	r3, #0
  403b88:	f43e afe6 	beq.w	402b58 <.LVL48>
  403b8c:	9c02      	ldr	r4, [sp, #8]
  403b8e:	980e      	ldr	r0, [sp, #56]	; 0x38
  403b90:	aa22      	add	r2, sp, #136	; 0x88
  403b92:	4621      	mov	r1, r4
  403b94:	f009 fe18 	bl	40d7c8 <__sprint_r>

00403b98 <.LVL502>:
  403b98:	2800      	cmp	r0, #0
  403b9a:	f43e afdd 	beq.w	402b58 <.LVL48>
  403b9e:	f9b4 300c 	ldrsh.w	r3, [r4, #12]
  403ba2:	f7fe bfdc 	b.w	402b5e <.LVL48+0x6>

00403ba6 <.LVL503>:
  403ba6:	f448 6880 	orr.w	r8, r8, #1024	; 0x400
  403baa:	783b      	ldrb	r3, [r7, #0]
  403bac:	f7fe bf15 	b.w	4029da <.LVL23>

00403bb0 <.LBB48>:
  403bb0:	f018 0f01 	tst.w	r8, #1
  403bb4:	f43f ae6d 	beq.w	403892 <.LBB22>
  403bb8:	e65b      	b.n	403872 <.LVL419+0xa>

00403bba <.LBE48>:
  403bba:	aa22      	add	r2, sp, #136	; 0x88
  403bbc:	9902      	ldr	r1, [sp, #8]
  403bbe:	4658      	mov	r0, fp
  403bc0:	f009 fe02 	bl	40d7c8 <__sprint_r>

00403bc4 <.LVL507>:
  403bc4:	2800      	cmp	r0, #0
  403bc6:	f47e afc1 	bne.w	402b4c <.L193>
  403bca:	991c      	ldr	r1, [sp, #112]	; 0x70
  403bcc:	9b24      	ldr	r3, [sp, #144]	; 0x90

00403bce <.LVL508>:
  403bce:	f10d 0994 	add.w	r9, sp, #148	; 0x94

00403bd2 <.LVL509>:
  403bd2:	e7af      	b.n	403b34 <.LVL495>

00403bd4 <.LVL510>:
  403bd4:	2330      	movs	r3, #48	; 0x30
  403bd6:	f88d 306c 	strb.w	r3, [sp, #108]	; 0x6c
  403bda:	2358      	movs	r3, #88	; 0x58
  403bdc:	f88d 306d 	strb.w	r3, [sp, #109]	; 0x6d
  403be0:	9b04      	ldr	r3, [sp, #16]
  403be2:	2b63      	cmp	r3, #99	; 0x63
  403be4:	f048 0402 	orr.w	r4, r8, #2

00403be8 <.LVL511>:
  403be8:	f300 8247 	bgt.w	40407a <.LVL648>
  403bec:	2300      	movs	r3, #0
  403bee:	9309      	str	r3, [sp, #36]	; 0x24
  403bf0:	ae35      	add	r6, sp, #212	; 0xd4

00403bf2 <.LBB49>:
  403bf2:	ee18 3a90 	vmov	r3, s17
  403bf6:	2b00      	cmp	r3, #0
  403bf8:	9b0d      	ldr	r3, [sp, #52]	; 0x34

00403bfa <.LBE49>:
  403bfa:	f448 7281 	orr.w	r2, r8, #258	; 0x102
  403bfe:	9203      	str	r2, [sp, #12]

00403c00 <.LBB50>:
  403c00:	46a0      	mov	r8, r4
  403c02:	f023 0520 	bic.w	r5, r3, #32
  403c06:	f2c0 817d 	blt.w	403f04 <.LVL602>
  403c0a:	eeb0 ab48 	vmov.f64	d10, d8
  403c0e:	2300      	movs	r3, #0
  403c10:	9305      	str	r3, [sp, #20]

00403c12 <.LVL514>:
  403c12:	9b0d      	ldr	r3, [sp, #52]	; 0x34
  403c14:	2b61      	cmp	r3, #97	; 0x61
  403c16:	f000 8218 	beq.w	40404a <.LVL642>
  403c1a:	2b41      	cmp	r3, #65	; 0x41
  403c1c:	f47f aeba 	bne.w	403994 <.LVL448>
  403c20:	eeb0 0b4a 	vmov.f64	d0, d10
  403c24:	a81c      	add	r0, sp, #112	; 0x70

00403c26 <.LVL515>:
  403c26:	f008 fac3 	bl	40c1b0 <.LBE12>

00403c2a <.LVL516>:
  403c2a:	eeb4 7b00 	vmov.f64	d7, #64	; 0x3e000000  0.125
  403c2e:	ee20 0b07 	vmul.f64	d0, d0, d7

00403c32 <.LVL517>:
  403c32:	eeb5 0b40 	vcmp.f64	d0, #0.0
  403c36:	eef1 fa10 	vmrs	APSR_nzcv, fpscr
  403c3a:	f000 82af 	beq.w	40419c <.LBB72>
  403c3e:	4c6b      	ldr	r4, [pc, #428]	; (403dec <.LVL569+0x6>)

00403c40 <.LVL518>:
  403c40:	9b04      	ldr	r3, [sp, #16]
  403c42:	eeb3 5b00 	vmov.f64	d5, #48	; 0x41800000  16.0
  403c46:	3b01      	subs	r3, #1
  403c48:	4631      	mov	r1, r6
  403c4a:	e005      	b.n	403c58 <.LVL520>

00403c4c <.LVL519>:
  403c4c:	eeb5 0b40 	vcmp.f64	d0, #0.0
  403c50:	eef1 fa10 	vmrs	APSR_nzcv, fpscr
  403c54:	d014      	beq.n	403c80 <.LVL523+0x6>
  403c56:	4611      	mov	r1, r2

00403c58 <.LVL520>:
  403c58:	ee20 0b05 	vmul.f64	d0, d0, d5
  403c5c:	eefd 6bc0 	vcvt.s32.f64	s13, d0

00403c60 <.LVL522>:
  403c60:	460a      	mov	r2, r1
  403c62:	ee16 0a90 	vmov	r0, s13
  403c66:	f1b3 3fff 	cmp.w	r3, #4294967295
  403c6a:	5c20      	ldrb	r0, [r4, r0]
  403c6c:	f802 0b01 	strb.w	r0, [r2], #1
  403c70:	eeb8 7be6 	vcvt.f64.s32	d7, s13
  403c74:	4618      	mov	r0, r3
  403c76:	ee30 0b47 	vsub.f64	d0, d0, d7

00403c7a <.LVL523>:
  403c7a:	f103 33ff 	add.w	r3, r3, #4294967295
  403c7e:	d1e5      	bne.n	403c4c <.LVL519>
  403c80:	eeb6 7b00 	vmov.f64	d7, #96	; 0x3f000000  0.5
  403c84:	eeb4 0bc7 	vcmpe.f64	d0, d7
  403c88:	eef1 fa10 	vmrs	APSR_nzcv, fpscr
  403c8c:	f300 8108 	bgt.w	403ea0 <.LBB61>
  403c90:	eeb4 0b47 	vcmp.f64	d0, d7
  403c94:	eef1 fa10 	vmrs	APSR_nzcv, fpscr
  403c98:	d104      	bne.n	403ca4 <.LVL524>
  403c9a:	ee16 3a90 	vmov	r3, s13
  403c9e:	07db      	lsls	r3, r3, #31
  403ca0:	f100 80fe 	bmi.w	403ea0 <.LBB61>

00403ca4 <.LVL524>:
  403ca4:	2800      	cmp	r0, #0
  403ca6:	db07      	blt.n	403cb8 <.LVL528>
  403ca8:	1814      	adds	r4, r2, r0

00403caa <.LVL525>:
  403caa:	2330      	movs	r3, #48	; 0x30

00403cac <.LVL526>:
  403cac:	f801 3f01 	strb.w	r3, [r1, #1]!

00403cb0 <.LVL527>:
  403cb0:	428c      	cmp	r4, r1
  403cb2:	d1fb      	bne.n	403cac <.LVL526>
  403cb4:	3001      	adds	r0, #1
  403cb6:	4402      	add	r2, r0

00403cb8 <.LVL528>:
  403cb8:	1b93      	subs	r3, r2, r6
  403cba:	46c6      	mov	lr, r8
  403cbc:	9310      	str	r3, [sp, #64]	; 0x40

00403cbe <.LVL529>:
  403cbe:	f8dd 800c 	ldr.w	r8, [sp, #12]
  403cc2:	e68e      	b.n	4039e2 <.LBE46>

00403cc4 <.LBE50>:
  403cc4:	9913      	ldr	r1, [sp, #76]	; 0x4c
  403cc6:	3101      	adds	r1, #1
  403cc8:	9113      	str	r1, [sp, #76]	; 0x4c

00403cca <.LVL531>:
  403cca:	e6b8      	b.n	403a3e <.LVL461>

00403ccc <.LVL532>:
  403ccc:	3304      	adds	r3, #4
  403cce:	8814      	ldrh	r4, [r2, #0]
  403cd0:	930a      	str	r3, [sp, #40]	; 0x28

00403cd2 <.LVL533>:
  403cd2:	2500      	movs	r5, #0
  403cd4:	f7ff b937 	b.w	402f46 <.LVL151>

00403cd8 <.LVL534>:
  403cd8:	3304      	adds	r3, #4
  403cda:	8814      	ldrh	r4, [r2, #0]
  403cdc:	930a      	str	r3, [sp, #40]	; 0x28

00403cde <.LVL535>:
  403cde:	2500      	movs	r5, #0
  403ce0:	f7ff b903 	b.w	402eea <.LVL145>

00403ce4 <.LVL536>:
  403ce4:	980a      	ldr	r0, [sp, #40]	; 0x28
  403ce6:	f9b0 4000 	ldrsh.w	r4, [r0]
  403cea:	f7ff b8b6 	b.w	402e5a <.LVL129>

00403cee <.LVL537>:
  403cee:	9a0a      	ldr	r2, [sp, #40]	; 0x28
  403cf0:	9906      	ldr	r1, [sp, #24]
  403cf2:	6813      	ldr	r3, [r2, #0]
  403cf4:	17cd      	asrs	r5, r1, #31
  403cf6:	4608      	mov	r0, r1
  403cf8:	3204      	adds	r2, #4

00403cfa <.LVL538>:
  403cfa:	4629      	mov	r1, r5
  403cfc:	920a      	str	r2, [sp, #40]	; 0x28
  403cfe:	e9c3 0100 	strd	r0, r1, [r3]
  403d02:	463e      	mov	r6, r7

00403d04 <.LVL539>:
  403d04:	f7fe be39 	b.w	40297a <.LVL10>

00403d08 <.LVL540>:
  403d08:	8814      	ldrh	r4, [r2, #0]
  403d0a:	3204      	adds	r2, #4
  403d0c:	2500      	movs	r5, #0
  403d0e:	2301      	movs	r3, #1
  403d10:	920a      	str	r2, [sp, #40]	; 0x28

00403d12 <.LVL541>:
  403d12:	f7fe bf50 	b.w	402bb6 <.L154>

00403d16 <.LVL542>:
  403d16:	aa22      	add	r2, sp, #136	; 0x88
  403d18:	9902      	ldr	r1, [sp, #8]
  403d1a:	4658      	mov	r0, fp
  403d1c:	f009 fd54 	bl	40d7c8 <__sprint_r>

00403d20 <.LVL543>:
  403d20:	2800      	cmp	r0, #0
  403d22:	f47e af13 	bne.w	402b4c <.L193>
  403d26:	9b24      	ldr	r3, [sp, #144]	; 0x90

00403d28 <.LVL544>:
  403d28:	f10d 0994 	add.w	r9, sp, #148	; 0x94

00403d2c <.LVL545>:
  403d2c:	f7ff ba6e 	b.w	40320c <.LVL227>

00403d30 <.LVL546>:
  403d30:	4630      	mov	r0, r6
  403d32:	9404      	str	r4, [sp, #16]
  403d34:	f007 f824 	bl	40ad80 <strlen>

00403d38 <.LVL547>:
  403d38:	ea20 72e0 	bic.w	r2, r0, r0, asr #31
  403d3c:	9008      	str	r0, [sp, #32]

00403d3e <.LVL548>:
  403d3e:	950a      	str	r5, [sp, #40]	; 0x28
  403d40:	9203      	str	r2, [sp, #12]
  403d42:	4623      	mov	r3, r4
  403d44:	f7ff b94d 	b.w	402fe2 <.LBE15>

00403d48 <.LVL549>:
  403d48:	222d      	movs	r2, #45	; 0x2d
  403d4a:	2300      	movs	r3, #0
  403d4c:	f88d 206b 	strb.w	r2, [sp, #107]	; 0x6b
  403d50:	9304      	str	r3, [sp, #16]

00403d52 <.LVL550>:
  403d52:	f7fe bf59 	b.w	402c08 <.LVL66>

00403d56 <.LVL551>:
  403d56:	9b1c      	ldr	r3, [sp, #112]	; 0x70
  403d58:	930f      	str	r3, [sp, #60]	; 0x3c
  403d5a:	1cda      	adds	r2, r3, #3
  403d5c:	db03      	blt.n	403d66 <.LVL552>
  403d5e:	9a04      	ldr	r2, [sp, #16]
  403d60:	4293      	cmp	r3, r2
  403d62:	f77f ae4e 	ble.w	403a02 <.LVL457>

00403d66 <.LVL552>:
  403d66:	9b0d      	ldr	r3, [sp, #52]	; 0x34
  403d68:	3b02      	subs	r3, #2

00403d6a <.LVL553>:
  403d6a:	930d      	str	r3, [sp, #52]	; 0x34
  403d6c:	f023 0520 	bic.w	r5, r3, #32

00403d70 <.LVL554>:
  403d70:	9b0f      	ldr	r3, [sp, #60]	; 0x3c

00403d72 <.LBB51>:
  403d72:	2d41      	cmp	r5, #65	; 0x41

00403d74 <.LBE51>:
  403d74:	f103 33ff 	add.w	r3, r3, #4294967295
  403d78:	931c      	str	r3, [sp, #112]	; 0x70

00403d7a <.LBB58>:
  403d7a:	f000 81ba 	beq.w	4040f2 <.LVL662>

00403d7e <.LVL556>:
  403d7e:	f89d 2034 	ldrb.w	r2, [sp, #52]	; 0x34
  403d82:	2100      	movs	r1, #0

00403d84 <.LVL557>:
  403d84:	2b00      	cmp	r3, #0
  403d86:	bfb8      	it	lt
  403d88:	9b0f      	ldrlt	r3, [sp, #60]	; 0x3c

00403d8a <.LVL558>:
  403d8a:	f88d 2078 	strb.w	r2, [sp, #120]	; 0x78
  403d8e:	bfba      	itte	lt
  403d90:	f1c3 0301 	rsblt	r3, r3, #1

00403d94 <.LVL559>:
  403d94:	222d      	movlt	r2, #45	; 0x2d
  403d96:	222b      	movge	r2, #43	; 0x2b
  403d98:	2b09      	cmp	r3, #9
  403d9a:	f88d 2079 	strb.w	r2, [sp, #121]	; 0x79

00403d9e <.LVL560>:
  403d9e:	f340 819d 	ble.w	4040dc <.LBB68>
  403da2:	f10d 0487 	add.w	r4, sp, #135	; 0x87

00403da6 <.LVL561>:
  403da6:	4620      	mov	r0, r4
  403da8:	4d11      	ldr	r5, [pc, #68]	; (403df0 <.LVL569+0xa>)
  403daa:	e000      	b.n	403dae <.LVL563>

00403dac <.LVL562>:
  403dac:	4610      	mov	r0, r2

00403dae <.LVL563>:
  403dae:	fb85 1203 	smull	r1, r2, r5, r3
  403db2:	17d9      	asrs	r1, r3, #31
  403db4:	ebc1 01a2 	rsb	r1, r1, r2, asr #2
  403db8:	eb01 0281 	add.w	r2, r1, r1, lsl #2
  403dbc:	eba3 0242 	sub.w	r2, r3, r2, lsl #1
  403dc0:	3230      	adds	r2, #48	; 0x30
  403dc2:	2909      	cmp	r1, #9
  403dc4:	f800 2c01 	strb.w	r2, [r0, #-1]
  403dc8:	460b      	mov	r3, r1

00403dca <.LVL564>:
  403dca:	f100 32ff 	add.w	r2, r0, #4294967295

00403dce <.LVL565>:
  403dce:	dced      	bgt.n	403dac <.LVL562>

00403dd0 <.LVL566>:
  403dd0:	3330      	adds	r3, #48	; 0x30
  403dd2:	3802      	subs	r0, #2
  403dd4:	b2d9      	uxtb	r1, r3

00403dd6 <.LVL567>:
  403dd6:	4284      	cmp	r4, r0
  403dd8:	f802 1c01 	strb.w	r1, [r2, #-1]
  403ddc:	f240 820d 	bls.w	4041fa <.LBB74>
  403de0:	f10d 007a 	add.w	r0, sp, #122	; 0x7a

00403de4 <.LVL568>:
  403de4:	4613      	mov	r3, r2

00403de6 <.LVL569>:
  403de6:	e007      	b.n	403df8 <.LVL571>
  403de8:	0040ce1c 	.word	0x0040ce1c
  403dec:	0040cdec 	.word	0x0040cdec
  403df0:	66666667 	.word	0x66666667

00403df4 <.LVL570>:
  403df4:	f813 1b01 	ldrb.w	r1, [r3], #1

00403df8 <.LVL571>:
  403df8:	f800 1b01 	strb.w	r1, [r0], #1

00403dfc <.LVL572>:
  403dfc:	42a3      	cmp	r3, r4
  403dfe:	d1f9      	bne.n	403df4 <.LVL570>
  403e00:	3301      	adds	r3, #1
  403e02:	1a9a      	subs	r2, r3, r2

00403e04 <.LVL573>:
  403e04:	f10d 037a 	add.w	r3, sp, #122	; 0x7a
  403e08:	441a      	add	r2, r3

00403e0a <.LVL574>:
  403e0a:	ab1e      	add	r3, sp, #120	; 0x78

00403e0c <.LVL575>:
  403e0c:	1ad3      	subs	r3, r2, r3

00403e0e <.LBE58>:
  403e0e:	9a10      	ldr	r2, [sp, #64]	; 0x40

00403e10 <.LBB59>:
  403e10:	9319      	str	r3, [sp, #100]	; 0x64

00403e12 <.LBE59>:
  403e12:	2a01      	cmp	r2, #1
  403e14:	4413      	add	r3, r2
  403e16:	9308      	str	r3, [sp, #32]

00403e18 <.LVL579>:
  403e18:	f340 81bb 	ble.w	404192 <.LVL682>
  403e1c:	9b08      	ldr	r3, [sp, #32]

00403e1e <.LVL580>:
  403e1e:	9a14      	ldr	r2, [sp, #80]	; 0x50
  403e20:	4413      	add	r3, r2
  403e22:	9308      	str	r3, [sp, #32]
  403e24:	2300      	movs	r3, #0
  403e26:	9313      	str	r3, [sp, #76]	; 0x4c
  403e28:	9311      	str	r3, [sp, #68]	; 0x44
  403e2a:	930f      	str	r3, [sp, #60]	; 0x3c
  403e2c:	9b08      	ldr	r3, [sp, #32]
  403e2e:	f42e 6e80 	bic.w	lr, lr, #1024	; 0x400
  403e32:	ea23 73e3 	bic.w	r3, r3, r3, asr #31
  403e36:	f44e 7880 	orr.w	r8, lr, #256	; 0x100

00403e3a <.LVL582>:
  403e3a:	9303      	str	r3, [sp, #12]
  403e3c:	e61d      	b.n	403a7a <.LVL469>

00403e3e <.LBB25>:
  403e3e:	aa22      	add	r2, sp, #136	; 0x88
  403e40:	9902      	ldr	r1, [sp, #8]
  403e42:	4658      	mov	r0, fp
  403e44:	f009 fcc0 	bl	40d7c8 <__sprint_r>

00403e48 <.LVL584>:
  403e48:	2800      	cmp	r0, #0
  403e4a:	f47e ae7f 	bne.w	402b4c <.L193>
  403e4e:	9b24      	ldr	r3, [sp, #144]	; 0x90

00403e50 <.LVL585>:
  403e50:	f10d 0994 	add.w	r9, sp, #148	; 0x94

00403e54 <.LVL586>:
  403e54:	f7ff bb0d 	b.w	403472 <.LVL294>

00403e58 <.LBE25>:
  403e58:	9a0a      	ldr	r2, [sp, #40]	; 0x28
  403e5a:	6813      	ldr	r3, [r2, #0]
  403e5c:	3204      	adds	r2, #4

00403e5e <.LVL588>:
  403e5e:	920a      	str	r2, [sp, #40]	; 0x28
  403e60:	f8bd 2018 	ldrh.w	r2, [sp, #24]

00403e64 <.LVL589>:
  403e64:	801a      	strh	r2, [r3, #0]
  403e66:	463e      	mov	r6, r7

00403e68 <.LVL590>:
  403e68:	f7fe bd87 	b.w	40297a <.LVL10>

00403e6c <.LVL591>:
  403e6c:	9b04      	ldr	r3, [sp, #16]
  403e6e:	9613      	str	r6, [sp, #76]	; 0x4c
  403e70:	2b06      	cmp	r3, #6
  403e72:	bf28      	it	cs
  403e74:	2306      	movcs	r3, #6
  403e76:	4632      	mov	r2, r6
  403e78:	9604      	str	r6, [sp, #16]
  403e7a:	9611      	str	r6, [sp, #68]	; 0x44
  403e7c:	960f      	str	r6, [sp, #60]	; 0x3c
  403e7e:	9609      	str	r6, [sp, #36]	; 0x24
  403e80:	9303      	str	r3, [sp, #12]

00403e82 <.LVL592>:
  403e82:	950a      	str	r5, [sp, #40]	; 0x28
  403e84:	9308      	str	r3, [sp, #32]
  403e86:	4ea9      	ldr	r6, [pc, #676]	; (40412c <.LVL669+0x2>)
  403e88:	f7fe bebd 	b.w	402c06 <.L63>

00403e8c <.LVL593>:
  403e8c:	2330      	movs	r3, #48	; 0x30
  403e8e:	f88d 306c 	strb.w	r3, [sp, #108]	; 0x6c
  403e92:	2378      	movs	r3, #120	; 0x78
  403e94:	e6a2      	b.n	403bdc <.LVL510+0x8>
  403e96:	222d      	movs	r2, #45	; 0x2d
  403e98:	f88d 206b 	strb.w	r2, [sp, #107]	; 0x6b
  403e9c:	f7ff b950 	b.w	403140 <.LVL208+0x20>

00403ea0 <.LBB61>:
  403ea0:	9120      	str	r1, [sp, #128]	; 0x80
  403ea2:	f812 0c01 	ldrb.w	r0, [r2, #-1]

00403ea6 <.LVL595>:
  403ea6:	7be3      	ldrb	r3, [r4, #15]
  403ea8:	4283      	cmp	r3, r0
  403eaa:	f040 819b 	bne.w	4041e4 <.LBB73>
  403eae:	4613      	mov	r3, r2
  403eb0:	f04f 0e30 	mov.w	lr, #48	; 0x30
  403eb4:	f803 ec01 	strb.w	lr, [r3, #-1]
  403eb8:	9b20      	ldr	r3, [sp, #128]	; 0x80
  403eba:	1e59      	subs	r1, r3, #1
  403ebc:	9120      	str	r1, [sp, #128]	; 0x80
  403ebe:	f813 1c01 	ldrb.w	r1, [r3, #-1]
  403ec2:	4281      	cmp	r1, r0
  403ec4:	d0f6      	beq.n	403eb4 <.LVL595+0xe>
  403ec6:	2939      	cmp	r1, #57	; 0x39
  403ec8:	bf16      	itet	ne
  403eca:	3101      	addne	r1, #1
  403ecc:	7aa1      	ldrbeq	r1, [r4, #10]
  403ece:	b2c9      	uxtbne	r1, r1
  403ed0:	f803 1c01 	strb.w	r1, [r3, #-1]
  403ed4:	e6f0      	b.n	403cb8 <.LVL528>

00403ed6 <.LBE61>:
  403ed6:	9b10      	ldr	r3, [sp, #64]	; 0x40
  403ed8:	9a14      	ldr	r2, [sp, #80]	; 0x50
  403eda:	4413      	add	r3, r2
  403edc:	9308      	str	r3, [sp, #32]

00403ede <.LVL597>:
  403ede:	9b0f      	ldr	r3, [sp, #60]	; 0x3c

00403ee0 <.LVL598>:
  403ee0:	2b00      	cmp	r3, #0
  403ee2:	f340 814b 	ble.w	40417c <.LBE71>
  403ee6:	2367      	movs	r3, #103	; 0x67
  403ee8:	930d      	str	r3, [sp, #52]	; 0x34

00403eea <.LVL599>:
  403eea:	f41e 6f80 	tst.w	lr, #1024	; 0x400
  403eee:	f47f ada0 	bne.w	403a32 <.LVL460>
  403ef2:	9b08      	ldr	r3, [sp, #32]
  403ef4:	ea23 73e3 	bic.w	r3, r3, r3, asr #31
  403ef8:	9303      	str	r3, [sp, #12]

00403efa <.LVL600>:
  403efa:	2300      	movs	r3, #0
  403efc:	9313      	str	r3, [sp, #76]	; 0x4c
  403efe:	9311      	str	r3, [sp, #68]	; 0x44
  403f00:	e5bb      	b.n	403a7a <.LVL469>

00403f02 <.LBB62>:
  403f02:	9309      	str	r3, [sp, #36]	; 0x24

00403f04 <.LVL602>:
  403f04:	232d      	movs	r3, #45	; 0x2d
  403f06:	9305      	str	r3, [sp, #20]
  403f08:	eeb1 ab48 	vneg.f64	d10, d8

00403f0c <.LVL603>:
  403f0c:	e681      	b.n	403c12 <.LVL514>

00403f0e <.LBB63>:
  403f0e:	9b04      	ldr	r3, [sp, #16]
  403f10:	9303      	str	r3, [sp, #12]
  403f12:	9308      	str	r3, [sp, #32]

00403f14 <.LBE63>:
  403f14:	9004      	str	r0, [sp, #16]
  403f16:	950a      	str	r5, [sp, #40]	; 0x28
  403f18:	9013      	str	r0, [sp, #76]	; 0x4c
  403f1a:	9011      	str	r0, [sp, #68]	; 0x44
  403f1c:	900f      	str	r0, [sp, #60]	; 0x3c
  403f1e:	f89d 206b 	ldrb.w	r2, [sp, #107]	; 0x6b
  403f22:	f7fe be70 	b.w	402c06 <.L63>

00403f26 <.LVL605>:
  403f26:	9b08      	ldr	r3, [sp, #32]
  403f28:	ea23 73e3 	bic.w	r3, r3, r3, asr #31
  403f2c:	9303      	str	r3, [sp, #12]

00403f2e <.LVL606>:
  403f2e:	2367      	movs	r3, #103	; 0x67
  403f30:	930d      	str	r3, [sp, #52]	; 0x34
  403f32:	e7e2      	b.n	403efa <.LVL600>

00403f34 <.LVL607>:
  403f34:	424c      	negs	r4, r1
  403f36:	3110      	adds	r1, #16

00403f38 <.LVL608>:
  403f38:	f280 80a9 	bge.w	40408e <.LVL651>
  403f3c:	2510      	movs	r5, #16
  403f3e:	e005      	b.n	403f4c <.LVL610+0x8>

00403f40 <.LVL609>:
  403f40:	f109 0908 	add.w	r9, r9, #8

00403f44 <.LVL610>:
  403f44:	3c10      	subs	r4, #16
  403f46:	2c10      	cmp	r4, #16
  403f48:	f340 80a1 	ble.w	40408e <.LVL651>
  403f4c:	3201      	adds	r2, #1
  403f4e:	3310      	adds	r3, #16
  403f50:	2a07      	cmp	r2, #7
  403f52:	9324      	str	r3, [sp, #144]	; 0x90

00403f54 <.LVL613>:
  403f54:	9223      	str	r2, [sp, #140]	; 0x8c
  403f56:	f8c9 a000 	str.w	sl, [r9]
  403f5a:	f8c9 5004 	str.w	r5, [r9, #4]
  403f5e:	ddef      	ble.n	403f40 <.LVL609>
  403f60:	aa22      	add	r2, sp, #136	; 0x88
  403f62:	9902      	ldr	r1, [sp, #8]
  403f64:	4658      	mov	r0, fp
  403f66:	f009 fc2f 	bl	40d7c8 <__sprint_r>

00403f6a <.LVL614>:
  403f6a:	2800      	cmp	r0, #0
  403f6c:	f47e adee 	bne.w	402b4c <.L193>
  403f70:	9b24      	ldr	r3, [sp, #144]	; 0x90
  403f72:	9a23      	ldr	r2, [sp, #140]	; 0x8c
  403f74:	f10d 0994 	add.w	r9, sp, #148	; 0x94

00403f78 <.LVL615>:
  403f78:	e7e4      	b.n	403f44 <.LVL610>

00403f7a <.LVL616>:
  403f7a:	aa22      	add	r2, sp, #136	; 0x88
  403f7c:	9902      	ldr	r1, [sp, #8]
  403f7e:	4658      	mov	r0, fp
  403f80:	f009 fc22 	bl	40d7c8 <__sprint_r>

00403f84 <.LVL617>:
  403f84:	2800      	cmp	r0, #0
  403f86:	f47e ade1 	bne.w	402b4c <.L193>
  403f8a:	991c      	ldr	r1, [sp, #112]	; 0x70
  403f8c:	9b24      	ldr	r3, [sp, #144]	; 0x90
  403f8e:	9a23      	ldr	r2, [sp, #140]	; 0x8c
  403f90:	f10d 0994 	add.w	r9, sp, #148	; 0x94

00403f94 <.LVL618>:
  403f94:	e5e5      	b.n	403b62 <.LVL498>

00403f96 <.LVL619>:
  403f96:	2200      	movs	r2, #0
  403f98:	9204      	str	r2, [sp, #16]
  403f9a:	f7fe bd1f 	b.w	4029dc <.LVL23+0x2>

00403f9e <.LBB64>:
  403f9e:	aa22      	add	r2, sp, #136	; 0x88
  403fa0:	9902      	ldr	r1, [sp, #8]
  403fa2:	4658      	mov	r0, fp
  403fa4:	f009 fc10 	bl	40d7c8 <__sprint_r>

00403fa8 <.LVL621>:
  403fa8:	2800      	cmp	r0, #0
  403faa:	f47e adcf 	bne.w	402b4c <.L193>
  403fae:	9a1c      	ldr	r2, [sp, #112]	; 0x70
  403fb0:	9b24      	ldr	r3, [sp, #144]	; 0x90

00403fb2 <.LVL622>:
  403fb2:	f10d 0994 	add.w	r9, sp, #148	; 0x94

00403fb6 <.LVL623>:
  403fb6:	e46c      	b.n	403892 <.LBB22>

00403fb8 <.LBB26>:
  403fb8:	aa22      	add	r2, sp, #136	; 0x88
  403fba:	9902      	ldr	r1, [sp, #8]
  403fbc:	4658      	mov	r0, fp
  403fbe:	f009 fc03 	bl	40d7c8 <__sprint_r>

00403fc2 <.LVL625>:
  403fc2:	2800      	cmp	r0, #0
  403fc4:	f47e adc2 	bne.w	402b4c <.L193>
  403fc8:	9a1c      	ldr	r2, [sp, #112]	; 0x70
  403fca:	9910      	ldr	r1, [sp, #64]	; 0x40
  403fcc:	9b24      	ldr	r3, [sp, #144]	; 0x90

00403fce <.LVL626>:
  403fce:	1a8a      	subs	r2, r1, r2
  403fd0:	f10d 0994 	add.w	r9, sp, #148	; 0x94

00403fd4 <.LVL627>:
  403fd4:	e474      	b.n	4038c0 <.LVL425>

00403fd6 <.LBB65>:
  403fd6:	1931      	adds	r1, r6, r4

00403fd8 <.LVL629>:
  403fd8:	eeb5 ab40 	vcmp.f64	d10, #0.0
  403fdc:	eef1 fa10 	vmrs	APSR_nzcv, fpscr
  403fe0:	d00b      	beq.n	403ffa <.LVL631>
  403fe2:	9b20      	ldr	r3, [sp, #128]	; 0x80
  403fe4:	4299      	cmp	r1, r3
  403fe6:	f67f acf7 	bls.w	4039d8 <.LVL455>
  403fea:	2030      	movs	r0, #48	; 0x30

00403fec <.LVL630>:
  403fec:	1c5a      	adds	r2, r3, #1
  403fee:	9220      	str	r2, [sp, #128]	; 0x80
  403ff0:	7018      	strb	r0, [r3, #0]
  403ff2:	9b20      	ldr	r3, [sp, #128]	; 0x80
  403ff4:	4299      	cmp	r1, r3
  403ff6:	d8f9      	bhi.n	403fec <.LVL630>
  403ff8:	e4ee      	b.n	4039d8 <.LVL455>

00403ffa <.LVL631>:
  403ffa:	460b      	mov	r3, r1
  403ffc:	e4ec      	b.n	4039d8 <.LVL455>

00403ffe <.LBE65>:
  403ffe:	9b1c      	ldr	r3, [sp, #112]	; 0x70
  404000:	930f      	str	r3, [sp, #60]	; 0x3c
  404002:	2b00      	cmp	r3, #0
  404004:	9b04      	ldr	r3, [sp, #16]
  404006:	f340 80cc 	ble.w	4041a2 <.LBE72>

0040400a <.LVL633>:
  40400a:	2b00      	cmp	r3, #0
  40400c:	d176      	bne.n	4040fc <.LBE68>
  40400e:	f01e 0f01 	tst.w	lr, #1
  404012:	d173      	bne.n	4040fc <.LBE68>
  404014:	9b0f      	ldr	r3, [sp, #60]	; 0x3c
  404016:	9308      	str	r3, [sp, #32]
  404018:	2366      	movs	r3, #102	; 0x66
  40401a:	930d      	str	r3, [sp, #52]	; 0x34
  40401c:	e765      	b.n	403eea <.LVL599>

0040401e <.LBB66>:
  40401e:	9c04      	ldr	r4, [sp, #16]
  404020:	eeb0 0b4a 	vmov.f64	d0, d10
  404024:	aa20      	add	r2, sp, #128	; 0x80

00404026 <.LVL635>:
  404026:	ab1d      	add	r3, sp, #116	; 0x74
  404028:	9201      	str	r2, [sp, #4]
  40402a:	9300      	str	r3, [sp, #0]
  40402c:	2103      	movs	r1, #3
  40402e:	ab1c      	add	r3, sp, #112	; 0x70

00404030 <.LVL636>:
  404030:	4622      	mov	r2, r4
  404032:	4658      	mov	r0, fp
  404034:	f002 fc3c 	bl	4068b0 <_dtoa_r>

00404038 <.LVL637>:
  404038:	4606      	mov	r6, r0

0040403a <.LVL638>:
  40403a:	1901      	adds	r1, r0, r4

0040403c <.LVL639>:
  40403c:	7833      	ldrb	r3, [r6, #0]
  40403e:	2b30      	cmp	r3, #48	; 0x30
  404040:	f000 808e 	beq.w	404160 <.LBB70>
  404044:	9c1c      	ldr	r4, [sp, #112]	; 0x70

00404046 <.LVL640>:
  404046:	4421      	add	r1, r4
  404048:	e7c6      	b.n	403fd8 <.LVL629>

0040404a <.LVL642>:
  40404a:	eeb0 0b4a 	vmov.f64	d0, d10
  40404e:	a81c      	add	r0, sp, #112	; 0x70

00404050 <.LVL643>:
  404050:	f008 f8ae 	bl	40c1b0 <.LBE12>

00404054 <.LVL644>:
  404054:	eeb4 7b00 	vmov.f64	d7, #64	; 0x3e000000  0.125
  404058:	ee20 0b07 	vmul.f64	d0, d0, d7

0040405c <.LVL645>:
  40405c:	eeb5 0b40 	vcmp.f64	d0, #0.0
  404060:	eef1 fa10 	vmrs	APSR_nzcv, fpscr
  404064:	d101      	bne.n	40406a <.LVL645+0xe>
  404066:	2301      	movs	r3, #1
  404068:	931c      	str	r3, [sp, #112]	; 0x70
  40406a:	4c31      	ldr	r4, [pc, #196]	; (404130 <.LVL669+0x6>)
  40406c:	e5e8      	b.n	403c40 <.LVL518>

0040406e <.LBE66>:
  40406e:	9b0f      	ldr	r3, [sp, #60]	; 0x3c
  404070:	9308      	str	r3, [sp, #32]
  404072:	e4d4      	b.n	403a1e <.LVL459>

00404074 <.LVL647>:
  404074:	2306      	movs	r3, #6
  404076:	9304      	str	r3, [sp, #16]
  404078:	e47e      	b.n	403978 <.LBB30>

0040407a <.LVL648>:
  40407a:	1c59      	adds	r1, r3, #1
  40407c:	4658      	mov	r0, fp
  40407e:	f003 fdad 	bl	407bdc <.LFE14>

00404082 <.LVL649>:
  404082:	4606      	mov	r6, r0

00404084 <.LVL650>:
  404084:	2800      	cmp	r0, #0
  404086:	f000 80b0 	beq.w	4041ea <.LBE73>
  40408a:	9009      	str	r0, [sp, #36]	; 0x24
  40408c:	e5b1      	b.n	403bf2 <.LBB49>

0040408e <.LVL651>:
  40408e:	3201      	adds	r2, #1
  404090:	4423      	add	r3, r4
  404092:	2a07      	cmp	r2, #7
  404094:	f8c9 a000 	str.w	sl, [r9]
  404098:	f8c9 4004 	str.w	r4, [r9, #4]
  40409c:	9324      	str	r3, [sp, #144]	; 0x90
  40409e:	9223      	str	r2, [sp, #140]	; 0x8c
  4040a0:	f109 0908 	add.w	r9, r9, #8
  4040a4:	f77f ad60 	ble.w	403b68 <.LVL499>
  4040a8:	aa22      	add	r2, sp, #136	; 0x88
  4040aa:	9902      	ldr	r1, [sp, #8]
  4040ac:	4658      	mov	r0, fp
  4040ae:	f009 fb8b 	bl	40d7c8 <__sprint_r>

004040b2 <.LVL653>:
  4040b2:	2800      	cmp	r0, #0
  4040b4:	f47e ad4a 	bne.w	402b4c <.L193>
  4040b8:	9b24      	ldr	r3, [sp, #144]	; 0x90
  4040ba:	9a23      	ldr	r2, [sp, #140]	; 0x8c
  4040bc:	f10d 0994 	add.w	r9, sp, #148	; 0x94

004040c0 <.LVL654>:
  4040c0:	e552      	b.n	403b68 <.LVL499>

004040c2 <.LBB67>:
  4040c2:	9b0d      	ldr	r3, [sp, #52]	; 0x34
  4040c4:	2b47      	cmp	r3, #71	; 0x47
  4040c6:	d186      	bne.n	403fd6 <.LBB65>
  4040c8:	f018 0f01 	tst.w	r8, #1
  4040cc:	f43f ac83 	beq.w	4039d6 <.LVL454>
  4040d0:	9b0d      	ldr	r3, [sp, #52]	; 0x34
  4040d2:	2b46      	cmp	r3, #70	; 0x46
  4040d4:	eb06 0104 	add.w	r1, r6, r4

004040d8 <.LVL656>:
  4040d8:	d0b0      	beq.n	40403c <.LVL639>
  4040da:	e77d      	b.n	403fd8 <.LVL629>

004040dc <.LBB68>:
  4040dc:	2900      	cmp	r1, #0
  4040de:	d14a      	bne.n	404176 <.LBB71>

004040e0 <.LVL658>:
  4040e0:	2230      	movs	r2, #48	; 0x30
  4040e2:	f88d 207a 	strb.w	r2, [sp, #122]	; 0x7a
  4040e6:	f10d 027b 	add.w	r2, sp, #123	; 0x7b

004040ea <.LVL659>:
  4040ea:	3330      	adds	r3, #48	; 0x30

004040ec <.LVL660>:
  4040ec:	7013      	strb	r3, [r2, #0]
  4040ee:	3201      	adds	r2, #1
  4040f0:	e68b      	b.n	403e0a <.LVL574>

004040f2 <.LVL662>:
  4040f2:	9a0d      	ldr	r2, [sp, #52]	; 0x34
  4040f4:	320f      	adds	r2, #15
  4040f6:	b2d2      	uxtb	r2, r2
  4040f8:	2101      	movs	r1, #1
  4040fa:	e643      	b.n	403d84 <.LVL557>

004040fc <.LBE68>:
  4040fc:	9a14      	ldr	r2, [sp, #80]	; 0x50
  4040fe:	9b0f      	ldr	r3, [sp, #60]	; 0x3c
  404100:	4413      	add	r3, r2
  404102:	9a04      	ldr	r2, [sp, #16]
  404104:	441a      	add	r2, r3
  404106:	2366      	movs	r3, #102	; 0x66
  404108:	9208      	str	r2, [sp, #32]

0040410a <.LVL664>:
  40410a:	930d      	str	r3, [sp, #52]	; 0x34
  40410c:	e6ed      	b.n	403eea <.LVL599>

0040410e <.LBB69>:
  40410e:	9c04      	ldr	r4, [sp, #16]
  404110:	eeb0 0b4a 	vmov.f64	d0, d10
  404114:	aa20      	add	r2, sp, #128	; 0x80

00404116 <.LVL666>:
  404116:	ab1d      	add	r3, sp, #116	; 0x74
  404118:	9201      	str	r2, [sp, #4]
  40411a:	9300      	str	r3, [sp, #0]
  40411c:	4622      	mov	r2, r4
  40411e:	ab1c      	add	r3, sp, #112	; 0x70

00404120 <.LVL667>:
  404120:	2103      	movs	r1, #3
  404122:	4658      	mov	r0, fp
  404124:	f002 fbc4 	bl	4068b0 <_dtoa_r>

00404128 <.LVL668>:
  404128:	4606      	mov	r6, r0

0040412a <.LVL669>:
  40412a:	e7d1      	b.n	4040d0 <.LBB67+0xe>
  40412c:	0040ce14 	.word	0x0040ce14
  404130:	0040ce00 	.word	0x0040ce00

00404134 <.LBE69>:
  404134:	4e34      	ldr	r6, [pc, #208]	; (404208 <.LVL697+0x8>)

00404136 <.LVL671>:
  404136:	9c0d      	ldr	r4, [sp, #52]	; 0x34
  404138:	f89d 206b 	ldrb.w	r2, [sp, #107]	; 0x6b
  40413c:	2300      	movs	r3, #0
  40413e:	4619      	mov	r1, r3
  404140:	2003      	movs	r0, #3
  404142:	9309      	str	r3, [sp, #36]	; 0x24
  404144:	1f33      	subs	r3, r6, #4
  404146:	9104      	str	r1, [sp, #16]
  404148:	9003      	str	r0, [sp, #12]
  40414a:	f028 0880 	bic.w	r8, r8, #128	; 0x80

0040414e <.LVL672>:
  40414e:	2c47      	cmp	r4, #71	; 0x47
  404150:	bfd8      	it	le
  404152:	461e      	movle	r6, r3

00404154 <.LVL673>:
  404154:	9113      	str	r1, [sp, #76]	; 0x4c
  404156:	9111      	str	r1, [sp, #68]	; 0x44
  404158:	910f      	str	r1, [sp, #60]	; 0x3c
  40415a:	9008      	str	r0, [sp, #32]
  40415c:	f7fe bd53 	b.w	402c06 <.L63>

00404160 <.LBB70>:
  404160:	eeb5 ab40 	vcmp.f64	d10, #0.0
  404164:	eef1 fa10 	vmrs	APSR_nzcv, fpscr
  404168:	f43f af6c 	beq.w	404044 <.LVL639+0x8>
  40416c:	f1c4 0401 	rsb	r4, r4, #1

00404170 <.LVL675>:
  404170:	941c      	str	r4, [sp, #112]	; 0x70
  404172:	4421      	add	r1, r4
  404174:	e730      	b.n	403fd8 <.LVL629>

00404176 <.LBB71>:
  404176:	f10d 027a 	add.w	r2, sp, #122	; 0x7a

0040417a <.LVL678>:
  40417a:	e7b6      	b.n	4040ea <.LVL659>

0040417c <.LBE71>:
  40417c:	9a08      	ldr	r2, [sp, #32]
  40417e:	f1c3 0301 	rsb	r3, r3, #1
  404182:	441a      	add	r2, r3
  404184:	ea22 73e2 	bic.w	r3, r2, r2, asr #31
  404188:	9303      	str	r3, [sp, #12]

0040418a <.LVL680>:
  40418a:	2367      	movs	r3, #103	; 0x67
  40418c:	9208      	str	r2, [sp, #32]

0040418e <.LVL681>:
  40418e:	930d      	str	r3, [sp, #52]	; 0x34
  404190:	e6b3      	b.n	403efa <.LVL600>

00404192 <.LVL682>:
  404192:	f01e 0f01 	tst.w	lr, #1
  404196:	f43f ae45 	beq.w	403e24 <.LVL580+0x6>
  40419a:	e63f      	b.n	403e1c <.LVL579+0x4>

0040419c <.LBB72>:
  40419c:	2301      	movs	r3, #1
  40419e:	931c      	str	r3, [sp, #112]	; 0x70
  4041a0:	e54d      	b.n	403c3e <.LVL517+0xc>

004041a2 <.LBE72>:
  4041a2:	b913      	cbnz	r3, 4041aa <.LBE72+0x8>
  4041a4:	f01e 0f01 	tst.w	lr, #1
  4041a8:	d00a      	beq.n	4041c0 <.LVL686>
  4041aa:	9b14      	ldr	r3, [sp, #80]	; 0x50
  4041ac:	9a04      	ldr	r2, [sp, #16]
  4041ae:	3301      	adds	r3, #1
  4041b0:	441a      	add	r2, r3
  4041b2:	ea22 73e2 	bic.w	r3, r2, r2, asr #31
  4041b6:	9303      	str	r3, [sp, #12]

004041b8 <.LVL685>:
  4041b8:	2366      	movs	r3, #102	; 0x66
  4041ba:	9208      	str	r2, [sp, #32]
  4041bc:	930d      	str	r3, [sp, #52]	; 0x34
  4041be:	e69c      	b.n	403efa <.LVL600>

004041c0 <.LVL686>:
  4041c0:	2301      	movs	r3, #1
  4041c2:	9303      	str	r3, [sp, #12]

004041c4 <.LVL687>:
  4041c4:	9308      	str	r3, [sp, #32]

004041c6 <.LVL688>:
  4041c6:	2366      	movs	r3, #102	; 0x66
  4041c8:	930d      	str	r3, [sp, #52]	; 0x34
  4041ca:	e696      	b.n	403efa <.LVL600>

004041cc <.LVL689>:
  4041cc:	980a      	ldr	r0, [sp, #40]	; 0x28
  4041ce:	787b      	ldrb	r3, [r7, #1]

004041d0 <.LVL690>:
  4041d0:	6802      	ldr	r2, [r0, #0]
  4041d2:	ea42 72e2 	orr.w	r2, r2, r2, asr #31
  4041d6:	9204      	str	r2, [sp, #16]
  4041d8:	4602      	mov	r2, r0
  4041da:	3204      	adds	r2, #4

004041dc <.LVL691>:
  4041dc:	460f      	mov	r7, r1

004041de <.LVL692>:
  4041de:	920a      	str	r2, [sp, #40]	; 0x28
  4041e0:	f7fe bbfb 	b.w	4029da <.LVL23>

004041e4 <.LBB73>:
  4041e4:	4601      	mov	r1, r0
  4041e6:	4613      	mov	r3, r2
  4041e8:	e66d      	b.n	403ec6 <.LVL595+0x20>

004041ea <.LBE73>:
  4041ea:	9a02      	ldr	r2, [sp, #8]
  4041ec:	f9b2 300c 	ldrsh.w	r3, [r2, #12]
  4041f0:	f043 0340 	orr.w	r3, r3, #64	; 0x40
  4041f4:	8193      	strh	r3, [r2, #12]
  4041f6:	f7fe bcb2 	b.w	402b5e <.LVL48+0x6>

004041fa <.LBB74>:
  4041fa:	f10d 027a 	add.w	r2, sp, #122	; 0x7a

004041fe <.LVL696>:
  4041fe:	e604      	b.n	403e0a <.LVL574>

00404200 <.LVL697>:
  404200:	9b1c      	ldr	r3, [sp, #112]	; 0x70
  404202:	930f      	str	r3, [sp, #60]	; 0x3c
  404204:	e5b4      	b.n	403d70 <.LVL554>
  404206:	bf00      	nop
  404208:	0040cde8 	.word	0x0040cde8

Disassembly of section .text._svfprintf_r%32:

00404210 <_svfprintf_r>:
  404210:	e92d 4ff0 	stmdb	sp!, {r4, r5, r6, r7, r8, r9, sl, fp, lr}

00404214 <.LCFI0>:
  404214:	ed2d 8b06 	vpush	{d8-d10}

00404218 <.LCFI1>:
  404218:	b0cf      	sub	sp, #316	; 0x13c

0040421a <.LCFI2>:
  40421a:	460c      	mov	r4, r1
  40421c:	9105      	str	r1, [sp, #20]
  40421e:	4693      	mov	fp, r2
  404220:	930a      	str	r3, [sp, #40]	; 0x28

00404222 <.LVL1>:
  404222:	9011      	str	r0, [sp, #68]	; 0x44
  404224:	f009 f9a0 	bl	40d568 <_localeconv_r>

00404228 <.LVL2>:
  404228:	6803      	ldr	r3, [r0, #0]
  40422a:	9317      	str	r3, [sp, #92]	; 0x5c

0040422c <.LVL3>:
  40422c:	4618      	mov	r0, r3
  40422e:	f006 fda7 	bl	40ad80 <strlen>

00404232 <.LVL4>:
  404232:	89a3      	ldrh	r3, [r4, #12]
  404234:	9015      	str	r0, [sp, #84]	; 0x54

00404236 <.LVL5>:
  404236:	061d      	lsls	r5, r3, #24
  404238:	d503      	bpl.n	404242 <.LVL6>
  40423a:	6923      	ldr	r3, [r4, #16]
  40423c:	2b00      	cmp	r3, #0
  40423e:	f001 8151 	beq.w	4054e4 <.LBE47>

00404242 <.LVL6>:
  404242:	2300      	movs	r3, #0
  404244:	ed9f 8b7a 	vldr	d8, [pc, #488]	; 404430 <.LVL46+0x4>
  404248:	ed9f 9b7b 	vldr	d9, [pc, #492]	; 404438 <.LVL46+0xc>
  40424c:	930f      	str	r3, [sp, #60]	; 0x3c
  40424e:	9324      	str	r3, [sp, #144]	; 0x90
  404250:	9323      	str	r3, [sp, #140]	; 0x8c

00404252 <.LVL7>:
  404252:	9314      	str	r3, [sp, #80]	; 0x50
  404254:	9319      	str	r3, [sp, #100]	; 0x64
  404256:	9312      	str	r3, [sp, #72]	; 0x48
  404258:	9318      	str	r3, [sp, #96]	; 0x60
  40425a:	9316      	str	r3, [sp, #88]	; 0x58
  40425c:	9303      	str	r3, [sp, #12]
  40425e:	465e      	mov	r6, fp
  404260:	ab25      	add	r3, sp, #148	; 0x94

00404262 <.LVL8>:
  404262:	f8df a1dc 	ldr.w	sl, [pc, #476]	; 404440 <.LVL46+0x14>
  404266:	f8dd b044 	ldr.w	fp, [sp, #68]	; 0x44

0040426a <.LVL9>:
  40426a:	9322      	str	r3, [sp, #136]	; 0x88
  40426c:	4699      	mov	r9, r3

0040426e <.LVL10>:
  40426e:	7833      	ldrb	r3, [r6, #0]
  404270:	4634      	mov	r4, r6
  404272:	b1e3      	cbz	r3, 4042ae <.LVL18>
  404274:	2b25      	cmp	r3, #37	; 0x25
  404276:	d102      	bne.n	40427e <.LVL12>
  404278:	e019      	b.n	4042ae <.LVL18>

0040427a <.LVL11>:
  40427a:	2b25      	cmp	r3, #37	; 0x25
  40427c:	d003      	beq.n	404286 <.LVL14>

0040427e <.LVL12>:
  40427e:	f814 3f01 	ldrb.w	r3, [r4, #1]!

00404282 <.LVL13>:
  404282:	2b00      	cmp	r3, #0
  404284:	d1f9      	bne.n	40427a <.LVL11>

00404286 <.LVL14>:
  404286:	1ba5      	subs	r5, r4, r6
  404288:	b18d      	cbz	r5, 4042ae <.LVL18>
  40428a:	9b23      	ldr	r3, [sp, #140]	; 0x8c
  40428c:	9a24      	ldr	r2, [sp, #144]	; 0x90
  40428e:	f8c9 6000 	str.w	r6, [r9]
  404292:	3301      	adds	r3, #1
  404294:	442a      	add	r2, r5
  404296:	2b07      	cmp	r3, #7
  404298:	f8c9 5004 	str.w	r5, [r9, #4]
  40429c:	9224      	str	r2, [sp, #144]	; 0x90

0040429e <.LVL15>:
  40429e:	9323      	str	r3, [sp, #140]	; 0x8c
  4042a0:	f300 809d 	bgt.w	4043de <.LVL36>

004042a4 <.LVL16>:
  4042a4:	f109 0908 	add.w	r9, r9, #8

004042a8 <.LVL17>:
  4042a8:	9b03      	ldr	r3, [sp, #12]
  4042aa:	442b      	add	r3, r5
  4042ac:	9303      	str	r3, [sp, #12]

004042ae <.LVL18>:
  4042ae:	7823      	ldrb	r3, [r4, #0]
  4042b0:	2b00      	cmp	r3, #0
  4042b2:	f001 80ca 	beq.w	40544a <.LDL1>

004042b6 <.LVL19>:
  4042b6:	2300      	movs	r3, #0
  4042b8:	f04f 32ff 	mov.w	r2, #4294967295
  4042bc:	4698      	mov	r8, r3
  4042be:	9307      	str	r3, [sp, #28]
  4042c0:	f88d 306b 	strb.w	r3, [sp, #107]	; 0x6b
  4042c4:	1c67      	adds	r7, r4, #1

004042c6 <.LVL20>:
  4042c6:	7863      	ldrb	r3, [r4, #1]
  4042c8:	9204      	str	r2, [sp, #16]
  4042ca:	242b      	movs	r4, #43	; 0x2b

004042cc <.LVL21>:
  4042cc:	2520      	movs	r5, #32

004042ce <.LVL22>:
  4042ce:	3701      	adds	r7, #1
  4042d0:	f1a3 0220 	sub.w	r2, r3, #32
  4042d4:	2a5a      	cmp	r2, #90	; 0x5a
  4042d6:	f200 83e4 	bhi.w	404aa2 <.LVL218>
  4042da:	e8df f012 	tbh	[pc, r2, lsl #1]
  4042de:	02a5      	.short	0x02a5
  4042e0:	03e203e2 	.word	0x03e203e2
  4042e4:	03e202ae 	.word	0x03e202ae
  4042e8:	03e203e2 	.word	0x03e203e2
  4042ec:	03e2005f 	.word	0x03e2005f
  4042f0:	02b203e2 	.word	0x02b203e2
  4042f4:	03e202bf 	.word	0x03e202bf
  4042f8:	02cd007c 	.word	0x02cd007c
  4042fc:	02e703e2 	.word	0x02e703e2
  404300:	03d203d2 	.word	0x03d203d2
  404304:	03d203d2 	.word	0x03d203d2
  404308:	03d203d2 	.word	0x03d203d2
  40430c:	03d203d2 	.word	0x03d203d2
  404310:	03e203d2 	.word	0x03e203d2
  404314:	03e203e2 	.word	0x03e203e2
  404318:	03e203e2 	.word	0x03e203e2
  40431c:	03e203e2 	.word	0x03e203e2
  404320:	03e2034a 	.word	0x03e2034a
  404324:	0392037c 	.word	0x0392037c
  404328:	034a034a 	.word	0x034a034a
  40432c:	03e2034a 	.word	0x03e2034a
  404330:	03e203e2 	.word	0x03e203e2
  404334:	02eb03e2 	.word	0x02eb03e2
  404338:	03e203e2 	.word	0x03e203e2
  40433c:	03e202ef 	.word	0x03e202ef
  404340:	03e203e2 	.word	0x03e203e2
  404344:	03e20300 	.word	0x03e20300
  404348:	03e20327 	.word	0x03e20327
  40434c:	029403e2 	.word	0x029403e2
  404350:	03e203e2 	.word	0x03e203e2
  404354:	03e203e2 	.word	0x03e203e2
  404358:	03e203e2 	.word	0x03e203e2
  40435c:	03e203e2 	.word	0x03e203e2
  404360:	03e2034a 	.word	0x03e2034a
  404364:	0254037c 	.word	0x0254037c
  404368:	034a034a 	.word	0x034a034a
  40436c:	02c3034a 	.word	0x02c3034a
  404370:	005b0254 	.word	0x005b0254
  404374:	03b003e2 	.word	0x03b003e2
  404378:	03ba03e2 	.word	0x03ba03e2
  40437c:	03380223 	.word	0x03380223
  404380:	03e2005b 	.word	0x03e2005b
  404384:	00760300 	.word	0x00760300
  404388:	03e2023e 	.word	0x03e2023e
  40438c:	00b303e2 	.word	0x00b303e2
  404390:	007603e2 	.word	0x007603e2
  404394:	f048 0820 	orr.w	r8, r8, #32
  404398:	783b      	ldrb	r3, [r7, #0]
  40439a:	e798      	b.n	4042ce <.LVL22>
  40439c:	4658      	mov	r0, fp
  40439e:	f009 f8e3 	bl	40d568 <_localeconv_r>

004043a2 <.LVL25>:
  4043a2:	6843      	ldr	r3, [r0, #4]
  4043a4:	9316      	str	r3, [sp, #88]	; 0x58

004043a6 <.LVL26>:
  4043a6:	4618      	mov	r0, r3
  4043a8:	f006 fcea 	bl	40ad80 <strlen>

004043ac <.LVL27>:
  4043ac:	9018      	str	r0, [sp, #96]	; 0x60

004043ae <.LVL28>:
  4043ae:	4658      	mov	r0, fp
  4043b0:	f009 f8da 	bl	40d568 <_localeconv_r>

004043b4 <.LVL29>:
  4043b4:	6883      	ldr	r3, [r0, #8]
  4043b6:	9312      	str	r3, [sp, #72]	; 0x48

004043b8 <.LVL30>:
  4043b8:	9b18      	ldr	r3, [sp, #96]	; 0x60

004043ba <.LVL31>:
  4043ba:	b133      	cbz	r3, 4043ca <.LVL32>
  4043bc:	9b12      	ldr	r3, [sp, #72]	; 0x48
  4043be:	b123      	cbz	r3, 4043ca <.LVL32>
  4043c0:	9b12      	ldr	r3, [sp, #72]	; 0x48
  4043c2:	781b      	ldrb	r3, [r3, #0]
  4043c4:	2b00      	cmp	r3, #0
  4043c6:	f041 8083 	bne.w	4054d0 <.LVL513>

004043ca <.LVL32>:
  4043ca:	783b      	ldrb	r3, [r7, #0]
  4043cc:	e77f      	b.n	4042ce <.LVL22>

004043ce <.LVL33>:
  4043ce:	9a07      	ldr	r2, [sp, #28]
  4043d0:	930a      	str	r3, [sp, #40]	; 0x28
  4043d2:	4252      	negs	r2, r2
  4043d4:	9207      	str	r2, [sp, #28]

004043d6 <.LVL34>:
  4043d6:	f048 0804 	orr.w	r8, r8, #4
  4043da:	783b      	ldrb	r3, [r7, #0]
  4043dc:	e777      	b.n	4042ce <.LVL22>

004043de <.LVL36>:
  4043de:	aa22      	add	r2, sp, #136	; 0x88
  4043e0:	9905      	ldr	r1, [sp, #20]
  4043e2:	4658      	mov	r0, fp
  4043e4:	f006 f986 	bl	40a6f4 <__ssprint_r>

004043e8 <.LVL37>:
  4043e8:	b980      	cbnz	r0, 40440c <.LVL44>

004043ea <.LVL38>:
  4043ea:	f10d 0994 	add.w	r9, sp, #148	; 0x94

004043ee <.LVL39>:
  4043ee:	e75b      	b.n	4042a8 <.LVL17>

004043f0 <.LVL40>:
  4043f0:	aa22      	add	r2, sp, #136	; 0x88

004043f2 <.LVL41>:
  4043f2:	9905      	ldr	r1, [sp, #20]
  4043f4:	4658      	mov	r0, fp
  4043f6:	f006 f97d 	bl	40a6f4 <__ssprint_r>

004043fa <.LVL42>:
  4043fa:	2800      	cmp	r0, #0
  4043fc:	f000 8182 	beq.w	404704 <.LVL119>

00404400 <.L189>:
  404400:	9b09      	ldr	r3, [sp, #36]	; 0x24
  404402:	b11b      	cbz	r3, 40440c <.LVL44>
  404404:	9909      	ldr	r1, [sp, #36]	; 0x24
  404406:	9811      	ldr	r0, [sp, #68]	; 0x44
  404408:	f005 f93a 	bl	409680 <.LFE174>

0040440c <.LVL44>:
  40440c:	9b05      	ldr	r3, [sp, #20]
  40440e:	f9b3 300c 	ldrsh.w	r3, [r3, #12]
  404412:	f013 0f40 	tst.w	r3, #64	; 0x40
  404416:	9b03      	ldr	r3, [sp, #12]
  404418:	bf18      	it	ne
  40441a:	f04f 33ff 	movne.w	r3, #4294967295
  40441e:	9303      	str	r3, [sp, #12]

00404420 <.LVL45>:
  404420:	9803      	ldr	r0, [sp, #12]
  404422:	b04f      	add	sp, #316	; 0x13c

00404424 <.LCFI3>:
  404424:	ecbd 8b06 	vpop	{d8-d10}

00404428 <.LCFI4>:
  404428:	e8bd 8ff0 	ldmia.w	sp!, {r4, r5, r6, r7, r8, r9, sl, fp, pc}

0040442c <.LVL46>:
  40442c:	f3af 8000 	nop.w
	...
  404438:	ffffffff 	.word	0xffffffff
  40443c:	7fefffff 	.word	0x7fefffff
  404440:	0040d8c4 	.word	0x0040d8c4

00404444 <.L45>:
  404444:	930d      	str	r3, [sp, #52]	; 0x34
  404446:	f018 0f20 	tst.w	r8, #32
  40444a:	4bb4      	ldr	r3, [pc, #720]	; (40471c <.LVL122+0x4>)
  40444c:	9314      	str	r3, [sp, #80]	; 0x50

0040444e <.LVL48>:
  40444e:	f040 81e1 	bne.w	404814 <.LVL150>
  404452:	9a0a      	ldr	r2, [sp, #40]	; 0x28
  404454:	f018 0f10 	tst.w	r8, #16
  404458:	4613      	mov	r3, r2
  40445a:	f040 859d 	bne.w	404f98 <.LVL365>
  40445e:	f018 0f40 	tst.w	r8, #64	; 0x40
  404462:	f041 801d 	bne.w	4054a0 <.LVL506>
  404466:	f418 7f00 	tst.w	r8, #512	; 0x200
  40446a:	f000 8595 	beq.w	404f98 <.LVL365>

0040446e <.LVL49>:
  40446e:	3304      	adds	r3, #4

00404470 <.LVL50>:
  404470:	7814      	ldrb	r4, [r2, #0]
  404472:	930a      	str	r3, [sp, #40]	; 0x28
  404474:	2500      	movs	r5, #0

00404476 <.LVL51>:
  404476:	f018 0f01 	tst.w	r8, #1
  40447a:	d00b      	beq.n	404494 <.LVL51+0x1e>
  40447c:	ea54 0305 	orrs.w	r3, r4, r5
  404480:	d008      	beq.n	404494 <.LVL51+0x1e>
  404482:	2330      	movs	r3, #48	; 0x30
  404484:	f89d 2034 	ldrb.w	r2, [sp, #52]	; 0x34
  404488:	f88d 206d 	strb.w	r2, [sp, #109]	; 0x6d
  40448c:	f048 0802 	orr.w	r8, r8, #2
  404490:	f88d 306c 	strb.w	r3, [sp, #108]	; 0x6c
  404494:	f428 6180 	bic.w	r1, r8, #1024	; 0x400

00404498 <.LVL53>:
  404498:	2302      	movs	r3, #2

0040449a <.L150>:
  40449a:	2200      	movs	r2, #0
  40449c:	f88d 206b 	strb.w	r2, [sp, #107]	; 0x6b

004044a0 <.L65>:
  4044a0:	9804      	ldr	r0, [sp, #16]
  4044a2:	1c42      	adds	r2, r0, #1
  4044a4:	f000 8190 	beq.w	4047c8 <.LVL139>

004044a8 <.LVL56>:
  4044a8:	ea54 0205 	orrs.w	r2, r4, r5
  4044ac:	f021 0880 	bic.w	r8, r1, #128	; 0x80

004044b0 <.LVL57>:
  4044b0:	f040 818f 	bne.w	4047d2 <.LVL140>
  4044b4:	2800      	cmp	r0, #0
  4044b6:	f040 8409 	bne.w	404ccc <.LVL271>
  4044ba:	2b00      	cmp	r3, #0
  4044bc:	f040 84a2 	bne.w	404e04 <.LBE13>
  4044c0:	f011 0301 	ands.w	r3, r1, #1

004044c4 <.LVL58>:
  4044c4:	ae4e      	add	r6, sp, #312	; 0x138

004044c6 <.LVL59>:
  4044c6:	9308      	str	r3, [sp, #32]
  4044c8:	d002      	beq.n	4044d0 <.LVL61>

004044ca <.LVL60>:
  4044ca:	2330      	movs	r3, #48	; 0x30
  4044cc:	f806 3d01 	strb.w	r3, [r6, #-1]!

004044d0 <.LVL61>:
  4044d0:	2300      	movs	r3, #0
  4044d2:	9a08      	ldr	r2, [sp, #32]
  4044d4:	9309      	str	r3, [sp, #36]	; 0x24
  4044d6:	9313      	str	r3, [sp, #76]	; 0x4c
  4044d8:	9310      	str	r3, [sp, #64]	; 0x40
  4044da:	930e      	str	r3, [sp, #56]	; 0x38
  4044dc:	9b04      	ldr	r3, [sp, #16]
  4044de:	4293      	cmp	r3, r2
  4044e0:	bfb8      	it	lt
  4044e2:	4613      	movlt	r3, r2
  4044e4:	f89d 206b 	ldrb.w	r2, [sp, #107]	; 0x6b
  4044e8:	9302      	str	r3, [sp, #8]

004044ea <.L59>:
  4044ea:	b112      	cbz	r2, 4044f2 <.LVL64>

004044ec <.LVL63>:
  4044ec:	9b02      	ldr	r3, [sp, #8]
  4044ee:	3301      	adds	r3, #1
  4044f0:	9302      	str	r3, [sp, #8]

004044f2 <.LVL64>:
  4044f2:	f018 0302 	ands.w	r3, r8, #2
  4044f6:	930b      	str	r3, [sp, #44]	; 0x2c
  4044f8:	d002      	beq.n	404500 <.LVL64+0xe>
  4044fa:	9b02      	ldr	r3, [sp, #8]
  4044fc:	3302      	adds	r3, #2
  4044fe:	9302      	str	r3, [sp, #8]
  404500:	f018 0384 	ands.w	r3, r8, #132	; 0x84
  404504:	930c      	str	r3, [sp, #48]	; 0x30
  404506:	f040 82ea 	bne.w	404ade <.LVL227>
  40450a:	9b07      	ldr	r3, [sp, #28]
  40450c:	9902      	ldr	r1, [sp, #8]
  40450e:	1a5c      	subs	r4, r3, r1

00404510 <.LVL66>:
  404510:	2c00      	cmp	r4, #0
  404512:	f340 82e4 	ble.w	404ade <.LVL227>
  404516:	2c10      	cmp	r4, #16
  404518:	9924      	ldr	r1, [sp, #144]	; 0x90
  40451a:	9a23      	ldr	r2, [sp, #140]	; 0x8c
  40451c:	4d80      	ldr	r5, [pc, #512]	; (404720 <.LVL122+0x8>)
  40451e:	dd25      	ble.n	40456c <.LVL80>
  404520:	4648      	mov	r0, r9
  404522:	2310      	movs	r3, #16
  404524:	46c1      	mov	r9, r8
  404526:	46b0      	mov	r8, r6

00404528 <.LVL67>:
  404528:	9e05      	ldr	r6, [sp, #20]
  40452a:	e004      	b.n	404536 <.LVL71>

0040452c <.LVL68>:
  40452c:	3c10      	subs	r4, #16

0040452e <.LVL69>:
  40452e:	2c10      	cmp	r4, #16
  404530:	f100 0008 	add.w	r0, r0, #8

00404534 <.LVL70>:
  404534:	dd17      	ble.n	404566 <.LVL79>

00404536 <.LVL71>:
  404536:	3201      	adds	r2, #1
  404538:	3110      	adds	r1, #16
  40453a:	2a07      	cmp	r2, #7
  40453c:	9124      	str	r1, [sp, #144]	; 0x90

0040453e <.LVL72>:
  40453e:	9223      	str	r2, [sp, #140]	; 0x8c
  404540:	6005      	str	r5, [r0, #0]
  404542:	6043      	str	r3, [r0, #4]
  404544:	ddf2      	ble.n	40452c <.LVL68>
  404546:	aa22      	add	r2, sp, #136	; 0x88
  404548:	4631      	mov	r1, r6
  40454a:	4658      	mov	r0, fp

0040454c <.LVL73>:
  40454c:	9306      	str	r3, [sp, #24]
  40454e:	f006 f8d1 	bl	40a6f4 <__ssprint_r>

00404552 <.LVL74>:
  404552:	2800      	cmp	r0, #0
  404554:	f47f af54 	bne.w	404400 <.L189>
  404558:	3c10      	subs	r4, #16

0040455a <.LVL75>:
  40455a:	2c10      	cmp	r4, #16
  40455c:	9924      	ldr	r1, [sp, #144]	; 0x90
  40455e:	9a23      	ldr	r2, [sp, #140]	; 0x8c

00404560 <.LVL76>:
  404560:	9b06      	ldr	r3, [sp, #24]

00404562 <.LVL77>:
  404562:	a825      	add	r0, sp, #148	; 0x94

00404564 <.LVL78>:
  404564:	dce7      	bgt.n	404536 <.LVL71>

00404566 <.LVL79>:
  404566:	4646      	mov	r6, r8
  404568:	46c8      	mov	r8, r9
  40456a:	4681      	mov	r9, r0

0040456c <.LVL80>:
  40456c:	3201      	adds	r2, #1
  40456e:	1863      	adds	r3, r4, r1
  404570:	2a07      	cmp	r2, #7
  404572:	9324      	str	r3, [sp, #144]	; 0x90
  404574:	9223      	str	r2, [sp, #140]	; 0x8c
  404576:	f8c9 5000 	str.w	r5, [r9]
  40457a:	f8c9 4004 	str.w	r4, [r9, #4]
  40457e:	f300 848f 	bgt.w	404ea0 <.LVL333>

00404582 <.LVL81>:
  404582:	f89d 206b 	ldrb.w	r2, [sp, #107]	; 0x6b
  404586:	f109 0908 	add.w	r9, r9, #8

0040458a <.LVL82>:
  40458a:	b172      	cbz	r2, 4045aa <.LVL84>
  40458c:	9a23      	ldr	r2, [sp, #140]	; 0x8c
  40458e:	3201      	adds	r2, #1
  404590:	3301      	adds	r3, #1
  404592:	f10d 006b 	add.w	r0, sp, #107	; 0x6b
  404596:	2101      	movs	r1, #1
  404598:	2a07      	cmp	r2, #7
  40459a:	9324      	str	r3, [sp, #144]	; 0x90
  40459c:	9223      	str	r2, [sp, #140]	; 0x8c
  40459e:	e889 0003 	stmia.w	r9, {r0, r1}
  4045a2:	f300 83a9 	bgt.w	404cf8 <.LVL278>

004045a6 <.LVL83>:
  4045a6:	f109 0908 	add.w	r9, r9, #8

004045aa <.LVL84>:
  4045aa:	9a0b      	ldr	r2, [sp, #44]	; 0x2c
  4045ac:	b16a      	cbz	r2, 4045ca <.LVL86>
  4045ae:	9a23      	ldr	r2, [sp, #140]	; 0x8c
  4045b0:	3201      	adds	r2, #1
  4045b2:	3302      	adds	r3, #2
  4045b4:	a81b      	add	r0, sp, #108	; 0x6c
  4045b6:	2102      	movs	r1, #2
  4045b8:	2a07      	cmp	r2, #7
  4045ba:	9324      	str	r3, [sp, #144]	; 0x90
  4045bc:	9223      	str	r2, [sp, #140]	; 0x8c
  4045be:	e889 0003 	stmia.w	r9, {r0, r1}
  4045c2:	f300 83a5 	bgt.w	404d10 <.LVL282>

004045c6 <.LVL85>:
  4045c6:	f109 0908 	add.w	r9, r9, #8

004045ca <.LVL86>:
  4045ca:	9a0c      	ldr	r2, [sp, #48]	; 0x30
  4045cc:	2a80      	cmp	r2, #128	; 0x80
  4045ce:	f000 82eb 	beq.w	404ba8 <.LVL243>
  4045d2:	9a04      	ldr	r2, [sp, #16]
  4045d4:	9908      	ldr	r1, [sp, #32]
  4045d6:	1a54      	subs	r4, r2, r1

004045d8 <.LVL87>:
  4045d8:	2c00      	cmp	r4, #0
  4045da:	dd36      	ble.n	40464a <.LVL102>
  4045dc:	2c10      	cmp	r4, #16
  4045de:	9a23      	ldr	r2, [sp, #140]	; 0x8c
  4045e0:	dd26      	ble.n	404630 <.LVL100>
  4045e2:	4649      	mov	r1, r9
  4045e4:	2510      	movs	r5, #16
  4045e6:	46a1      	mov	r9, r4
  4045e8:	9c05      	ldr	r4, [sp, #20]

004045ea <.LVL88>:
  4045ea:	e006      	b.n	4045fa <.LVL92>

004045ec <.LVL89>:
  4045ec:	f1a9 0910 	sub.w	r9, r9, #16

004045f0 <.LVL90>:
  4045f0:	f1b9 0f10 	cmp.w	r9, #16
  4045f4:	f101 0108 	add.w	r1, r1, #8

004045f8 <.LVL91>:
  4045f8:	dd18      	ble.n	40462c <.LVL99>

004045fa <.LVL92>:
  4045fa:	3201      	adds	r2, #1
  4045fc:	3310      	adds	r3, #16
  4045fe:	2a07      	cmp	r2, #7
  404600:	9324      	str	r3, [sp, #144]	; 0x90

00404602 <.LVL93>:
  404602:	9223      	str	r2, [sp, #140]	; 0x8c
  404604:	f8c1 a000 	str.w	sl, [r1]
  404608:	604d      	str	r5, [r1, #4]
  40460a:	ddef      	ble.n	4045ec <.LVL89>
  40460c:	aa22      	add	r2, sp, #136	; 0x88
  40460e:	4621      	mov	r1, r4

00404610 <.LVL94>:
  404610:	4658      	mov	r0, fp
  404612:	f006 f86f 	bl	40a6f4 <__ssprint_r>

00404616 <.LVL95>:
  404616:	2800      	cmp	r0, #0
  404618:	f47f aef2 	bne.w	404400 <.L189>
  40461c:	f1a9 0910 	sub.w	r9, r9, #16

00404620 <.LVL96>:
  404620:	f1b9 0f10 	cmp.w	r9, #16
  404624:	9b24      	ldr	r3, [sp, #144]	; 0x90
  404626:	9a23      	ldr	r2, [sp, #140]	; 0x8c

00404628 <.LVL97>:
  404628:	a925      	add	r1, sp, #148	; 0x94

0040462a <.LVL98>:
  40462a:	dce6      	bgt.n	4045fa <.LVL92>

0040462c <.LVL99>:
  40462c:	464c      	mov	r4, r9
  40462e:	4689      	mov	r9, r1

00404630 <.LVL100>:
  404630:	3201      	adds	r2, #1
  404632:	4423      	add	r3, r4
  404634:	2a07      	cmp	r2, #7
  404636:	9324      	str	r3, [sp, #144]	; 0x90
  404638:	9223      	str	r2, [sp, #140]	; 0x8c
  40463a:	f8c9 a000 	str.w	sl, [r9]
  40463e:	f8c9 4004 	str.w	r4, [r9, #4]
  404642:	f300 834d 	bgt.w	404ce0 <.LVL274>

00404646 <.LVL101>:
  404646:	f109 0908 	add.w	r9, r9, #8

0040464a <.LVL102>:
  40464a:	f418 7f80 	tst.w	r8, #256	; 0x100
  40464e:	f040 824f 	bne.w	404af0 <.LVL228>
  404652:	9a23      	ldr	r2, [sp, #140]	; 0x8c
  404654:	9808      	ldr	r0, [sp, #32]
  404656:	f8c9 6000 	str.w	r6, [r9]
  40465a:	3201      	adds	r2, #1
  40465c:	4403      	add	r3, r0
  40465e:	2a07      	cmp	r2, #7
  404660:	9324      	str	r3, [sp, #144]	; 0x90
  404662:	f8c9 0004 	str.w	r0, [r9, #4]
  404666:	9223      	str	r2, [sp, #140]	; 0x8c
  404668:	f300 8324 	bgt.w	404cb4 <.LVL269>

0040466c <.LVL103>:
  40466c:	f109 0908 	add.w	r9, r9, #8

00404670 <.LVL104>:
  404670:	f018 0f04 	tst.w	r8, #4
  404674:	d03b      	beq.n	4046ee <.LVL117>
  404676:	9a07      	ldr	r2, [sp, #28]
  404678:	9902      	ldr	r1, [sp, #8]
  40467a:	1a54      	subs	r4, r2, r1

0040467c <.LVL105>:
  40467c:	2c00      	cmp	r4, #0
  40467e:	dd36      	ble.n	4046ee <.LVL117>
  404680:	2c10      	cmp	r4, #16
  404682:	9a23      	ldr	r2, [sp, #140]	; 0x8c
  404684:	4d26      	ldr	r5, [pc, #152]	; (404720 <.LVL122+0x8>)
  404686:	dd1f      	ble.n	4046c8 <.LVL115>
  404688:	2610      	movs	r6, #16
  40468a:	f8dd 8014 	ldr.w	r8, [sp, #20]
  40468e:	e004      	b.n	40469a <.LVL109>

00404690 <.LVL106>:
  404690:	3c10      	subs	r4, #16

00404692 <.LVL107>:
  404692:	2c10      	cmp	r4, #16
  404694:	f109 0908 	add.w	r9, r9, #8

00404698 <.LVL108>:
  404698:	dd16      	ble.n	4046c8 <.LVL115>

0040469a <.LVL109>:
  40469a:	3201      	adds	r2, #1
  40469c:	3310      	adds	r3, #16
  40469e:	2a07      	cmp	r2, #7
  4046a0:	9324      	str	r3, [sp, #144]	; 0x90

004046a2 <.LVL110>:
  4046a2:	9223      	str	r2, [sp, #140]	; 0x8c
  4046a4:	e889 0060 	stmia.w	r9, {r5, r6}
  4046a8:	ddf2      	ble.n	404690 <.LVL106>
  4046aa:	aa22      	add	r2, sp, #136	; 0x88
  4046ac:	4641      	mov	r1, r8
  4046ae:	4658      	mov	r0, fp
  4046b0:	f006 f820 	bl	40a6f4 <__ssprint_r>

004046b4 <.LVL111>:
  4046b4:	2800      	cmp	r0, #0
  4046b6:	f47f aea3 	bne.w	404400 <.L189>
  4046ba:	3c10      	subs	r4, #16

004046bc <.LVL112>:
  4046bc:	2c10      	cmp	r4, #16
  4046be:	9b24      	ldr	r3, [sp, #144]	; 0x90
  4046c0:	9a23      	ldr	r2, [sp, #140]	; 0x8c

004046c2 <.LVL113>:
  4046c2:	f10d 0994 	add.w	r9, sp, #148	; 0x94

004046c6 <.LVL114>:
  4046c6:	dce8      	bgt.n	40469a <.LVL109>

004046c8 <.LVL115>:
  4046c8:	3201      	adds	r2, #1
  4046ca:	4423      	add	r3, r4
  4046cc:	2a07      	cmp	r2, #7
  4046ce:	9324      	str	r3, [sp, #144]	; 0x90
  4046d0:	9223      	str	r2, [sp, #140]	; 0x8c
  4046d2:	f8c9 5000 	str.w	r5, [r9]
  4046d6:	f8c9 4004 	str.w	r4, [r9, #4]
  4046da:	dd08      	ble.n	4046ee <.LVL117>
  4046dc:	aa22      	add	r2, sp, #136	; 0x88
  4046de:	9905      	ldr	r1, [sp, #20]
  4046e0:	4658      	mov	r0, fp
  4046e2:	f006 f807 	bl	40a6f4 <__ssprint_r>

004046e6 <.LVL116>:
  4046e6:	2800      	cmp	r0, #0
  4046e8:	f47f ae8a 	bne.w	404400 <.L189>
  4046ec:	9b24      	ldr	r3, [sp, #144]	; 0x90

004046ee <.LVL117>:
  4046ee:	9a03      	ldr	r2, [sp, #12]
  4046f0:	9907      	ldr	r1, [sp, #28]
  4046f2:	9802      	ldr	r0, [sp, #8]
  4046f4:	4281      	cmp	r1, r0
  4046f6:	bfac      	ite	ge
  4046f8:	1852      	addge	r2, r2, r1
  4046fa:	1812      	addlt	r2, r2, r0
  4046fc:	9203      	str	r2, [sp, #12]

004046fe <.LVL118>:
  4046fe:	2b00      	cmp	r3, #0
  404700:	f47f ae76 	bne.w	4043f0 <.LVL40>

00404704 <.LVL119>:
  404704:	2300      	movs	r3, #0
  404706:	9323      	str	r3, [sp, #140]	; 0x8c

00404708 <.LVL120>:
  404708:	9b09      	ldr	r3, [sp, #36]	; 0x24
  40470a:	b11b      	cbz	r3, 404714 <.LVL121>
  40470c:	9909      	ldr	r1, [sp, #36]	; 0x24
  40470e:	4658      	mov	r0, fp
  404710:	f004 ffb6 	bl	409680 <.LFE174>

00404714 <.LVL121>:
  404714:	f10d 0994 	add.w	r9, sp, #148	; 0x94

00404718 <.LVL122>:
  404718:	463e      	mov	r6, r7
  40471a:	e5a8      	b.n	40426e <.LVL10>
  40471c:	0040cdbc 	.word	0x0040cdbc
  404720:	0040d8b4 	.word	0x0040d8b4

00404724 <.LVL123>:
  404724:	f018 0f20 	tst.w	r8, #32
  404728:	930d      	str	r3, [sp, #52]	; 0x34
  40472a:	f040 80ce 	bne.w	4048ca <.LVL168+0x1e>
  40472e:	9a0a      	ldr	r2, [sp, #40]	; 0x28
  404730:	f018 0f10 	tst.w	r8, #16
  404734:	4613      	mov	r3, r2
  404736:	f040 8419 	bne.w	404f6c <.LVL358>
  40473a:	f018 0f40 	tst.w	r8, #64	; 0x40
  40473e:	f040 86a2 	bne.w	405486 <.LVL502>
  404742:	f418 7f00 	tst.w	r8, #512	; 0x200
  404746:	f000 8411 	beq.w	404f6c <.LVL358>

0040474a <.LVL124>:
  40474a:	3304      	adds	r3, #4

0040474c <.LVL125>:
  40474c:	7814      	ldrb	r4, [r2, #0]
  40474e:	930a      	str	r3, [sp, #40]	; 0x28
  404750:	2500      	movs	r5, #0

00404752 <.LVL126>:
  404752:	f428 6180 	bic.w	r1, r8, #1024	; 0x400

00404756 <.LVL127>:
  404756:	2300      	movs	r3, #0
  404758:	e69f      	b.n	40449a <.L150>

0040475a <.LVL128>:
  40475a:	4641      	mov	r1, r8

0040475c <.LVL129>:
  40475c:	068e      	lsls	r6, r1, #26

0040475e <.LVL130>:
  40475e:	930d      	str	r3, [sp, #52]	; 0x34
  404760:	f100 80ea 	bmi.w	404938 <.LVL180+0x6>
  404764:	9a0a      	ldr	r2, [sp, #40]	; 0x28
  404766:	06cd      	lsls	r5, r1, #27
  404768:	4613      	mov	r3, r2
  40476a:	f100 8405 	bmi.w	404f78 <.LVL360>
  40476e:	064c      	lsls	r4, r1, #25
  404770:	f100 868f 	bmi.w	405492 <.LVL504>
  404774:	0588      	lsls	r0, r1, #22
  404776:	f140 83ff 	bpl.w	404f78 <.LVL360>

0040477a <.LVL131>:
  40477a:	7814      	ldrb	r4, [r2, #0]
  40477c:	3204      	adds	r2, #4

0040477e <.LVL132>:
  40477e:	2500      	movs	r5, #0
  404780:	2301      	movs	r3, #1
  404782:	920a      	str	r2, [sp, #40]	; 0x28
  404784:	e689      	b.n	40449a <.L150>

00404786 <.LVL133>:
  404786:	4641      	mov	r1, r8

00404788 <.LVL134>:
  404788:	068c      	lsls	r4, r1, #26
  40478a:	930d      	str	r3, [sp, #52]	; 0x34
  40478c:	f100 813f 	bmi.w	404a0e <.LVL198+0x8>
  404790:	06c8      	lsls	r0, r1, #27
  404792:	f100 83f8 	bmi.w	404f86 <.LVL362>
  404796:	064a      	lsls	r2, r1, #25
  404798:	f100 8688 	bmi.w	4054ac <.LVL508>
  40479c:	058b      	lsls	r3, r1, #22
  40479e:	f140 83f2 	bpl.w	404f86 <.LVL362>

004047a2 <.LVL135>:
  4047a2:	980a      	ldr	r0, [sp, #40]	; 0x28
  4047a4:	f990 4000 	ldrsb.w	r4, [r0]

004047a8 <.LVL136>:
  4047a8:	17e5      	asrs	r5, r4, #31
  4047aa:	3004      	adds	r0, #4
  4047ac:	4622      	mov	r2, r4
  4047ae:	462b      	mov	r3, r5
  4047b0:	900a      	str	r0, [sp, #40]	; 0x28

004047b2 <.LVL137>:
  4047b2:	2a00      	cmp	r2, #0
  4047b4:	f173 0300 	sbcs.w	r3, r3, #0
  4047b8:	f2c0 8139 	blt.w	404a2e <.LVL201>
  4047bc:	9804      	ldr	r0, [sp, #16]
  4047be:	1c42      	adds	r2, r0, #1
  4047c0:	f04f 0301 	mov.w	r3, #1

004047c4 <.LVL138>:
  4047c4:	f47f ae70 	bne.w	4044a8 <.LVL56>

004047c8 <.LVL139>:
  4047c8:	ea54 0205 	orrs.w	r2, r4, r5
  4047cc:	f000 827f 	beq.w	404cce <.LVL272>
  4047d0:	4688      	mov	r8, r1

004047d2 <.LVL140>:
  4047d2:	2b01      	cmp	r3, #1
  4047d4:	f000 831e 	beq.w	404e14 <.LVL316>
  4047d8:	2b02      	cmp	r3, #2
  4047da:	f040 82a8 	bne.w	404d2e <.LVL288>

004047de <.LVL141>:
  4047de:	9814      	ldr	r0, [sp, #80]	; 0x50

004047e0 <.LVL142>:
  4047e0:	ae4e      	add	r6, sp, #312	; 0x138

004047e2 <.LVL143>:
  4047e2:	0923      	lsrs	r3, r4, #4
  4047e4:	f004 010f 	and.w	r1, r4, #15
  4047e8:	ea43 7305 	orr.w	r3, r3, r5, lsl #28
  4047ec:	092a      	lsrs	r2, r5, #4
  4047ee:	461c      	mov	r4, r3

004047f0 <.LVL144>:
  4047f0:	4615      	mov	r5, r2

004047f2 <.LVL145>:
  4047f2:	5c43      	ldrb	r3, [r0, r1]
  4047f4:	f806 3d01 	strb.w	r3, [r6, #-1]!

004047f8 <.LVL146>:
  4047f8:	ea54 0305 	orrs.w	r3, r4, r5
  4047fc:	d1f1      	bne.n	4047e2 <.LVL143>

004047fe <.LVL147>:
  4047fe:	ab4e      	add	r3, sp, #312	; 0x138
  404800:	1b9b      	subs	r3, r3, r6
  404802:	9308      	str	r3, [sp, #32]
  404804:	e664      	b.n	4044d0 <.LVL61>

00404806 <.LVL148>:
  404806:	930d      	str	r3, [sp, #52]	; 0x34
  404808:	f018 0f20 	tst.w	r8, #32
  40480c:	4bb5      	ldr	r3, [pc, #724]	; (404ae4 <.LVL227+0x6>)
  40480e:	9314      	str	r3, [sp, #80]	; 0x50

00404810 <.LVL149>:
  404810:	f43f ae1f 	beq.w	404452 <.LVL48+0x4>

00404814 <.LVL150>:
  404814:	9d0a      	ldr	r5, [sp, #40]	; 0x28
  404816:	3507      	adds	r5, #7
  404818:	f025 0307 	bic.w	r3, r5, #7
  40481c:	f103 0208 	add.w	r2, r3, #8
  404820:	920a      	str	r2, [sp, #40]	; 0x28

00404822 <.LVL151>:
  404822:	e9d3 4500 	ldrd	r4, r5, [r3]
  404826:	e626      	b.n	404476 <.LVL51>

00404828 <.LVL152>:
  404828:	f89d 306b 	ldrb.w	r3, [sp, #107]	; 0x6b
  40482c:	2b00      	cmp	r3, #0
  40482e:	f47f adcc 	bne.w	4043ca <.LVL32>
  404832:	f88d 506b 	strb.w	r5, [sp, #107]	; 0x6b
  404836:	783b      	ldrb	r3, [r7, #0]
  404838:	e549      	b.n	4042ce <.LVL22>
  40483a:	f048 0801 	orr.w	r8, r8, #1
  40483e:	783b      	ldrb	r3, [r7, #0]
  404840:	e545      	b.n	4042ce <.LVL22>
  404842:	990a      	ldr	r1, [sp, #40]	; 0x28
  404844:	680b      	ldr	r3, [r1, #0]
  404846:	9307      	str	r3, [sp, #28]
  404848:	461a      	mov	r2, r3
  40484a:	2a00      	cmp	r2, #0
  40484c:	460b      	mov	r3, r1
  40484e:	f103 0304 	add.w	r3, r3, #4

00404852 <.LVL154>:
  404852:	f6ff adbc 	blt.w	4043ce <.LVL33>
  404856:	930a      	str	r3, [sp, #40]	; 0x28
  404858:	783b      	ldrb	r3, [r7, #0]

0040485a <.LVL155>:
  40485a:	e538      	b.n	4042ce <.LVL22>
  40485c:	f88d 406b 	strb.w	r4, [sp, #107]	; 0x6b
  404860:	783b      	ldrb	r3, [r7, #0]
  404862:	e534      	b.n	4042ce <.LVL22>

00404864 <.LVL156>:
  404864:	783b      	ldrb	r3, [r7, #0]
  404866:	2b68      	cmp	r3, #104	; 0x68
  404868:	bf03      	ittte	eq
  40486a:	787b      	ldrbeq	r3, [r7, #1]
  40486c:	f448 7800 	orreq.w	r8, r8, #512	; 0x200
  404870:	3701      	addeq	r7, #1

00404872 <.LVL158>:
  404872:	f048 0840 	orrne.w	r8, r8, #64	; 0x40
  404876:	e52a      	b.n	4042ce <.LVL22>

00404878 <.LVL160>:
  404878:	783b      	ldrb	r3, [r7, #0]
  40487a:	2b2a      	cmp	r3, #42	; 0x2a
  40487c:	f107 0101 	add.w	r1, r7, #1

00404880 <.LVL161>:
  404880:	f001 811c 	beq.w	405abc <.LVL687>

00404884 <.LVL162>:
  404884:	f1a3 0230 	sub.w	r2, r3, #48	; 0x30
  404888:	2a09      	cmp	r2, #9
  40488a:	460f      	mov	r7, r1
  40488c:	f201 804a 	bhi.w	405924 <.LVL637>
  404890:	2300      	movs	r3, #0

00404892 <.LVL163>:
  404892:	4619      	mov	r1, r3

00404894 <.LVL164>:
  404894:	f817 3b01 	ldrb.w	r3, [r7], #1

00404898 <.LVL165>:
  404898:	eb01 0181 	add.w	r1, r1, r1, lsl #2

0040489c <.LVL166>:
  40489c:	eb02 0141 	add.w	r1, r2, r1, lsl #1

004048a0 <.LVL167>:
  4048a0:	f1a3 0230 	sub.w	r2, r3, #48	; 0x30
  4048a4:	2a09      	cmp	r2, #9
  4048a6:	d9f5      	bls.n	404894 <.LVL164>
  4048a8:	9104      	str	r1, [sp, #16]
  4048aa:	e511      	b.n	4042d0 <.LVL22+0x2>

004048ac <.LVL168>:
  4048ac:	f048 0880 	orr.w	r8, r8, #128	; 0x80
  4048b0:	783b      	ldrb	r3, [r7, #0]
  4048b2:	e50c      	b.n	4042ce <.LVL22>
  4048b4:	f048 0808 	orr.w	r8, r8, #8
  4048b8:	783b      	ldrb	r3, [r7, #0]
  4048ba:	e508      	b.n	4042ce <.LVL22>
  4048bc:	f048 0810 	orr.w	r8, r8, #16
  4048c0:	f018 0f20 	tst.w	r8, #32
  4048c4:	930d      	str	r3, [sp, #52]	; 0x34
  4048c6:	f43f af32 	beq.w	40472e <.LVL123+0xa>
  4048ca:	9d0a      	ldr	r5, [sp, #40]	; 0x28
  4048cc:	3507      	adds	r5, #7
  4048ce:	f025 0307 	bic.w	r3, r5, #7
  4048d2:	f103 0208 	add.w	r2, r3, #8
  4048d6:	920a      	str	r2, [sp, #40]	; 0x28

004048d8 <.LVL172>:
  4048d8:	e9d3 4500 	ldrd	r4, r5, [r3]
  4048dc:	e739      	b.n	404752 <.LVL126>

004048de <.LVL173>:
  4048de:	9a0a      	ldr	r2, [sp, #40]	; 0x28
  4048e0:	930d      	str	r3, [sp, #52]	; 0x34
  4048e2:	6816      	ldr	r6, [r2, #0]

004048e4 <.LVL174>:
  4048e4:	2400      	movs	r4, #0
  4048e6:	f88d 406b 	strb.w	r4, [sp, #107]	; 0x6b
  4048ea:	1d15      	adds	r5, r2, #4

004048ec <.LVL175>:
  4048ec:	2e00      	cmp	r6, #0
  4048ee:	f000 873d 	beq.w	40576c <.LVL593>
  4048f2:	9a04      	ldr	r2, [sp, #16]
  4048f4:	1c53      	adds	r3, r2, #1
  4048f6:	f000 869b 	beq.w	405630 <.LVL549>

004048fa <.LBB11>:
  4048fa:	4621      	mov	r1, r4
  4048fc:	4630      	mov	r0, r6
  4048fe:	f006 ff17 	bl	40b730 <.LFE0>

00404902 <.LVL176>:
  404902:	9009      	str	r0, [sp, #36]	; 0x24
  404904:	2800      	cmp	r0, #0
  404906:	f000 8782 	beq.w	40580e <.LBB63>
  40490a:	9b09      	ldr	r3, [sp, #36]	; 0x24
  40490c:	9404      	str	r4, [sp, #16]
  40490e:	1b9b      	subs	r3, r3, r6
  404910:	461a      	mov	r2, r3
  404912:	ea22 72e2 	bic.w	r2, r2, r2, asr #31
  404916:	9308      	str	r3, [sp, #32]

00404918 <.LBE11>:
  404918:	950a      	str	r5, [sp, #40]	; 0x28

0040491a <.LBB12>:
  40491a:	4623      	mov	r3, r4
  40491c:	9202      	str	r2, [sp, #8]

0040491e <.LBE12>:
  40491e:	9309      	str	r3, [sp, #36]	; 0x24
  404920:	9313      	str	r3, [sp, #76]	; 0x4c
  404922:	9310      	str	r3, [sp, #64]	; 0x40
  404924:	930e      	str	r3, [sp, #56]	; 0x38
  404926:	f89d 206b 	ldrb.w	r2, [sp, #107]	; 0x6b
  40492a:	e5de      	b.n	4044ea <.L59>

0040492c <.LVL178>:
  40492c:	f048 0110 	orr.w	r1, r8, #16

00404930 <.LVL179>:
  404930:	068e      	lsls	r6, r1, #26

00404932 <.LVL180>:
  404932:	930d      	str	r3, [sp, #52]	; 0x34
  404934:	f57f af16 	bpl.w	404764 <.LVL130+0x6>
  404938:	9d0a      	ldr	r5, [sp, #40]	; 0x28
  40493a:	3507      	adds	r5, #7
  40493c:	f025 0307 	bic.w	r3, r5, #7
  404940:	f103 0208 	add.w	r2, r3, #8
  404944:	e9d3 4500 	ldrd	r4, r5, [r3]
  404948:	920a      	str	r2, [sp, #40]	; 0x28

0040494a <.LVL181>:
  40494a:	2301      	movs	r3, #1
  40494c:	e5a5      	b.n	40449a <.L150>

0040494e <.LVL182>:
  40494e:	980a      	ldr	r0, [sp, #40]	; 0x28
  404950:	4b65      	ldr	r3, [pc, #404]	; (404ae8 <.LVL227+0xa>)
  404952:	6804      	ldr	r4, [r0, #0]
  404954:	9314      	str	r3, [sp, #80]	; 0x50

00404956 <.LVL183>:
  404956:	2230      	movs	r2, #48	; 0x30
  404958:	2378      	movs	r3, #120	; 0x78
  40495a:	3004      	adds	r0, #4

0040495c <.LVL184>:
  40495c:	f88d 306d 	strb.w	r3, [sp, #109]	; 0x6d
  404960:	930d      	str	r3, [sp, #52]	; 0x34
  404962:	f048 0102 	orr.w	r1, r8, #2
  404966:	900a      	str	r0, [sp, #40]	; 0x28
  404968:	2500      	movs	r5, #0

0040496a <.LVL185>:
  40496a:	f88d 206c 	strb.w	r2, [sp, #108]	; 0x6c

0040496e <.LVL186>:
  40496e:	2302      	movs	r3, #2
  404970:	e593      	b.n	40449a <.L150>

00404972 <.LVL187>:
  404972:	9d0a      	ldr	r5, [sp, #40]	; 0x28
  404974:	930d      	str	r3, [sp, #52]	; 0x34
  404976:	f018 0f08 	tst.w	r8, #8
  40497a:	f105 0507 	add.w	r5, r5, #7
  40497e:	f000 84ed 	beq.w	40535c <.LVL468>
  404982:	f025 0307 	bic.w	r3, r5, #7
  404986:	ed93 8b00 	vldr	d8, [r3]

0040498a <.LVL188>:
  40498a:	f103 0208 	add.w	r2, r3, #8
  40498e:	920a      	str	r2, [sp, #40]	; 0x28

00404990 <.LVL189>:
  404990:	eeb0 7bc8 	vabs.f64	d7, d8
  404994:	eeb4 7b49 	vcmp.f64	d7, d9
  404998:	eef1 fa10 	vmrs	APSR_nzcv, fpscr
  40499c:	f340 8439 	ble.w	405212 <.LBE27>
  4049a0:	eeb5 8bc0 	vcmpe.f64	d8, #0.0
  4049a4:	eef1 fa10 	vmrs	APSR_nzcv, fpscr
  4049a8:	f100 86f0 	bmi.w	40578c <.LVL595>
  4049ac:	f89d 206b 	ldrb.w	r2, [sp, #107]	; 0x6b
  4049b0:	4e4e      	ldr	r6, [pc, #312]	; (404aec <.LVL227+0xe>)

004049b2 <.LVL190>:
  4049b2:	9c0d      	ldr	r4, [sp, #52]	; 0x34
  4049b4:	2303      	movs	r3, #3
  4049b6:	2100      	movs	r1, #0
  4049b8:	4618      	mov	r0, r3
  4049ba:	9302      	str	r3, [sp, #8]
  4049bc:	1f33      	subs	r3, r6, #4
  4049be:	9109      	str	r1, [sp, #36]	; 0x24
  4049c0:	f028 0880 	bic.w	r8, r8, #128	; 0x80

004049c4 <.LVL191>:
  4049c4:	2c47      	cmp	r4, #71	; 0x47
  4049c6:	bfd8      	it	le
  4049c8:	461e      	movle	r6, r3

004049ca <.LVL192>:
  4049ca:	9008      	str	r0, [sp, #32]
  4049cc:	9104      	str	r1, [sp, #16]
  4049ce:	9113      	str	r1, [sp, #76]	; 0x4c
  4049d0:	9110      	str	r1, [sp, #64]	; 0x40
  4049d2:	910e      	str	r1, [sp, #56]	; 0x38
  4049d4:	e589      	b.n	4044ea <.L59>

004049d6 <.LVL193>:
  4049d6:	980a      	ldr	r0, [sp, #40]	; 0x28
  4049d8:	930d      	str	r3, [sp, #52]	; 0x34
  4049da:	6801      	ldr	r1, [r0, #0]
  4049dc:	f88d 10d4 	strb.w	r1, [sp, #212]	; 0xd4

004049e0 <.LVL194>:
  4049e0:	2300      	movs	r3, #0
  4049e2:	4601      	mov	r1, r0
  4049e4:	461a      	mov	r2, r3
  4049e6:	f88d 306b 	strb.w	r3, [sp, #107]	; 0x6b
  4049ea:	3104      	adds	r1, #4

004049ec <.LVL195>:
  4049ec:	2301      	movs	r3, #1
  4049ee:	9302      	str	r3, [sp, #8]
  4049f0:	9209      	str	r2, [sp, #36]	; 0x24
  4049f2:	9204      	str	r2, [sp, #16]
  4049f4:	9213      	str	r2, [sp, #76]	; 0x4c
  4049f6:	9210      	str	r2, [sp, #64]	; 0x40
  4049f8:	920e      	str	r2, [sp, #56]	; 0x38
  4049fa:	910a      	str	r1, [sp, #40]	; 0x28
  4049fc:	9308      	str	r3, [sp, #32]
  4049fe:	ae35      	add	r6, sp, #212	; 0xd4

00404a00 <.LVL196>:
  404a00:	e577      	b.n	4044f2 <.LVL64>

00404a02 <.LVL197>:
  404a02:	f048 0110 	orr.w	r1, r8, #16

00404a06 <.LVL198>:
  404a06:	068c      	lsls	r4, r1, #26
  404a08:	930d      	str	r3, [sp, #52]	; 0x34
  404a0a:	f57f aec1 	bpl.w	404790 <.LVL134+0x8>
  404a0e:	9d0a      	ldr	r5, [sp, #40]	; 0x28
  404a10:	3507      	adds	r5, #7
  404a12:	f025 0507 	bic.w	r5, r5, #7
  404a16:	e9d5 2300 	ldrd	r2, r3, [r5]
  404a1a:	2a00      	cmp	r2, #0
  404a1c:	f105 0008 	add.w	r0, r5, #8
  404a20:	461d      	mov	r5, r3
  404a22:	f173 0300 	sbcs.w	r3, r3, #0
  404a26:	900a      	str	r0, [sp, #40]	; 0x28

00404a28 <.LVL199>:
  404a28:	4614      	mov	r4, r2

00404a2a <.LVL200>:
  404a2a:	f6bf aec7 	bge.w	4047bc <.LVL137+0xa>

00404a2e <.LVL201>:
  404a2e:	232d      	movs	r3, #45	; 0x2d
  404a30:	4264      	negs	r4, r4

00404a32 <.LVL202>:
  404a32:	f88d 306b 	strb.w	r3, [sp, #107]	; 0x6b
  404a36:	eb65 0545 	sbc.w	r5, r5, r5, lsl #1

00404a3a <.LVL203>:
  404a3a:	2301      	movs	r3, #1
  404a3c:	e530      	b.n	4044a0 <.L65>

00404a3e <.LVL204>:
  404a3e:	783b      	ldrb	r3, [r7, #0]
  404a40:	2b6c      	cmp	r3, #108	; 0x6c
  404a42:	bf03      	ittte	eq
  404a44:	787b      	ldrbeq	r3, [r7, #1]
  404a46:	f048 0820 	orreq.w	r8, r8, #32
  404a4a:	3701      	addeq	r7, #1

00404a4c <.LVL206>:
  404a4c:	f048 0810 	orrne.w	r8, r8, #16
  404a50:	e43d      	b.n	4042ce <.LVL22>

00404a52 <.LVL208>:
  404a52:	f018 0f20 	tst.w	r8, #32
  404a56:	f040 8509 	bne.w	40546c <.LVL499>
  404a5a:	f018 0f10 	tst.w	r8, #16
  404a5e:	d135      	bne.n	404acc <.LVL222>
  404a60:	f018 0f40 	tst.w	r8, #64	; 0x40
  404a64:	f040 8678 	bne.w	405758 <.LBE23>
  404a68:	f418 7f00 	tst.w	r8, #512	; 0x200
  404a6c:	d02e      	beq.n	404acc <.LVL222>

00404a6e <.LVL209>:
  404a6e:	9a0a      	ldr	r2, [sp, #40]	; 0x28
  404a70:	6813      	ldr	r3, [r2, #0]
  404a72:	3204      	adds	r2, #4

00404a74 <.LVL210>:
  404a74:	920a      	str	r2, [sp, #40]	; 0x28
  404a76:	f89d 200c 	ldrb.w	r2, [sp, #12]

00404a7a <.LVL211>:
  404a7a:	701a      	strb	r2, [r3, #0]
  404a7c:	463e      	mov	r6, r7

00404a7e <.LVL212>:
  404a7e:	f7ff bbf6 	b.w	40426e <.LVL10>

00404a82 <.LVL213>:
  404a82:	f1a3 0230 	sub.w	r2, r3, #48	; 0x30
  404a86:	2300      	movs	r3, #0
  404a88:	4619      	mov	r1, r3

00404a8a <.LVL214>:
  404a8a:	f817 3b01 	ldrb.w	r3, [r7], #1

00404a8e <.LVL215>:
  404a8e:	eb01 0181 	add.w	r1, r1, r1, lsl #2

00404a92 <.LVL216>:
  404a92:	eb02 0141 	add.w	r1, r2, r1, lsl #1

00404a96 <.LVL217>:
  404a96:	f1a3 0230 	sub.w	r2, r3, #48	; 0x30
  404a9a:	2a09      	cmp	r2, #9
  404a9c:	d9f5      	bls.n	404a8a <.LVL214>
  404a9e:	9107      	str	r1, [sp, #28]
  404aa0:	e416      	b.n	4042d0 <.LVL22+0x2>

00404aa2 <.LVL218>:
  404aa2:	4619      	mov	r1, r3
  404aa4:	930d      	str	r3, [sp, #52]	; 0x34
  404aa6:	2b00      	cmp	r3, #0
  404aa8:	f000 84cf 	beq.w	40544a <.LDL1>

00404aac <.LVL219>:
  404aac:	2300      	movs	r3, #0
  404aae:	2001      	movs	r0, #1
  404ab0:	461a      	mov	r2, r3
  404ab2:	9002      	str	r0, [sp, #8]
  404ab4:	f88d 10d4 	strb.w	r1, [sp, #212]	; 0xd4

00404ab8 <.LVL220>:
  404ab8:	f88d 306b 	strb.w	r3, [sp, #107]	; 0x6b
  404abc:	9309      	str	r3, [sp, #36]	; 0x24
  404abe:	9304      	str	r3, [sp, #16]
  404ac0:	9313      	str	r3, [sp, #76]	; 0x4c
  404ac2:	9310      	str	r3, [sp, #64]	; 0x40
  404ac4:	930e      	str	r3, [sp, #56]	; 0x38
  404ac6:	9008      	str	r0, [sp, #32]
  404ac8:	ae35      	add	r6, sp, #212	; 0xd4

00404aca <.LVL221>:
  404aca:	e512      	b.n	4044f2 <.LVL64>

00404acc <.LVL222>:
  404acc:	9a0a      	ldr	r2, [sp, #40]	; 0x28
  404ace:	6813      	ldr	r3, [r2, #0]
  404ad0:	3204      	adds	r2, #4

00404ad2 <.LVL223>:
  404ad2:	920a      	str	r2, [sp, #40]	; 0x28
  404ad4:	9a03      	ldr	r2, [sp, #12]

00404ad6 <.LVL224>:
  404ad6:	601a      	str	r2, [r3, #0]

00404ad8 <.LVL225>:
  404ad8:	463e      	mov	r6, r7

00404ada <.LVL226>:
  404ada:	f7ff bbc8 	b.w	40426e <.LVL10>

00404ade <.LVL227>:
  404ade:	9b24      	ldr	r3, [sp, #144]	; 0x90
  404ae0:	e553      	b.n	40458a <.LVL82>
  404ae2:	bf00      	nop
  404ae4:	0040cda8 	.word	0x0040cda8
  404ae8:	0040cdbc 	.word	0x0040cdbc
  404aec:	0040cd9c 	.word	0x0040cd9c

00404af0 <.LVL228>:
  404af0:	9a0d      	ldr	r2, [sp, #52]	; 0x34
  404af2:	2a65      	cmp	r2, #101	; 0x65
  404af4:	f340 8096 	ble.w	404c24 <.LVL260>
  404af8:	eeb5 8b40 	vcmp.f64	d8, #0.0
  404afc:	eef1 fa10 	vmrs	APSR_nzcv, fpscr
  404b00:	f040 8139 	bne.w	404d76 <.LVL295>
  404b04:	9a23      	ldr	r2, [sp, #140]	; 0x8c
  404b06:	49c2      	ldr	r1, [pc, #776]	; (404e10 <.LVL315+0x6>)
  404b08:	f8c9 1000 	str.w	r1, [r9]
  404b0c:	3201      	adds	r2, #1
  404b0e:	3301      	adds	r3, #1
  404b10:	2101      	movs	r1, #1
  404b12:	2a07      	cmp	r2, #7
  404b14:	9324      	str	r3, [sp, #144]	; 0x90
  404b16:	9223      	str	r2, [sp, #140]	; 0x8c
  404b18:	f8c9 1004 	str.w	r1, [r9, #4]
  404b1c:	f300 8444 	bgt.w	4053a8 <.LBE21>

00404b20 <.LVL229>:
  404b20:	f109 0908 	add.w	r9, r9, #8

00404b24 <.LVL230>:
  404b24:	9b1c      	ldr	r3, [sp, #112]	; 0x70
  404b26:	9a0f      	ldr	r2, [sp, #60]	; 0x3c
  404b28:	4293      	cmp	r3, r2
  404b2a:	9b24      	ldr	r3, [sp, #144]	; 0x90
  404b2c:	db03      	blt.n	404b36 <.LVL230+0x12>
  404b2e:	f018 0f01 	tst.w	r8, #1
  404b32:	f43f ad9d 	beq.w	404670 <.LVL104>
  404b36:	9a23      	ldr	r2, [sp, #140]	; 0x8c
  404b38:	9815      	ldr	r0, [sp, #84]	; 0x54
  404b3a:	9917      	ldr	r1, [sp, #92]	; 0x5c
  404b3c:	f8c9 1000 	str.w	r1, [r9]
  404b40:	3201      	adds	r2, #1
  404b42:	4403      	add	r3, r0
  404b44:	2a07      	cmp	r2, #7
  404b46:	f8c9 0004 	str.w	r0, [r9, #4]
  404b4a:	9324      	str	r3, [sp, #144]	; 0x90

00404b4c <.LVL231>:
  404b4c:	9223      	str	r2, [sp, #140]	; 0x8c
  404b4e:	f300 84b2 	bgt.w	4054b6 <.LVL509>

00404b52 <.LVL232>:
  404b52:	f109 0908 	add.w	r9, r9, #8

00404b56 <.LVL233>:
  404b56:	9a0f      	ldr	r2, [sp, #60]	; 0x3c
  404b58:	1e54      	subs	r4, r2, #1
  404b5a:	2c00      	cmp	r4, #0
  404b5c:	f77f ad88 	ble.w	404670 <.LVL104>
  404b60:	2c10      	cmp	r4, #16
  404b62:	9a23      	ldr	r2, [sp, #140]	; 0x8c
  404b64:	f340 8308 	ble.w	405178 <.LVL421>
  404b68:	2510      	movs	r5, #16
  404b6a:	9e05      	ldr	r6, [sp, #20]
  404b6c:	e005      	b.n	404b7a <.LVL238>

00404b6e <.LVL235>:
  404b6e:	f109 0908 	add.w	r9, r9, #8

00404b72 <.LVL236>:
  404b72:	3c10      	subs	r4, #16
  404b74:	2c10      	cmp	r4, #16
  404b76:	f340 82ff 	ble.w	405178 <.LVL421>

00404b7a <.LVL238>:
  404b7a:	3201      	adds	r2, #1
  404b7c:	3310      	adds	r3, #16
  404b7e:	2a07      	cmp	r2, #7
  404b80:	9324      	str	r3, [sp, #144]	; 0x90

00404b82 <.LVL239>:
  404b82:	9223      	str	r2, [sp, #140]	; 0x8c
  404b84:	f8c9 a000 	str.w	sl, [r9]
  404b88:	f8c9 5004 	str.w	r5, [r9, #4]
  404b8c:	ddef      	ble.n	404b6e <.LVL235>
  404b8e:	aa22      	add	r2, sp, #136	; 0x88
  404b90:	4631      	mov	r1, r6
  404b92:	4658      	mov	r0, fp
  404b94:	f005 fdae 	bl	40a6f4 <__ssprint_r>

00404b98 <.LVL240>:
  404b98:	2800      	cmp	r0, #0
  404b9a:	f47f ac31 	bne.w	404400 <.L189>
  404b9e:	9b24      	ldr	r3, [sp, #144]	; 0x90
  404ba0:	9a23      	ldr	r2, [sp, #140]	; 0x8c

00404ba2 <.LVL241>:
  404ba2:	f10d 0994 	add.w	r9, sp, #148	; 0x94

00404ba6 <.LVL242>:
  404ba6:	e7e4      	b.n	404b72 <.LVL236>

00404ba8 <.LVL243>:
  404ba8:	9a07      	ldr	r2, [sp, #28]
  404baa:	9902      	ldr	r1, [sp, #8]
  404bac:	1a54      	subs	r4, r2, r1

00404bae <.LVL244>:
  404bae:	2c00      	cmp	r4, #0
  404bb0:	f77f ad0f 	ble.w	4045d2 <.LVL86+0x8>
  404bb4:	2c10      	cmp	r4, #16
  404bb6:	9a23      	ldr	r2, [sp, #140]	; 0x8c
  404bb8:	dd26      	ble.n	404c08 <.LVL257>
  404bba:	4649      	mov	r1, r9
  404bbc:	2510      	movs	r5, #16
  404bbe:	46a1      	mov	r9, r4
  404bc0:	9c05      	ldr	r4, [sp, #20]

00404bc2 <.LVL245>:
  404bc2:	e006      	b.n	404bd2 <.LVL249>

00404bc4 <.LVL246>:
  404bc4:	f1a9 0910 	sub.w	r9, r9, #16

00404bc8 <.LVL247>:
  404bc8:	f1b9 0f10 	cmp.w	r9, #16
  404bcc:	f101 0108 	add.w	r1, r1, #8

00404bd0 <.LVL248>:
  404bd0:	dd18      	ble.n	404c04 <.LVL256>

00404bd2 <.LVL249>:
  404bd2:	3201      	adds	r2, #1
  404bd4:	3310      	adds	r3, #16
  404bd6:	2a07      	cmp	r2, #7
  404bd8:	9324      	str	r3, [sp, #144]	; 0x90

00404bda <.LVL250>:
  404bda:	9223      	str	r2, [sp, #140]	; 0x8c
  404bdc:	f8c1 a000 	str.w	sl, [r1]
  404be0:	604d      	str	r5, [r1, #4]
  404be2:	ddef      	ble.n	404bc4 <.LVL246>
  404be4:	aa22      	add	r2, sp, #136	; 0x88
  404be6:	4621      	mov	r1, r4

00404be8 <.LVL251>:
  404be8:	4658      	mov	r0, fp
  404bea:	f005 fd83 	bl	40a6f4 <__ssprint_r>

00404bee <.LVL252>:
  404bee:	2800      	cmp	r0, #0
  404bf0:	f47f ac06 	bne.w	404400 <.L189>
  404bf4:	f1a9 0910 	sub.w	r9, r9, #16

00404bf8 <.LVL253>:
  404bf8:	f1b9 0f10 	cmp.w	r9, #16
  404bfc:	9b24      	ldr	r3, [sp, #144]	; 0x90
  404bfe:	9a23      	ldr	r2, [sp, #140]	; 0x8c

00404c00 <.LVL254>:
  404c00:	a925      	add	r1, sp, #148	; 0x94

00404c02 <.LVL255>:
  404c02:	dce6      	bgt.n	404bd2 <.LVL249>

00404c04 <.LVL256>:
  404c04:	464c      	mov	r4, r9
  404c06:	4689      	mov	r9, r1

00404c08 <.LVL257>:
  404c08:	3201      	adds	r2, #1
  404c0a:	4423      	add	r3, r4
  404c0c:	2a07      	cmp	r2, #7
  404c0e:	9324      	str	r3, [sp, #144]	; 0x90
  404c10:	9223      	str	r2, [sp, #140]	; 0x8c
  404c12:	f8c9 a000 	str.w	sl, [r9]
  404c16:	f8c9 4004 	str.w	r4, [r9, #4]
  404c1a:	f300 82e6 	bgt.w	4051ea <.LVL432>

00404c1e <.LVL258>:
  404c1e:	f109 0908 	add.w	r9, r9, #8

00404c22 <.LVL259>:
  404c22:	e4d6      	b.n	4045d2 <.LVL86+0x8>

00404c24 <.LVL260>:
  404c24:	9a0f      	ldr	r2, [sp, #60]	; 0x3c
  404c26:	f8c9 6000 	str.w	r6, [r9]
  404c2a:	2a01      	cmp	r2, #1
  404c2c:	9a23      	ldr	r2, [sp, #140]	; 0x8c
  404c2e:	f103 0301 	add.w	r3, r3, #1
  404c32:	f102 0201 	add.w	r2, r2, #1
  404c36:	f04f 0101 	mov.w	r1, #1
  404c3a:	9324      	str	r3, [sp, #144]	; 0x90
  404c3c:	9223      	str	r2, [sp, #140]	; 0x8c
  404c3e:	f8c9 1004 	str.w	r1, [r9, #4]
  404c42:	f340 82a5 	ble.w	405190 <.LBE19>
  404c46:	2a07      	cmp	r2, #7
  404c48:	f300 82b5 	bgt.w	4051b6 <.LBE26>
  404c4c:	f109 0908 	add.w	r9, r9, #8

00404c50 <.LVL261>:
  404c50:	9815      	ldr	r0, [sp, #84]	; 0x54
  404c52:	9917      	ldr	r1, [sp, #92]	; 0x5c
  404c54:	f8c9 1000 	str.w	r1, [r9]
  404c58:	3201      	adds	r2, #1
  404c5a:	4403      	add	r3, r0
  404c5c:	2a07      	cmp	r2, #7
  404c5e:	9324      	str	r3, [sp, #144]	; 0x90

00404c60 <.LVL262>:
  404c60:	9223      	str	r2, [sp, #140]	; 0x8c
  404c62:	f8c9 0004 	str.w	r0, [r9, #4]
  404c66:	f300 82b3 	bgt.w	4051d0 <.LVL429>
  404c6a:	f109 0908 	add.w	r9, r9, #8

00404c6e <.LVL263>:
  404c6e:	eeb5 8b40 	vcmp.f64	d8, #0.0
  404c72:	eef1 fa10 	vmrs	APSR_nzcv, fpscr
  404c76:	990f      	ldr	r1, [sp, #60]	; 0x3c
  404c78:	f000 8121 	beq.w	404ebe <.LVL337>
  404c7c:	3901      	subs	r1, #1
  404c7e:	3201      	adds	r2, #1
  404c80:	3601      	adds	r6, #1

00404c82 <.LVL264>:
  404c82:	440b      	add	r3, r1
  404c84:	2a07      	cmp	r2, #7
  404c86:	f8c9 6000 	str.w	r6, [r9]
  404c8a:	9223      	str	r2, [sp, #140]	; 0x8c
  404c8c:	9324      	str	r3, [sp, #144]	; 0x90

00404c8e <.LVL265>:
  404c8e:	f8c9 1004 	str.w	r1, [r9, #4]
  404c92:	f300 8146 	bgt.w	404f22 <.LVL348>

00404c96 <.LVL266>:
  404c96:	f109 0908 	add.w	r9, r9, #8

00404c9a <.LVL267>:
  404c9a:	9819      	ldr	r0, [sp, #100]	; 0x64
  404c9c:	f8c9 0004 	str.w	r0, [r9, #4]
  404ca0:	3201      	adds	r2, #1
  404ca2:	4403      	add	r3, r0
  404ca4:	a91e      	add	r1, sp, #120	; 0x78
  404ca6:	2a07      	cmp	r2, #7
  404ca8:	9324      	str	r3, [sp, #144]	; 0x90

00404caa <.LVL268>:
  404caa:	9223      	str	r2, [sp, #140]	; 0x8c
  404cac:	f8c9 1000 	str.w	r1, [r9]
  404cb0:	f77f acdc 	ble.w	40466c <.LVL103>

00404cb4 <.LVL269>:
  404cb4:	aa22      	add	r2, sp, #136	; 0x88
  404cb6:	9905      	ldr	r1, [sp, #20]
  404cb8:	4658      	mov	r0, fp
  404cba:	f005 fd1b 	bl	40a6f4 <__ssprint_r>

00404cbe <.LVL270>:
  404cbe:	2800      	cmp	r0, #0
  404cc0:	f47f ab9e 	bne.w	404400 <.L189>
  404cc4:	9b24      	ldr	r3, [sp, #144]	; 0x90
  404cc6:	f10d 0994 	add.w	r9, sp, #148	; 0x94
  404cca:	e4d1      	b.n	404670 <.LVL104>

00404ccc <.LVL271>:
  404ccc:	4641      	mov	r1, r8

00404cce <.LVL272>:
  404cce:	2b01      	cmp	r3, #1
  404cd0:	f000 8135 	beq.w	404f3e <.LVL351>
  404cd4:	2b02      	cmp	r3, #2
  404cd6:	d127      	bne.n	404d28 <.LVL286>
  404cd8:	4688      	mov	r8, r1
  404cda:	2400      	movs	r4, #0

00404cdc <.LVL273>:
  404cdc:	2500      	movs	r5, #0
  404cde:	e57e      	b.n	4047de <.LVL141>

00404ce0 <.LVL274>:
  404ce0:	aa22      	add	r2, sp, #136	; 0x88
  404ce2:	9905      	ldr	r1, [sp, #20]
  404ce4:	4658      	mov	r0, fp
  404ce6:	f005 fd05 	bl	40a6f4 <__ssprint_r>

00404cea <.LVL275>:
  404cea:	2800      	cmp	r0, #0
  404cec:	f47f ab88 	bne.w	404400 <.L189>
  404cf0:	9b24      	ldr	r3, [sp, #144]	; 0x90

00404cf2 <.LVL276>:
  404cf2:	f10d 0994 	add.w	r9, sp, #148	; 0x94

00404cf6 <.LVL277>:
  404cf6:	e4a8      	b.n	40464a <.LVL102>

00404cf8 <.LVL278>:
  404cf8:	aa22      	add	r2, sp, #136	; 0x88
  404cfa:	9905      	ldr	r1, [sp, #20]
  404cfc:	4658      	mov	r0, fp
  404cfe:	f005 fcf9 	bl	40a6f4 <__ssprint_r>

00404d02 <.LVL279>:
  404d02:	2800      	cmp	r0, #0
  404d04:	f47f ab7c 	bne.w	404400 <.L189>
  404d08:	9b24      	ldr	r3, [sp, #144]	; 0x90

00404d0a <.LVL280>:
  404d0a:	f10d 0994 	add.w	r9, sp, #148	; 0x94

00404d0e <.LVL281>:
  404d0e:	e44c      	b.n	4045aa <.LVL84>

00404d10 <.LVL282>:
  404d10:	aa22      	add	r2, sp, #136	; 0x88
  404d12:	9905      	ldr	r1, [sp, #20]
  404d14:	4658      	mov	r0, fp
  404d16:	f005 fced 	bl	40a6f4 <__ssprint_r>

00404d1a <.LVL283>:
  404d1a:	2800      	cmp	r0, #0
  404d1c:	f47f ab70 	bne.w	404400 <.L189>
  404d20:	9b24      	ldr	r3, [sp, #144]	; 0x90

00404d22 <.LVL284>:
  404d22:	f10d 0994 	add.w	r9, sp, #148	; 0x94

00404d26 <.LVL285>:
  404d26:	e450      	b.n	4045ca <.LVL86>

00404d28 <.LVL286>:
  404d28:	4688      	mov	r8, r1
  404d2a:	2400      	movs	r4, #0

00404d2c <.LVL287>:
  404d2c:	2500      	movs	r5, #0

00404d2e <.LVL288>:
  404d2e:	a94e      	add	r1, sp, #312	; 0x138

00404d30 <.LVL289>:
  404d30:	e000      	b.n	404d34 <.LVL291>

00404d32 <.LVL290>:
  404d32:	4631      	mov	r1, r6

00404d34 <.LVL291>:
  404d34:	08e2      	lsrs	r2, r4, #3
  404d36:	ea42 7245 	orr.w	r2, r2, r5, lsl #29
  404d3a:	08e8      	lsrs	r0, r5, #3
  404d3c:	f004 0307 	and.w	r3, r4, #7
  404d40:	4605      	mov	r5, r0
  404d42:	4614      	mov	r4, r2

00404d44 <.LVL292>:
  404d44:	3330      	adds	r3, #48	; 0x30
  404d46:	ea54 0205 	orrs.w	r2, r4, r5
  404d4a:	f801 3c01 	strb.w	r3, [r1, #-1]
  404d4e:	f101 36ff 	add.w	r6, r1, #4294967295

00404d52 <.LVL293>:
  404d52:	d1ee      	bne.n	404d32 <.LVL290>
  404d54:	f018 0f01 	tst.w	r8, #1
  404d58:	f43f ad51 	beq.w	4047fe <.LVL147>
  404d5c:	2b30      	cmp	r3, #48	; 0x30
  404d5e:	f43f ad4e 	beq.w	4047fe <.LVL147>
  404d62:	2330      	movs	r3, #48	; 0x30
  404d64:	3902      	subs	r1, #2

00404d66 <.LVL294>:
  404d66:	f806 3c01 	strb.w	r3, [r6, #-1]
  404d6a:	ab4e      	add	r3, sp, #312	; 0x138
  404d6c:	1a5b      	subs	r3, r3, r1
  404d6e:	9308      	str	r3, [sp, #32]
  404d70:	460e      	mov	r6, r1
  404d72:	f7ff bbad 	b.w	4044d0 <.LVL61>

00404d76 <.LVL295>:
  404d76:	991c      	ldr	r1, [sp, #112]	; 0x70
  404d78:	2900      	cmp	r1, #0
  404d7a:	f340 832f 	ble.w	4053dc <.LBE46>

00404d7e <.LVL296>:
  404d7e:	9a0e      	ldr	r2, [sp, #56]	; 0x38
  404d80:	990f      	ldr	r1, [sp, #60]	; 0x3c
  404d82:	428a      	cmp	r2, r1
  404d84:	bfa8      	it	ge
  404d86:	460a      	movge	r2, r1

00404d88 <.LBB13>:
  404d88:	2a00      	cmp	r2, #0
  404d8a:	4614      	mov	r4, r2

00404d8c <.LVL297>:
  404d8c:	dd0d      	ble.n	404daa <.LVL300>
  404d8e:	9a23      	ldr	r2, [sp, #140]	; 0x8c

00404d90 <.LVL298>:
  404d90:	f8c9 6000 	str.w	r6, [r9]
  404d94:	3201      	adds	r2, #1
  404d96:	4423      	add	r3, r4
  404d98:	2a07      	cmp	r2, #7
  404d9a:	9324      	str	r3, [sp, #144]	; 0x90
  404d9c:	f8c9 4004 	str.w	r4, [r9, #4]
  404da0:	9223      	str	r2, [sp, #140]	; 0x8c
  404da2:	f300 84cc 	bgt.w	40573e <.LBB23>

00404da6 <.LVL299>:
  404da6:	f109 0908 	add.w	r9, r9, #8

00404daa <.LVL300>:
  404daa:	9a0e      	ldr	r2, [sp, #56]	; 0x38
  404dac:	2c00      	cmp	r4, #0
  404dae:	bfa8      	it	ge
  404db0:	1b12      	subge	r2, r2, r4
  404db2:	2a00      	cmp	r2, #0
  404db4:	4614      	mov	r4, r2

00404db6 <.LVL301>:
  404db6:	f340 8100 	ble.w	404fba <.LBE15>
  404dba:	2c10      	cmp	r4, #16
  404dbc:	9a23      	ldr	r2, [sp, #140]	; 0x8c

00404dbe <.LVL302>:
  404dbe:	f340 82d8 	ble.w	405372 <.LBB20>
  404dc2:	4649      	mov	r1, r9
  404dc4:	2510      	movs	r5, #16
  404dc6:	46a1      	mov	r9, r4
  404dc8:	9c05      	ldr	r4, [sp, #20]

00404dca <.LVL303>:
  404dca:	e006      	b.n	404dda <.LVL307>

00404dcc <.LVL304>:
  404dcc:	3108      	adds	r1, #8

00404dce <.LVL305>:
  404dce:	f1a9 0910 	sub.w	r9, r9, #16
  404dd2:	f1b9 0f10 	cmp.w	r9, #16
  404dd6:	f340 82ca 	ble.w	40536e <.LVL471>

00404dda <.LVL307>:
  404dda:	3201      	adds	r2, #1
  404ddc:	3310      	adds	r3, #16
  404dde:	2a07      	cmp	r2, #7
  404de0:	9324      	str	r3, [sp, #144]	; 0x90

00404de2 <.LVL308>:
  404de2:	9223      	str	r2, [sp, #140]	; 0x8c
  404de4:	f8c1 a000 	str.w	sl, [r1]
  404de8:	604d      	str	r5, [r1, #4]
  404dea:	ddef      	ble.n	404dcc <.LVL304>
  404dec:	aa22      	add	r2, sp, #136	; 0x88
  404dee:	4621      	mov	r1, r4

00404df0 <.LVL309>:
  404df0:	4658      	mov	r0, fp
  404df2:	f005 fc7f 	bl	40a6f4 <__ssprint_r>

00404df6 <.LVL310>:
  404df6:	2800      	cmp	r0, #0
  404df8:	f47f ab02 	bne.w	404400 <.L189>
  404dfc:	9b24      	ldr	r3, [sp, #144]	; 0x90
  404dfe:	9a23      	ldr	r2, [sp, #140]	; 0x8c

00404e00 <.LVL311>:
  404e00:	a925      	add	r1, sp, #148	; 0x94

00404e02 <.LVL312>:
  404e02:	e7e4      	b.n	404dce <.LVL305>

00404e04 <.LBE13>:
  404e04:	9b04      	ldr	r3, [sp, #16]

00404e06 <.LVL314>:
  404e06:	9308      	str	r3, [sp, #32]
  404e08:	ae4e      	add	r6, sp, #312	; 0x138

00404e0a <.LVL315>:
  404e0a:	f7ff bb61 	b.w	4044d0 <.LVL61>
  404e0e:	bf00      	nop
  404e10:	0040cdd8 	.word	0x0040cdd8

00404e14 <.LVL316>:
  404e14:	2d00      	cmp	r5, #0
  404e16:	bf08      	it	eq
  404e18:	2c0a      	cmpeq	r4, #10
  404e1a:	f0c0 808f 	bcc.w	404f3c <.LVL350>
  404e1e:	f408 6380 	and.w	r3, r8, #1024	; 0x400

00404e22 <.LVL317>:
  404e22:	2200      	movs	r2, #0
  404e24:	9702      	str	r7, [sp, #8]
  404e26:	f8cd 9018 	str.w	r9, [sp, #24]
  404e2a:	f8cd b020 	str.w	fp, [sp, #32]
  404e2e:	ae4e      	add	r6, sp, #312	; 0x138

00404e30 <.LVL318>:
  404e30:	46c3      	mov	fp, r8
  404e32:	f8dd 9048 	ldr.w	r9, [sp, #72]	; 0x48

00404e36 <.LVL319>:
  404e36:	4617      	mov	r7, r2

00404e38 <.LVL320>:
  404e38:	4698      	mov	r8, r3

00404e3a <.LVL321>:
  404e3a:	e00a      	b.n	404e52 <.LVL325+0x6>

00404e3c <.LVL322>:
  404e3c:	2300      	movs	r3, #0
  404e3e:	4620      	mov	r0, r4
  404e40:	4629      	mov	r1, r5
  404e42:	220a      	movs	r2, #10
  404e44:	f008 f97c 	bl	40d140 <.LFE156>
  404e48:	4604      	mov	r4, r0

00404e4a <.LVL324>:
  404e4a:	460d      	mov	r5, r1

00404e4c <.LVL325>:
  404e4c:	ea54 0305 	orrs.w	r3, r4, r5
  404e50:	d07e      	beq.n	404f50 <.LVL354>
  404e52:	220a      	movs	r2, #10
  404e54:	2300      	movs	r3, #0
  404e56:	4620      	mov	r0, r4
  404e58:	4629      	mov	r1, r5
  404e5a:	f008 f971 	bl	40d140 <.LFE156>
  404e5e:	3230      	adds	r2, #48	; 0x30
  404e60:	f806 2c01 	strb.w	r2, [r6, #-1]
  404e64:	3701      	adds	r7, #1

00404e66 <.LVL328>:
  404e66:	3e01      	subs	r6, #1

00404e68 <.LVL329>:
  404e68:	f1b8 0f00 	cmp.w	r8, #0
  404e6c:	d0e6      	beq.n	404e3c <.LVL322>
  404e6e:	f899 3000 	ldrb.w	r3, [r9]
  404e72:	429f      	cmp	r7, r3
  404e74:	d1e2      	bne.n	404e3c <.LVL322>
  404e76:	2fff      	cmp	r7, #255	; 0xff
  404e78:	d0e0      	beq.n	404e3c <.LVL322>
  404e7a:	2d00      	cmp	r5, #0
  404e7c:	bf08      	it	eq
  404e7e:	2c0a      	cmpeq	r4, #10
  404e80:	d3dc      	bcc.n	404e3c <.LVL322>
  404e82:	9b18      	ldr	r3, [sp, #96]	; 0x60
  404e84:	9916      	ldr	r1, [sp, #88]	; 0x58
  404e86:	1af6      	subs	r6, r6, r3
  404e88:	4630      	mov	r0, r6
  404e8a:	461a      	mov	r2, r3
  404e8c:	f007 fbc2 	bl	40c614 <.LBE4>

00404e90 <.LVL331>:
  404e90:	f899 7001 	ldrb.w	r7, [r9, #1]
  404e94:	2f00      	cmp	r7, #0
  404e96:	d0d1      	beq.n	404e3c <.LVL322>
  404e98:	f109 0901 	add.w	r9, r9, #1
  404e9c:	2700      	movs	r7, #0
  404e9e:	e7cd      	b.n	404e3c <.LVL322>

00404ea0 <.LVL333>:
  404ea0:	aa22      	add	r2, sp, #136	; 0x88
  404ea2:	9905      	ldr	r1, [sp, #20]
  404ea4:	4658      	mov	r0, fp
  404ea6:	f005 fc25 	bl	40a6f4 <__ssprint_r>

00404eaa <.LVL334>:
  404eaa:	2800      	cmp	r0, #0
  404eac:	f47f aaa8 	bne.w	404400 <.L189>
  404eb0:	f89d 206b 	ldrb.w	r2, [sp, #107]	; 0x6b
  404eb4:	9b24      	ldr	r3, [sp, #144]	; 0x90

00404eb6 <.LVL335>:
  404eb6:	f10d 0994 	add.w	r9, sp, #148	; 0x94

00404eba <.LVL336>:
  404eba:	f7ff bb66 	b.w	40458a <.LVL82>

00404ebe <.LVL337>:
  404ebe:	1e4c      	subs	r4, r1, #1
  404ec0:	2c00      	cmp	r4, #0
  404ec2:	f77f aeea 	ble.w	404c9a <.LVL267>
  404ec6:	2c10      	cmp	r4, #16
  404ec8:	dd20      	ble.n	404f0c <.LVL346+0x2>
  404eca:	2510      	movs	r5, #16
  404ecc:	9e05      	ldr	r6, [sp, #20]

00404ece <.LVL339>:
  404ece:	e004      	b.n	404eda <.LVL342+0x2>

00404ed0 <.LVL340>:
  404ed0:	3c10      	subs	r4, #16

00404ed2 <.LVL341>:
  404ed2:	2c10      	cmp	r4, #16
  404ed4:	f109 0908 	add.w	r9, r9, #8

00404ed8 <.LVL342>:
  404ed8:	dd18      	ble.n	404f0c <.LVL346+0x2>
  404eda:	3201      	adds	r2, #1
  404edc:	3310      	adds	r3, #16
  404ede:	2a07      	cmp	r2, #7
  404ee0:	9324      	str	r3, [sp, #144]	; 0x90

00404ee2 <.LVL343>:
  404ee2:	9223      	str	r2, [sp, #140]	; 0x8c
  404ee4:	f8c9 a000 	str.w	sl, [r9]
  404ee8:	f8c9 5004 	str.w	r5, [r9, #4]
  404eec:	ddf0      	ble.n	404ed0 <.LVL340>
  404eee:	aa22      	add	r2, sp, #136	; 0x88
  404ef0:	4631      	mov	r1, r6
  404ef2:	4658      	mov	r0, fp
  404ef4:	f005 fbfe 	bl	40a6f4 <__ssprint_r>

00404ef8 <.LVL344>:
  404ef8:	2800      	cmp	r0, #0
  404efa:	f47f aa81 	bne.w	404400 <.L189>
  404efe:	3c10      	subs	r4, #16

00404f00 <.LVL345>:
  404f00:	2c10      	cmp	r4, #16
  404f02:	9b24      	ldr	r3, [sp, #144]	; 0x90
  404f04:	9a23      	ldr	r2, [sp, #140]	; 0x8c
  404f06:	f10d 0994 	add.w	r9, sp, #148	; 0x94

00404f0a <.LVL346>:
  404f0a:	dce6      	bgt.n	404eda <.LVL342+0x2>
  404f0c:	3201      	adds	r2, #1
  404f0e:	4423      	add	r3, r4
  404f10:	2a07      	cmp	r2, #7
  404f12:	9324      	str	r3, [sp, #144]	; 0x90

00404f14 <.LVL347>:
  404f14:	9223      	str	r2, [sp, #140]	; 0x8c
  404f16:	f8c9 a000 	str.w	sl, [r9]
  404f1a:	f8c9 4004 	str.w	r4, [r9, #4]
  404f1e:	f77f aeba 	ble.w	404c96 <.LVL266>

00404f22 <.LVL348>:
  404f22:	aa22      	add	r2, sp, #136	; 0x88
  404f24:	9905      	ldr	r1, [sp, #20]
  404f26:	4658      	mov	r0, fp
  404f28:	f005 fbe4 	bl	40a6f4 <__ssprint_r>

00404f2c <.LVL349>:
  404f2c:	2800      	cmp	r0, #0
  404f2e:	f47f aa67 	bne.w	404400 <.L189>
  404f32:	9b24      	ldr	r3, [sp, #144]	; 0x90
  404f34:	9a23      	ldr	r2, [sp, #140]	; 0x8c
  404f36:	f10d 0994 	add.w	r9, sp, #148	; 0x94
  404f3a:	e6ae      	b.n	404c9a <.LVL267>

00404f3c <.LVL350>:
  404f3c:	4641      	mov	r1, r8

00404f3e <.LVL351>:
  404f3e:	ae4e      	add	r6, sp, #312	; 0x138
  404f40:	3430      	adds	r4, #48	; 0x30

00404f42 <.LVL352>:
  404f42:	2301      	movs	r3, #1

00404f44 <.LVL353>:
  404f44:	4688      	mov	r8, r1
  404f46:	f806 4d01 	strb.w	r4, [r6, #-1]!
  404f4a:	9308      	str	r3, [sp, #32]
  404f4c:	f7ff bac0 	b.w	4044d0 <.LVL61>

00404f50 <.LVL354>:
  404f50:	ab4e      	add	r3, sp, #312	; 0x138
  404f52:	1b9b      	subs	r3, r3, r6
  404f54:	f8cd 9048 	str.w	r9, [sp, #72]	; 0x48
  404f58:	46d8      	mov	r8, fp
  404f5a:	970f      	str	r7, [sp, #60]	; 0x3c
  404f5c:	f8dd b020 	ldr.w	fp, [sp, #32]

00404f60 <.LVL355>:
  404f60:	f8dd 9018 	ldr.w	r9, [sp, #24]

00404f64 <.LVL356>:
  404f64:	9f02      	ldr	r7, [sp, #8]

00404f66 <.LVL357>:
  404f66:	9308      	str	r3, [sp, #32]
  404f68:	f7ff bab2 	b.w	4044d0 <.LVL61>

00404f6c <.LVL358>:
  404f6c:	681c      	ldr	r4, [r3, #0]
  404f6e:	3304      	adds	r3, #4
  404f70:	930a      	str	r3, [sp, #40]	; 0x28

00404f72 <.LVL359>:
  404f72:	2500      	movs	r5, #0
  404f74:	f7ff bbed 	b.w	404752 <.LVL126>

00404f78 <.LVL360>:
  404f78:	3204      	adds	r2, #4
  404f7a:	681c      	ldr	r4, [r3, #0]
  404f7c:	920a      	str	r2, [sp, #40]	; 0x28

00404f7e <.LVL361>:
  404f7e:	2301      	movs	r3, #1
  404f80:	2500      	movs	r5, #0
  404f82:	f7ff ba8a 	b.w	40449a <.L150>

00404f86 <.LVL362>:
  404f86:	9a0a      	ldr	r2, [sp, #40]	; 0x28
  404f88:	6814      	ldr	r4, [r2, #0]
  404f8a:	4613      	mov	r3, r2
  404f8c:	3304      	adds	r3, #4

00404f8e <.LVL363>:
  404f8e:	17e5      	asrs	r5, r4, #31
  404f90:	930a      	str	r3, [sp, #40]	; 0x28
  404f92:	4622      	mov	r2, r4
  404f94:	462b      	mov	r3, r5

00404f96 <.LVL364>:
  404f96:	e40c      	b.n	4047b2 <.LVL137>

00404f98 <.LVL365>:
  404f98:	681c      	ldr	r4, [r3, #0]
  404f9a:	3304      	adds	r3, #4
  404f9c:	930a      	str	r3, [sp, #40]	; 0x28

00404f9e <.LVL366>:
  404f9e:	2500      	movs	r5, #0
  404fa0:	f7ff ba69 	b.w	404476 <.LVL51>

00404fa4 <.LBB15>:
  404fa4:	aa22      	add	r2, sp, #136	; 0x88
  404fa6:	9905      	ldr	r1, [sp, #20]
  404fa8:	4658      	mov	r0, fp
  404faa:	f005 fba3 	bl	40a6f4 <__ssprint_r>

00404fae <.LVL368>:
  404fae:	2800      	cmp	r0, #0
  404fb0:	f47f aa26 	bne.w	404400 <.L189>
  404fb4:	9b24      	ldr	r3, [sp, #144]	; 0x90

00404fb6 <.LVL369>:
  404fb6:	f10d 0994 	add.w	r9, sp, #148	; 0x94

00404fba <.LBE15>:
  404fba:	9a0e      	ldr	r2, [sp, #56]	; 0x38
  404fbc:	f418 6f80 	tst.w	r8, #1024	; 0x400
  404fc0:	4432      	add	r2, r6
  404fc2:	4615      	mov	r5, r2

00404fc4 <.LVL371>:
  404fc4:	f000 8083 	beq.w	4050ce <.LVL403>

00404fc8 <.LBB16>:
  404fc8:	990f      	ldr	r1, [sp, #60]	; 0x3c
  404fca:	9608      	str	r6, [sp, #32]
  404fcc:	4618      	mov	r0, r3

00404fce <.LBE16>:
  404fce:	9b10      	ldr	r3, [sp, #64]	; 0x40
  404fd0:	f8cd 802c 	str.w	r8, [sp, #44]	; 0x2c

00404fd4 <.LBB17>:
  404fd4:	1871      	adds	r1, r6, r1
  404fd6:	9104      	str	r1, [sp, #16]
  404fd8:	9706      	str	r7, [sp, #24]
  404fda:	4649      	mov	r1, r9
  404fdc:	4616      	mov	r6, r2

00404fde <.LVL372>:
  404fde:	f8dd 9060 	ldr.w	r9, [sp, #96]	; 0x60
  404fe2:	f8dd 804c 	ldr.w	r8, [sp, #76]	; 0x4c

00404fe6 <.LVL373>:
  404fe6:	9d05      	ldr	r5, [sp, #20]

00404fe8 <.LBE17>:
  404fe8:	2b00      	cmp	r3, #0
  404fea:	d05f      	beq.n	4050ac <.LVL399>

00404fec <.LVL374>:
  404fec:	f1b8 0f00 	cmp.w	r8, #0
  404ff0:	f000 8108 	beq.w	405204 <.LBB27>
  404ff4:	f108 38ff 	add.w	r8, r8, #4294967295

00404ff8 <.LVL375>:
  404ff8:	9b23      	ldr	r3, [sp, #140]	; 0x8c
  404ffa:	9a16      	ldr	r2, [sp, #88]	; 0x58
  404ffc:	600a      	str	r2, [r1, #0]
  404ffe:	3301      	adds	r3, #1
  405000:	4448      	add	r0, r9
  405002:	2b07      	cmp	r3, #7
  405004:	9024      	str	r0, [sp, #144]	; 0x90
  405006:	f8c1 9004 	str.w	r9, [r1, #4]
  40500a:	9323      	str	r3, [sp, #140]	; 0x8c
  40500c:	f300 80c8 	bgt.w	4051a0 <.LBB26>

00405010 <.LVL376>:
  405010:	3108      	adds	r1, #8

00405012 <.LBB18>:
  405012:	9a12      	ldr	r2, [sp, #72]	; 0x48
  405014:	9c04      	ldr	r4, [sp, #16]
  405016:	7813      	ldrb	r3, [r2, #0]
  405018:	1ba4      	subs	r4, r4, r6

0040501a <.LVL378>:
  40501a:	429c      	cmp	r4, r3
  40501c:	bfa8      	it	ge
  40501e:	461c      	movge	r4, r3
  405020:	2c00      	cmp	r4, #0
  405022:	dd0b      	ble.n	40503c <.LVL382>
  405024:	9b23      	ldr	r3, [sp, #140]	; 0x8c
  405026:	600e      	str	r6, [r1, #0]
  405028:	3301      	adds	r3, #1
  40502a:	4420      	add	r0, r4
  40502c:	2b07      	cmp	r3, #7
  40502e:	9024      	str	r0, [sp, #144]	; 0x90

00405030 <.LVL380>:
  405030:	604c      	str	r4, [r1, #4]
  405032:	9323      	str	r3, [sp, #140]	; 0x8c
  405034:	f300 81ab 	bgt.w	40538e <.LBB21>

00405038 <.LVL381>:
  405038:	7813      	ldrb	r3, [r2, #0]
  40503a:	3108      	adds	r1, #8

0040503c <.LVL382>:
  40503c:	2c00      	cmp	r4, #0
  40503e:	bfac      	ite	ge
  405040:	1b1c      	subge	r4, r3, r4

00405042 <.LVL383>:
  405042:	461c      	movlt	r4, r3

00405044 <.LVL384>:
  405044:	2c00      	cmp	r4, #0
  405046:	dd2d      	ble.n	4050a4 <.LBE18>
  405048:	2c10      	cmp	r4, #16
  40504a:	9a23      	ldr	r2, [sp, #140]	; 0x8c
  40504c:	dd1d      	ble.n	40508a <.LVL395>
  40504e:	2710      	movs	r7, #16
  405050:	e004      	b.n	40505c <.LVL388>

00405052 <.LVL385>:
  405052:	3c10      	subs	r4, #16

00405054 <.LVL386>:
  405054:	2c10      	cmp	r4, #16
  405056:	f101 0108 	add.w	r1, r1, #8

0040505a <.LVL387>:
  40505a:	dd16      	ble.n	40508a <.LVL395>

0040505c <.LVL388>:
  40505c:	3201      	adds	r2, #1
  40505e:	3010      	adds	r0, #16
  405060:	2a07      	cmp	r2, #7
  405062:	9024      	str	r0, [sp, #144]	; 0x90

00405064 <.LVL389>:
  405064:	9223      	str	r2, [sp, #140]	; 0x8c
  405066:	f8c1 a000 	str.w	sl, [r1]
  40506a:	604f      	str	r7, [r1, #4]
  40506c:	ddf1      	ble.n	405052 <.LVL385>
  40506e:	aa22      	add	r2, sp, #136	; 0x88
  405070:	4629      	mov	r1, r5

00405072 <.LVL390>:
  405072:	4658      	mov	r0, fp
  405074:	f005 fb3e 	bl	40a6f4 <__ssprint_r>

00405078 <.LVL391>:
  405078:	2800      	cmp	r0, #0
  40507a:	f47f a9c1 	bne.w	404400 <.L189>
  40507e:	3c10      	subs	r4, #16

00405080 <.LVL392>:
  405080:	2c10      	cmp	r4, #16
  405082:	9824      	ldr	r0, [sp, #144]	; 0x90
  405084:	9a23      	ldr	r2, [sp, #140]	; 0x8c

00405086 <.LVL393>:
  405086:	a925      	add	r1, sp, #148	; 0x94

00405088 <.LVL394>:
  405088:	dce8      	bgt.n	40505c <.LVL388>

0040508a <.LVL395>:
  40508a:	3201      	adds	r2, #1
  40508c:	4420      	add	r0, r4
  40508e:	2a07      	cmp	r2, #7
  405090:	9024      	str	r0, [sp, #144]	; 0x90
  405092:	9223      	str	r2, [sp, #140]	; 0x8c
  405094:	f8c1 a000 	str.w	sl, [r1]
  405098:	604c      	str	r4, [r1, #4]
  40509a:	f300 8191 	bgt.w	4053c0 <.LBB22>

0040509e <.LVL396>:
  40509e:	9b12      	ldr	r3, [sp, #72]	; 0x48
  4050a0:	781b      	ldrb	r3, [r3, #0]
  4050a2:	3108      	adds	r1, #8

004050a4 <.LBE18>:
  4050a4:	441e      	add	r6, r3
  4050a6:	9b10      	ldr	r3, [sp, #64]	; 0x40
  4050a8:	2b00      	cmp	r3, #0
  4050aa:	d19f      	bne.n	404fec <.LVL374>

004050ac <.LVL399>:
  4050ac:	f1b8 0f00 	cmp.w	r8, #0
  4050b0:	d1a0      	bne.n	404ff4 <.LVL374+0x8>
  4050b2:	4634      	mov	r4, r6
  4050b4:	9a0f      	ldr	r2, [sp, #60]	; 0x3c
  4050b6:	9e08      	ldr	r6, [sp, #32]

004050b8 <.LVL400>:
  4050b8:	9f06      	ldr	r7, [sp, #24]
  4050ba:	f8dd 802c 	ldr.w	r8, [sp, #44]	; 0x2c

004050be <.LVL401>:
  4050be:	18b2      	adds	r2, r6, r2
  4050c0:	4294      	cmp	r4, r2
  4050c2:	4689      	mov	r9, r1
  4050c4:	4621      	mov	r1, r4
  4050c6:	bf28      	it	cs
  4050c8:	4611      	movcs	r1, r2
  4050ca:	4603      	mov	r3, r0

004050cc <.LVL402>:
  4050cc:	460d      	mov	r5, r1

004050ce <.LVL403>:
  4050ce:	9a1c      	ldr	r2, [sp, #112]	; 0x70
  4050d0:	990f      	ldr	r1, [sp, #60]	; 0x3c
  4050d2:	428a      	cmp	r2, r1
  4050d4:	f280 8201 	bge.w	4054da <.LBB47>
  4050d8:	9923      	ldr	r1, [sp, #140]	; 0x8c
  4050da:	9c15      	ldr	r4, [sp, #84]	; 0x54
  4050dc:	9817      	ldr	r0, [sp, #92]	; 0x5c
  4050de:	f8c9 0000 	str.w	r0, [r9]
  4050e2:	3101      	adds	r1, #1
  4050e4:	4423      	add	r3, r4
  4050e6:	2907      	cmp	r1, #7
  4050e8:	9324      	str	r3, [sp, #144]	; 0x90
  4050ea:	f8c9 4004 	str.w	r4, [r9, #4]
  4050ee:	9123      	str	r1, [sp, #140]	; 0x8c
  4050f0:	f300 828d 	bgt.w	40560e <.LBB50>

004050f4 <.LVL404>:
  4050f4:	f109 0908 	add.w	r9, r9, #8

004050f8 <.LBB19>:
  4050f8:	990f      	ldr	r1, [sp, #60]	; 0x3c
  4050fa:	1874      	adds	r4, r6, r1
  4050fc:	1b64      	subs	r4, r4, r5

004050fe <.LVL406>:
  4050fe:	1a8a      	subs	r2, r1, r2
  405100:	4294      	cmp	r4, r2
  405102:	bfa8      	it	ge
  405104:	4614      	movge	r4, r2
  405106:	2c00      	cmp	r4, #0
  405108:	dd0d      	ble.n	405126 <.LVL409>
  40510a:	9923      	ldr	r1, [sp, #140]	; 0x8c
  40510c:	f8c9 5000 	str.w	r5, [r9]
  405110:	3101      	adds	r1, #1
  405112:	4423      	add	r3, r4
  405114:	2907      	cmp	r1, #7
  405116:	9324      	str	r3, [sp, #144]	; 0x90
  405118:	f8c9 4004 	str.w	r4, [r9, #4]
  40511c:	9123      	str	r1, [sp, #140]	; 0x8c
  40511e:	f300 83bc 	bgt.w	40589a <.LBB24>

00405122 <.LVL408>:
  405122:	f109 0908 	add.w	r9, r9, #8

00405126 <.LVL409>:
  405126:	2c00      	cmp	r4, #0
  405128:	bfac      	ite	ge
  40512a:	1b14      	subge	r4, r2, r4

0040512c <.LVL410>:
  40512c:	4614      	movlt	r4, r2

0040512e <.LVL411>:
  40512e:	2c00      	cmp	r4, #0
  405130:	f77f aa9e 	ble.w	404670 <.LVL104>
  405134:	2c10      	cmp	r4, #16
  405136:	9a23      	ldr	r2, [sp, #140]	; 0x8c
  405138:	dd1e      	ble.n	405178 <.LVL421>
  40513a:	2510      	movs	r5, #16

0040513c <.LVL412>:
  40513c:	9e05      	ldr	r6, [sp, #20]
  40513e:	e004      	b.n	40514a <.LVL416>

00405140 <.LVL413>:
  405140:	f109 0908 	add.w	r9, r9, #8

00405144 <.LVL414>:
  405144:	3c10      	subs	r4, #16
  405146:	2c10      	cmp	r4, #16
  405148:	dd16      	ble.n	405178 <.LVL421>

0040514a <.LVL416>:
  40514a:	3201      	adds	r2, #1
  40514c:	3310      	adds	r3, #16
  40514e:	2a07      	cmp	r2, #7
  405150:	9324      	str	r3, [sp, #144]	; 0x90

00405152 <.LVL417>:
  405152:	9223      	str	r2, [sp, #140]	; 0x8c
  405154:	f8c9 a000 	str.w	sl, [r9]
  405158:	f8c9 5004 	str.w	r5, [r9, #4]
  40515c:	ddf0      	ble.n	405140 <.LVL413>
  40515e:	aa22      	add	r2, sp, #136	; 0x88
  405160:	4631      	mov	r1, r6
  405162:	4658      	mov	r0, fp
  405164:	f005 fac6 	bl	40a6f4 <__ssprint_r>

00405168 <.LVL418>:
  405168:	2800      	cmp	r0, #0
  40516a:	f47f a949 	bne.w	404400 <.L189>
  40516e:	9b24      	ldr	r3, [sp, #144]	; 0x90
  405170:	9a23      	ldr	r2, [sp, #140]	; 0x8c

00405172 <.LVL419>:
  405172:	f10d 0994 	add.w	r9, sp, #148	; 0x94

00405176 <.LVL420>:
  405176:	e7e5      	b.n	405144 <.LVL414>

00405178 <.LVL421>:
  405178:	3201      	adds	r2, #1
  40517a:	4423      	add	r3, r4
  40517c:	2a07      	cmp	r2, #7
  40517e:	9324      	str	r3, [sp, #144]	; 0x90
  405180:	9223      	str	r2, [sp, #140]	; 0x8c
  405182:	f8c9 a000 	str.w	sl, [r9]
  405186:	f8c9 4004 	str.w	r4, [r9, #4]
  40518a:	f77f aa6f 	ble.w	40466c <.LVL103>
  40518e:	e591      	b.n	404cb4 <.LVL269>

00405190 <.LBE19>:
  405190:	f018 0f01 	tst.w	r8, #1
  405194:	f47f ad57 	bne.w	404c46 <.LVL260+0x22>
  405198:	2a07      	cmp	r2, #7
  40519a:	f77f ad7c 	ble.w	404c96 <.LVL266>
  40519e:	e6c0      	b.n	404f22 <.LVL348>

004051a0 <.LBB26>:
  4051a0:	aa22      	add	r2, sp, #136	; 0x88
  4051a2:	4629      	mov	r1, r5
  4051a4:	4658      	mov	r0, fp
  4051a6:	f005 faa5 	bl	40a6f4 <__ssprint_r>

004051aa <.LVL424>:
  4051aa:	2800      	cmp	r0, #0
  4051ac:	f47f a928 	bne.w	404400 <.L189>
  4051b0:	9824      	ldr	r0, [sp, #144]	; 0x90

004051b2 <.LVL425>:
  4051b2:	a925      	add	r1, sp, #148	; 0x94

004051b4 <.LVL426>:
  4051b4:	e72d      	b.n	405012 <.LBB18>

004051b6 <.LBE26>:
  4051b6:	aa22      	add	r2, sp, #136	; 0x88
  4051b8:	9905      	ldr	r1, [sp, #20]
  4051ba:	4658      	mov	r0, fp
  4051bc:	f005 fa9a 	bl	40a6f4 <__ssprint_r>

004051c0 <.LVL428>:
  4051c0:	2800      	cmp	r0, #0
  4051c2:	f47f a91d 	bne.w	404400 <.L189>
  4051c6:	9b24      	ldr	r3, [sp, #144]	; 0x90
  4051c8:	9a23      	ldr	r2, [sp, #140]	; 0x8c
  4051ca:	f10d 0994 	add.w	r9, sp, #148	; 0x94
  4051ce:	e53f      	b.n	404c50 <.LVL261>

004051d0 <.LVL429>:
  4051d0:	aa22      	add	r2, sp, #136	; 0x88
  4051d2:	9905      	ldr	r1, [sp, #20]
  4051d4:	4658      	mov	r0, fp
  4051d6:	f005 fa8d 	bl	40a6f4 <__ssprint_r>

004051da <.LVL430>:
  4051da:	2800      	cmp	r0, #0
  4051dc:	f47f a910 	bne.w	404400 <.L189>
  4051e0:	9b24      	ldr	r3, [sp, #144]	; 0x90
  4051e2:	9a23      	ldr	r2, [sp, #140]	; 0x8c
  4051e4:	f10d 0994 	add.w	r9, sp, #148	; 0x94

004051e8 <.LVL431>:
  4051e8:	e541      	b.n	404c6e <.LVL263>

004051ea <.LVL432>:
  4051ea:	aa22      	add	r2, sp, #136	; 0x88
  4051ec:	9905      	ldr	r1, [sp, #20]
  4051ee:	4658      	mov	r0, fp
  4051f0:	f005 fa80 	bl	40a6f4 <__ssprint_r>

004051f4 <.LVL433>:
  4051f4:	2800      	cmp	r0, #0
  4051f6:	f47f a903 	bne.w	404400 <.L189>
  4051fa:	9b24      	ldr	r3, [sp, #144]	; 0x90

004051fc <.LVL434>:
  4051fc:	f10d 0994 	add.w	r9, sp, #148	; 0x94

00405200 <.LVL435>:
  405200:	f7ff b9e7 	b.w	4045d2 <.LVL86+0x8>

00405204 <.LBB27>:
  405204:	9b12      	ldr	r3, [sp, #72]	; 0x48

00405206 <.LVL437>:
  405206:	3b01      	subs	r3, #1
  405208:	9312      	str	r3, [sp, #72]	; 0x48

0040520a <.LVL438>:
  40520a:	9b10      	ldr	r3, [sp, #64]	; 0x40

0040520c <.LVL439>:
  40520c:	3b01      	subs	r3, #1
  40520e:	9310      	str	r3, [sp, #64]	; 0x40

00405210 <.LVL440>:
  405210:	e6f2      	b.n	404ff8 <.LVL375>

00405212 <.LBE27>:
  405212:	eeb4 8b48 	vcmp.f64	d8, d8
  405216:	eef1 fa10 	vmrs	APSR_nzcv, fpscr
  40521a:	f180 83e3 	bvs.w	4059e4 <.LBE70>
  40521e:	9b0d      	ldr	r3, [sp, #52]	; 0x34
  405220:	2b61      	cmp	r3, #97	; 0x61
  405222:	f000 82b8 	beq.w	405796 <.LVL595+0xa>
  405226:	2b41      	cmp	r3, #65	; 0x41
  405228:	f000 8178 	beq.w	40551c <.LVL523>
  40522c:	9b04      	ldr	r3, [sp, #16]
  40522e:	3301      	adds	r3, #1
  405230:	9b0d      	ldr	r3, [sp, #52]	; 0x34
  405232:	f023 0520 	bic.w	r5, r3, #32
  405236:	f000 839d 	beq.w	405974 <.LBE69>
  40523a:	2d47      	cmp	r5, #71	; 0x47
  40523c:	d104      	bne.n	405248 <.LBB28>
  40523e:	9b04      	ldr	r3, [sp, #16]
  405240:	2b00      	cmp	r3, #0
  405242:	bf08      	it	eq
  405244:	2301      	moveq	r3, #1
  405246:	9304      	str	r3, [sp, #16]

00405248 <.LBB28>:
  405248:	ee18 3a90 	vmov	r3, s17

0040524c <.LBE28>:
  40524c:	f448 7280 	orr.w	r2, r8, #256	; 0x100

00405250 <.LBB43>:
  405250:	2b00      	cmp	r3, #0

00405252 <.LBE43>:
  405252:	9202      	str	r2, [sp, #8]

00405254 <.LBB44>:
  405254:	f04f 0300 	mov.w	r3, #0
  405258:	f2c0 82b8 	blt.w	4057cc <.LBB62>
  40525c:	eeb0 ab48 	vmov.f64	d10, d8
  405260:	9306      	str	r3, [sp, #24]
  405262:	9309      	str	r3, [sp, #36]	; 0x24

00405264 <.LVL445>:
  405264:	9b0d      	ldr	r3, [sp, #52]	; 0x34
  405266:	2b66      	cmp	r3, #102	; 0x66
  405268:	f000 82ef 	beq.w	40584a <.LBB64>
  40526c:	2b46      	cmp	r3, #70	; 0x46
  40526e:	f000 83d8 	beq.w	405a22 <.LBB71>
  405272:	eeb0 0b4a 	vmov.f64	d0, d10
  405276:	2d45      	cmp	r5, #69	; 0x45
  405278:	bf0a      	itet	eq
  40527a:	9b04      	ldreq	r3, [sp, #16]
  40527c:	9c04      	ldrne	r4, [sp, #16]
  40527e:	1c5c      	addeq	r4, r3, #1

00405280 <.LVL446>:
  405280:	aa20      	add	r2, sp, #128	; 0x80

00405282 <.LVL447>:
  405282:	ab1d      	add	r3, sp, #116	; 0x74
  405284:	9201      	str	r2, [sp, #4]
  405286:	9300      	str	r3, [sp, #0]
  405288:	4622      	mov	r2, r4
  40528a:	ab1c      	add	r3, sp, #112	; 0x70

0040528c <.LVL448>:
  40528c:	2102      	movs	r1, #2
  40528e:	4658      	mov	r0, fp
  405290:	f001 fb0e 	bl	4068b0 <_dtoa_r>

00405294 <.LVL449>:
  405294:	9b0d      	ldr	r3, [sp, #52]	; 0x34
  405296:	2b67      	cmp	r3, #103	; 0x67
  405298:	4606      	mov	r6, r0

0040529a <.LVL450>:
  40529a:	f040 8395 	bne.w	4059c8 <.LBB70>
  40529e:	f018 0f01 	tst.w	r8, #1
  4052a2:	f040 8343 	bne.w	40592c <.LBB66>

004052a6 <.LVL451>:
  4052a6:	9b20      	ldr	r3, [sp, #128]	; 0x80

004052a8 <.LVL452>:
  4052a8:	46c6      	mov	lr, r8
  4052aa:	1b9b      	subs	r3, r3, r6
  4052ac:	f8dd 8008 	ldr.w	r8, [sp, #8]
  4052b0:	930f      	str	r3, [sp, #60]	; 0x3c

004052b2 <.LBE44>:
  4052b2:	2d47      	cmp	r5, #71	; 0x47
  4052b4:	f000 81cf 	beq.w	405656 <.LVL554>
  4052b8:	9b0d      	ldr	r3, [sp, #52]	; 0x34
  4052ba:	2b46      	cmp	r3, #70	; 0x46
  4052bc:	f000 82b3 	beq.w	405826 <.LVL607>
  4052c0:	2b65      	cmp	r3, #101	; 0x65
  4052c2:	f340 8412 	ble.w	405aea <.LVL694>
  4052c6:	9b0d      	ldr	r3, [sp, #52]	; 0x34
  4052c8:	2b66      	cmp	r3, #102	; 0x66
  4052ca:	f000 82ac 	beq.w	405826 <.LVL607>
  4052ce:	9b1c      	ldr	r3, [sp, #112]	; 0x70
  4052d0:	930e      	str	r3, [sp, #56]	; 0x38

004052d2 <.LVL454>:
  4052d2:	9b0f      	ldr	r3, [sp, #60]	; 0x3c
  4052d4:	9a0e      	ldr	r2, [sp, #56]	; 0x38
  4052d6:	4619      	mov	r1, r3
  4052d8:	4291      	cmp	r1, r2
  4052da:	4613      	mov	r3, r2
  4052dc:	f300 8260 	bgt.w	4057a0 <.LVL596>

004052e0 <.LVL455>:
  4052e0:	f01e 0f01 	tst.w	lr, #1
  4052e4:	f000 8363 	beq.w	4059ae <.LVL655>
  4052e8:	9a15      	ldr	r2, [sp, #84]	; 0x54
  4052ea:	4413      	add	r3, r2
  4052ec:	9308      	str	r3, [sp, #32]

004052ee <.LVL456>:
  4052ee:	f41e 6f80 	tst.w	lr, #1024	; 0x400
  4052f2:	f000 8310 	beq.w	405916 <.LVL635>
  4052f6:	9b0e      	ldr	r3, [sp, #56]	; 0x38
  4052f8:	2b00      	cmp	r3, #0
  4052fa:	f340 830c 	ble.w	405916 <.LVL635>
  4052fe:	2367      	movs	r3, #103	; 0x67
  405300:	930d      	str	r3, [sp, #52]	; 0x34

00405302 <.LVL457>:
  405302:	9812      	ldr	r0, [sp, #72]	; 0x48
  405304:	9a0e      	ldr	r2, [sp, #56]	; 0x38
  405306:	2300      	movs	r3, #0
  405308:	9313      	str	r3, [sp, #76]	; 0x4c
  40530a:	9310      	str	r3, [sp, #64]	; 0x40
  40530c:	7803      	ldrb	r3, [r0, #0]

0040530e <.LVL458>:
  40530e:	2bff      	cmp	r3, #255	; 0xff
  405310:	d00e      	beq.n	405330 <.LVL461+0x8>
  405312:	429a      	cmp	r2, r3
  405314:	dd0c      	ble.n	405330 <.LVL461+0x8>
  405316:	7841      	ldrb	r1, [r0, #1]
  405318:	1ad2      	subs	r2, r2, r3
  40531a:	2900      	cmp	r1, #0
  40531c:	f000 8184 	beq.w	405628 <.LBE50>
  405320:	9b10      	ldr	r3, [sp, #64]	; 0x40
  405322:	3301      	adds	r3, #1
  405324:	9310      	str	r3, [sp, #64]	; 0x40

00405326 <.LVL460>:
  405326:	460b      	mov	r3, r1

00405328 <.LVL461>:
  405328:	2bff      	cmp	r3, #255	; 0xff
  40532a:	f100 0001 	add.w	r0, r0, #1
  40532e:	d1f0      	bne.n	405312 <.LVL458+0x4>
  405330:	920e      	str	r2, [sp, #56]	; 0x38
  405332:	9b10      	ldr	r3, [sp, #64]	; 0x40
  405334:	9a13      	ldr	r2, [sp, #76]	; 0x4c

00405336 <.LVL463>:
  405336:	9908      	ldr	r1, [sp, #32]
  405338:	9012      	str	r0, [sp, #72]	; 0x48
  40533a:	4413      	add	r3, r2
  40533c:	9a18      	ldr	r2, [sp, #96]	; 0x60
  40533e:	fb02 1303 	mla	r3, r2, r3, r1
  405342:	9308      	str	r3, [sp, #32]

00405344 <.LVL464>:
  405344:	ea23 73e3 	bic.w	r3, r3, r3, asr #31

00405348 <.LVL465>:
  405348:	9302      	str	r3, [sp, #8]

0040534a <.LVL466>:
  40534a:	9b06      	ldr	r3, [sp, #24]
  40534c:	2b00      	cmp	r3, #0
  40534e:	f040 817b 	bne.w	405648 <.LVL552>
  405352:	9304      	str	r3, [sp, #16]

00405354 <.LVL467>:
  405354:	f89d 206b 	ldrb.w	r2, [sp, #107]	; 0x6b
  405358:	f7ff b8c7 	b.w	4044ea <.L59>

0040535c <.LVL468>:
  40535c:	f025 0507 	bic.w	r5, r5, #7
  405360:	f105 0308 	add.w	r3, r5, #8
  405364:	ed95 8b00 	vldr	d8, [r5]

00405368 <.LVL469>:
  405368:	930a      	str	r3, [sp, #40]	; 0x28

0040536a <.LVL470>:
  40536a:	f7ff bb11 	b.w	404990 <.LVL189>

0040536e <.LVL471>:
  40536e:	464c      	mov	r4, r9
  405370:	4689      	mov	r9, r1

00405372 <.LBB20>:
  405372:	3201      	adds	r2, #1
  405374:	4423      	add	r3, r4
  405376:	2a07      	cmp	r2, #7
  405378:	9324      	str	r3, [sp, #144]	; 0x90
  40537a:	9223      	str	r2, [sp, #140]	; 0x8c
  40537c:	f8c9 a000 	str.w	sl, [r9]
  405380:	f8c9 4004 	str.w	r4, [r9, #4]
  405384:	f73f ae0e 	bgt.w	404fa4 <.LBB15>

00405388 <.LVL473>:
  405388:	f109 0908 	add.w	r9, r9, #8

0040538c <.LVL474>:
  40538c:	e615      	b.n	404fba <.LBE15>

0040538e <.LBB21>:
  40538e:	aa22      	add	r2, sp, #136	; 0x88
  405390:	4629      	mov	r1, r5

00405392 <.LVL476>:
  405392:	4658      	mov	r0, fp
  405394:	f005 f9ae 	bl	40a6f4 <__ssprint_r>

00405398 <.LVL477>:
  405398:	2800      	cmp	r0, #0
  40539a:	f47f a831 	bne.w	404400 <.L189>
  40539e:	9b12      	ldr	r3, [sp, #72]	; 0x48
  4053a0:	9824      	ldr	r0, [sp, #144]	; 0x90

004053a2 <.LVL478>:
  4053a2:	781b      	ldrb	r3, [r3, #0]
  4053a4:	a925      	add	r1, sp, #148	; 0x94

004053a6 <.LVL479>:
  4053a6:	e649      	b.n	40503c <.LVL382>

004053a8 <.LBE21>:
  4053a8:	aa22      	add	r2, sp, #136	; 0x88
  4053aa:	9905      	ldr	r1, [sp, #20]
  4053ac:	4658      	mov	r0, fp
  4053ae:	f005 f9a1 	bl	40a6f4 <__ssprint_r>

004053b2 <.LVL481>:
  4053b2:	2800      	cmp	r0, #0
  4053b4:	f47f a824 	bne.w	404400 <.L189>

004053b8 <.LVL482>:
  4053b8:	f10d 0994 	add.w	r9, sp, #148	; 0x94

004053bc <.LVL483>:
  4053bc:	f7ff bbb2 	b.w	404b24 <.LVL230>

004053c0 <.LBB22>:
  4053c0:	aa22      	add	r2, sp, #136	; 0x88
  4053c2:	4629      	mov	r1, r5
  4053c4:	4658      	mov	r0, fp
  4053c6:	f005 f995 	bl	40a6f4 <__ssprint_r>

004053ca <.LVL485>:
  4053ca:	2800      	cmp	r0, #0
  4053cc:	f47f a818 	bne.w	404400 <.L189>
  4053d0:	9b12      	ldr	r3, [sp, #72]	; 0x48
  4053d2:	9824      	ldr	r0, [sp, #144]	; 0x90

004053d4 <.LVL486>:
  4053d4:	781b      	ldrb	r3, [r3, #0]
  4053d6:	a925      	add	r1, sp, #148	; 0x94

004053d8 <.LBE22>:
  4053d8:	441e      	add	r6, r3
  4053da:	e664      	b.n	4050a6 <.LBE18+0x2>

004053dc <.LBE46>:
  4053dc:	9a23      	ldr	r2, [sp, #140]	; 0x8c
  4053de:	48c2      	ldr	r0, [pc, #776]	; (4056e8 <.LVL571+0x2>)
  4053e0:	f8c9 0000 	str.w	r0, [r9]
  4053e4:	3201      	adds	r2, #1
  4053e6:	3301      	adds	r3, #1
  4053e8:	2001      	movs	r0, #1
  4053ea:	2a07      	cmp	r2, #7
  4053ec:	9324      	str	r3, [sp, #144]	; 0x90
  4053ee:	9223      	str	r2, [sp, #140]	; 0x8c
  4053f0:	f8c9 0004 	str.w	r0, [r9, #4]
  4053f4:	f300 8085 	bgt.w	405502 <.LVL519>

004053f8 <.LVL490>:
  4053f8:	f109 0908 	add.w	r9, r9, #8

004053fc <.LVL491>:
  4053fc:	b929      	cbnz	r1, 40540a <.LVL491+0xe>
  4053fe:	9a0f      	ldr	r2, [sp, #60]	; 0x3c
  405400:	b91a      	cbnz	r2, 40540a <.LVL491+0xe>
  405402:	f018 0f01 	tst.w	r8, #1
  405406:	f43f a933 	beq.w	404670 <.LVL104>
  40540a:	9a23      	ldr	r2, [sp, #140]	; 0x8c
  40540c:	9c15      	ldr	r4, [sp, #84]	; 0x54

0040540e <.LVL492>:
  40540e:	9817      	ldr	r0, [sp, #92]	; 0x5c
  405410:	f8c9 0000 	str.w	r0, [r9]
  405414:	3201      	adds	r2, #1
  405416:	4423      	add	r3, r4
  405418:	2a07      	cmp	r2, #7
  40541a:	9324      	str	r3, [sp, #144]	; 0x90

0040541c <.LVL493>:
  40541c:	f8c9 4004 	str.w	r4, [r9, #4]
  405420:	9223      	str	r2, [sp, #140]	; 0x8c
  405422:	f300 826a 	bgt.w	4058fa <.LVL632>
  405426:	f109 0908 	add.w	r9, r9, #8

0040542a <.LVL494>:
  40542a:	2900      	cmp	r1, #0
  40542c:	f2c0 8244 	blt.w	4058b8 <.LBE24>

00405430 <.LVL495>:
  405430:	980f      	ldr	r0, [sp, #60]	; 0x3c
  405432:	f8c9 6000 	str.w	r6, [r9]
  405436:	3201      	adds	r2, #1
  405438:	4403      	add	r3, r0
  40543a:	2a07      	cmp	r2, #7
  40543c:	9324      	str	r3, [sp, #144]	; 0x90

0040543e <.LVL496>:
  40543e:	9223      	str	r2, [sp, #140]	; 0x8c
  405440:	f8c9 0004 	str.w	r0, [r9, #4]
  405444:	f77f a912 	ble.w	40466c <.LVL103>
  405448:	e434      	b.n	404cb4 <.LVL269>

0040544a <.LDL1>:
  40544a:	9b24      	ldr	r3, [sp, #144]	; 0x90
  40544c:	2b00      	cmp	r3, #0
  40544e:	f43e afdd 	beq.w	40440c <.LVL44>
  405452:	9c05      	ldr	r4, [sp, #20]
  405454:	9811      	ldr	r0, [sp, #68]	; 0x44
  405456:	aa22      	add	r2, sp, #136	; 0x88
  405458:	4621      	mov	r1, r4
  40545a:	f005 f94b 	bl	40a6f4 <__ssprint_r>

0040545e <.LVL498>:
  40545e:	2800      	cmp	r0, #0
  405460:	f43e afd4 	beq.w	40440c <.LVL44>
  405464:	f9b4 300c 	ldrsh.w	r3, [r4, #12]
  405468:	f7fe bfd3 	b.w	404412 <.LVL44+0x6>

0040546c <.LVL499>:
  40546c:	9a0a      	ldr	r2, [sp, #40]	; 0x28
  40546e:	9903      	ldr	r1, [sp, #12]
  405470:	6813      	ldr	r3, [r2, #0]
  405472:	17cd      	asrs	r5, r1, #31
  405474:	4608      	mov	r0, r1
  405476:	3204      	adds	r2, #4

00405478 <.LVL500>:
  405478:	4629      	mov	r1, r5
  40547a:	920a      	str	r2, [sp, #40]	; 0x28
  40547c:	e9c3 0100 	strd	r0, r1, [r3]
  405480:	463e      	mov	r6, r7

00405482 <.LVL501>:
  405482:	f7fe bef4 	b.w	40426e <.LVL10>

00405486 <.LVL502>:
  405486:	3304      	adds	r3, #4
  405488:	8814      	ldrh	r4, [r2, #0]
  40548a:	930a      	str	r3, [sp, #40]	; 0x28

0040548c <.LVL503>:
  40548c:	2500      	movs	r5, #0
  40548e:	f7ff b960 	b.w	404752 <.LVL126>

00405492 <.LVL504>:
  405492:	8814      	ldrh	r4, [r2, #0]
  405494:	3204      	adds	r2, #4
  405496:	2500      	movs	r5, #0
  405498:	2301      	movs	r3, #1
  40549a:	920a      	str	r2, [sp, #40]	; 0x28

0040549c <.LVL505>:
  40549c:	f7fe bffd 	b.w	40449a <.L150>

004054a0 <.LVL506>:
  4054a0:	3304      	adds	r3, #4
  4054a2:	8814      	ldrh	r4, [r2, #0]
  4054a4:	930a      	str	r3, [sp, #40]	; 0x28

004054a6 <.LVL507>:
  4054a6:	2500      	movs	r5, #0
  4054a8:	f7fe bfe5 	b.w	404476 <.LVL51>

004054ac <.LVL508>:
  4054ac:	980a      	ldr	r0, [sp, #40]	; 0x28
  4054ae:	f9b0 4000 	ldrsh.w	r4, [r0]
  4054b2:	f7ff b979 	b.w	4047a8 <.LVL136>

004054b6 <.LVL509>:
  4054b6:	aa22      	add	r2, sp, #136	; 0x88
  4054b8:	9905      	ldr	r1, [sp, #20]
  4054ba:	4658      	mov	r0, fp
  4054bc:	f005 f91a 	bl	40a6f4 <__ssprint_r>

004054c0 <.LVL510>:
  4054c0:	2800      	cmp	r0, #0
  4054c2:	f47e af9d 	bne.w	404400 <.L189>
  4054c6:	9b24      	ldr	r3, [sp, #144]	; 0x90

004054c8 <.LVL511>:
  4054c8:	f10d 0994 	add.w	r9, sp, #148	; 0x94

004054cc <.LVL512>:
  4054cc:	f7ff bb43 	b.w	404b56 <.LVL233>

004054d0 <.LVL513>:
  4054d0:	f448 6880 	orr.w	r8, r8, #1024	; 0x400
  4054d4:	783b      	ldrb	r3, [r7, #0]
  4054d6:	f7fe befa 	b.w	4042ce <.LVL22>

004054da <.LBB47>:
  4054da:	f018 0f01 	tst.w	r8, #1
  4054de:	f43f ae0b 	beq.w	4050f8 <.LBB19>
  4054e2:	e5f9      	b.n	4050d8 <.LVL403+0xa>

004054e4 <.LBE47>:
  4054e4:	2140      	movs	r1, #64	; 0x40
  4054e6:	9811      	ldr	r0, [sp, #68]	; 0x44

004054e8 <.LVL517>:
  4054e8:	f002 fb78 	bl	407bdc <.LFE14>

004054ec <.LVL518>:
  4054ec:	9a05      	ldr	r2, [sp, #20]
  4054ee:	6010      	str	r0, [r2, #0]
  4054f0:	6110      	str	r0, [r2, #16]
  4054f2:	2800      	cmp	r0, #0
  4054f4:	f000 82f1 	beq.w	405ada <.LBE76>
  4054f8:	9a05      	ldr	r2, [sp, #20]
  4054fa:	2340      	movs	r3, #64	; 0x40
  4054fc:	6153      	str	r3, [r2, #20]
  4054fe:	f7fe bea0 	b.w	404242 <.LVL6>

00405502 <.LVL519>:
  405502:	aa22      	add	r2, sp, #136	; 0x88
  405504:	9905      	ldr	r1, [sp, #20]
  405506:	4658      	mov	r0, fp
  405508:	f005 f8f4 	bl	40a6f4 <__ssprint_r>

0040550c <.LVL520>:
  40550c:	2800      	cmp	r0, #0
  40550e:	f47e af77 	bne.w	404400 <.L189>
  405512:	991c      	ldr	r1, [sp, #112]	; 0x70
  405514:	9b24      	ldr	r3, [sp, #144]	; 0x90

00405516 <.LVL521>:
  405516:	f10d 0994 	add.w	r9, sp, #148	; 0x94

0040551a <.LVL522>:
  40551a:	e76f      	b.n	4053fc <.LVL491>

0040551c <.LVL523>:
  40551c:	2330      	movs	r3, #48	; 0x30
  40551e:	f88d 306c 	strb.w	r3, [sp, #108]	; 0x6c
  405522:	2358      	movs	r3, #88	; 0x58
  405524:	f88d 306d 	strb.w	r3, [sp, #109]	; 0x6d
  405528:	9b04      	ldr	r3, [sp, #16]
  40552a:	2b63      	cmp	r3, #99	; 0x63
  40552c:	f048 0402 	orr.w	r4, r8, #2

00405530 <.LVL524>:
  405530:	f300 8240 	bgt.w	4059b4 <.LVL656>
  405534:	2300      	movs	r3, #0
  405536:	9309      	str	r3, [sp, #36]	; 0x24
  405538:	ae35      	add	r6, sp, #212	; 0xd4

0040553a <.LBB48>:
  40553a:	ee18 3a90 	vmov	r3, s17
  40553e:	2b00      	cmp	r3, #0
  405540:	9b0d      	ldr	r3, [sp, #52]	; 0x34

00405542 <.LBE48>:
  405542:	f448 7281 	orr.w	r2, r8, #258	; 0x102
  405546:	9202      	str	r2, [sp, #8]

00405548 <.LBB49>:
  405548:	46a0      	mov	r8, r4
  40554a:	f023 0520 	bic.w	r5, r3, #32
  40554e:	f2c0 813e 	blt.w	4057ce <.LVL602>
  405552:	eeb0 ab48 	vmov.f64	d10, d8
  405556:	2300      	movs	r3, #0
  405558:	9306      	str	r3, [sp, #24]

0040555a <.LVL527>:
  40555a:	9b0d      	ldr	r3, [sp, #52]	; 0x34
  40555c:	2b61      	cmp	r3, #97	; 0x61
  40555e:	f000 81ec 	beq.w	40593a <.LBB68>
  405562:	2b41      	cmp	r3, #65	; 0x41
  405564:	f47f ae7e 	bne.w	405264 <.LVL445>
  405568:	eeb0 0b4a 	vmov.f64	d0, d10
  40556c:	a81c      	add	r0, sp, #112	; 0x70

0040556e <.LVL528>:
  40556e:	f006 fe1f 	bl	40c1b0 <.LBE12>

00405572 <.LVL529>:
  405572:	eeb4 7b00 	vmov.f64	d7, #64	; 0x3e000000  0.125
  405576:	ee20 0b07 	vmul.f64	d0, d0, d7

0040557a <.LVL530>:
  40557a:	eeb5 0b40 	vcmp.f64	d0, #0.0
  40557e:	eef1 fa10 	vmrs	APSR_nzcv, fpscr
  405582:	d101      	bne.n	405588 <.LVL530+0xe>
  405584:	2301      	movs	r3, #1
  405586:	931c      	str	r3, [sp, #112]	; 0x70
  405588:	4c58      	ldr	r4, [pc, #352]	; (4056ec <.LVL571+0x6>)

0040558a <.LVL531>:
  40558a:	9b04      	ldr	r3, [sp, #16]
  40558c:	eeb3 5b00 	vmov.f64	d5, #48	; 0x41800000  16.0
  405590:	3b01      	subs	r3, #1
  405592:	4631      	mov	r1, r6
  405594:	e005      	b.n	4055a2 <.LVL533>

00405596 <.LVL532>:
  405596:	eeb5 0b40 	vcmp.f64	d0, #0.0
  40559a:	eef1 fa10 	vmrs	APSR_nzcv, fpscr
  40559e:	d014      	beq.n	4055ca <.LVL536+0x6>
  4055a0:	4611      	mov	r1, r2

004055a2 <.LVL533>:
  4055a2:	ee20 0b05 	vmul.f64	d0, d0, d5
  4055a6:	eefd 6bc0 	vcvt.s32.f64	s13, d0

004055aa <.LVL535>:
  4055aa:	460a      	mov	r2, r1
  4055ac:	ee16 0a90 	vmov	r0, s13
  4055b0:	f1b3 3fff 	cmp.w	r3, #4294967295
  4055b4:	5c20      	ldrb	r0, [r4, r0]
  4055b6:	f802 0b01 	strb.w	r0, [r2], #1
  4055ba:	eeb8 7be6 	vcvt.f64.s32	d7, s13
  4055be:	4618      	mov	r0, r3
  4055c0:	ee30 0b47 	vsub.f64	d0, d0, d7

004055c4 <.LVL536>:
  4055c4:	f103 33ff 	add.w	r3, r3, #4294967295
  4055c8:	d1e5      	bne.n	405596 <.LVL532>
  4055ca:	eeb6 7b00 	vmov.f64	d7, #96	; 0x3f000000  0.5
  4055ce:	eeb4 0bc7 	vcmpe.f64	d0, d7
  4055d2:	eef1 fa10 	vmrs	APSR_nzcv, fpscr
  4055d6:	f300 80ff 	bgt.w	4057d8 <.LVL604>
  4055da:	eeb4 0b47 	vcmp.f64	d0, d7
  4055de:	eef1 fa10 	vmrs	APSR_nzcv, fpscr
  4055e2:	d104      	bne.n	4055ee <.LVL537>
  4055e4:	ee16 3a90 	vmov	r3, s13
  4055e8:	07db      	lsls	r3, r3, #31
  4055ea:	f100 80f5 	bmi.w	4057d8 <.LVL604>

004055ee <.LVL537>:
  4055ee:	2800      	cmp	r0, #0
  4055f0:	db07      	blt.n	405602 <.LVL541>
  4055f2:	1814      	adds	r4, r2, r0

004055f4 <.LVL538>:
  4055f4:	2330      	movs	r3, #48	; 0x30

004055f6 <.LVL539>:
  4055f6:	f801 3f01 	strb.w	r3, [r1, #1]!

004055fa <.LVL540>:
  4055fa:	42a1      	cmp	r1, r4
  4055fc:	d1fb      	bne.n	4055f6 <.LVL539>
  4055fe:	3001      	adds	r0, #1
  405600:	4402      	add	r2, r0

00405602 <.LVL541>:
  405602:	1b93      	subs	r3, r2, r6
  405604:	46c6      	mov	lr, r8
  405606:	930f      	str	r3, [sp, #60]	; 0x3c

00405608 <.LVL542>:
  405608:	f8dd 8008 	ldr.w	r8, [sp, #8]
  40560c:	e651      	b.n	4052b2 <.LBE44>

0040560e <.LBB50>:
  40560e:	aa22      	add	r2, sp, #136	; 0x88
  405610:	9905      	ldr	r1, [sp, #20]
  405612:	4658      	mov	r0, fp
  405614:	f005 f86e 	bl	40a6f4 <__ssprint_r>

00405618 <.LVL544>:
  405618:	2800      	cmp	r0, #0
  40561a:	f47e aef1 	bne.w	404400 <.L189>
  40561e:	9a1c      	ldr	r2, [sp, #112]	; 0x70
  405620:	9b24      	ldr	r3, [sp, #144]	; 0x90

00405622 <.LVL545>:
  405622:	f10d 0994 	add.w	r9, sp, #148	; 0x94

00405626 <.LVL546>:
  405626:	e567      	b.n	4050f8 <.LBB19>

00405628 <.LBE50>:
  405628:	9913      	ldr	r1, [sp, #76]	; 0x4c
  40562a:	3101      	adds	r1, #1
  40562c:	9113      	str	r1, [sp, #76]	; 0x4c

0040562e <.LVL548>:
  40562e:	e66e      	b.n	40530e <.LVL458>

00405630 <.LVL549>:
  405630:	4630      	mov	r0, r6
  405632:	9404      	str	r4, [sp, #16]
  405634:	f005 fba4 	bl	40ad80 <strlen>

00405638 <.LVL550>:
  405638:	ea20 72e0 	bic.w	r2, r0, r0, asr #31
  40563c:	9008      	str	r0, [sp, #32]

0040563e <.LVL551>:
  40563e:	950a      	str	r5, [sp, #40]	; 0x28
  405640:	9202      	str	r2, [sp, #8]
  405642:	4623      	mov	r3, r4
  405644:	f7ff b96b 	b.w	40491e <.LBE12>

00405648 <.LVL552>:
  405648:	222d      	movs	r2, #45	; 0x2d
  40564a:	2300      	movs	r3, #0
  40564c:	f88d 206b 	strb.w	r2, [sp, #107]	; 0x6b
  405650:	9304      	str	r3, [sp, #16]

00405652 <.LVL553>:
  405652:	f7fe bf4b 	b.w	4044ec <.LVL63>

00405656 <.LVL554>:
  405656:	9b1c      	ldr	r3, [sp, #112]	; 0x70
  405658:	930e      	str	r3, [sp, #56]	; 0x38
  40565a:	1cda      	adds	r2, r3, #3
  40565c:	db03      	blt.n	405666 <.LVL555>
  40565e:	9a04      	ldr	r2, [sp, #16]
  405660:	4293      	cmp	r3, r2
  405662:	f77f ae36 	ble.w	4052d2 <.LVL454>

00405666 <.LVL555>:
  405666:	9b0d      	ldr	r3, [sp, #52]	; 0x34
  405668:	3b02      	subs	r3, #2

0040566a <.LVL556>:
  40566a:	930d      	str	r3, [sp, #52]	; 0x34
  40566c:	f023 0520 	bic.w	r5, r3, #32

00405670 <.LVL557>:
  405670:	9b0e      	ldr	r3, [sp, #56]	; 0x38

00405672 <.LBB51>:
  405672:	2d41      	cmp	r5, #65	; 0x41

00405674 <.LBE51>:
  405674:	f103 33ff 	add.w	r3, r3, #4294967295
  405678:	931c      	str	r3, [sp, #112]	; 0x70

0040567a <.LBB59>:
  40567a:	f000 8159 	beq.w	405930 <.LBB67>

0040567e <.LVL559>:
  40567e:	f89d 2034 	ldrb.w	r2, [sp, #52]	; 0x34
  405682:	2100      	movs	r1, #0

00405684 <.LVL560>:
  405684:	2b00      	cmp	r3, #0
  405686:	bfb8      	it	lt
  405688:	9b0e      	ldrlt	r3, [sp, #56]	; 0x38

0040568a <.LVL561>:
  40568a:	f88d 2078 	strb.w	r2, [sp, #120]	; 0x78
  40568e:	bfba      	itte	lt
  405690:	f1c3 0301 	rsblt	r3, r3, #1

00405694 <.LVL562>:
  405694:	222d      	movlt	r2, #45	; 0x2d
  405696:	222b      	movge	r2, #43	; 0x2b
  405698:	2b09      	cmp	r3, #9
  40569a:	f88d 2079 	strb.w	r2, [sp, #121]	; 0x79

0040569e <.LVL563>:
  40569e:	f340 815d 	ble.w	40595c <.LBB69>
  4056a2:	f10d 0487 	add.w	r4, sp, #135	; 0x87

004056a6 <.LVL564>:
  4056a6:	4620      	mov	r0, r4
  4056a8:	4d11      	ldr	r5, [pc, #68]	; (4056f0 <.LVL571+0xa>)
  4056aa:	e000      	b.n	4056ae <.LVL566>

004056ac <.LVL565>:
  4056ac:	4610      	mov	r0, r2

004056ae <.LVL566>:
  4056ae:	fb85 1203 	smull	r1, r2, r5, r3
  4056b2:	17d9      	asrs	r1, r3, #31
  4056b4:	ebc1 01a2 	rsb	r1, r1, r2, asr #2
  4056b8:	eb01 0281 	add.w	r2, r1, r1, lsl #2
  4056bc:	eba3 0242 	sub.w	r2, r3, r2, lsl #1
  4056c0:	3230      	adds	r2, #48	; 0x30
  4056c2:	2909      	cmp	r1, #9
  4056c4:	f800 2c01 	strb.w	r2, [r0, #-1]
  4056c8:	460b      	mov	r3, r1

004056ca <.LVL567>:
  4056ca:	f100 32ff 	add.w	r2, r0, #4294967295

004056ce <.LVL568>:
  4056ce:	dced      	bgt.n	4056ac <.LVL565>

004056d0 <.LVL569>:
  4056d0:	3330      	adds	r3, #48	; 0x30
  4056d2:	3802      	subs	r0, #2
  4056d4:	b2db      	uxtb	r3, r3
  4056d6:	4284      	cmp	r4, r0
  4056d8:	f802 3c01 	strb.w	r3, [r2, #-1]
  4056dc:	f240 81fa 	bls.w	405ad4 <.LBB76>
  4056e0:	f10d 007a 	add.w	r0, sp, #122	; 0x7a

004056e4 <.LVL570>:
  4056e4:	4611      	mov	r1, r2

004056e6 <.LVL571>:
  4056e6:	e007      	b.n	4056f8 <.LVL573>
  4056e8:	0040cdd8 	.word	0x0040cdd8
  4056ec:	0040cda8 	.word	0x0040cda8
  4056f0:	66666667 	.word	0x66666667

004056f4 <.LVL572>:
  4056f4:	f811 3b01 	ldrb.w	r3, [r1], #1

004056f8 <.LVL573>:
  4056f8:	f800 3b01 	strb.w	r3, [r0], #1

004056fc <.LVL574>:
  4056fc:	428c      	cmp	r4, r1
  4056fe:	d1f9      	bne.n	4056f4 <.LVL572>
  405700:	3401      	adds	r4, #1
  405702:	1aa2      	subs	r2, r4, r2

00405704 <.LVL575>:
  405704:	f10d 037a 	add.w	r3, sp, #122	; 0x7a
  405708:	441a      	add	r2, r3

0040570a <.LVL576>:
  40570a:	ab1e      	add	r3, sp, #120	; 0x78

0040570c <.LVL577>:
  40570c:	1ad3      	subs	r3, r2, r3

0040570e <.LBE59>:
  40570e:	9a0f      	ldr	r2, [sp, #60]	; 0x3c

00405710 <.LBB60>:
  405710:	9319      	str	r3, [sp, #100]	; 0x64

00405712 <.LBE60>:
  405712:	2a01      	cmp	r2, #1
  405714:	4413      	add	r3, r2
  405716:	9308      	str	r3, [sp, #32]

00405718 <.LVL581>:
  405718:	f340 81ad 	ble.w	405a76 <.LBE72>
  40571c:	9b08      	ldr	r3, [sp, #32]

0040571e <.LVL582>:
  40571e:	9a15      	ldr	r2, [sp, #84]	; 0x54
  405720:	4413      	add	r3, r2
  405722:	9308      	str	r3, [sp, #32]
  405724:	2300      	movs	r3, #0
  405726:	9313      	str	r3, [sp, #76]	; 0x4c
  405728:	9310      	str	r3, [sp, #64]	; 0x40
  40572a:	930e      	str	r3, [sp, #56]	; 0x38
  40572c:	9b08      	ldr	r3, [sp, #32]
  40572e:	f42e 6e80 	bic.w	lr, lr, #1024	; 0x400
  405732:	ea23 73e3 	bic.w	r3, r3, r3, asr #31
  405736:	f44e 7880 	orr.w	r8, lr, #256	; 0x100

0040573a <.LVL584>:
  40573a:	9302      	str	r3, [sp, #8]
  40573c:	e605      	b.n	40534a <.LVL466>

0040573e <.LBB23>:
  40573e:	aa22      	add	r2, sp, #136	; 0x88
  405740:	9905      	ldr	r1, [sp, #20]
  405742:	4658      	mov	r0, fp
  405744:	f004 ffd6 	bl	40a6f4 <__ssprint_r>

00405748 <.LVL586>:
  405748:	2800      	cmp	r0, #0
  40574a:	f47e ae59 	bne.w	404400 <.L189>
  40574e:	9b24      	ldr	r3, [sp, #144]	; 0x90

00405750 <.LVL587>:
  405750:	f10d 0994 	add.w	r9, sp, #148	; 0x94

00405754 <.LVL588>:
  405754:	f7ff bb29 	b.w	404daa <.LVL300>

00405758 <.LBE23>:
  405758:	9a0a      	ldr	r2, [sp, #40]	; 0x28
  40575a:	6813      	ldr	r3, [r2, #0]
  40575c:	3204      	adds	r2, #4

0040575e <.LVL590>:
  40575e:	920a      	str	r2, [sp, #40]	; 0x28
  405760:	f8bd 200c 	ldrh.w	r2, [sp, #12]

00405764 <.LVL591>:
  405764:	801a      	strh	r2, [r3, #0]
  405766:	463e      	mov	r6, r7

00405768 <.LVL592>:
  405768:	f7fe bd81 	b.w	40426e <.LVL10>

0040576c <.LVL593>:
  40576c:	9b04      	ldr	r3, [sp, #16]
  40576e:	9613      	str	r6, [sp, #76]	; 0x4c
  405770:	2b06      	cmp	r3, #6
  405772:	bf28      	it	cs
  405774:	2306      	movcs	r3, #6
  405776:	4632      	mov	r2, r6
  405778:	9604      	str	r6, [sp, #16]
  40577a:	9610      	str	r6, [sp, #64]	; 0x40
  40577c:	960e      	str	r6, [sp, #56]	; 0x38
  40577e:	9609      	str	r6, [sp, #36]	; 0x24
  405780:	9302      	str	r3, [sp, #8]

00405782 <.LVL594>:
  405782:	950a      	str	r5, [sp, #40]	; 0x28
  405784:	9308      	str	r3, [sp, #32]
  405786:	4eae      	ldr	r6, [pc, #696]	; (405a40 <.LVL671+0x2>)
  405788:	f7fe beaf 	b.w	4044ea <.L59>

0040578c <.LVL595>:
  40578c:	222d      	movs	r2, #45	; 0x2d
  40578e:	f88d 206b 	strb.w	r2, [sp, #107]	; 0x6b
  405792:	f7ff b90d 	b.w	4049b0 <.LVL189+0x20>
  405796:	2330      	movs	r3, #48	; 0x30
  405798:	f88d 306c 	strb.w	r3, [sp, #108]	; 0x6c
  40579c:	2378      	movs	r3, #120	; 0x78
  40579e:	e6c1      	b.n	405524 <.LVL523+0x8>

004057a0 <.LVL596>:
  4057a0:	9b0f      	ldr	r3, [sp, #60]	; 0x3c
  4057a2:	9a15      	ldr	r2, [sp, #84]	; 0x54
  4057a4:	4413      	add	r3, r2
  4057a6:	9308      	str	r3, [sp, #32]

004057a8 <.LVL597>:
  4057a8:	9b0e      	ldr	r3, [sp, #56]	; 0x38

004057aa <.LVL598>:
  4057aa:	2b00      	cmp	r3, #0
  4057ac:	f340 814e 	ble.w	405a4c <.LBE71>
  4057b0:	2367      	movs	r3, #103	; 0x67
  4057b2:	930d      	str	r3, [sp, #52]	; 0x34

004057b4 <.LVL599>:
  4057b4:	f41e 6f80 	tst.w	lr, #1024	; 0x400
  4057b8:	f47f ada3 	bne.w	405302 <.LVL457>
  4057bc:	9b08      	ldr	r3, [sp, #32]
  4057be:	ea23 73e3 	bic.w	r3, r3, r3, asr #31
  4057c2:	9302      	str	r3, [sp, #8]

004057c4 <.LVL600>:
  4057c4:	2300      	movs	r3, #0
  4057c6:	9313      	str	r3, [sp, #76]	; 0x4c
  4057c8:	9310      	str	r3, [sp, #64]	; 0x40
  4057ca:	e5be      	b.n	40534a <.LVL466>

004057cc <.LBB62>:
  4057cc:	9309      	str	r3, [sp, #36]	; 0x24

004057ce <.LVL602>:
  4057ce:	232d      	movs	r3, #45	; 0x2d
  4057d0:	9306      	str	r3, [sp, #24]
  4057d2:	eeb1 ab48 	vneg.f64	d10, d8

004057d6 <.LVL603>:
  4057d6:	e6c0      	b.n	40555a <.LVL527>

004057d8 <.LVL604>:
  4057d8:	9120      	str	r1, [sp, #128]	; 0x80
  4057da:	f812 0c01 	ldrb.w	r0, [r2, #-1]

004057de <.LVL605>:
  4057de:	7be3      	ldrb	r3, [r4, #15]
  4057e0:	4283      	cmp	r3, r0
  4057e2:	f040 8150 	bne.w	405a86 <.LBB74>
  4057e6:	4613      	mov	r3, r2
  4057e8:	f04f 0e30 	mov.w	lr, #48	; 0x30
  4057ec:	f803 ec01 	strb.w	lr, [r3, #-1]
  4057f0:	9b20      	ldr	r3, [sp, #128]	; 0x80
  4057f2:	1e59      	subs	r1, r3, #1
  4057f4:	9120      	str	r1, [sp, #128]	; 0x80
  4057f6:	f813 1c01 	ldrb.w	r1, [r3, #-1]
  4057fa:	4281      	cmp	r1, r0
  4057fc:	d0f6      	beq.n	4057ec <.LVL605+0xe>
  4057fe:	2939      	cmp	r1, #57	; 0x39
  405800:	bf16      	itet	ne
  405802:	3101      	addne	r1, #1
  405804:	7aa1      	ldrbeq	r1, [r4, #10]
  405806:	b2c9      	uxtbne	r1, r1
  405808:	f803 1c01 	strb.w	r1, [r3, #-1]
  40580c:	e6f9      	b.n	405602 <.LVL541>

0040580e <.LBB63>:
  40580e:	9b04      	ldr	r3, [sp, #16]
  405810:	9302      	str	r3, [sp, #8]
  405812:	9308      	str	r3, [sp, #32]

00405814 <.LBE63>:
  405814:	9004      	str	r0, [sp, #16]
  405816:	950a      	str	r5, [sp, #40]	; 0x28
  405818:	9013      	str	r0, [sp, #76]	; 0x4c
  40581a:	9010      	str	r0, [sp, #64]	; 0x40
  40581c:	900e      	str	r0, [sp, #56]	; 0x38
  40581e:	f89d 206b 	ldrb.w	r2, [sp, #107]	; 0x6b
  405822:	f7fe be62 	b.w	4044ea <.L59>

00405826 <.LVL607>:
  405826:	9b1c      	ldr	r3, [sp, #112]	; 0x70
  405828:	930e      	str	r3, [sp, #56]	; 0x38
  40582a:	2b00      	cmp	r3, #0
  40582c:	9b04      	ldr	r3, [sp, #16]
  40582e:	f340 812d 	ble.w	405a8c <.LBE74>

00405832 <.LVL608>:
  405832:	2b00      	cmp	r3, #0
  405834:	f040 80ec 	bne.w	405a10 <.LVL665>
  405838:	f01e 0f01 	tst.w	lr, #1
  40583c:	f040 80e8 	bne.w	405a10 <.LVL665>
  405840:	9b0e      	ldr	r3, [sp, #56]	; 0x38
  405842:	9308      	str	r3, [sp, #32]
  405844:	2366      	movs	r3, #102	; 0x66
  405846:	930d      	str	r3, [sp, #52]	; 0x34
  405848:	e7b4      	b.n	4057b4 <.LVL599>

0040584a <.LBB64>:
  40584a:	9c04      	ldr	r4, [sp, #16]
  40584c:	eeb0 0b4a 	vmov.f64	d0, d10
  405850:	aa20      	add	r2, sp, #128	; 0x80

00405852 <.LVL610>:
  405852:	ab1d      	add	r3, sp, #116	; 0x74
  405854:	9201      	str	r2, [sp, #4]
  405856:	9300      	str	r3, [sp, #0]
  405858:	2103      	movs	r1, #3
  40585a:	ab1c      	add	r3, sp, #112	; 0x70

0040585c <.LVL611>:
  40585c:	4622      	mov	r2, r4
  40585e:	4658      	mov	r0, fp
  405860:	f001 f826 	bl	4068b0 <_dtoa_r>

00405864 <.LVL612>:
  405864:	4606      	mov	r6, r0

00405866 <.LVL613>:
  405866:	1901      	adds	r1, r0, r4

00405868 <.LVL614>:
  405868:	7833      	ldrb	r3, [r6, #0]
  40586a:	2b30      	cmp	r3, #48	; 0x30
  40586c:	f000 80f9 	beq.w	405a62 <.LBB72>
  405870:	9c1c      	ldr	r4, [sp, #112]	; 0x70

00405872 <.LVL615>:
  405872:	4421      	add	r1, r4
  405874:	eeb5 ab40 	vcmp.f64	d10, #0.0
  405878:	eef1 fa10 	vmrs	APSR_nzcv, fpscr
  40587c:	d00b      	beq.n	405896 <.LVL618>
  40587e:	9b20      	ldr	r3, [sp, #128]	; 0x80
  405880:	4299      	cmp	r1, r3
  405882:	f67f ad11 	bls.w	4052a8 <.LVL452>
  405886:	2030      	movs	r0, #48	; 0x30

00405888 <.LVL617>:
  405888:	1c5a      	adds	r2, r3, #1
  40588a:	9220      	str	r2, [sp, #128]	; 0x80
  40588c:	7018      	strb	r0, [r3, #0]
  40588e:	9b20      	ldr	r3, [sp, #128]	; 0x80
  405890:	4299      	cmp	r1, r3
  405892:	d8f9      	bhi.n	405888 <.LVL617>
  405894:	e508      	b.n	4052a8 <.LVL452>

00405896 <.LVL618>:
  405896:	460b      	mov	r3, r1
  405898:	e506      	b.n	4052a8 <.LVL452>

0040589a <.LBB24>:
  40589a:	aa22      	add	r2, sp, #136	; 0x88
  40589c:	9905      	ldr	r1, [sp, #20]
  40589e:	4658      	mov	r0, fp
  4058a0:	f004 ff28 	bl	40a6f4 <__ssprint_r>

004058a4 <.LVL620>:
  4058a4:	2800      	cmp	r0, #0
  4058a6:	f47e adab 	bne.w	404400 <.L189>
  4058aa:	9a1c      	ldr	r2, [sp, #112]	; 0x70
  4058ac:	990f      	ldr	r1, [sp, #60]	; 0x3c
  4058ae:	9b24      	ldr	r3, [sp, #144]	; 0x90

004058b0 <.LVL621>:
  4058b0:	1a8a      	subs	r2, r1, r2
  4058b2:	f10d 0994 	add.w	r9, sp, #148	; 0x94

004058b6 <.LVL622>:
  4058b6:	e436      	b.n	405126 <.LVL409>

004058b8 <.LBE24>:
  4058b8:	424c      	negs	r4, r1
  4058ba:	3110      	adds	r1, #16

004058bc <.LVL624>:
  4058bc:	da5d      	bge.n	40597a <.LVL651>
  4058be:	2510      	movs	r5, #16
  4058c0:	e004      	b.n	4058cc <.LVL626+0x6>

004058c2 <.LVL625>:
  4058c2:	f109 0908 	add.w	r9, r9, #8

004058c6 <.LVL626>:
  4058c6:	3c10      	subs	r4, #16
  4058c8:	2c10      	cmp	r4, #16
  4058ca:	dd56      	ble.n	40597a <.LVL651>
  4058cc:	3201      	adds	r2, #1
  4058ce:	3310      	adds	r3, #16
  4058d0:	2a07      	cmp	r2, #7
  4058d2:	9324      	str	r3, [sp, #144]	; 0x90

004058d4 <.LVL629>:
  4058d4:	9223      	str	r2, [sp, #140]	; 0x8c
  4058d6:	f8c9 a000 	str.w	sl, [r9]
  4058da:	f8c9 5004 	str.w	r5, [r9, #4]
  4058de:	ddf0      	ble.n	4058c2 <.LVL625>
  4058e0:	aa22      	add	r2, sp, #136	; 0x88
  4058e2:	9905      	ldr	r1, [sp, #20]
  4058e4:	4658      	mov	r0, fp
  4058e6:	f004 ff05 	bl	40a6f4 <__ssprint_r>

004058ea <.LVL630>:
  4058ea:	2800      	cmp	r0, #0
  4058ec:	f47e ad88 	bne.w	404400 <.L189>
  4058f0:	9b24      	ldr	r3, [sp, #144]	; 0x90
  4058f2:	9a23      	ldr	r2, [sp, #140]	; 0x8c
  4058f4:	f10d 0994 	add.w	r9, sp, #148	; 0x94

004058f8 <.LVL631>:
  4058f8:	e7e5      	b.n	4058c6 <.LVL626>

004058fa <.LVL632>:
  4058fa:	aa22      	add	r2, sp, #136	; 0x88
  4058fc:	9905      	ldr	r1, [sp, #20]
  4058fe:	4658      	mov	r0, fp
  405900:	f004 fef8 	bl	40a6f4 <__ssprint_r>

00405904 <.LVL633>:
  405904:	2800      	cmp	r0, #0
  405906:	f47e ad7b 	bne.w	404400 <.L189>
  40590a:	991c      	ldr	r1, [sp, #112]	; 0x70
  40590c:	9b24      	ldr	r3, [sp, #144]	; 0x90
  40590e:	9a23      	ldr	r2, [sp, #140]	; 0x8c
  405910:	f10d 0994 	add.w	r9, sp, #148	; 0x94

00405914 <.LVL634>:
  405914:	e589      	b.n	40542a <.LVL494>

00405916 <.LVL635>:
  405916:	9b08      	ldr	r3, [sp, #32]
  405918:	ea23 73e3 	bic.w	r3, r3, r3, asr #31
  40591c:	9302      	str	r3, [sp, #8]

0040591e <.LVL636>:
  40591e:	2367      	movs	r3, #103	; 0x67
  405920:	930d      	str	r3, [sp, #52]	; 0x34
  405922:	e74f      	b.n	4057c4 <.LVL600>

00405924 <.LVL637>:
  405924:	2200      	movs	r2, #0
  405926:	9204      	str	r2, [sp, #16]
  405928:	f7fe bcd2 	b.w	4042d0 <.LVL22+0x2>

0040592c <.LBB66>:
  40592c:	1931      	adds	r1, r6, r4

0040592e <.LVL639>:
  40592e:	e7a1      	b.n	405874 <.LVL615+0x2>

00405930 <.LBB67>:
  405930:	9a0d      	ldr	r2, [sp, #52]	; 0x34
  405932:	320f      	adds	r2, #15
  405934:	b2d2      	uxtb	r2, r2
  405936:	2101      	movs	r1, #1
  405938:	e6a4      	b.n	405684 <.LVL560>

0040593a <.LBB68>:
  40593a:	eeb0 0b4a 	vmov.f64	d0, d10
  40593e:	a81c      	add	r0, sp, #112	; 0x70

00405940 <.LVL642>:
  405940:	f006 fc36 	bl	40c1b0 <.LBE12>

00405944 <.LVL643>:
  405944:	eeb4 7b00 	vmov.f64	d7, #64	; 0x3e000000  0.125
  405948:	ee20 0b07 	vmul.f64	d0, d0, d7

0040594c <.LVL644>:
  40594c:	eeb5 0b40 	vcmp.f64	d0, #0.0
  405950:	eef1 fa10 	vmrs	APSR_nzcv, fpscr
  405954:	f000 80af 	beq.w	405ab6 <.LBB75>
  405958:	4c3a      	ldr	r4, [pc, #232]	; (405a44 <.LVL671+0x6>)
  40595a:	e616      	b.n	40558a <.LVL531>

0040595c <.LBB69>:
  40595c:	2900      	cmp	r1, #0
  40595e:	f040 808f 	bne.w	405a80 <.LBB73>

00405962 <.LVL646>:
  405962:	2230      	movs	r2, #48	; 0x30
  405964:	f88d 207a 	strb.w	r2, [sp, #122]	; 0x7a
  405968:	f10d 027b 	add.w	r2, sp, #123	; 0x7b

0040596c <.LVL647>:
  40596c:	3330      	adds	r3, #48	; 0x30

0040596e <.LVL648>:
  40596e:	7013      	strb	r3, [r2, #0]
  405970:	3201      	adds	r2, #1
  405972:	e6ca      	b.n	40570a <.LVL576>

00405974 <.LBE69>:
  405974:	2306      	movs	r3, #6
  405976:	9304      	str	r3, [sp, #16]
  405978:	e466      	b.n	405248 <.LBB28>

0040597a <.LVL651>:
  40597a:	3201      	adds	r2, #1
  40597c:	4423      	add	r3, r4
  40597e:	2a07      	cmp	r2, #7
  405980:	f8c9 a000 	str.w	sl, [r9]
  405984:	f8c9 4004 	str.w	r4, [r9, #4]
  405988:	9324      	str	r3, [sp, #144]	; 0x90
  40598a:	9223      	str	r2, [sp, #140]	; 0x8c
  40598c:	f109 0908 	add.w	r9, r9, #8
  405990:	f77f ad4e 	ble.w	405430 <.LVL495>
  405994:	aa22      	add	r2, sp, #136	; 0x88
  405996:	9905      	ldr	r1, [sp, #20]
  405998:	4658      	mov	r0, fp
  40599a:	f004 feab 	bl	40a6f4 <__ssprint_r>

0040599e <.LVL653>:
  40599e:	2800      	cmp	r0, #0
  4059a0:	f47e ad2e 	bne.w	404400 <.L189>
  4059a4:	9b24      	ldr	r3, [sp, #144]	; 0x90
  4059a6:	9a23      	ldr	r2, [sp, #140]	; 0x8c
  4059a8:	f10d 0994 	add.w	r9, sp, #148	; 0x94

004059ac <.LVL654>:
  4059ac:	e540      	b.n	405430 <.LVL495>

004059ae <.LVL655>:
  4059ae:	9b0e      	ldr	r3, [sp, #56]	; 0x38
  4059b0:	9308      	str	r3, [sp, #32]
  4059b2:	e49c      	b.n	4052ee <.LVL456>

004059b4 <.LVL656>:
  4059b4:	1c59      	adds	r1, r3, #1
  4059b6:	4658      	mov	r0, fp
  4059b8:	f002 f910 	bl	407bdc <.LFE14>

004059bc <.LVL657>:
  4059bc:	4606      	mov	r6, r0

004059be <.LVL658>:
  4059be:	2800      	cmp	r0, #0
  4059c0:	f000 8096 	beq.w	405af0 <.LVL695>
  4059c4:	9009      	str	r0, [sp, #36]	; 0x24
  4059c6:	e5b8      	b.n	40553a <.LBB48>

004059c8 <.LBB70>:
  4059c8:	9b0d      	ldr	r3, [sp, #52]	; 0x34
  4059ca:	2b47      	cmp	r3, #71	; 0x47
  4059cc:	d1ae      	bne.n	40592c <.LBB66>
  4059ce:	f018 0f01 	tst.w	r8, #1
  4059d2:	f43f ac68 	beq.w	4052a6 <.LVL451>
  4059d6:	9b0d      	ldr	r3, [sp, #52]	; 0x34
  4059d8:	2b46      	cmp	r3, #70	; 0x46
  4059da:	eb06 0104 	add.w	r1, r6, r4

004059de <.LVL660>:
  4059de:	f43f af43 	beq.w	405868 <.LVL614>
  4059e2:	e747      	b.n	405874 <.LVL615+0x2>

004059e4 <.LBE70>:
  4059e4:	4e18      	ldr	r6, [pc, #96]	; (405a48 <.LVL671+0xa>)

004059e6 <.LVL662>:
  4059e6:	9c0d      	ldr	r4, [sp, #52]	; 0x34
  4059e8:	f89d 206b 	ldrb.w	r2, [sp, #107]	; 0x6b
  4059ec:	2300      	movs	r3, #0
  4059ee:	4619      	mov	r1, r3
  4059f0:	2003      	movs	r0, #3
  4059f2:	9309      	str	r3, [sp, #36]	; 0x24
  4059f4:	1f33      	subs	r3, r6, #4
  4059f6:	9104      	str	r1, [sp, #16]
  4059f8:	9002      	str	r0, [sp, #8]
  4059fa:	f028 0880 	bic.w	r8, r8, #128	; 0x80

004059fe <.LVL663>:
  4059fe:	2c47      	cmp	r4, #71	; 0x47
  405a00:	bfd8      	it	le
  405a02:	461e      	movle	r6, r3

00405a04 <.LVL664>:
  405a04:	9113      	str	r1, [sp, #76]	; 0x4c
  405a06:	9110      	str	r1, [sp, #64]	; 0x40
  405a08:	910e      	str	r1, [sp, #56]	; 0x38
  405a0a:	9008      	str	r0, [sp, #32]
  405a0c:	f7fe bd6d 	b.w	4044ea <.L59>

00405a10 <.LVL665>:
  405a10:	9a15      	ldr	r2, [sp, #84]	; 0x54
  405a12:	9b0e      	ldr	r3, [sp, #56]	; 0x38
  405a14:	4413      	add	r3, r2
  405a16:	9a04      	ldr	r2, [sp, #16]
  405a18:	441a      	add	r2, r3
  405a1a:	2366      	movs	r3, #102	; 0x66
  405a1c:	9208      	str	r2, [sp, #32]

00405a1e <.LVL666>:
  405a1e:	930d      	str	r3, [sp, #52]	; 0x34
  405a20:	e6c8      	b.n	4057b4 <.LVL599>

00405a22 <.LBB71>:
  405a22:	9c04      	ldr	r4, [sp, #16]
  405a24:	eeb0 0b4a 	vmov.f64	d0, d10
  405a28:	aa20      	add	r2, sp, #128	; 0x80

00405a2a <.LVL668>:
  405a2a:	ab1d      	add	r3, sp, #116	; 0x74
  405a2c:	9201      	str	r2, [sp, #4]
  405a2e:	9300      	str	r3, [sp, #0]
  405a30:	4622      	mov	r2, r4
  405a32:	ab1c      	add	r3, sp, #112	; 0x70

00405a34 <.LVL669>:
  405a34:	2103      	movs	r1, #3
  405a36:	4658      	mov	r0, fp
  405a38:	f000 ff3a 	bl	4068b0 <_dtoa_r>

00405a3c <.LVL670>:
  405a3c:	4606      	mov	r6, r0

00405a3e <.LVL671>:
  405a3e:	e7ca      	b.n	4059d6 <.LBB70+0xe>
  405a40:	0040cdd0 	.word	0x0040cdd0
  405a44:	0040cdbc 	.word	0x0040cdbc
  405a48:	0040cda4 	.word	0x0040cda4

00405a4c <.LBE71>:
  405a4c:	9a08      	ldr	r2, [sp, #32]
  405a4e:	f1c3 0301 	rsb	r3, r3, #1
  405a52:	441a      	add	r2, r3
  405a54:	ea22 73e2 	bic.w	r3, r2, r2, asr #31
  405a58:	9302      	str	r3, [sp, #8]

00405a5a <.LVL673>:
  405a5a:	2367      	movs	r3, #103	; 0x67
  405a5c:	9208      	str	r2, [sp, #32]

00405a5e <.LVL674>:
  405a5e:	930d      	str	r3, [sp, #52]	; 0x34
  405a60:	e6b0      	b.n	4057c4 <.LVL600>

00405a62 <.LBB72>:
  405a62:	eeb5 ab40 	vcmp.f64	d10, #0.0
  405a66:	eef1 fa10 	vmrs	APSR_nzcv, fpscr
  405a6a:	f43f af01 	beq.w	405870 <.LVL614+0x8>
  405a6e:	f1c4 0401 	rsb	r4, r4, #1

00405a72 <.LVL676>:
  405a72:	941c      	str	r4, [sp, #112]	; 0x70
  405a74:	e6fd      	b.n	405872 <.LVL615>

00405a76 <.LBE72>:
  405a76:	f01e 0f01 	tst.w	lr, #1
  405a7a:	f43f ae53 	beq.w	405724 <.LVL582+0x6>
  405a7e:	e64d      	b.n	40571c <.LVL581+0x4>

00405a80 <.LBB73>:
  405a80:	f10d 027a 	add.w	r2, sp, #122	; 0x7a

00405a84 <.LVL679>:
  405a84:	e772      	b.n	40596c <.LVL647>

00405a86 <.LBB74>:
  405a86:	4601      	mov	r1, r0
  405a88:	4613      	mov	r3, r2
  405a8a:	e6b8      	b.n	4057fe <.LVL605+0x20>

00405a8c <.LBE74>:
  405a8c:	b913      	cbnz	r3, 405a94 <.LBE74+0x8>
  405a8e:	f01e 0f01 	tst.w	lr, #1
  405a92:	d00a      	beq.n	405aaa <.LVL683>
  405a94:	9b15      	ldr	r3, [sp, #84]	; 0x54
  405a96:	9a04      	ldr	r2, [sp, #16]
  405a98:	3301      	adds	r3, #1
  405a9a:	441a      	add	r2, r3
  405a9c:	ea22 73e2 	bic.w	r3, r2, r2, asr #31
  405aa0:	9302      	str	r3, [sp, #8]

00405aa2 <.LVL682>:
  405aa2:	2366      	movs	r3, #102	; 0x66
  405aa4:	9208      	str	r2, [sp, #32]
  405aa6:	930d      	str	r3, [sp, #52]	; 0x34
  405aa8:	e68c      	b.n	4057c4 <.LVL600>

00405aaa <.LVL683>:
  405aaa:	2301      	movs	r3, #1
  405aac:	9302      	str	r3, [sp, #8]

00405aae <.LVL684>:
  405aae:	9308      	str	r3, [sp, #32]

00405ab0 <.LVL685>:
  405ab0:	2366      	movs	r3, #102	; 0x66
  405ab2:	930d      	str	r3, [sp, #52]	; 0x34
  405ab4:	e686      	b.n	4057c4 <.LVL600>

00405ab6 <.LBB75>:
  405ab6:	2301      	movs	r3, #1
  405ab8:	931c      	str	r3, [sp, #112]	; 0x70
  405aba:	e74d      	b.n	405958 <.LVL644+0xc>

00405abc <.LVL687>:
  405abc:	980a      	ldr	r0, [sp, #40]	; 0x28
  405abe:	787b      	ldrb	r3, [r7, #1]

00405ac0 <.LVL688>:
  405ac0:	6802      	ldr	r2, [r0, #0]
  405ac2:	ea42 72e2 	orr.w	r2, r2, r2, asr #31
  405ac6:	9204      	str	r2, [sp, #16]

00405ac8 <.LBE75>:
  405ac8:	4602      	mov	r2, r0
  405aca:	3204      	adds	r2, #4

00405acc <.LVL689>:
  405acc:	460f      	mov	r7, r1

00405ace <.LVL690>:
  405ace:	920a      	str	r2, [sp, #40]	; 0x28
  405ad0:	f7fe bbfd 	b.w	4042ce <.LVL22>

00405ad4 <.LBB76>:
  405ad4:	f10d 027a 	add.w	r2, sp, #122	; 0x7a

00405ad8 <.LVL692>:
  405ad8:	e617      	b.n	40570a <.LVL576>

00405ada <.LBE76>:
  405ada:	9a11      	ldr	r2, [sp, #68]	; 0x44
  405adc:	230c      	movs	r3, #12
  405ade:	6013      	str	r3, [r2, #0]
  405ae0:	f04f 33ff 	mov.w	r3, #4294967295
  405ae4:	9303      	str	r3, [sp, #12]
  405ae6:	f7fe bc9b 	b.w	404420 <.LVL45>

00405aea <.LVL694>:
  405aea:	9b1c      	ldr	r3, [sp, #112]	; 0x70
  405aec:	930e      	str	r3, [sp, #56]	; 0x38
  405aee:	e5bf      	b.n	405670 <.LVL557>

00405af0 <.LVL695>:
  405af0:	9a05      	ldr	r2, [sp, #20]
  405af2:	f9b2 300c 	ldrsh.w	r3, [r2, #12]
  405af6:	f043 0340 	orr.w	r3, r3, #64	; 0x40
  405afa:	8193      	strh	r3, [r2, #12]
  405afc:	f7fe bc89 	b.w	404412 <.LVL44+0x6>

Disassembly of section .dinit%33:

00405b00 <.dinit>:
  405b00:	2040dc64 	.word	0x2040dc64
  405b04:	0000001c 	.word	0x0000001c
  405b08:	00000000 	.word	0x00000000
  405b0c:	2040dcd4 	.word	0x2040dcd4
  405b10:	00000008 	.word	0x00000008
  405b14:	00000001 	.word	0x00000001
  405b18:	00000000 	.word	0x00000000
  405b1c:	2040dc44 	.word	0x2040dc44
  405b20:	2040dcdc 	.word	0x2040dcdc
  405b24:	00000004 	.word	0x00000004
  405b28:	00000001 	.word	0x00000001
  405b2c:	00000400 	.word	0x00000400
  405b30:	2040dcbc 	.word	0x2040dcbc
  405b34:	0000000c 	.word	0x0000000c
  405b38:	00000001 	.word	0x00000001
  405b3c:	2040dc80 	.word	0x2040dc80
  405b40:	0000001a 	.word	0x0000001a
  405b44:	08f0d180 	.word	0x08f0d180
  405b48:	2040dc80 	.word	0x2040dc80
  405b4c:	00000014 	.word	0x00000014
  405b50:	00000001 	.word	0x00000001
  405b54:	0040d981 	.word	0x0040d981
  405b58:	0040d969 	.word	0x0040d969
  405b5c:	0040d951 	.word	0x0040d951
  405b60:	0040d95d 	.word	0x0040d95d
  405b64:	0040d975 	.word	0x0040d975
  405b68:	20400000 	.word	0x20400000
  405b6c:	0000000c 	.word	0x0000000c
  405b70:	00000000 	.word	0x00000000
  405b74:	2040dce0 	.word	0x2040dce0
  405b78:	00000004 	.word	0x00000004
  405b7c:	00000000 	.word	0x00000000
  405b80:	20400488 	.word	0x20400488
  405b84:	0000c800 	.word	0x0000c800
  405b88:	00000000 	.word	0x00000000
  405b8c:	2040d6b8 	.word	0x2040d6b8
  405b90:	00000198 	.word	0x00000198
  405b94:	00000001 	.word	0x00000001
  405b98:	00010100 	.word	0x00010100
	...
  405d30:	20400040 	.word	0x20400040
  405d34:	00000400 	.word	0x00000400
  405d38:	00000000 	.word	0x00000000
  405d3c:	2040dcc8 	.word	0x2040dcc8
  405d40:	0000000c 	.word	0x0000000c
  405d44:	00000000 	.word	0x00000000
  405d48:	2040db4c 	.word	0x2040db4c
  405d4c:	00000050 	.word	0x00000050
  405d50:	00000000 	.word	0x00000000
  405d54:	2040d4b8 	.word	0x2040d4b8
  405d58:	00000200 	.word	0x00000200
  405d5c:	00000000 	.word	0x00000000
  405d60:	2040db9c 	.word	0x2040db9c
  405d64:	00000050 	.word	0x00000050
  405d68:	00000001 	.word	0x00000001
	...
  405db0:	00000101 	.word	0x00000101
	...
  405dbc:	2040dc44 	.word	0x2040dc44
  405dc0:	00000020 	.word	0x00000020
  405dc4:	00000001 	.word	0x00000001
  405dc8:	00000300 	.word	0x00000300
  405dcc:	0040d499 	.word	0x0040d499
  405dd0:	0040c911 	.word	0x0040c911
  405dd4:	0040cb11 	.word	0x0040cb11
  405dd8:	0040d675 	.word	0x0040d675
  405ddc:	0040984d 	.word	0x0040984d
  405de0:	0040cc3d 	.word	0x0040cc3d
  405de4:	0040cea1 	.word	0x0040cea1
  405de8:	2040dc94 	.word	0x2040dc94
  405dec:	00000014 	.word	0x00000014
  405df0:	00000001 	.word	0x00000001
	...
  405e00:	2040db4c 	.word	0x2040db4c
  405e04:	0000000a 	.word	0x0000000a
  405e08:	2040dca8 	.word	0x2040dca8
  405e0c:	00000014 	.word	0x00000014
  405e10:	00000001 	.word	0x00000001
	...
  405e20:	2040d4b8 	.word	0x2040d4b8
  405e24:	00000040 	.word	0x00000040
  405e28:	20400440 	.word	0x20400440
  405e2c:	00000009 	.word	0x00000009
  405e30:	00000000 	.word	0x00000000
  405e34:	2040dbec 	.word	0x2040dbec
  405e38:	00000030 	.word	0x00000030
  405e3c:	00000000 	.word	0x00000000
  405e40:	2040d850 	.word	0x2040d850
  405e44:	00000190 	.word	0x00000190
  405e48:	00000000 	.word	0x00000000
  405e4c:	2040dce4 	.word	0x2040dce4
  405e50:	00000004 	.word	0x00000004
  405e54:	00000000 	.word	0x00000000
  405e58:	2040044c 	.word	0x2040044c
  405e5c:	00000008 	.word	0x00000008
  405e60:	00000000 	.word	0x00000000
  405e64:	20400454 	.word	0x20400454
  405e68:	00000030 	.word	0x00000030
  405e6c:	00000000 	.word	0x00000000
  405e70:	2040dce8 	.word	0x2040dce8
  405e74:	00000004 	.word	0x00000004
  405e78:	00000001 	.word	0x00000001
  405e7c:	2040cc88 	.word	0x2040cc88
  405e80:	2040cc88 	.word	0x2040cc88
  405e84:	00000428 	.word	0x00000428
  405e88:	00000001 	.word	0x00000001
  405e8c:	00000000 	.word	0x00000000
  405e90:	2040cf74 	.word	0x2040cf74
  405e94:	2040cfdc 	.word	0x2040cfdc
  405e98:	2040d044 	.word	0x2040d044
	...
  405f34:	00000001 	.word	0x00000001
  405f38:	00000000 	.word	0x00000000
  405f3c:	abcd330e 	.word	0xabcd330e
  405f40:	e66d1234 	.word	0xe66d1234
  405f44:	0005deec 	.word	0x0005deec
  405f48:	0000000b 	.word	0x0000000b
	...
  4062b4:	2040d9e0 	.word	0x2040d9e0
  4062b8:	0000016c 	.word	0x0000016c
  4062bc:	00000001 	.word	0x00000001
  4062c0:	00000043 	.word	0x00000043
	...
  4062e0:	00000043 	.word	0x00000043
	...
  406300:	00000043 	.word	0x00000043
	...
  406320:	00000043 	.word	0x00000043
	...
  406340:	00000043 	.word	0x00000043
	...
  406360:	00000043 	.word	0x00000043
	...
  406380:	00000043 	.word	0x00000043
	...
  4063a0:	0040d54d 	.word	0x0040d54d
  4063a4:	0040d19d 	.word	0x0040d19d
  4063a8:	00000000 	.word	0x00000000
  4063ac:	0040a5f0 	.word	0x0040a5f0
  4063b0:	0040d774 	.word	0x0040d774
  4063b4:	0040d770 	.word	0x0040d770
  4063b8:	0040d770 	.word	0x0040d770
  4063bc:	0040d770 	.word	0x0040d770
  4063c0:	0040d770 	.word	0x0040d770
  4063c4:	0040d770 	.word	0x0040d770
  4063c8:	0040d770 	.word	0x0040d770
  4063cc:	0040d770 	.word	0x0040d770
  4063d0:	0040d770 	.word	0x0040d770
  4063d4:	0040d770 	.word	0x0040d770
  4063d8:	ffffffff 	.word	0xffffffff
  4063dc:	ffffffff 	.word	0xffffffff
  4063e0:	ffffffff 	.word	0xffffffff
  4063e4:	0000ffff 	.word	0x0000ffff
  4063e8:	53410001 	.word	0x53410001
  4063ec:	00494943 	.word	0x00494943
	...
  406408:	53410000 	.word	0x53410000
  40640c:	00494943 	.word	0x00494943
	...
  40642c:	2040dc1c 	.word	0x2040dc1c
  406430:	00000028 	.word	0x00000028
  406434:	00000000 	.word	0x00000000
  406438:	2040dcec 	.word	0x2040dcec
  40643c:	00000004 	.word	0x00000004
  406440:	00000000 	.word	0x00000000
  406444:	2040dcf0 	.word	0x2040dcf0
  406448:	00000004 	.word	0x00000004
  40644c:	00000000 	.word	0x00000000
  406450:	2040dcf4 	.word	0x2040dcf4
  406454:	00000004 	.word	0x00000004
  406458:	00000000 	.word	0x00000000
  40645c:	2040d0b0 	.word	0x2040d0b0
  406460:	00000408 	.word	0x00000408
  406464:	00000001 	.word	0x00000001
	...
  406470:	2040d0b0 	.word	0x2040d0b0
  406474:	2040d0b0 	.word	0x2040d0b0
  406478:	2040d0b8 	.word	0x2040d0b8
  40647c:	2040d0b8 	.word	0x2040d0b8
  406480:	2040d0c0 	.word	0x2040d0c0
  406484:	2040d0c0 	.word	0x2040d0c0
  406488:	2040d0c8 	.word	0x2040d0c8
  40648c:	2040d0c8 	.word	0x2040d0c8
  406490:	2040d0d0 	.word	0x2040d0d0
  406494:	2040d0d0 	.word	0x2040d0d0
  406498:	2040d0d8 	.word	0x2040d0d8
  40649c:	2040d0d8 	.word	0x2040d0d8
  4064a0:	2040d0e0 	.word	0x2040d0e0
  4064a4:	2040d0e0 	.word	0x2040d0e0
  4064a8:	2040d0e8 	.word	0x2040d0e8
  4064ac:	2040d0e8 	.word	0x2040d0e8
  4064b0:	2040d0f0 	.word	0x2040d0f0
  4064b4:	2040d0f0 	.word	0x2040d0f0
  4064b8:	2040d0f8 	.word	0x2040d0f8
  4064bc:	2040d0f8 	.word	0x2040d0f8
  4064c0:	2040d100 	.word	0x2040d100
  4064c4:	2040d100 	.word	0x2040d100
  4064c8:	2040d108 	.word	0x2040d108
  4064cc:	2040d108 	.word	0x2040d108
  4064d0:	2040d110 	.word	0x2040d110
  4064d4:	2040d110 	.word	0x2040d110
  4064d8:	2040d118 	.word	0x2040d118
  4064dc:	2040d118 	.word	0x2040d118
  4064e0:	2040d120 	.word	0x2040d120
  4064e4:	2040d120 	.word	0x2040d120
  4064e8:	2040d128 	.word	0x2040d128
  4064ec:	2040d128 	.word	0x2040d128
  4064f0:	2040d130 	.word	0x2040d130
  4064f4:	2040d130 	.word	0x2040d130
  4064f8:	2040d138 	.word	0x2040d138
  4064fc:	2040d138 	.word	0x2040d138
  406500:	2040d140 	.word	0x2040d140
  406504:	2040d140 	.word	0x2040d140
  406508:	2040d148 	.word	0x2040d148
  40650c:	2040d148 	.word	0x2040d148
  406510:	2040d150 	.word	0x2040d150
  406514:	2040d150 	.word	0x2040d150
  406518:	2040d158 	.word	0x2040d158
  40651c:	2040d158 	.word	0x2040d158
  406520:	2040d160 	.word	0x2040d160
  406524:	2040d160 	.word	0x2040d160
  406528:	2040d168 	.word	0x2040d168
  40652c:	2040d168 	.word	0x2040d168
  406530:	2040d170 	.word	0x2040d170
  406534:	2040d170 	.word	0x2040d170
  406538:	2040d178 	.word	0x2040d178
  40653c:	2040d178 	.word	0x2040d178
  406540:	2040d180 	.word	0x2040d180
  406544:	2040d180 	.word	0x2040d180
  406548:	2040d188 	.word	0x2040d188
  40654c:	2040d188 	.word	0x2040d188
  406550:	2040d190 	.word	0x2040d190
  406554:	2040d190 	.word	0x2040d190
  406558:	2040d198 	.word	0x2040d198
  40655c:	2040d198 	.word	0x2040d198
  406560:	2040d1a0 	.word	0x2040d1a0
  406564:	2040d1a0 	.word	0x2040d1a0
  406568:	2040d1a8 	.word	0x2040d1a8
  40656c:	2040d1a8 	.word	0x2040d1a8
  406570:	2040d1b0 	.word	0x2040d1b0
  406574:	2040d1b0 	.word	0x2040d1b0
  406578:	2040d1b8 	.word	0x2040d1b8
  40657c:	2040d1b8 	.word	0x2040d1b8
  406580:	2040d1c0 	.word	0x2040d1c0
  406584:	2040d1c0 	.word	0x2040d1c0
  406588:	2040d1c8 	.word	0x2040d1c8
  40658c:	2040d1c8 	.word	0x2040d1c8
  406590:	2040d1d0 	.word	0x2040d1d0
  406594:	2040d1d0 	.word	0x2040d1d0
  406598:	2040d1d8 	.word	0x2040d1d8
  40659c:	2040d1d8 	.word	0x2040d1d8
  4065a0:	2040d1e0 	.word	0x2040d1e0
  4065a4:	2040d1e0 	.word	0x2040d1e0
  4065a8:	2040d1e8 	.word	0x2040d1e8
  4065ac:	2040d1e8 	.word	0x2040d1e8
  4065b0:	2040d1f0 	.word	0x2040d1f0
  4065b4:	2040d1f0 	.word	0x2040d1f0
  4065b8:	2040d1f8 	.word	0x2040d1f8
  4065bc:	2040d1f8 	.word	0x2040d1f8
  4065c0:	2040d200 	.word	0x2040d200
  4065c4:	2040d200 	.word	0x2040d200
  4065c8:	2040d208 	.word	0x2040d208
  4065cc:	2040d208 	.word	0x2040d208
  4065d0:	2040d210 	.word	0x2040d210
  4065d4:	2040d210 	.word	0x2040d210
  4065d8:	2040d218 	.word	0x2040d218
  4065dc:	2040d218 	.word	0x2040d218
  4065e0:	2040d220 	.word	0x2040d220
  4065e4:	2040d220 	.word	0x2040d220
  4065e8:	2040d228 	.word	0x2040d228
  4065ec:	2040d228 	.word	0x2040d228
  4065f0:	2040d230 	.word	0x2040d230
  4065f4:	2040d230 	.word	0x2040d230
  4065f8:	2040d238 	.word	0x2040d238
  4065fc:	2040d238 	.word	0x2040d238
  406600:	2040d240 	.word	0x2040d240
  406604:	2040d240 	.word	0x2040d240
  406608:	2040d248 	.word	0x2040d248
  40660c:	2040d248 	.word	0x2040d248
  406610:	2040d250 	.word	0x2040d250
  406614:	2040d250 	.word	0x2040d250
  406618:	2040d258 	.word	0x2040d258
  40661c:	2040d258 	.word	0x2040d258
  406620:	2040d260 	.word	0x2040d260
  406624:	2040d260 	.word	0x2040d260
  406628:	2040d268 	.word	0x2040d268
  40662c:	2040d268 	.word	0x2040d268
  406630:	2040d270 	.word	0x2040d270
  406634:	2040d270 	.word	0x2040d270
  406638:	2040d278 	.word	0x2040d278
  40663c:	2040d278 	.word	0x2040d278
  406640:	2040d280 	.word	0x2040d280
  406644:	2040d280 	.word	0x2040d280
  406648:	2040d288 	.word	0x2040d288
  40664c:	2040d288 	.word	0x2040d288
  406650:	2040d290 	.word	0x2040d290
  406654:	2040d290 	.word	0x2040d290
  406658:	2040d298 	.word	0x2040d298
  40665c:	2040d298 	.word	0x2040d298
  406660:	2040d2a0 	.word	0x2040d2a0
  406664:	2040d2a0 	.word	0x2040d2a0
  406668:	2040d2a8 	.word	0x2040d2a8
  40666c:	2040d2a8 	.word	0x2040d2a8
  406670:	2040d2b0 	.word	0x2040d2b0
  406674:	2040d2b0 	.word	0x2040d2b0
  406678:	2040d2b8 	.word	0x2040d2b8
  40667c:	2040d2b8 	.word	0x2040d2b8
  406680:	2040d2c0 	.word	0x2040d2c0
  406684:	2040d2c0 	.word	0x2040d2c0
  406688:	2040d2c8 	.word	0x2040d2c8
  40668c:	2040d2c8 	.word	0x2040d2c8
  406690:	2040d2d0 	.word	0x2040d2d0
  406694:	2040d2d0 	.word	0x2040d2d0
  406698:	2040d2d8 	.word	0x2040d2d8
  40669c:	2040d2d8 	.word	0x2040d2d8
  4066a0:	2040d2e0 	.word	0x2040d2e0
  4066a4:	2040d2e0 	.word	0x2040d2e0
  4066a8:	2040d2e8 	.word	0x2040d2e8
  4066ac:	2040d2e8 	.word	0x2040d2e8
  4066b0:	2040d2f0 	.word	0x2040d2f0
  4066b4:	2040d2f0 	.word	0x2040d2f0
  4066b8:	2040d2f8 	.word	0x2040d2f8
  4066bc:	2040d2f8 	.word	0x2040d2f8
  4066c0:	2040d300 	.word	0x2040d300
  4066c4:	2040d300 	.word	0x2040d300
  4066c8:	2040d308 	.word	0x2040d308
  4066cc:	2040d308 	.word	0x2040d308
  4066d0:	2040d310 	.word	0x2040d310
  4066d4:	2040d310 	.word	0x2040d310
  4066d8:	2040d318 	.word	0x2040d318
  4066dc:	2040d318 	.word	0x2040d318
  4066e0:	2040d320 	.word	0x2040d320
  4066e4:	2040d320 	.word	0x2040d320
  4066e8:	2040d328 	.word	0x2040d328
  4066ec:	2040d328 	.word	0x2040d328
  4066f0:	2040d330 	.word	0x2040d330
  4066f4:	2040d330 	.word	0x2040d330
  4066f8:	2040d338 	.word	0x2040d338
  4066fc:	2040d338 	.word	0x2040d338
  406700:	2040d340 	.word	0x2040d340
  406704:	2040d340 	.word	0x2040d340
  406708:	2040d348 	.word	0x2040d348
  40670c:	2040d348 	.word	0x2040d348
  406710:	2040d350 	.word	0x2040d350
  406714:	2040d350 	.word	0x2040d350
  406718:	2040d358 	.word	0x2040d358
  40671c:	2040d358 	.word	0x2040d358
  406720:	2040d360 	.word	0x2040d360
  406724:	2040d360 	.word	0x2040d360
  406728:	2040d368 	.word	0x2040d368
  40672c:	2040d368 	.word	0x2040d368
  406730:	2040d370 	.word	0x2040d370
  406734:	2040d370 	.word	0x2040d370
  406738:	2040d378 	.word	0x2040d378
  40673c:	2040d378 	.word	0x2040d378
  406740:	2040d380 	.word	0x2040d380
  406744:	2040d380 	.word	0x2040d380
  406748:	2040d388 	.word	0x2040d388
  40674c:	2040d388 	.word	0x2040d388
  406750:	2040d390 	.word	0x2040d390
  406754:	2040d390 	.word	0x2040d390
  406758:	2040d398 	.word	0x2040d398
  40675c:	2040d398 	.word	0x2040d398
  406760:	2040d3a0 	.word	0x2040d3a0
  406764:	2040d3a0 	.word	0x2040d3a0
  406768:	2040d3a8 	.word	0x2040d3a8
  40676c:	2040d3a8 	.word	0x2040d3a8
  406770:	2040d3b0 	.word	0x2040d3b0
  406774:	2040d3b0 	.word	0x2040d3b0
  406778:	2040d3b8 	.word	0x2040d3b8
  40677c:	2040d3b8 	.word	0x2040d3b8
  406780:	2040d3c0 	.word	0x2040d3c0
  406784:	2040d3c0 	.word	0x2040d3c0
  406788:	2040d3c8 	.word	0x2040d3c8
  40678c:	2040d3c8 	.word	0x2040d3c8
  406790:	2040d3d0 	.word	0x2040d3d0
  406794:	2040d3d0 	.word	0x2040d3d0
  406798:	2040d3d8 	.word	0x2040d3d8
  40679c:	2040d3d8 	.word	0x2040d3d8
  4067a0:	2040d3e0 	.word	0x2040d3e0
  4067a4:	2040d3e0 	.word	0x2040d3e0
  4067a8:	2040d3e8 	.word	0x2040d3e8
  4067ac:	2040d3e8 	.word	0x2040d3e8
  4067b0:	2040d3f0 	.word	0x2040d3f0
  4067b4:	2040d3f0 	.word	0x2040d3f0
  4067b8:	2040d3f8 	.word	0x2040d3f8
  4067bc:	2040d3f8 	.word	0x2040d3f8
  4067c0:	2040d400 	.word	0x2040d400
  4067c4:	2040d400 	.word	0x2040d400
  4067c8:	2040d408 	.word	0x2040d408
  4067cc:	2040d408 	.word	0x2040d408
  4067d0:	2040d410 	.word	0x2040d410
  4067d4:	2040d410 	.word	0x2040d410
  4067d8:	2040d418 	.word	0x2040d418
  4067dc:	2040d418 	.word	0x2040d418
  4067e0:	2040d420 	.word	0x2040d420
  4067e4:	2040d420 	.word	0x2040d420
  4067e8:	2040d428 	.word	0x2040d428
  4067ec:	2040d428 	.word	0x2040d428
  4067f0:	2040d430 	.word	0x2040d430
  4067f4:	2040d430 	.word	0x2040d430
  4067f8:	2040d438 	.word	0x2040d438
  4067fc:	2040d438 	.word	0x2040d438
  406800:	2040d440 	.word	0x2040d440
  406804:	2040d440 	.word	0x2040d440
  406808:	2040d448 	.word	0x2040d448
  40680c:	2040d448 	.word	0x2040d448
  406810:	2040d450 	.word	0x2040d450
  406814:	2040d450 	.word	0x2040d450
  406818:	2040d458 	.word	0x2040d458
  40681c:	2040d458 	.word	0x2040d458
  406820:	2040d460 	.word	0x2040d460
  406824:	2040d460 	.word	0x2040d460
  406828:	2040d468 	.word	0x2040d468
  40682c:	2040d468 	.word	0x2040d468
  406830:	2040d470 	.word	0x2040d470
  406834:	2040d470 	.word	0x2040d470
  406838:	2040d478 	.word	0x2040d478
  40683c:	2040d478 	.word	0x2040d478
  406840:	2040d480 	.word	0x2040d480
  406844:	2040d480 	.word	0x2040d480
  406848:	2040d488 	.word	0x2040d488
  40684c:	2040d488 	.word	0x2040d488
  406850:	2040d490 	.word	0x2040d490
  406854:	2040d490 	.word	0x2040d490
  406858:	2040d498 	.word	0x2040d498
  40685c:	2040d498 	.word	0x2040d498
  406860:	2040d4a0 	.word	0x2040d4a0
  406864:	2040d4a0 	.word	0x2040d4a0
  406868:	2040d4a8 	.word	0x2040d4a8
  40686c:	2040d4a8 	.word	0x2040d4a8
  406870:	2040dcf8 	.word	0x2040dcf8
  406874:	00000004 	.word	0x00000004
  406878:	00000001 	.word	0x00000001
  40687c:	ffffffff 	.word	0xffffffff
  406880:	2040dcfc 	.word	0x2040dcfc
  406884:	00000004 	.word	0x00000004
  406888:	00000001 	.word	0x00000001
  40688c:	00020000 	.word	0x00020000
  406890:	20400484 	.word	0x20400484
  406894:	00000004 	.word	0x00000004
  406898:	00000000 	.word	0x00000000
  40689c:	2040dd00 	.word	0x2040dd00
  4068a0:	00000004 	.word	0x00000004
	...

Disassembly of section .text._dtoa_r%34:

004068b0 <_dtoa_r>:
  4068b0:	e92d 4ff0 	stmdb	sp!, {r4, r5, r6, r7, r8, r9, sl, fp, lr}

004068b4 <.LCFI4>:
  4068b4:	6c05      	ldr	r5, [r0, #64]	; 0x40
  4068b6:	b093      	sub	sp, #76	; 0x4c

004068b8 <.LCFI5>:
  4068b8:	4604      	mov	r4, r0
  4068ba:	ec5b ab10 	vmov	sl, fp, d0
  4068be:	9f1c      	ldr	r7, [sp, #112]	; 0x70
  4068c0:	9101      	str	r1, [sp, #4]
  4068c2:	4691      	mov	r9, r2
  4068c4:	9304      	str	r3, [sp, #16]
  4068c6:	b14d      	cbz	r5, 4068dc <.LVL53+0x4>
  4068c8:	6c42      	ldr	r2, [r0, #68]	; 0x44

004068ca <.LVL50>:
  4068ca:	606a      	str	r2, [r5, #4]
  4068cc:	2301      	movs	r3, #1

004068ce <.LVL51>:
  4068ce:	4093      	lsls	r3, r2
  4068d0:	60ab      	str	r3, [r5, #8]
  4068d2:	4629      	mov	r1, r5

004068d4 <.LVL52>:
  4068d4:	f006 ff64 	bl	40d7a0 <_Bfree>

004068d8 <.LVL53>:
  4068d8:	2300      	movs	r3, #0
  4068da:	6423      	str	r3, [r4, #64]	; 0x40
  4068dc:	f1bb 0f00 	cmp.w	fp, #0
  4068e0:	465e      	mov	r6, fp
  4068e2:	db35      	blt.n	406950 <.LVL63>
  4068e4:	2300      	movs	r3, #0
  4068e6:	603b      	str	r3, [r7, #0]
  4068e8:	4bc1      	ldr	r3, [pc, #772]	; (406bf0 <.LVL134+0x20>)
  4068ea:	43b3      	bics	r3, r6
  4068ec:	d015      	beq.n	40691a <.LCFI7>
  4068ee:	ec4b ab17 	vmov	d7, sl, fp
  4068f2:	eeb5 7b40 	vcmp.f64	d7, #0.0
  4068f6:	eef1 fa10 	vmrs	APSR_nzcv, fpscr

004068fa <.LVL55>:
  4068fa:	e9cd ab02 	strd	sl, fp, [sp, #8]
  4068fe:	d12d      	bne.n	40695c <.LVL64>
  406900:	9a04      	ldr	r2, [sp, #16]
  406902:	2301      	movs	r3, #1
  406904:	6013      	str	r3, [r2, #0]

00406906 <.LVL56>:
  406906:	9b1d      	ldr	r3, [sp, #116]	; 0x74
  406908:	2b00      	cmp	r3, #0
  40690a:	f000 80b3 	beq.w	406a74 <.LVL99>
  40690e:	48b9      	ldr	r0, [pc, #740]	; (406bf4 <.LVL134+0x24>)
  406910:	6018      	str	r0, [r3, #0]
  406912:	3801      	subs	r0, #1

00406914 <.LVL57>:
  406914:	b013      	add	sp, #76	; 0x4c

00406916 <.LCFI6>:
  406916:	e8bd 8ff0 	ldmia.w	sp!, {r4, r5, r6, r7, r8, r9, sl, fp, pc}

0040691a <.LCFI7>:
  40691a:	9a04      	ldr	r2, [sp, #16]
  40691c:	f242 730f 	movw	r3, #9999	; 0x270f
  406920:	6013      	str	r3, [r2, #0]

00406922 <.LVL59>:
  406922:	f1ba 0f00 	cmp.w	sl, #0
  406926:	d10d      	bne.n	406944 <.LCFI9>
  406928:	f3c6 0613 	ubfx	r6, r6, #0, #20
  40692c:	b956      	cbnz	r6, 406944 <.LCFI9>

0040692e <.LVL60>:
  40692e:	9b1d      	ldr	r3, [sp, #116]	; 0x74
  406930:	48b1      	ldr	r0, [pc, #708]	; (406bf8 <.LVL134+0x28>)
  406932:	2b00      	cmp	r3, #0
  406934:	d0ee      	beq.n	406914 <.LVL57>
  406936:	f100 0308 	add.w	r3, r0, #8

0040693a <.LVL61>:
  40693a:	9a1d      	ldr	r2, [sp, #116]	; 0x74
  40693c:	6013      	str	r3, [r2, #0]
  40693e:	b013      	add	sp, #76	; 0x4c

00406940 <.LCFI8>:
  406940:	e8bd 8ff0 	ldmia.w	sp!, {r4, r5, r6, r7, r8, r9, sl, fp, pc}

00406944 <.LCFI9>:
  406944:	9b1d      	ldr	r3, [sp, #116]	; 0x74
  406946:	48ad      	ldr	r0, [pc, #692]	; (406bfc <.LVL134+0x2c>)
  406948:	2b00      	cmp	r3, #0
  40694a:	d0e3      	beq.n	406914 <.LVL57>
  40694c:	1cc3      	adds	r3, r0, #3
  40694e:	e7f4      	b.n	40693a <.LVL61>

00406950 <.LVL63>:
  406950:	2301      	movs	r3, #1
  406952:	f02b 4600 	bic.w	r6, fp, #2147483648	; 0x80000000
  406956:	603b      	str	r3, [r7, #0]
  406958:	46b3      	mov	fp, r6
  40695a:	e7c5      	b.n	4068e8 <.LVL53+0x10>

0040695c <.LVL64>:
  40695c:	a911      	add	r1, sp, #68	; 0x44
  40695e:	aa10      	add	r2, sp, #64	; 0x40
  406960:	ed9d 0b02 	vldr	d0, [sp, #8]
  406964:	4620      	mov	r0, r4
  406966:	f004 fcd1 	bl	40b30c <.LFE19>

0040696a <.LVL65>:
  40696a:	0d31      	lsrs	r1, r6, #20
  40696c:	4680      	mov	r8, r0

0040696e <.LVL66>:
  40696e:	d065      	beq.n	406a3c <.LVL92>
  406970:	e9dd 2302 	ldrd	r2, r3, [sp, #8]
  406974:	f3c3 0013 	ubfx	r0, r3, #0, #20

00406978 <.LVL68>:
  406978:	f040 537f 	orr.w	r3, r0, #1069547520	; 0x3fc00000
  40697c:	2500      	movs	r5, #0
  40697e:	9810      	ldr	r0, [sp, #64]	; 0x40
  406980:	950d      	str	r5, [sp, #52]	; 0x34
  406982:	f2a1 31ff 	subw	r1, r1, #1023	; 0x3ff

00406986 <.LVL69>:
  406986:	f443 1340 	orr.w	r3, r3, #3145728	; 0x300000

0040698a <.LVL70>:
  40698a:	ec43 2b17 	vmov	d7, r2, r3
  40698e:	eeb7 6b08 	vmov.f64	d6, #120	; 0x3fc00000  1.5
  406992:	ed9f 4b91 	vldr	d4, [pc, #580]	; 406bd8 <.LVL134+0x8>
  406996:	ee37 6b46 	vsub.f64	d6, d7, d6
  40699a:	ed9f 7b91 	vldr	d7, [pc, #580]	; 406be0 <.LVL134+0x10>
  40699e:	ed9f 5b92 	vldr	d5, [pc, #584]	; 406be8 <.LVL134+0x18>
  4069a2:	eea6 7b04 	vfma.f64	d7, d6, d4
  4069a6:	ee06 1a90 	vmov	s13, r1
  4069aa:	eeb8 6be6 	vcvt.f64.s32	d6, s13
  4069ae:	eea6 7b05 	vfma.f64	d7, d6, d5

004069b2 <.LVL71>:
  4069b2:	eefd 6bc7 	vcvt.s32.f64	s13, d7
  4069b6:	eeb5 7bc0 	vcmpe.f64	d7, #0.0
  4069ba:	eef1 fa10 	vmrs	APSR_nzcv, fpscr
  4069be:	edcd 6a02 	vstr	s13, [sp, #8]

004069c2 <.LVL72>:
  4069c2:	f100 8130 	bmi.w	406c26 <.LVL143>

004069c6 <.LVL73>:
  4069c6:	9d02      	ldr	r5, [sp, #8]
  4069c8:	2d16      	cmp	r5, #22
  4069ca:	f200 8101 	bhi.w	406bd0 <.LVL134>
  4069ce:	4b8c      	ldr	r3, [pc, #560]	; (406c00 <.LVL134+0x30>)
  4069d0:	eb03 03c5 	add.w	r3, r3, r5, lsl #3
  4069d4:	ed93 7b00 	vldr	d7, [r3]

004069d8 <.LVL74>:
  4069d8:	ec4b ab16 	vmov	d6, sl, fp
  4069dc:	eeb4 7bc6 	vcmpe.f64	d7, d6
  4069e0:	eef1 fa10 	vmrs	APSR_nzcv, fpscr
  4069e4:	f340 8183 	ble.w	406cee <.LVL173>
  4069e8:	1e6b      	subs	r3, r5, #1
  4069ea:	9302      	str	r3, [sp, #8]

004069ec <.LVL75>:
  4069ec:	2300      	movs	r3, #0

004069ee <.LVL76>:
  4069ee:	930b      	str	r3, [sp, #44]	; 0x2c

004069f0 <.LVL77>:
  4069f0:	1a41      	subs	r1, r0, r1

004069f2 <.LVL78>:
  4069f2:	1e4b      	subs	r3, r1, #1

004069f4 <.LVL79>:
  4069f4:	9306      	str	r3, [sp, #24]
  4069f6:	f100 8110 	bmi.w	406c1a <.LVL138>
  4069fa:	2300      	movs	r3, #0

004069fc <.LVL80>:
  4069fc:	9307      	str	r3, [sp, #28]

004069fe <.LVL81>:
  4069fe:	9b02      	ldr	r3, [sp, #8]
  406a00:	2b00      	cmp	r3, #0
  406a02:	f2c0 8101 	blt.w	406c08 <.LVL135>

00406a06 <.LVL82>:
  406a06:	9a06      	ldr	r2, [sp, #24]

00406a08 <.LVL83>:
  406a08:	930a      	str	r3, [sp, #40]	; 0x28
  406a0a:	4611      	mov	r1, r2

00406a0c <.LVL84>:
  406a0c:	4419      	add	r1, r3
  406a0e:	2300      	movs	r3, #0

00406a10 <.LVL85>:
  406a10:	9106      	str	r1, [sp, #24]

00406a12 <.LVL86>:
  406a12:	9305      	str	r3, [sp, #20]

00406a14 <.LVL87>:
  406a14:	9b01      	ldr	r3, [sp, #4]
  406a16:	2b09      	cmp	r3, #9
  406a18:	d82e      	bhi.n	406a78 <.LVL100>

00406a1a <.LVL88>:
  406a1a:	2b05      	cmp	r3, #5
  406a1c:	f340 8550 	ble.w	4074c0 <.LVL445>
  406a20:	3b04      	subs	r3, #4

00406a22 <.LVL89>:
  406a22:	9301      	str	r3, [sp, #4]

00406a24 <.LVL90>:
  406a24:	2500      	movs	r5, #0

00406a26 <.LVL91>:
  406a26:	9b01      	ldr	r3, [sp, #4]
  406a28:	3b02      	subs	r3, #2
  406a2a:	2b03      	cmp	r3, #3
  406a2c:	f200 8550 	bhi.w	4074d0 <.LVL447>
  406a30:	e8df f013 	tbh	[pc, r3, lsl #1]
  406a34:	02860349 	.word	0x02860349
  406a38:	03d80356 	.word	0x03d80356

00406a3c <.LVL92>:
  406a3c:	9810      	ldr	r0, [sp, #64]	; 0x40

00406a3e <.LVL93>:
  406a3e:	9911      	ldr	r1, [sp, #68]	; 0x44

00406a40 <.LVL94>:
  406a40:	4401      	add	r1, r0
  406a42:	f201 4332 	addw	r3, r1, #1074	; 0x432

00406a46 <.LVL95>:
  406a46:	2b20      	cmp	r3, #32
  406a48:	f340 814a 	ble.w	406ce0 <.LVL171>
  406a4c:	f1c3 0340 	rsb	r3, r3, #64	; 0x40

00406a50 <.LVL96>:
  406a50:	f201 4212 	addw	r2, r1, #1042	; 0x412
  406a54:	409e      	lsls	r6, r3
  406a56:	fa2a f302 	lsr.w	r3, sl, r2
  406a5a:	4333      	orrs	r3, r6
  406a5c:	ee07 3a90 	vmov	s15, r3

00406a60 <.LVL97>:
  406a60:	eeb8 7b67 	vcvt.f64.u32	d7, s15
  406a64:	2501      	movs	r5, #1
  406a66:	ec53 2b17 	vmov	r2, r3, d7
  406a6a:	3901      	subs	r1, #1

00406a6c <.LVL98>:
  406a6c:	f1a3 73f8 	sub.w	r3, r3, #32505856	; 0x1f00000
  406a70:	950d      	str	r5, [sp, #52]	; 0x34
  406a72:	e78a      	b.n	40698a <.LVL70>

00406a74 <.LVL99>:
  406a74:	4863      	ldr	r0, [pc, #396]	; (406c04 <.LVL134+0x34>)
  406a76:	e74d      	b.n	406914 <.LVL57>

00406a78 <.LVL100>:
  406a78:	2100      	movs	r1, #0
  406a7a:	6461      	str	r1, [r4, #68]	; 0x44
  406a7c:	4620      	mov	r0, r4
  406a7e:	4689      	mov	r9, r1
  406a80:	f006 f892 	bl	40cba8 <.LFE2>

00406a84 <.LVL101>:
  406a84:	f04f 36ff 	mov.w	r6, #4294967295
  406a88:	2301      	movs	r3, #1
  406a8a:	9008      	str	r0, [sp, #32]
  406a8c:	6420      	str	r0, [r4, #64]	; 0x40

00406a8e <.LVL102>:
  406a8e:	f8cd 9004 	str.w	r9, [sp, #4]

00406a92 <.LVL103>:
  406a92:	960c      	str	r6, [sp, #48]	; 0x30
  406a94:	9309      	str	r3, [sp, #36]	; 0x24

00406a96 <.LVL104>:
  406a96:	9b11      	ldr	r3, [sp, #68]	; 0x44
  406a98:	2b00      	cmp	r3, #0
  406a9a:	db7a      	blt.n	406b92 <.LCFI11>
  406a9c:	9a02      	ldr	r2, [sp, #8]
  406a9e:	2a0e      	cmp	r2, #14
  406aa0:	dc77      	bgt.n	406b92 <.LCFI11>
  406aa2:	4b57      	ldr	r3, [pc, #348]	; (406c00 <.LVL134+0x30>)
  406aa4:	f1b9 0f00 	cmp.w	r9, #0
  406aa8:	eb03 03c2 	add.w	r3, r3, r2, lsl #3
  406aac:	ed93 4b00 	vldr	d4, [r3]

00406ab0 <.LVL105>:
  406ab0:	f2c0 8332 	blt.w	407118 <.LVL300>

00406ab4 <.LVL106>:
  406ab4:	ec4b ab17 	vmov	d7, sl, fp
  406ab8:	ee87 6b04 	vdiv.f64	d6, d7, d4
  406abc:	eebd 6bc6 	vcvt.s32.f64	s12, d6

00406ac0 <.LVL107>:
  406ac0:	9a08      	ldr	r2, [sp, #32]
  406ac2:	ee16 3a10 	vmov	r3, s12
  406ac6:	2e01      	cmp	r6, #1
  406ac8:	f103 0330 	add.w	r3, r3, #48	; 0x30
  406acc:	eeb8 5bc6 	vcvt.f64.s32	d5, s12
  406ad0:	f102 0b01 	add.w	fp, r2, #1

00406ad4 <.LVL108>:
  406ad4:	7013      	strb	r3, [r2, #0]
  406ad6:	eea5 7b44 	vfms.f64	d7, d5, d4
  406ada:	d024      	beq.n	406b26 <.LVL115>
  406adc:	eeb2 3b04 	vmov.f64	d3, #36	; 0x41200000  10.0
  406ae0:	ee27 7b03 	vmul.f64	d7, d7, d3
  406ae4:	eeb5 7b40 	vcmp.f64	d7, #0.0
  406ae8:	eef1 fa10 	vmrs	APSR_nzcv, fpscr
  406aec:	d03c      	beq.n	406b68 <.L76>
  406aee:	eeb1 2b44 	vneg.f64	d2, d4
  406af2:	9a08      	ldr	r2, [sp, #32]
  406af4:	e006      	b.n	406b04 <.LVL110>

00406af6 <.LVL109>:
  406af6:	ee27 7b03 	vmul.f64	d7, d7, d3
  406afa:	eeb5 7b40 	vcmp.f64	d7, #0.0
  406afe:	eef1 fa10 	vmrs	APSR_nzcv, fpscr
  406b02:	d031      	beq.n	406b68 <.L76>

00406b04 <.LVL110>:
  406b04:	ee87 6b04 	vdiv.f64	d6, d7, d4

00406b08 <.LVL111>:
  406b08:	eebd 6bc6 	vcvt.s32.f64	s12, d6

00406b0c <.LVL112>:
  406b0c:	ee16 3a10 	vmov	r3, s12
  406b10:	3330      	adds	r3, #48	; 0x30
  406b12:	f80b 3b01 	strb.w	r3, [fp], #1

00406b16 <.LVL113>:
  406b16:	ebab 0302 	sub.w	r3, fp, r2
  406b1a:	42b3      	cmp	r3, r6
  406b1c:	eeb8 5bc6 	vcvt.f64.s32	d5, s12
  406b20:	eea2 7b05 	vfma.f64	d7, d2, d5

00406b24 <.LVL114>:
  406b24:	d1e7      	bne.n	406af6 <.LVL109>

00406b26 <.LVL115>:
  406b26:	ee37 7b07 	vadd.f64	d7, d7, d7
  406b2a:	eeb4 4bc7 	vcmpe.f64	d4, d7
  406b2e:	eef1 fa10 	vmrs	APSR_nzcv, fpscr
  406b32:	d408      	bmi.n	406b46 <.LVL115+0x20>
  406b34:	eeb4 4b47 	vcmp.f64	d4, d7
  406b38:	eef1 fa10 	vmrs	APSR_nzcv, fpscr
  406b3c:	d114      	bne.n	406b68 <.L76>
  406b3e:	ee16 3a10 	vmov	r3, s12
  406b42:	07db      	lsls	r3, r3, #31
  406b44:	d510      	bpl.n	406b68 <.L76>
  406b46:	f81b 3c01 	ldrb.w	r3, [fp, #-1]

00406b4a <.L77>:
  406b4a:	9908      	ldr	r1, [sp, #32]
  406b4c:	f10b 32ff 	add.w	r2, fp, #4294967295
  406b50:	e004      	b.n	406b5c <.LVL118>

00406b52 <.LVL117>:
  406b52:	4291      	cmp	r1, r2
  406b54:	f000 83da 	beq.w	40730c <.LVL375>
  406b58:	f812 3d01 	ldrb.w	r3, [r2, #-1]!

00406b5c <.LVL118>:
  406b5c:	2b39      	cmp	r3, #57	; 0x39
  406b5e:	f102 0b01 	add.w	fp, r2, #1

00406b62 <.LVL119>:
  406b62:	d0f6      	beq.n	406b52 <.LVL117>

00406b64 <.LVL120>:
  406b64:	3301      	adds	r3, #1
  406b66:	7013      	strb	r3, [r2, #0]

00406b68 <.L76>:
  406b68:	4641      	mov	r1, r8
  406b6a:	4620      	mov	r0, r4

00406b6c <.LVL122>:
  406b6c:	f006 fe18 	bl	40d7a0 <_Bfree>

00406b70 <.LVL123>:
  406b70:	2200      	movs	r2, #0
  406b72:	9b02      	ldr	r3, [sp, #8]
  406b74:	f88b 2000 	strb.w	r2, [fp]
  406b78:	9a04      	ldr	r2, [sp, #16]
  406b7a:	3301      	adds	r3, #1
  406b7c:	6013      	str	r3, [r2, #0]
  406b7e:	9b1d      	ldr	r3, [sp, #116]	; 0x74
  406b80:	2b00      	cmp	r3, #0
  406b82:	f000 8355 	beq.w	407230 <.LVL340>
  406b86:	9808      	ldr	r0, [sp, #32]
  406b88:	f8c3 b000 	str.w	fp, [r3]
  406b8c:	b013      	add	sp, #76	; 0x4c

00406b8e <.LCFI10>:
  406b8e:	e8bd 8ff0 	ldmia.w	sp!, {r4, r5, r6, r7, r8, r9, sl, fp, pc}

00406b92 <.LCFI11>:
  406b92:	9a09      	ldr	r2, [sp, #36]	; 0x24
  406b94:	2a00      	cmp	r2, #0
  406b96:	d052      	beq.n	406c3e <.LVL145>
  406b98:	9a01      	ldr	r2, [sp, #4]
  406b9a:	2a01      	cmp	r2, #1
  406b9c:	f340 82e2 	ble.w	407164 <.LVL312>
  406ba0:	9905      	ldr	r1, [sp, #20]
  406ba2:	1e72      	subs	r2, r6, #1

00406ba4 <.LVL125>:
  406ba4:	4291      	cmp	r1, r2
  406ba6:	f2c0 8346 	blt.w	407236 <.LVL341>
  406baa:	1a8b      	subs	r3, r1, r2
  406bac:	930d      	str	r3, [sp, #52]	; 0x34

00406bae <.LVL126>:
  406bae:	2e00      	cmp	r6, #0
  406bb0:	f2c0 8415 	blt.w	4073de <.LVL411>
  406bb4:	9f07      	ldr	r7, [sp, #28]
  406bb6:	4633      	mov	r3, r6

00406bb8 <.LVL127>:
  406bb8:	9a07      	ldr	r2, [sp, #28]
  406bba:	441a      	add	r2, r3
  406bbc:	9207      	str	r2, [sp, #28]

00406bbe <.LVL128>:
  406bbe:	9a06      	ldr	r2, [sp, #24]

00406bc0 <.LVL129>:
  406bc0:	2101      	movs	r1, #1
  406bc2:	441a      	add	r2, r3
  406bc4:	4620      	mov	r0, r4

00406bc6 <.LVL130>:
  406bc6:	9206      	str	r2, [sp, #24]

00406bc8 <.LVL131>:
  406bc8:	f006 fdf4 	bl	40d7b4 <__i2b>

00406bcc <.LVL132>:
  406bcc:	4605      	mov	r5, r0

00406bce <.LVL133>:
  406bce:	e03a      	b.n	406c46 <.LVL146>

00406bd0 <.LVL134>:
  406bd0:	2301      	movs	r3, #1
  406bd2:	930b      	str	r3, [sp, #44]	; 0x2c
  406bd4:	e70c      	b.n	4069f0 <.LVL77>
  406bd6:	bf00      	nop
  406bd8:	636f4361 	.word	0x636f4361
  406bdc:	3fd287a7 	.word	0x3fd287a7
  406be0:	8b60c8b3 	.word	0x8b60c8b3
  406be4:	3fc68a28 	.word	0x3fc68a28
  406be8:	509f79fb 	.word	0x509f79fb
  406bec:	3fd34413 	.word	0x3fd34413
  406bf0:	7ff00000 	.word	0x7ff00000
  406bf4:	0040d79d 	.word	0x0040d79d
  406bf8:	0040d78c 	.word	0x0040d78c
  406bfc:	0040d798 	.word	0x0040d798
  406c00:	0040b180 	.word	0x0040b180
  406c04:	0040d79c 	.word	0x0040d79c

00406c08 <.LVL135>:
  406c08:	9a07      	ldr	r2, [sp, #28]

00406c0a <.LVL136>:
  406c0a:	9b02      	ldr	r3, [sp, #8]
  406c0c:	1ad2      	subs	r2, r2, r3
  406c0e:	425b      	negs	r3, r3
  406c10:	9305      	str	r3, [sp, #20]
  406c12:	2300      	movs	r3, #0
  406c14:	9207      	str	r2, [sp, #28]

00406c16 <.LVL137>:
  406c16:	930a      	str	r3, [sp, #40]	; 0x28
  406c18:	e6fc      	b.n	406a14 <.LVL87>

00406c1a <.LVL138>:
  406c1a:	f1c1 0301 	rsb	r3, r1, #1

00406c1e <.LVL139>:
  406c1e:	9307      	str	r3, [sp, #28]

00406c20 <.LVL140>:
  406c20:	2300      	movs	r3, #0

00406c22 <.LVL141>:
  406c22:	9306      	str	r3, [sp, #24]

00406c24 <.LVL142>:
  406c24:	e6eb      	b.n	4069fe <.LVL81>

00406c26 <.LVL143>:
  406c26:	eeb8 6be6 	vcvt.f64.s32	d6, s13
  406c2a:	eeb4 7b46 	vcmp.f64	d7, d6
  406c2e:	eef1 fa10 	vmrs	APSR_nzcv, fpscr
  406c32:	f43f aec8 	beq.w	4069c6 <.LVL73>
  406c36:	9b02      	ldr	r3, [sp, #8]
  406c38:	3b01      	subs	r3, #1
  406c3a:	9302      	str	r3, [sp, #8]

00406c3c <.LVL144>:
  406c3c:	e6c3      	b.n	4069c6 <.LVL73>

00406c3e <.LVL145>:
  406c3e:	9b05      	ldr	r3, [sp, #20]
  406c40:	9f07      	ldr	r7, [sp, #28]
  406c42:	9d09      	ldr	r5, [sp, #36]	; 0x24
  406c44:	930d      	str	r3, [sp, #52]	; 0x34

00406c46 <.LVL146>:
  406c46:	2f00      	cmp	r7, #0
  406c48:	dd0c      	ble.n	406c64 <.LVL151>
  406c4a:	9906      	ldr	r1, [sp, #24]
  406c4c:	2900      	cmp	r1, #0
  406c4e:	460b      	mov	r3, r1
  406c50:	dd08      	ble.n	406c64 <.LVL151>
  406c52:	42b9      	cmp	r1, r7
  406c54:	9a07      	ldr	r2, [sp, #28]
  406c56:	bfa8      	it	ge
  406c58:	463b      	movge	r3, r7

00406c5a <.LVL147>:
  406c5a:	1ad2      	subs	r2, r2, r3
  406c5c:	1aff      	subs	r7, r7, r3

00406c5e <.LVL148>:
  406c5e:	1acb      	subs	r3, r1, r3

00406c60 <.LVL149>:
  406c60:	9207      	str	r2, [sp, #28]

00406c62 <.LVL150>:
  406c62:	9306      	str	r3, [sp, #24]

00406c64 <.LVL151>:
  406c64:	9b05      	ldr	r3, [sp, #20]
  406c66:	b1eb      	cbz	r3, 406ca4 <.LVL162>
  406c68:	9b09      	ldr	r3, [sp, #36]	; 0x24
  406c6a:	2b00      	cmp	r3, #0
  406c6c:	f000 8273 	beq.w	407156 <.LVL308>
  406c70:	9b0d      	ldr	r3, [sp, #52]	; 0x34
  406c72:	2b00      	cmp	r3, #0
  406c74:	dd11      	ble.n	406c9a <.LVL160>
  406c76:	461a      	mov	r2, r3
  406c78:	4629      	mov	r1, r5
  406c7a:	4620      	mov	r0, r4

00406c7c <.LVL152>:
  406c7c:	f004 fda8 	bl	40b7d0 <__pow5mult>

00406c80 <.LVL153>:
  406c80:	4642      	mov	r2, r8
  406c82:	4601      	mov	r1, r0
  406c84:	4605      	mov	r5, r0

00406c86 <.LVL154>:
  406c86:	4620      	mov	r0, r4

00406c88 <.LVL155>:
  406c88:	f003 f97e 	bl	409f88 <.LBE11>

00406c8c <.LVL156>:
  406c8c:	4641      	mov	r1, r8
  406c8e:	900e      	str	r0, [sp, #56]	; 0x38

00406c90 <.LVL157>:
  406c90:	4620      	mov	r0, r4

00406c92 <.LVL158>:
  406c92:	f006 fd85 	bl	40d7a0 <_Bfree>

00406c96 <.LVL159>:
  406c96:	9b0e      	ldr	r3, [sp, #56]	; 0x38
  406c98:	4698      	mov	r8, r3

00406c9a <.LVL160>:
  406c9a:	9b05      	ldr	r3, [sp, #20]
  406c9c:	9a0d      	ldr	r2, [sp, #52]	; 0x34
  406c9e:	1a9a      	subs	r2, r3, r2

00406ca0 <.LVL161>:
  406ca0:	f040 825a 	bne.w	407158 <.LVL308+0x2>

00406ca4 <.LVL162>:
  406ca4:	2101      	movs	r1, #1
  406ca6:	4620      	mov	r0, r4

00406ca8 <.LVL163>:
  406ca8:	f006 fd84 	bl	40d7b4 <__i2b>

00406cac <.LVL164>:
  406cac:	9b0a      	ldr	r3, [sp, #40]	; 0x28
  406cae:	9005      	str	r0, [sp, #20]

00406cb0 <.LVL165>:
  406cb0:	2b00      	cmp	r3, #0
  406cb2:	dd1f      	ble.n	406cf4 <.LVL174>
  406cb4:	4601      	mov	r1, r0
  406cb6:	461a      	mov	r2, r3
  406cb8:	4620      	mov	r0, r4

00406cba <.LVL166>:
  406cba:	f004 fd89 	bl	40b7d0 <__pow5mult>

00406cbe <.LVL167>:
  406cbe:	9b01      	ldr	r3, [sp, #4]
  406cc0:	9005      	str	r0, [sp, #20]

00406cc2 <.LVL168>:
  406cc2:	2b01      	cmp	r3, #1
  406cc4:	f340 820f 	ble.w	4070e6 <.LVL293>
  406cc8:	2300      	movs	r3, #0
  406cca:	930d      	str	r3, [sp, #52]	; 0x34

00406ccc <.LVL169>:
  406ccc:	9a05      	ldr	r2, [sp, #20]
  406cce:	6913      	ldr	r3, [r2, #16]
  406cd0:	eb02 0383 	add.w	r3, r2, r3, lsl #2
  406cd4:	6918      	ldr	r0, [r3, #16]
  406cd6:	f006 f8c3 	bl	40ce60 <__hi0bits>

00406cda <.LVL170>:
  406cda:	f1c0 0020 	rsb	r0, r0, #32
  406cde:	e013      	b.n	406d08 <.LVL175+0x8>

00406ce0 <.LVL171>:
  406ce0:	f1c3 0320 	rsb	r3, r3, #32

00406ce4 <.LVL172>:
  406ce4:	fa0a f303 	lsl.w	r3, sl, r3
  406ce8:	ee07 3a90 	vmov	s15, r3
  406cec:	e6b8      	b.n	406a60 <.LVL97>

00406cee <.LVL173>:
  406cee:	2300      	movs	r3, #0
  406cf0:	930b      	str	r3, [sp, #44]	; 0x2c
  406cf2:	e67d      	b.n	4069f0 <.LVL77>

00406cf4 <.LVL174>:
  406cf4:	9b01      	ldr	r3, [sp, #4]
  406cf6:	2b01      	cmp	r3, #1
  406cf8:	f340 823e 	ble.w	407178 <.LVL314>
  406cfc:	2300      	movs	r3, #0
  406cfe:	930d      	str	r3, [sp, #52]	; 0x34

00406d00 <.LVL175>:
  406d00:	9b0a      	ldr	r3, [sp, #40]	; 0x28
  406d02:	2001      	movs	r0, #1
  406d04:	2b00      	cmp	r3, #0
  406d06:	d1e1      	bne.n	406ccc <.LVL169>
  406d08:	9a06      	ldr	r2, [sp, #24]
  406d0a:	4410      	add	r0, r2

00406d0c <.LVL176>:
  406d0c:	f010 001f 	ands.w	r0, r0, #31

00406d10 <.LVL177>:
  406d10:	f000 809e 	beq.w	406e50 <.LVL217>
  406d14:	f1c0 0320 	rsb	r3, r0, #32

00406d18 <.LVL178>:
  406d18:	2b04      	cmp	r3, #4
  406d1a:	f340 83d4 	ble.w	4074c6 <.LVL446>
  406d1e:	9b07      	ldr	r3, [sp, #28]

00406d20 <.LVL179>:
  406d20:	f1c0 001c 	rsb	r0, r0, #28

00406d24 <.LVL180>:
  406d24:	4403      	add	r3, r0
  406d26:	9307      	str	r3, [sp, #28]

00406d28 <.LVL181>:
  406d28:	4613      	mov	r3, r2

00406d2a <.LVL182>:
  406d2a:	4403      	add	r3, r0
  406d2c:	4407      	add	r7, r0
  406d2e:	9306      	str	r3, [sp, #24]

00406d30 <.LVL184>:
  406d30:	9b07      	ldr	r3, [sp, #28]
  406d32:	2b00      	cmp	r3, #0
  406d34:	dd05      	ble.n	406d42 <.LVL185+0x2>
  406d36:	4641      	mov	r1, r8
  406d38:	461a      	mov	r2, r3
  406d3a:	4620      	mov	r0, r4
  406d3c:	f004 fc54 	bl	40b5e8 <__lshift>

00406d40 <.LVL185>:
  406d40:	4680      	mov	r8, r0
  406d42:	9b06      	ldr	r3, [sp, #24]
  406d44:	2b00      	cmp	r3, #0
  406d46:	dd05      	ble.n	406d54 <.LVL187+0x2>
  406d48:	461a      	mov	r2, r3
  406d4a:	9905      	ldr	r1, [sp, #20]
  406d4c:	4620      	mov	r0, r4
  406d4e:	f004 fc4b 	bl	40b5e8 <__lshift>

00406d52 <.LVL187>:
  406d52:	9005      	str	r0, [sp, #20]
  406d54:	9b0b      	ldr	r3, [sp, #44]	; 0x2c
  406d56:	2b00      	cmp	r3, #0
  406d58:	f040 8083 	bne.w	406e62 <.LVL223>
  406d5c:	2e00      	cmp	r6, #0
  406d5e:	f340 821e 	ble.w	40719e <.LVL322>
  406d62:	9b09      	ldr	r3, [sp, #36]	; 0x24
  406d64:	2b00      	cmp	r3, #0
  406d66:	f000 8096 	beq.w	406e96 <.LVL230>

00406d6a <.LVL189>:
  406d6a:	2f00      	cmp	r7, #0
  406d6c:	dd05      	ble.n	406d7a <.LVL191>
  406d6e:	4629      	mov	r1, r5
  406d70:	463a      	mov	r2, r7
  406d72:	4620      	mov	r0, r4
  406d74:	f004 fc38 	bl	40b5e8 <__lshift>

00406d78 <.LVL190>:
  406d78:	4605      	mov	r5, r0

00406d7a <.LVL191>:
  406d7a:	9b0d      	ldr	r3, [sp, #52]	; 0x34
  406d7c:	2b00      	cmp	r3, #0
  406d7e:	f040 82ce 	bne.w	40731e <.LVL378>
  406d82:	462f      	mov	r7, r5

00406d84 <.LVL192>:
  406d84:	9b08      	ldr	r3, [sp, #32]
  406d86:	3e01      	subs	r6, #1
  406d88:	199a      	adds	r2, r3, r6
  406d8a:	9209      	str	r2, [sp, #36]	; 0x24
  406d8c:	f00a 0201 	and.w	r2, sl, #1
  406d90:	920a      	str	r2, [sp, #40]	; 0x28

00406d92 <.LVL193>:
  406d92:	461e      	mov	r6, r3

00406d94 <.LVL194>:
  406d94:	f8dd b014 	ldr.w	fp, [sp, #20]
  406d98:	4640      	mov	r0, r8
  406d9a:	4659      	mov	r1, fp
  406d9c:	f002 ffce 	bl	409d3c <.LFE171>

00406da0 <.LVL195>:
  406da0:	4629      	mov	r1, r5
  406da2:	4682      	mov	sl, r0

00406da4 <.LVL196>:
  406da4:	4640      	mov	r0, r8
  406da6:	f006 f94b 	bl	40d040 <.LFE17>

00406daa <.LVL197>:
  406daa:	463a      	mov	r2, r7
  406dac:	4659      	mov	r1, fp
  406dae:	4681      	mov	r9, r0
  406db0:	4620      	mov	r0, r4
  406db2:	f003 fb17 	bl	40a3e4 <.LFE169>

00406db6 <.LVL198>:
  406db6:	68c3      	ldr	r3, [r0, #12]
  406db8:	4683      	mov	fp, r0
  406dba:	f10a 0230 	add.w	r2, sl, #48	; 0x30

00406dbe <.LVL199>:
  406dbe:	2b00      	cmp	r3, #0
  406dc0:	f040 81e5 	bne.w	40718e <.LVL318>
  406dc4:	4601      	mov	r1, r0
  406dc6:	4640      	mov	r0, r8

00406dc8 <.LVL200>:
  406dc8:	9207      	str	r2, [sp, #28]
  406dca:	f006 f939 	bl	40d040 <.LFE17>

00406dce <.LVL201>:
  406dce:	4659      	mov	r1, fp
  406dd0:	9006      	str	r0, [sp, #24]

00406dd2 <.LVL202>:
  406dd2:	4620      	mov	r0, r4

00406dd4 <.LVL203>:
  406dd4:	f006 fce4 	bl	40d7a0 <_Bfree>

00406dd8 <.LVL204>:
  406dd8:	9b06      	ldr	r3, [sp, #24]
  406dda:	9a07      	ldr	r2, [sp, #28]
  406ddc:	b933      	cbnz	r3, 406dec <.LVL205>
  406dde:	9901      	ldr	r1, [sp, #4]
  406de0:	b921      	cbnz	r1, 406dec <.LVL205>
  406de2:	9b0a      	ldr	r3, [sp, #40]	; 0x28
  406de4:	2b00      	cmp	r3, #0
  406de6:	f000 8343 	beq.w	407470 <.LVL432>
  406dea:	9b01      	ldr	r3, [sp, #4]

00406dec <.LVL205>:
  406dec:	f1b9 0f00 	cmp.w	r9, #0
  406df0:	f2c0 823b 	blt.w	40726a <.LVL352>
  406df4:	d105      	bne.n	406e02 <.LVL205+0x16>
  406df6:	9901      	ldr	r1, [sp, #4]
  406df8:	b919      	cbnz	r1, 406e02 <.LVL205+0x16>
  406dfa:	990a      	ldr	r1, [sp, #40]	; 0x28
  406dfc:	2900      	cmp	r1, #0
  406dfe:	f000 8234 	beq.w	40726a <.LVL352>
  406e02:	2b00      	cmp	r3, #0
  406e04:	f300 829f 	bgt.w	407346 <.LVL385>
  406e08:	9b09      	ldr	r3, [sp, #36]	; 0x24
  406e0a:	7032      	strb	r2, [r6, #0]
  406e0c:	f106 0901 	add.w	r9, r6, #1

00406e10 <.LVL206>:
  406e10:	429e      	cmp	r6, r3
  406e12:	46cb      	mov	fp, r9

00406e14 <.LVL207>:
  406e14:	f000 82a2 	beq.w	40735c <.LVL390>
  406e18:	4641      	mov	r1, r8
  406e1a:	2300      	movs	r3, #0
  406e1c:	220a      	movs	r2, #10
  406e1e:	4620      	mov	r0, r4
  406e20:	f005 f906 	bl	40c030 <.LFE146>

00406e24 <.LVL208>:
  406e24:	42bd      	cmp	r5, r7
  406e26:	4680      	mov	r8, r0

00406e28 <.LVL209>:
  406e28:	4629      	mov	r1, r5
  406e2a:	f04f 0300 	mov.w	r3, #0
  406e2e:	f04f 020a 	mov.w	r2, #10
  406e32:	4620      	mov	r0, r4

00406e34 <.LVL210>:
  406e34:	f000 81a5 	beq.w	407182 <.LVL315>

00406e38 <.LVL211>:
  406e38:	f005 f8fa 	bl	40c030 <.LFE146>

00406e3c <.LVL212>:
  406e3c:	4639      	mov	r1, r7
  406e3e:	4605      	mov	r5, r0

00406e40 <.LVL213>:
  406e40:	2300      	movs	r3, #0
  406e42:	220a      	movs	r2, #10
  406e44:	4620      	mov	r0, r4

00406e46 <.LVL214>:
  406e46:	f005 f8f3 	bl	40c030 <.LFE146>

00406e4a <.LVL215>:
  406e4a:	464e      	mov	r6, r9
  406e4c:	4607      	mov	r7, r0

00406e4e <.LVL216>:
  406e4e:	e7a1      	b.n	406d94 <.LVL194>

00406e50 <.LVL217>:
  406e50:	201c      	movs	r0, #28

00406e52 <.LVL218>:
  406e52:	9b07      	ldr	r3, [sp, #28]
  406e54:	4403      	add	r3, r0
  406e56:	9307      	str	r3, [sp, #28]

00406e58 <.LVL219>:
  406e58:	9b06      	ldr	r3, [sp, #24]

00406e5a <.LVL220>:
  406e5a:	4403      	add	r3, r0
  406e5c:	4407      	add	r7, r0
  406e5e:	9306      	str	r3, [sp, #24]

00406e60 <.LVL222>:
  406e60:	e766      	b.n	406d30 <.LVL184>

00406e62 <.LVL223>:
  406e62:	9905      	ldr	r1, [sp, #20]
  406e64:	4640      	mov	r0, r8
  406e66:	f006 f8eb 	bl	40d040 <.LFE17>

00406e6a <.LVL224>:
  406e6a:	2800      	cmp	r0, #0
  406e6c:	f6bf af76 	bge.w	406d5c <.LVL187+0xa>
  406e70:	9e02      	ldr	r6, [sp, #8]

00406e72 <.LVL225>:
  406e72:	4641      	mov	r1, r8
  406e74:	2300      	movs	r3, #0
  406e76:	220a      	movs	r2, #10
  406e78:	4620      	mov	r0, r4
  406e7a:	3e01      	subs	r6, #1
  406e7c:	9602      	str	r6, [sp, #8]

00406e7e <.LVL226>:
  406e7e:	f005 f8d7 	bl	40c030 <.LFE146>

00406e82 <.LVL227>:
  406e82:	9b09      	ldr	r3, [sp, #36]	; 0x24
  406e84:	4680      	mov	r8, r0

00406e86 <.LVL228>:
  406e86:	2b00      	cmp	r3, #0
  406e88:	f040 8302 	bne.w	407490 <.LVL436>

00406e8c <.LVL229>:
  406e8c:	9b0c      	ldr	r3, [sp, #48]	; 0x30
  406e8e:	2b00      	cmp	r3, #0
  406e90:	f340 830a 	ble.w	4074a8 <.LVL440>
  406e94:	461e      	mov	r6, r3

00406e96 <.LVL230>:
  406e96:	f8dd a020 	ldr.w	sl, [sp, #32]

00406e9a <.LVL231>:
  406e9a:	f8dd b014 	ldr.w	fp, [sp, #20]
  406e9e:	4657      	mov	r7, sl

00406ea0 <.LVL232>:
  406ea0:	e002      	b.n	406ea8 <.LVL235>

00406ea2 <.LVL233>:
  406ea2:	f005 f8c5 	bl	40c030 <.LFE146>

00406ea6 <.LVL234>:
  406ea6:	4680      	mov	r8, r0

00406ea8 <.LVL235>:
  406ea8:	4659      	mov	r1, fp
  406eaa:	4640      	mov	r0, r8
  406eac:	f002 ff46 	bl	409d3c <.LFE171>

00406eb0 <.LVL236>:
  406eb0:	f100 0930 	add.w	r9, r0, #48	; 0x30

00406eb4 <.LVL237>:
  406eb4:	f807 9b01 	strb.w	r9, [r7], #1

00406eb8 <.LVL238>:
  406eb8:	eba7 030a 	sub.w	r3, r7, sl
  406ebc:	42b3      	cmp	r3, r6
  406ebe:	f04f 020a 	mov.w	r2, #10
  406ec2:	f04f 0300 	mov.w	r3, #0
  406ec6:	4641      	mov	r1, r8
  406ec8:	4620      	mov	r0, r4
  406eca:	dbea      	blt.n	406ea2 <.LVL233>

00406ecc <.LVL239>:
  406ecc:	9b08      	ldr	r3, [sp, #32]
  406ece:	2e01      	cmp	r6, #1
  406ed0:	bfac      	ite	ge
  406ed2:	199b      	addge	r3, r3, r6
  406ed4:	3301      	addlt	r3, #1
  406ed6:	469b      	mov	fp, r3
  406ed8:	f04f 0a00 	mov.w	sl, #0

00406edc <.LVL240>:
  406edc:	4641      	mov	r1, r8
  406ede:	2201      	movs	r2, #1
  406ee0:	4620      	mov	r0, r4
  406ee2:	f004 fb81 	bl	40b5e8 <__lshift>

00406ee6 <.LVL241>:
  406ee6:	9905      	ldr	r1, [sp, #20]
  406ee8:	4680      	mov	r8, r0

00406eea <.LVL242>:
  406eea:	f006 f8a9 	bl	40d040 <.LFE17>

00406eee <.LVL243>:
  406eee:	2800      	cmp	r0, #0
  406ef0:	f340 81d7 	ble.w	4072a2 <.LVL362>
  406ef4:	f81b 2c01 	ldrb.w	r2, [fp, #-1]

00406ef8 <.L142>:
  406ef8:	9908      	ldr	r1, [sp, #32]
  406efa:	f10b 33ff 	add.w	r3, fp, #4294967295
  406efe:	e004      	b.n	406f0a <.LVL246>

00406f00 <.LVL245>:
  406f00:	428b      	cmp	r3, r1
  406f02:	f000 8168 	beq.w	4071d6 <.LVL331>
  406f06:	f813 2d01 	ldrb.w	r2, [r3, #-1]!

00406f0a <.LVL246>:
  406f0a:	2a39      	cmp	r2, #57	; 0x39
  406f0c:	f103 0b01 	add.w	fp, r3, #1

00406f10 <.LVL247>:
  406f10:	d0f6      	beq.n	406f00 <.LVL245>

00406f12 <.LVL248>:
  406f12:	3201      	adds	r2, #1
  406f14:	701a      	strb	r2, [r3, #0]

00406f16 <.L135>:
  406f16:	9905      	ldr	r1, [sp, #20]
  406f18:	4620      	mov	r0, r4
  406f1a:	f006 fc41 	bl	40d7a0 <_Bfree>

00406f1e <.LVL250>:
  406f1e:	2d00      	cmp	r5, #0
  406f20:	f43f ae22 	beq.w	406b68 <.L76>
  406f24:	f1ba 0f00 	cmp.w	sl, #0
  406f28:	d005      	beq.n	406f36 <.LVL251>
  406f2a:	45aa      	cmp	sl, r5
  406f2c:	d003      	beq.n	406f36 <.LVL251>
  406f2e:	4651      	mov	r1, sl
  406f30:	4620      	mov	r0, r4
  406f32:	f006 fc35 	bl	40d7a0 <_Bfree>

00406f36 <.LVL251>:
  406f36:	4629      	mov	r1, r5
  406f38:	4620      	mov	r0, r4
  406f3a:	f006 fc31 	bl	40d7a0 <_Bfree>

00406f3e <.LVL252>:
  406f3e:	e613      	b.n	406b68 <.L76>

00406f40 <.LVL253>:
  406f40:	2300      	movs	r3, #0
  406f42:	9309      	str	r3, [sp, #36]	; 0x24

00406f44 <.LVL254>:
  406f44:	9b02      	ldr	r3, [sp, #8]
  406f46:	444b      	add	r3, r9
  406f48:	1c5e      	adds	r6, r3, #1

00406f4a <.LVL255>:
  406f4a:	2e01      	cmp	r6, #1
  406f4c:	4637      	mov	r7, r6
  406f4e:	930c      	str	r3, [sp, #48]	; 0x30

00406f50 <.LVL256>:
  406f50:	bfb8      	it	lt
  406f52:	2701      	movlt	r7, #1
  406f54:	960e      	str	r6, [sp, #56]	; 0x38

00406f56 <.LVL257>:
  406f56:	2100      	movs	r1, #0
  406f58:	2f17      	cmp	r7, #23
  406f5a:	6461      	str	r1, [r4, #68]	; 0x44
  406f5c:	d90a      	bls.n	406f74 <.LVL260>
  406f5e:	2201      	movs	r2, #1
  406f60:	2304      	movs	r3, #4

00406f62 <.LVL258>:
  406f62:	005b      	lsls	r3, r3, #1
  406f64:	f103 0014 	add.w	r0, r3, #20
  406f68:	4287      	cmp	r7, r0
  406f6a:	4611      	mov	r1, r2
  406f6c:	f102 0201 	add.w	r2, r2, #1
  406f70:	d2f7      	bcs.n	406f62 <.LVL258>
  406f72:	6461      	str	r1, [r4, #68]	; 0x44

00406f74 <.LVL260>:
  406f74:	4620      	mov	r0, r4
  406f76:	f005 fe17 	bl	40cba8 <.LFE2>

00406f7a <.LVL261>:
  406f7a:	9b0e      	ldr	r3, [sp, #56]	; 0x38
  406f7c:	9008      	str	r0, [sp, #32]
  406f7e:	2b0e      	cmp	r3, #14
  406f80:	6420      	str	r0, [r4, #64]	; 0x40

00406f82 <.LVL262>:
  406f82:	f63f ad88 	bhi.w	406a96 <.LVL104>

00406f86 <.LVL263>:
  406f86:	2d00      	cmp	r5, #0
  406f88:	f43f ad85 	beq.w	406a96 <.LVL104>

00406f8c <.LVL264>:
  406f8c:	9802      	ldr	r0, [sp, #8]
  406f8e:	2800      	cmp	r0, #0
  406f90:	e9cd ab0e 	strd	sl, fp, [sp, #56]	; 0x38

00406f94 <.LVL265>:
  406f94:	f340 819a 	ble.w	4072cc <.LVL368>
  406f98:	4ac8      	ldr	r2, [pc, #800]	; (4072bc <.LVL365+0x4>)
  406f9a:	f000 030f 	and.w	r3, r0, #15
  406f9e:	eb02 02c3 	add.w	r2, r2, r3, lsl #3
  406fa2:	1103      	asrs	r3, r0, #4
  406fa4:	06df      	lsls	r7, r3, #27
  406fa6:	ed92 7b00 	vldr	d7, [r2]

00406faa <.LVL266>:
  406faa:	f140 814d 	bpl.w	407248 <.LVL348>
  406fae:	4ac4      	ldr	r2, [pc, #784]	; (4072c0 <.LVL365+0x8>)
  406fb0:	ed92 6b08 	vldr	d6, [r2, #32]
  406fb4:	ec4b ab14 	vmov	d4, sl, fp

00406fb8 <.LVL267>:
  406fb8:	f003 030f 	and.w	r3, r3, #15
  406fbc:	2103      	movs	r1, #3
  406fbe:	ee84 5b06 	vdiv.f64	d5, d4, d6

00406fc2 <.LVL269>:
  406fc2:	b15b      	cbz	r3, 406fdc <.LVL273+0x6>
  406fc4:	4abe      	ldr	r2, [pc, #760]	; (4072c0 <.LVL365+0x8>)

00406fc6 <.LVL270>:
  406fc6:	07dd      	lsls	r5, r3, #31
  406fc8:	d504      	bpl.n	406fd4 <.LVL272>
  406fca:	ed92 6b00 	vldr	d6, [r2]
  406fce:	3101      	adds	r1, #1
  406fd0:	ee27 7b06 	vmul.f64	d7, d7, d6

00406fd4 <.LVL272>:
  406fd4:	105b      	asrs	r3, r3, #1

00406fd6 <.LVL273>:
  406fd6:	f102 0208 	add.w	r2, r2, #8
  406fda:	d1f4      	bne.n	406fc6 <.LVL270>
  406fdc:	ee85 6b07 	vdiv.f64	d6, d5, d7

00406fe0 <.LVL274>:
  406fe0:	9b0b      	ldr	r3, [sp, #44]	; 0x2c
  406fe2:	b13b      	cbz	r3, 406ff4 <.LVL275>
  406fe4:	eeb7 7b00 	vmov.f64	d7, #112	; 0x3f800000  1.0
  406fe8:	eeb4 6bc7 	vcmpe.f64	d6, d7
  406fec:	eef1 fa10 	vmrs	APSR_nzcv, fpscr
  406ff0:	f100 8206 	bmi.w	407400 <.LVL416>

00406ff4 <.LVL275>:
  406ff4:	eeb1 5b0c 	vmov.f64	d5, #28	; 0x40e00000  7.0
  406ff8:	ee07 1a90 	vmov	s15, r1
  406ffc:	eeb8 7be7 	vcvt.f64.s32	d7, s15
  407000:	eea7 5b06 	vfma.f64	d5, d7, d6
  407004:	ec51 0b15 	vmov	r0, r1, d5
  407008:	f1a1 7150 	sub.w	r1, r1, #54525952	; 0x3400000

0040700c <.LVL276>:
  40700c:	2e00      	cmp	r6, #0
  40700e:	f000 80f8 	beq.w	407202 <.LVL336>
  407012:	9a02      	ldr	r2, [sp, #8]
  407014:	4635      	mov	r5, r6

00407016 <.LVL277>:
  407016:	9b09      	ldr	r3, [sp, #36]	; 0x24
  407018:	2b00      	cmp	r3, #0
  40701a:	f000 81a7 	beq.w	40736c <.LVL396>
  40701e:	eeb6 3b00 	vmov.f64	d3, #96	; 0x3f000000  0.5
  407022:	4ba6      	ldr	r3, [pc, #664]	; (4072bc <.LVL365+0x4>)
  407024:	9f08      	ldr	r7, [sp, #32]
  407026:	eb03 03c5 	add.w	r3, r3, r5, lsl #3
  40702a:	ed13 4b02 	vldr	d4, [r3, #-8]
  40702e:	eebd 7bc6 	vcvt.s32.f64	s14, d6
  407032:	ee83 5b04 	vdiv.f64	d5, d3, d4
  407036:	ee17 3a10 	vmov	r3, s14

0040703a <.LVL278>:
  40703a:	ec41 0b14 	vmov	d4, r0, r1
  40703e:	3330      	adds	r3, #48	; 0x30
  407040:	b2db      	uxtb	r3, r3
  407042:	ee35 5b44 	vsub.f64	d5, d5, d4

00407046 <.LVL279>:
  407046:	eeb8 7bc7 	vcvt.f64.s32	d7, s14

0040704a <.LVL280>:
  40704a:	ee36 7b47 	vsub.f64	d7, d6, d7
  40704e:	eeb4 5bc7 	vcmpe.f64	d5, d7
  407052:	eef1 fa10 	vmrs	APSR_nzcv, fpscr
  407056:	703b      	strb	r3, [r7, #0]
  407058:	f107 0b01 	add.w	fp, r7, #1

0040705c <.LVL281>:
  40705c:	dc31      	bgt.n	4070c2 <.LVL288+0xe>
  40705e:	eeb7 3b00 	vmov.f64	d3, #112	; 0x3f800000  1.0
  407062:	ee33 6b47 	vsub.f64	d6, d3, d7

00407066 <.LVL282>:
  407066:	eeb4 5bc6 	vcmpe.f64	d5, d6
  40706a:	eef1 fa10 	vmrs	APSR_nzcv, fpscr
  40706e:	f300 81fa 	bgt.w	407466 <.LVL428>

00407072 <.LVL283>:
  407072:	2d01      	cmp	r5, #1
  407074:	f000 8126 	beq.w	4072c4 <.LDL1>
  407078:	eeb2 4b04 	vmov.f64	d4, #36	; 0x41200000  10.0
  40707c:	9b08      	ldr	r3, [sp, #32]
  40707e:	1959      	adds	r1, r3, r5
  407080:	e00a      	b.n	407098 <.LVL285>

00407082 <.LVL284>:
  407082:	ee33 6b47 	vsub.f64	d6, d3, d7
  407086:	eeb4 6bc5 	vcmpe.f64	d6, d5
  40708a:	eef1 fa10 	vmrs	APSR_nzcv, fpscr
  40708e:	f100 81ea 	bmi.w	407466 <.LVL428>
  407092:	458b      	cmp	fp, r1
  407094:	f000 8116 	beq.w	4072c4 <.LDL1>

00407098 <.LVL285>:
  407098:	ee27 7b04 	vmul.f64	d7, d7, d4
  40709c:	ee25 5b04 	vmul.f64	d5, d5, d4
  4070a0:	eebd 6bc7 	vcvt.s32.f64	s12, d7

004070a4 <.LVL286>:
  4070a4:	ee16 3a10 	vmov	r3, s12
  4070a8:	3330      	adds	r3, #48	; 0x30
  4070aa:	b2db      	uxtb	r3, r3
  4070ac:	eeb8 6bc6 	vcvt.f64.s32	d6, s12

004070b0 <.LVL287>:
  4070b0:	ee37 7b46 	vsub.f64	d7, d7, d6

004070b4 <.LVL288>:
  4070b4:	eeb4 7bc5 	vcmpe.f64	d7, d5
  4070b8:	eef1 fa10 	vmrs	APSR_nzcv, fpscr
  4070bc:	f80b 3b01 	strb.w	r3, [fp], #1
  4070c0:	d5df      	bpl.n	407082 <.LVL284>
  4070c2:	9202      	str	r2, [sp, #8]

004070c4 <.LVL289>:
  4070c4:	e550      	b.n	406b68 <.L76>

004070c6 <.LVL290>:
  4070c6:	2300      	movs	r3, #0
  4070c8:	9309      	str	r3, [sp, #36]	; 0x24

004070ca <.LVL291>:
  4070ca:	f1b9 0f00 	cmp.w	r9, #0
  4070ce:	f340 80bf 	ble.w	407250 <.LVL349>
  4070d2:	464f      	mov	r7, r9
  4070d4:	f8cd 9038 	str.w	r9, [sp, #56]	; 0x38
  4070d8:	f8cd 9030 	str.w	r9, [sp, #48]	; 0x30
  4070dc:	464e      	mov	r6, r9
  4070de:	e73a      	b.n	406f56 <.LVL257>

004070e0 <.LVL292>:
  4070e0:	2301      	movs	r3, #1
  4070e2:	9309      	str	r3, [sp, #36]	; 0x24
  4070e4:	e7f1      	b.n	4070ca <.LVL291>

004070e6 <.LVL293>:
  4070e6:	f1ba 0f00 	cmp.w	sl, #0
  4070ea:	f47f aded 	bne.w	406cc8 <.LVL168+0x6>

004070ee <.LVL294>:
  4070ee:	f3cb 0313 	ubfx	r3, fp, #0, #20
  4070f2:	2b00      	cmp	r3, #0
  4070f4:	f47f ae02 	bne.w	406cfc <.LVL174+0x8>
  4070f8:	f02b 4300 	bic.w	r3, fp, #2147483648	; 0x80000000
  4070fc:	0d1b      	lsrs	r3, r3, #20
  4070fe:	051b      	lsls	r3, r3, #20
  407100:	2b00      	cmp	r3, #0
  407102:	f000 81b3 	beq.w	40746c <.LVL430>
  407106:	9b07      	ldr	r3, [sp, #28]
  407108:	3301      	adds	r3, #1
  40710a:	9307      	str	r3, [sp, #28]

0040710c <.LVL295>:
  40710c:	9b06      	ldr	r3, [sp, #24]

0040710e <.LVL296>:
  40710e:	3301      	adds	r3, #1
  407110:	9306      	str	r3, [sp, #24]

00407112 <.LVL297>:
  407112:	2301      	movs	r3, #1

00407114 <.LVL298>:
  407114:	930d      	str	r3, [sp, #52]	; 0x34

00407116 <.LVL299>:
  407116:	e5f3      	b.n	406d00 <.LVL175>

00407118 <.LVL300>:
  407118:	2e00      	cmp	r6, #0
  40711a:	f73f accb 	bgt.w	406ab4 <.LVL106>

0040711e <.LVL301>:
  40711e:	f040 8083 	bne.w	407228 <.LVL338>
  407122:	eeb1 7b04 	vmov.f64	d7, #20	; 0x40a00000  5.0
  407126:	ee24 4b07 	vmul.f64	d4, d4, d7

0040712a <.LVL302>:
  40712a:	ec4b ab17 	vmov	d7, sl, fp
  40712e:	eeb4 4bc7 	vcmpe.f64	d4, d7
  407132:	eef1 fa10 	vmrs	APSR_nzcv, fpscr
  407136:	4635      	mov	r5, r6
  407138:	9605      	str	r6, [sp, #20]

0040713a <.LVL303>:
  40713a:	db43      	blt.n	4071c4 <.L73>

0040713c <.L74>:
  40713c:	ea6f 0309 	mvn.w	r3, r9
  407140:	f8dd b020 	ldr.w	fp, [sp, #32]
  407144:	9302      	str	r3, [sp, #8]

00407146 <.LVL305>:
  407146:	9905      	ldr	r1, [sp, #20]
  407148:	4620      	mov	r0, r4

0040714a <.LVL306>:
  40714a:	f006 fb29 	bl	40d7a0 <_Bfree>

0040714e <.LVL307>:
  40714e:	2d00      	cmp	r5, #0
  407150:	f43f ad0a 	beq.w	406b68 <.L76>
  407154:	e6ef      	b.n	406f36 <.LVL251>

00407156 <.LVL308>:
  407156:	9a05      	ldr	r2, [sp, #20]
  407158:	4641      	mov	r1, r8
  40715a:	4620      	mov	r0, r4

0040715c <.LVL309>:
  40715c:	f004 fb38 	bl	40b7d0 <__pow5mult>

00407160 <.LVL310>:
  407160:	4680      	mov	r8, r0

00407162 <.LVL311>:
  407162:	e59f      	b.n	406ca4 <.LVL162>

00407164 <.LVL312>:
  407164:	9a0d      	ldr	r2, [sp, #52]	; 0x34
  407166:	2a00      	cmp	r2, #0
  407168:	f000 813e 	beq.w	4073e8 <.LVL413>
  40716c:	9a05      	ldr	r2, [sp, #20]
  40716e:	920d      	str	r2, [sp, #52]	; 0x34

00407170 <.LVL313>:
  407170:	f203 4333 	addw	r3, r3, #1075	; 0x433
  407174:	9f07      	ldr	r7, [sp, #28]
  407176:	e51f      	b.n	406bb8 <.LVL127>

00407178 <.LVL314>:
  407178:	f1ba 0f00 	cmp.w	sl, #0
  40717c:	f47f adbe 	bne.w	406cfc <.LVL174+0x8>
  407180:	e7b5      	b.n	4070ee <.LVL294>

00407182 <.LVL315>:
  407182:	f004 ff55 	bl	40c030 <.LFE146>

00407186 <.LVL316>:
  407186:	464e      	mov	r6, r9
  407188:	4605      	mov	r5, r0

0040718a <.LVL317>:
  40718a:	4607      	mov	r7, r0
  40718c:	e602      	b.n	406d94 <.LVL194>

0040718e <.LVL318>:
  40718e:	4601      	mov	r1, r0
  407190:	4620      	mov	r0, r4

00407192 <.LVL319>:
  407192:	9206      	str	r2, [sp, #24]

00407194 <.LVL320>:
  407194:	f006 fb04 	bl	40d7a0 <_Bfree>

00407198 <.LVL321>:
  407198:	2301      	movs	r3, #1
  40719a:	9a06      	ldr	r2, [sp, #24]
  40719c:	e626      	b.n	406dec <.LVL205>

0040719e <.LVL322>:
  40719e:	9b01      	ldr	r3, [sp, #4]
  4071a0:	2b02      	cmp	r3, #2
  4071a2:	f77f adde 	ble.w	406d62 <.LVL187+0x10>

004071a6 <.LVL323>:
  4071a6:	2e00      	cmp	r6, #0
  4071a8:	d1c8      	bne.n	40713c <.L74>
  4071aa:	4633      	mov	r3, r6
  4071ac:	9905      	ldr	r1, [sp, #20]
  4071ae:	2205      	movs	r2, #5
  4071b0:	4620      	mov	r0, r4
  4071b2:	f004 ff3d 	bl	40c030 <.LFE146>

004071b6 <.LVL324>:
  4071b6:	4601      	mov	r1, r0
  4071b8:	9005      	str	r0, [sp, #20]

004071ba <.LVL325>:
  4071ba:	4640      	mov	r0, r8

004071bc <.LVL326>:
  4071bc:	f005 ff40 	bl	40d040 <.LFE17>

004071c0 <.LVL327>:
  4071c0:	2800      	cmp	r0, #0
  4071c2:	ddbb      	ble.n	40713c <.L74>

004071c4 <.L73>:
  4071c4:	9a02      	ldr	r2, [sp, #8]
  4071c6:	9908      	ldr	r1, [sp, #32]
  4071c8:	2331      	movs	r3, #49	; 0x31
  4071ca:	3201      	adds	r2, #1
  4071cc:	9202      	str	r2, [sp, #8]

004071ce <.LVL329>:
  4071ce:	700b      	strb	r3, [r1, #0]
  4071d0:	f101 0b01 	add.w	fp, r1, #1

004071d4 <.LVL330>:
  4071d4:	e7b7      	b.n	407146 <.LVL305>

004071d6 <.LVL331>:
  4071d6:	9a02      	ldr	r2, [sp, #8]
  4071d8:	3201      	adds	r2, #1
  4071da:	9202      	str	r2, [sp, #8]

004071dc <.LVL332>:
  4071dc:	9a08      	ldr	r2, [sp, #32]

004071de <.LVL333>:
  4071de:	2331      	movs	r3, #49	; 0x31
  4071e0:	7013      	strb	r3, [r2, #0]
  4071e2:	e698      	b.n	406f16 <.L135>

004071e4 <.LVL334>:
  4071e4:	2301      	movs	r3, #1
  4071e6:	9309      	str	r3, [sp, #36]	; 0x24
  4071e8:	e6ac      	b.n	406f44 <.LVL254>

004071ea <.LVL335>:
  4071ea:	ee07 1a90 	vmov	s15, r1
  4071ee:	eeb1 5b0c 	vmov.f64	d5, #28	; 0x40e00000  7.0
  4071f2:	eeb8 7be7 	vcvt.f64.s32	d7, s15
  4071f6:	eea6 5b07 	vfma.f64	d5, d6, d7
  4071fa:	ec51 0b15 	vmov	r0, r1, d5
  4071fe:	f1a1 7150 	sub.w	r1, r1, #54525952	; 0x3400000

00407202 <.LVL336>:
  407202:	eeb1 7b04 	vmov.f64	d7, #20	; 0x40a00000  5.0
  407206:	ee36 7b47 	vsub.f64	d7, d6, d7

0040720a <.LVL337>:
  40720a:	ec41 0b16 	vmov	d6, r0, r1
  40720e:	eeb4 7bc6 	vcmpe.f64	d7, d6
  407212:	eef1 fa10 	vmrs	APSR_nzcv, fpscr
  407216:	f300 80a5 	bgt.w	407364 <.LVL394>
  40721a:	eeb1 6b46 	vneg.f64	d6, d6
  40721e:	eeb4 7bc6 	vcmpe.f64	d7, d6
  407222:	eef1 fa10 	vmrs	APSR_nzcv, fpscr
  407226:	d54d      	bpl.n	4072c4 <.LDL1>

00407228 <.LVL338>:
  407228:	2300      	movs	r3, #0
  40722a:	9305      	str	r3, [sp, #20]

0040722c <.LVL339>:
  40722c:	461d      	mov	r5, r3
  40722e:	e785      	b.n	40713c <.L74>

00407230 <.LVL340>:
  407230:	9808      	ldr	r0, [sp, #32]
  407232:	f7ff bb6f 	b.w	406914 <.LVL57>

00407236 <.LVL341>:
  407236:	9b05      	ldr	r3, [sp, #20]
  407238:	990a      	ldr	r1, [sp, #40]	; 0x28

0040723a <.LVL342>:
  40723a:	9205      	str	r2, [sp, #20]

0040723c <.LVL343>:
  40723c:	1ad3      	subs	r3, r2, r3

0040723e <.LVL344>:
  40723e:	4419      	add	r1, r3
  407240:	2300      	movs	r3, #0

00407242 <.LVL345>:
  407242:	910a      	str	r1, [sp, #40]	; 0x28

00407244 <.LVL346>:
  407244:	930d      	str	r3, [sp, #52]	; 0x34

00407246 <.LVL347>:
  407246:	e4b2      	b.n	406bae <.LVL126>

00407248 <.LVL348>:
  407248:	ed9d 5b0e 	vldr	d5, [sp, #56]	; 0x38
  40724c:	2102      	movs	r1, #2
  40724e:	e6b8      	b.n	406fc2 <.LVL269>

00407250 <.LVL349>:
  407250:	2100      	movs	r1, #0
  407252:	6461      	str	r1, [r4, #68]	; 0x44
  407254:	4620      	mov	r0, r4
  407256:	f005 fca7 	bl	40cba8 <.LFE2>

0040725a <.LVL350>:
  40725a:	f04f 0901 	mov.w	r9, #1
  40725e:	9008      	str	r0, [sp, #32]
  407260:	6420      	str	r0, [r4, #64]	; 0x40

00407262 <.LVL351>:
  407262:	464e      	mov	r6, r9
  407264:	f8cd 9030 	str.w	r9, [sp, #48]	; 0x30
  407268:	e68d      	b.n	406f86 <.LVL263>

0040726a <.LVL352>:
  40726a:	2b00      	cmp	r3, #0
  40726c:	4691      	mov	r9, r2

0040726e <.LVL353>:
  40726e:	dd11      	ble.n	407294 <.LVL359>
  407270:	4641      	mov	r1, r8
  407272:	2201      	movs	r2, #1
  407274:	4620      	mov	r0, r4
  407276:	f004 f9b7 	bl	40b5e8 <__lshift>

0040727a <.LVL354>:
  40727a:	9905      	ldr	r1, [sp, #20]
  40727c:	4680      	mov	r8, r0

0040727e <.LVL355>:
  40727e:	f005 fedf 	bl	40d040 <.LFE17>

00407282 <.LVL356>:
  407282:	2800      	cmp	r0, #0
  407284:	f340 80fd 	ble.w	407482 <.LVL435>

00407288 <.LVL357>:
  407288:	f1b9 0f39 	cmp.w	r9, #57	; 0x39
  40728c:	f000 80d4 	beq.w	407438 <.L133>

00407290 <.LVL358>:
  407290:	f10a 0931 	add.w	r9, sl, #49	; 0x31

00407294 <.LVL359>:
  407294:	46aa      	mov	sl, r5
  407296:	f886 9000 	strb.w	r9, [r6]
  40729a:	f106 0b01 	add.w	fp, r6, #1

0040729e <.LVL360>:
  40729e:	463d      	mov	r5, r7

004072a0 <.LVL361>:
  4072a0:	e639      	b.n	406f16 <.L135>

004072a2 <.LVL362>:
  4072a2:	d104      	bne.n	4072ae <.LVL364>
  4072a4:	f019 0f01 	tst.w	r9, #1
  4072a8:	d001      	beq.n	4072ae <.LVL364>
  4072aa:	e623      	b.n	406ef4 <.LVL243+0x6>

004072ac <.LVL363>:
  4072ac:	4693      	mov	fp, r2

004072ae <.LVL364>:
  4072ae:	f81b 3c01 	ldrb.w	r3, [fp, #-1]
  4072b2:	2b30      	cmp	r3, #48	; 0x30
  4072b4:	f10b 32ff 	add.w	r2, fp, #4294967295

004072b8 <.LVL365>:
  4072b8:	d0f8      	beq.n	4072ac <.LVL363>
  4072ba:	e62c      	b.n	406f16 <.L135>
  4072bc:	0040b180 	.word	0x0040b180
  4072c0:	0040d320 	.word	0x0040d320

004072c4 <.LDL1>:
  4072c4:	e9dd ab0e 	ldrd	sl, fp, [sp, #56]	; 0x38

004072c8 <.LVL367>:
  4072c8:	f7ff bbe5 	b.w	406a96 <.LVL104>

004072cc <.LVL368>:
  4072cc:	f000 8094 	beq.w	4073f8 <.LVL415>
  4072d0:	9b02      	ldr	r3, [sp, #8]
  4072d2:	4a88      	ldr	r2, [pc, #544]	; (4074f4 <.LVL451+0x4>)
  4072d4:	425b      	negs	r3, r3

004072d6 <.LVL369>:
  4072d6:	f003 010f 	and.w	r1, r3, #15
  4072da:	eb02 02c1 	add.w	r2, r2, r1, lsl #3
  4072de:	ed92 6b00 	vldr	d6, [r2]
  4072e2:	ed9d 7b0e 	vldr	d7, [sp, #56]	; 0x38
  4072e6:	111b      	asrs	r3, r3, #4

004072e8 <.LVL370>:
  4072e8:	ee27 6b06 	vmul.f64	d6, d7, d6
  4072ec:	f000 80e1 	beq.w	4074b2 <.LVL442>
  4072f0:	4a81      	ldr	r2, [pc, #516]	; (4074f8 <.LVL451+0x8>)
  4072f2:	2102      	movs	r1, #2

004072f4 <.LVL371>:
  4072f4:	07d8      	lsls	r0, r3, #31
  4072f6:	d504      	bpl.n	407302 <.LVL373>
  4072f8:	ed92 7b00 	vldr	d7, [r2]
  4072fc:	3101      	adds	r1, #1
  4072fe:	ee26 6b07 	vmul.f64	d6, d6, d7

00407302 <.LVL373>:
  407302:	105b      	asrs	r3, r3, #1

00407304 <.LVL374>:
  407304:	f102 0208 	add.w	r2, r2, #8
  407308:	d1f4      	bne.n	4072f4 <.LVL371>
  40730a:	e669      	b.n	406fe0 <.LVL274>

0040730c <.LVL375>:
  40730c:	9908      	ldr	r1, [sp, #32]
  40730e:	2330      	movs	r3, #48	; 0x30
  407310:	700b      	strb	r3, [r1, #0]
  407312:	9b02      	ldr	r3, [sp, #8]
  407314:	3301      	adds	r3, #1
  407316:	9302      	str	r3, [sp, #8]

00407318 <.LVL376>:
  407318:	f81b 3c01 	ldrb.w	r3, [fp, #-1]

0040731c <.LVL377>:
  40731c:	e422      	b.n	406b64 <.LVL120>

0040731e <.LVL378>:
  40731e:	6869      	ldr	r1, [r5, #4]
  407320:	4620      	mov	r0, r4
  407322:	f005 fc41 	bl	40cba8 <.LFE2>

00407326 <.LVL379>:
  407326:	692b      	ldr	r3, [r5, #16]
  407328:	3302      	adds	r3, #2
  40732a:	4607      	mov	r7, r0

0040732c <.LVL380>:
  40732c:	009a      	lsls	r2, r3, #2
  40732e:	f105 010c 	add.w	r1, r5, #12
  407332:	300c      	adds	r0, #12

00407334 <.LVL381>:
  407334:	f002 fbd4 	bl	409ae0 <.LBE4>

00407338 <.LVL382>:
  407338:	4639      	mov	r1, r7
  40733a:	2201      	movs	r2, #1
  40733c:	4620      	mov	r0, r4
  40733e:	f004 f953 	bl	40b5e8 <__lshift>

00407342 <.LVL383>:
  407342:	4607      	mov	r7, r0

00407344 <.LVL384>:
  407344:	e51e      	b.n	406d84 <.LVL192>

00407346 <.LVL385>:
  407346:	2a39      	cmp	r2, #57	; 0x39
  407348:	d076      	beq.n	407438 <.L133>
  40734a:	f102 0901 	add.w	r9, r2, #1

0040734e <.LVL386>:
  40734e:	46aa      	mov	sl, r5

00407350 <.LVL387>:
  407350:	f886 9000 	strb.w	r9, [r6]
  407354:	f106 0b01 	add.w	fp, r6, #1

00407358 <.LVL388>:
  407358:	463d      	mov	r5, r7

0040735a <.LVL389>:
  40735a:	e5dc      	b.n	406f16 <.L135>

0040735c <.LVL390>:
  40735c:	46aa      	mov	sl, r5

0040735e <.LVL391>:
  40735e:	4691      	mov	r9, r2

00407360 <.LVL392>:
  407360:	463d      	mov	r5, r7

00407362 <.LVL393>:
  407362:	e5bb      	b.n	406edc <.LVL240>

00407364 <.LVL394>:
  407364:	2300      	movs	r3, #0
  407366:	9305      	str	r3, [sp, #20]

00407368 <.LVL395>:
  407368:	461d      	mov	r5, r3
  40736a:	e72b      	b.n	4071c4 <.L73>

0040736c <.LVL396>:
  40736c:	4b61      	ldr	r3, [pc, #388]	; (4074f4 <.LVL451+0x4>)
  40736e:	eebd 7bc6 	vcvt.s32.f64	s14, d6
  407372:	eb03 03c5 	add.w	r3, r3, r5, lsl #3
  407376:	ed13 4b02 	vldr	d4, [r3, #-8]
  40737a:	ee17 3a10 	vmov	r3, s14

0040737e <.LVL397>:
  40737e:	ec41 0b15 	vmov	d5, r0, r1
  407382:	9808      	ldr	r0, [sp, #32]

00407384 <.LVL398>:
  407384:	ee24 4b05 	vmul.f64	d4, d4, d5

00407388 <.LVL399>:
  407388:	3330      	adds	r3, #48	; 0x30

0040738a <.LVL400>:
  40738a:	2d01      	cmp	r5, #1
  40738c:	eeb8 7bc7 	vcvt.f64.s32	d7, s14

00407390 <.LVL401>:
  407390:	7003      	strb	r3, [r0, #0]
  407392:	f100 0b01 	add.w	fp, r0, #1

00407396 <.LVL402>:
  407396:	ee36 7b47 	vsub.f64	d7, d6, d7
  40739a:	d012      	beq.n	4073c2 <.LVL409>
  40739c:	eeb2 5b04 	vmov.f64	d5, #36	; 0x41200000  10.0
  4073a0:	9b08      	ldr	r3, [sp, #32]

004073a2 <.LVL403>:
  4073a2:	1959      	adds	r1, r3, r5

004073a4 <.LVL404>:
  4073a4:	ee27 7b05 	vmul.f64	d7, d7, d5
  4073a8:	eebd 6bc7 	vcvt.s32.f64	s12, d7

004073ac <.LVL405>:
  4073ac:	ee16 3a10 	vmov	r3, s12
  4073b0:	3330      	adds	r3, #48	; 0x30
  4073b2:	f80b 3b01 	strb.w	r3, [fp], #1

004073b6 <.LVL406>:
  4073b6:	458b      	cmp	fp, r1
  4073b8:	eeb8 6bc6 	vcvt.f64.s32	d6, s12

004073bc <.LVL407>:
  4073bc:	ee37 7b46 	vsub.f64	d7, d7, d6

004073c0 <.LVL408>:
  4073c0:	d1f0      	bne.n	4073a4 <.LVL404>

004073c2 <.LVL409>:
  4073c2:	eeb6 6b00 	vmov.f64	d6, #96	; 0x3f000000  0.5
  4073c6:	ee34 5b06 	vadd.f64	d5, d4, d6
  4073ca:	eeb4 5bc7 	vcmpe.f64	d5, d7
  4073ce:	eef1 fa10 	vmrs	APSR_nzcv, fpscr
  4073d2:	d538      	bpl.n	407446 <.LVL424>
  4073d4:	9202      	str	r2, [sp, #8]

004073d6 <.LVL410>:
  4073d6:	f81b 3c01 	ldrb.w	r3, [fp, #-1]
  4073da:	f7ff bbb6 	b.w	406b4a <.L77>

004073de <.LVL411>:
  4073de:	9b07      	ldr	r3, [sp, #28]
  4073e0:	1b9f      	subs	r7, r3, r6

004073e2 <.LVL412>:
  4073e2:	2300      	movs	r3, #0
  4073e4:	f7ff bbe8 	b.w	406bb8 <.LVL127>

004073e8 <.LVL413>:
  4073e8:	9b10      	ldr	r3, [sp, #64]	; 0x40
  4073ea:	9a05      	ldr	r2, [sp, #20]
  4073ec:	920d      	str	r2, [sp, #52]	; 0x34

004073ee <.LVL414>:
  4073ee:	f1c3 0336 	rsb	r3, r3, #54	; 0x36
  4073f2:	9f07      	ldr	r7, [sp, #28]
  4073f4:	f7ff bbe0 	b.w	406bb8 <.LVL127>

004073f8 <.LVL415>:
  4073f8:	ed9d 6b0e 	vldr	d6, [sp, #56]	; 0x38
  4073fc:	2102      	movs	r1, #2
  4073fe:	e5ef      	b.n	406fe0 <.LVL274>

00407400 <.LVL416>:
  407400:	2e00      	cmp	r6, #0
  407402:	f43f aef2 	beq.w	4071ea <.LVL335>
  407406:	9b0c      	ldr	r3, [sp, #48]	; 0x30
  407408:	2b00      	cmp	r3, #0
  40740a:	f77f af5b 	ble.w	4072c4 <.LDL1>

0040740e <.LVL417>:
  40740e:	eeb2 4b04 	vmov.f64	d4, #36	; 0x41200000  10.0
  407412:	eeb1 5b0c 	vmov.f64	d5, #28	; 0x40e00000  7.0
  407416:	3101      	adds	r1, #1

00407418 <.LVL418>:
  407418:	ee07 1a90 	vmov	s15, r1
  40741c:	ee26 6b04 	vmul.f64	d6, d6, d4
  407420:	eeb8 7be7 	vcvt.f64.s32	d7, s15
  407424:	9a02      	ldr	r2, [sp, #8]
  407426:	eea6 5b07 	vfma.f64	d5, d6, d7
  40742a:	ec51 0b15 	vmov	r0, r1, d5
  40742e:	3a01      	subs	r2, #1

00407430 <.LVL419>:
  407430:	461d      	mov	r5, r3
  407432:	f1a1 7150 	sub.w	r1, r1, #54525952	; 0x3400000

00407436 <.LVL420>:
  407436:	e5ee      	b.n	407016 <.LVL277>

00407438 <.L133>:
  407438:	2239      	movs	r2, #57	; 0x39
  40743a:	46aa      	mov	sl, r5
  40743c:	7032      	strb	r2, [r6, #0]
  40743e:	463d      	mov	r5, r7

00407440 <.LVL422>:
  407440:	f106 0b01 	add.w	fp, r6, #1

00407444 <.LVL423>:
  407444:	e558      	b.n	406ef8 <.L142>

00407446 <.LVL424>:
  407446:	ee36 6b44 	vsub.f64	d6, d6, d4
  40744a:	eeb4 6bc7 	vcmpe.f64	d6, d7
  40744e:	eef1 fa10 	vmrs	APSR_nzcv, fpscr
  407452:	dc01      	bgt.n	407458 <.LVL426>
  407454:	e736      	b.n	4072c4 <.LDL1>

00407456 <.LVL425>:
  407456:	468b      	mov	fp, r1

00407458 <.LVL426>:
  407458:	f81b 3c01 	ldrb.w	r3, [fp, #-1]
  40745c:	2b30      	cmp	r3, #48	; 0x30
  40745e:	f10b 31ff 	add.w	r1, fp, #4294967295

00407462 <.LVL427>:
  407462:	d0f8      	beq.n	407456 <.LVL425>
  407464:	e62d      	b.n	4070c2 <.LVL288+0xe>

00407466 <.LVL428>:
  407466:	9202      	str	r2, [sp, #8]

00407468 <.LVL429>:
  407468:	f7ff bb6f 	b.w	406b4a <.L77>

0040746c <.LVL430>:
  40746c:	930d      	str	r3, [sp, #52]	; 0x34

0040746e <.LVL431>:
  40746e:	e447      	b.n	406d00 <.LVL175>

00407470 <.LVL432>:
  407470:	2a39      	cmp	r2, #57	; 0x39
  407472:	46cb      	mov	fp, r9

00407474 <.LVL433>:
  407474:	4691      	mov	r9, r2

00407476 <.LVL434>:
  407476:	d0df      	beq.n	407438 <.L133>
  407478:	f1bb 0f00 	cmp.w	fp, #0
  40747c:	f73f af08 	bgt.w	407290 <.LVL358>
  407480:	e708      	b.n	407294 <.LVL359>

00407482 <.LVL435>:
  407482:	f47f af07 	bne.w	407294 <.LVL359>
  407486:	f019 0f01 	tst.w	r9, #1
  40748a:	f43f af03 	beq.w	407294 <.LVL359>
  40748e:	e6fb      	b.n	407288 <.LVL357>

00407490 <.LVL436>:
  407490:	4629      	mov	r1, r5
  407492:	2300      	movs	r3, #0
  407494:	220a      	movs	r2, #10
  407496:	4620      	mov	r0, r4

00407498 <.LVL437>:
  407498:	f004 fdca 	bl	40c030 <.LFE146>

0040749c <.LVL438>:
  40749c:	9b0c      	ldr	r3, [sp, #48]	; 0x30
  40749e:	2b00      	cmp	r3, #0
  4074a0:	4605      	mov	r5, r0

004074a2 <.LVL439>:
  4074a2:	dd08      	ble.n	4074b6 <.LVL443>
  4074a4:	461e      	mov	r6, r3
  4074a6:	e460      	b.n	406d6a <.LVL189>

004074a8 <.LVL440>:
  4074a8:	9b01      	ldr	r3, [sp, #4]

004074aa <.LVL441>:
  4074aa:	2b02      	cmp	r3, #2
  4074ac:	dc20      	bgt.n	4074f0 <.LVL451>
  4074ae:	9e0c      	ldr	r6, [sp, #48]	; 0x30
  4074b0:	e4f1      	b.n	406e96 <.LVL230>

004074b2 <.LVL442>:
  4074b2:	2102      	movs	r1, #2
  4074b4:	e594      	b.n	406fe0 <.LVL274>

004074b6 <.LVL443>:
  4074b6:	9b01      	ldr	r3, [sp, #4]

004074b8 <.LVL444>:
  4074b8:	2b02      	cmp	r3, #2
  4074ba:	dc19      	bgt.n	4074f0 <.LVL451>
  4074bc:	9e0c      	ldr	r6, [sp, #48]	; 0x30
  4074be:	e454      	b.n	406d6a <.LVL189>

004074c0 <.LVL445>:
  4074c0:	2501      	movs	r5, #1
  4074c2:	f7ff bab0 	b.w	406a26 <.LVL91>

004074c6 <.LVL446>:
  4074c6:	f43f ac33 	beq.w	406d30 <.LVL184>
  4074ca:	f1c0 003c 	rsb	r0, r0, #60	; 0x3c
  4074ce:	e4c0      	b.n	406e52 <.LVL218>

004074d0 <.LVL447>:
  4074d0:	2500      	movs	r5, #0

004074d2 <.LVL448>:
  4074d2:	6465      	str	r5, [r4, #68]	; 0x44
  4074d4:	4629      	mov	r1, r5
  4074d6:	4620      	mov	r0, r4
  4074d8:	f005 fb66 	bl	40cba8 <.LFE2>

004074dc <.LVL449>:
  4074dc:	f04f 36ff 	mov.w	r6, #4294967295
  4074e0:	2301      	movs	r3, #1
  4074e2:	9008      	str	r0, [sp, #32]
  4074e4:	46a9      	mov	r9, r5
  4074e6:	6420      	str	r0, [r4, #64]	; 0x40

004074e8 <.LVL450>:
  4074e8:	960c      	str	r6, [sp, #48]	; 0x30
  4074ea:	9309      	str	r3, [sp, #36]	; 0x24
  4074ec:	f7ff bad3 	b.w	406a96 <.LVL104>

004074f0 <.LVL451>:
  4074f0:	9e0c      	ldr	r6, [sp, #48]	; 0x30
  4074f2:	e658      	b.n	4071a6 <.LVL323>
  4074f4:	0040b180 	.word	0x0040b180
  4074f8:	0040d320 	.word	0x0040d320

Disassembly of section .text.Transform%35:

004074fc <Transform>:

    #define MD5STEP(f, w, x, y, z, data, s) \
        w = rotlFixed(w + f(x, y, z) + data, s) + x

    static int Transform(Md5* md5)
    {
  4074fc:	e92d 4ff0 	stmdb	sp!, {r4, r5, r6, r7, r8, r9, sl, fp, lr}

00407500 <.LCFI0>:
  407500:	b083      	sub	sp, #12

00407502 <.LCFI1>:
        /* Copy context->state[] to working vars  */
        word32 a = md5->digest[0];
        word32 b = md5->digest[1];
  407502:	6d05      	ldr	r5, [r0, #80]	; 0x50

00407504 <.LVL2>:
        word32 c = md5->digest[2];
  407504:	6d44      	ldr	r4, [r0, #84]	; 0x54
  407506:	4627      	mov	r7, r4

00407508 <.LVL3>:
        word32 d = md5->digest[3];

        MD5STEP(F1, a, b, c, d, md5->buffer[0]  + 0xd76aa478,  7);
  407508:	6d83      	ldr	r3, [r0, #88]	; 0x58
  40750a:	ea84 0903 	eor.w	r9, r4, r3
  40750e:	ea09 0905 	and.w	r9, r9, r5
  407512:	ea89 0903 	eor.w	r9, r9, r3
  407516:	6cc3      	ldr	r3, [r0, #76]	; 0x4c
  407518:	68c2      	ldr	r2, [r0, #12]
  40751a:	189a      	adds	r2, r3, r2
  40751c:	4bdf      	ldr	r3, [pc, #892]	; (40789c <.LVL188+0x10>)
  40751e:	4413      	add	r3, r2
  407520:	4499      	add	r9, r3
  407522:	eb05 6979 	add.w	r9, r5, r9, ror #25

00407526 <.LVL7>:
        MD5STEP(F1, d, a, b, c, md5->buffer[1]  + 0xe8c7b756, 12);
  407526:	ea85 0c04 	eor.w	ip, r5, r4
  40752a:	ea0c 0c09 	and.w	ip, ip, r9
  40752e:	ea8c 0c04 	eor.w	ip, ip, r4
  407532:	6d83      	ldr	r3, [r0, #88]	; 0x58
  407534:	6902      	ldr	r2, [r0, #16]
  407536:	4413      	add	r3, r2
  407538:	4cd9      	ldr	r4, [pc, #868]	; (4078a0 <.LVL188+0x14>)

0040753a <.LVL10>:
  40753a:	441c      	add	r4, r3
  40753c:	44a4      	add	ip, r4
  40753e:	eb09 5c3c 	add.w	ip, r9, ip, ror #20

00407542 <.LVL12>:
        MD5STEP(F1, c, d, a, b, md5->buffer[2]  + 0x242070db, 17);
  407542:	ea85 0609 	eor.w	r6, r5, r9
  407546:	ea06 060c 	and.w	r6, r6, ip
  40754a:	406e      	eors	r6, r5
  40754c:	6943      	ldr	r3, [r0, #20]
  40754e:	9701      	str	r7, [sp, #4]
  407550:	443b      	add	r3, r7
  407552:	4ad4      	ldr	r2, [pc, #848]	; (4078a4 <.LVL188+0x18>)
  407554:	441a      	add	r2, r3
  407556:	4416      	add	r6, r2
  407558:	eb0c 36f6 	add.w	r6, ip, r6, ror #15

0040755c <.LVL16>:
        MD5STEP(F1, b, c, d, a, md5->buffer[3]  + 0xc1bdceee, 22);
  40755c:	ea89 010c 	eor.w	r1, r9, ip
  407560:	4031      	ands	r1, r6
  407562:	ea81 0109 	eor.w	r1, r1, r9
  407566:	6983      	ldr	r3, [r0, #24]
  407568:	18ea      	adds	r2, r5, r3
  40756a:	4bcf      	ldr	r3, [pc, #828]	; (4078a8 <.LVL188+0x1c>)
  40756c:	4413      	add	r3, r2
  40756e:	4419      	add	r1, r3
  407570:	eb06 21b1 	add.w	r1, r6, r1, ror #10

00407574 <.LVL20>:
        MD5STEP(F1, a, b, c, d, md5->buffer[4]  + 0xf57c0faf,  7);
  407574:	ea8c 0306 	eor.w	r3, ip, r6
  407578:	400b      	ands	r3, r1
  40757a:	ea83 030c 	eor.w	r3, r3, ip
  40757e:	4acb      	ldr	r2, [pc, #812]	; (4078ac <.LVL188+0x20>)
  407580:	69c4      	ldr	r4, [r0, #28]
  407582:	4422      	add	r2, r4
  407584:	4491      	add	r9, r2

00407586 <.LVL23>:
  407586:	444b      	add	r3, r9
  407588:	eb01 6373 	add.w	r3, r1, r3, ror #25

0040758c <.LVL25>:
        MD5STEP(F1, d, a, b, c, md5->buffer[5]  + 0x4787c62a, 12);
  40758c:	ea86 0401 	eor.w	r4, r6, r1
  407590:	401c      	ands	r4, r3
  407592:	4074      	eors	r4, r6
  407594:	4ac6      	ldr	r2, [pc, #792]	; (4078b0 <.LVL188+0x24>)
  407596:	6a07      	ldr	r7, [r0, #32]
  407598:	443a      	add	r2, r7
  40759a:	4494      	add	ip, r2

0040759c <.LVL28>:
  40759c:	4464      	add	r4, ip
  40759e:	eb03 5434 	add.w	r4, r3, r4, ror #20

004075a2 <.LVL30>:
        MD5STEP(F1, c, d, a, b, md5->buffer[6]  + 0xa8304613, 17);
  4075a2:	ea81 0203 	eor.w	r2, r1, r3
  4075a6:	4022      	ands	r2, r4
  4075a8:	404a      	eors	r2, r1
  4075aa:	f8df e36c 	ldr.w	lr, [pc, #876]	; 407918 <.LVL188+0x8c>
  4075ae:	6a47      	ldr	r7, [r0, #36]	; 0x24
  4075b0:	44be      	add	lr, r7
  4075b2:	4476      	add	r6, lr

004075b4 <.LVL33>:
  4075b4:	4432      	add	r2, r6
  4075b6:	eb04 32f2 	add.w	r2, r4, r2, ror #15

004075ba <.LVL35>:
        MD5STEP(F1, b, c, d, a, md5->buffer[7]  + 0xfd469501, 22);
  4075ba:	f8d0 a028 	ldr.w	sl, [r0, #40]	; 0x28
  4075be:	ea83 0804 	eor.w	r8, r3, r4
  4075c2:	ea08 0802 	and.w	r8, r8, r2
  4075c6:	ea88 0803 	eor.w	r8, r8, r3
  4075ca:	4eba      	ldr	r6, [pc, #744]	; (4078b4 <.LVL188+0x28>)
  4075cc:	4456      	add	r6, sl
  4075ce:	4431      	add	r1, r6

004075d0 <.LVL39>:
  4075d0:	4488      	add	r8, r1
  4075d2:	eb02 28b8 	add.w	r8, r2, r8, ror #10

004075d6 <.LVL41>:
        MD5STEP(F1, a, b, c, d, md5->buffer[8]  + 0x698098d8,  7);
  4075d6:	ea84 0e02 	eor.w	lr, r4, r2
  4075da:	ea0e 0e08 	and.w	lr, lr, r8
  4075de:	ea8e 0e04 	eor.w	lr, lr, r4
  4075e2:	49b5      	ldr	r1, [pc, #724]	; (4078b8 <.LVL188+0x2c>)
  4075e4:	6ac6      	ldr	r6, [r0, #44]	; 0x2c
  4075e6:	4431      	add	r1, r6
  4075e8:	440b      	add	r3, r1

004075ea <.LVL44>:
  4075ea:	449e      	add	lr, r3
  4075ec:	eb08 6e7e 	add.w	lr, r8, lr, ror #25

004075f0 <.LVL46>:
        MD5STEP(F1, d, a, b, c, md5->buffer[9]  + 0x8b44f7af, 12);
  4075f0:	ea82 0908 	eor.w	r9, r2, r8
  4075f4:	ea09 090e 	and.w	r9, r9, lr
  4075f8:	ea89 0902 	eor.w	r9, r9, r2
  4075fc:	4baf      	ldr	r3, [pc, #700]	; (4078bc <.LVL188+0x30>)
  4075fe:	6b01      	ldr	r1, [r0, #48]	; 0x30
  407600:	440b      	add	r3, r1
  407602:	441c      	add	r4, r3

00407604 <.LVL49>:
  407604:	44a1      	add	r9, r4
  407606:	eb0e 5939 	add.w	r9, lr, r9, ror #20

0040760a <.LVL51>:
        MD5STEP(F1, c, d, a, b, md5->buffer[10] + 0xffff5bb1, 17);
  40760a:	ea88 0c0e 	eor.w	ip, r8, lr
  40760e:	ea0c 0c09 	and.w	ip, ip, r9
  407612:	ea8c 0c08 	eor.w	ip, ip, r8
  407616:	4baa      	ldr	r3, [pc, #680]	; (4078c0 <.LVL188+0x34>)
  407618:	6b41      	ldr	r1, [r0, #52]	; 0x34
  40761a:	440b      	add	r3, r1
  40761c:	441a      	add	r2, r3

0040761e <.LVL54>:
  40761e:	4494      	add	ip, r2
  407620:	eb09 3cfc 	add.w	ip, r9, ip, ror #15

00407624 <.LVL56>:
        MD5STEP(F1, b, c, d, a, md5->buffer[11] + 0x895cd7be, 22);
  407624:	ea8e 0609 	eor.w	r6, lr, r9
  407628:	ea06 060c 	and.w	r6, r6, ip
  40762c:	ea86 060e 	eor.w	r6, r6, lr
  407630:	4ba4      	ldr	r3, [pc, #656]	; (4078c4 <.LVL188+0x38>)
  407632:	6b82      	ldr	r2, [r0, #56]	; 0x38
  407634:	4413      	add	r3, r2
  407636:	4498      	add	r8, r3

00407638 <.LVL59>:
  407638:	4446      	add	r6, r8
  40763a:	eb0c 26b6 	add.w	r6, ip, r6, ror #10

0040763e <.LVL61>:
        MD5STEP(F1, a, b, c, d, md5->buffer[12] + 0x6b901122,  7);
  40763e:	f8d0 803c 	ldr.w	r8, [r0, #60]	; 0x3c
  407642:	ea89 010c 	eor.w	r1, r9, ip
  407646:	4031      	ands	r1, r6
  407648:	ea81 0109 	eor.w	r1, r1, r9
  40764c:	4b9e      	ldr	r3, [pc, #632]	; (4078c8 <.LVL188+0x3c>)
  40764e:	4443      	add	r3, r8
  407650:	449e      	add	lr, r3

00407652 <.LVL65>:
  407652:	4471      	add	r1, lr
  407654:	eb06 6171 	add.w	r1, r6, r1, ror #25

00407658 <.LVL67>:
        MD5STEP(F1, d, a, b, c, md5->buffer[13] + 0xfd987193, 12);
  407658:	ea8c 0306 	eor.w	r3, ip, r6
  40765c:	400b      	ands	r3, r1
  40765e:	ea83 030c 	eor.w	r3, r3, ip
  407662:	4a9a      	ldr	r2, [pc, #616]	; (4078cc <.LVL188+0x40>)
  407664:	6c04      	ldr	r4, [r0, #64]	; 0x40
  407666:	4422      	add	r2, r4
  407668:	4491      	add	r9, r2

0040766a <.LVL70>:
  40766a:	444b      	add	r3, r9
  40766c:	eb01 5333 	add.w	r3, r1, r3, ror #20

00407670 <.LVL72>:
        MD5STEP(F1, c, d, a, b, md5->buffer[14] + 0xa679438e, 17);
  407670:	f8d0 9044 	ldr.w	r9, [r0, #68]	; 0x44
  407674:	ea86 0401 	eor.w	r4, r6, r1
  407678:	401c      	ands	r4, r3
  40767a:	4074      	eors	r4, r6
  40767c:	4a94      	ldr	r2, [pc, #592]	; (4078d0 <.LVL188+0x44>)
  40767e:	444a      	add	r2, r9
  407680:	4494      	add	ip, r2

00407682 <.LVL76>:
  407682:	4464      	add	r4, ip
  407684:	eb03 34f4 	add.w	r4, r3, r4, ror #15

00407688 <.LVL78>:
        MD5STEP(F1, b, c, d, a, md5->buffer[15] + 0x49b40821, 22);
  407688:	f8d0 c048 	ldr.w	ip, [r0, #72]	; 0x48
  40768c:	ea81 0203 	eor.w	r2, r1, r3
  407690:	4022      	ands	r2, r4
  407692:	404a      	eors	r2, r1
  407694:	f8df e284 	ldr.w	lr, [pc, #644]	; 40791c <.LVL188+0x90>
  407698:	44e6      	add	lr, ip
  40769a:	4476      	add	r6, lr

0040769c <.LVL82>:
  40769c:	4432      	add	r2, r6
  40769e:	eb04 22b2 	add.w	r2, r4, r2, ror #10

004076a2 <.LVL84>:

        MD5STEP(F2, a, b, c, d, md5->buffer[1]  + 0xf61e2562,  5);
  4076a2:	ea84 0b02 	eor.w	fp, r4, r2
  4076a6:	ea0b 0b03 	and.w	fp, fp, r3
  4076aa:	ea8b 0b04 	eor.w	fp, fp, r4
  4076ae:	4e89      	ldr	r6, [pc, #548]	; (4078d4 <.LVL188+0x48>)
  4076b0:	6907      	ldr	r7, [r0, #16]
  4076b2:	443e      	add	r6, r7
  4076b4:	4431      	add	r1, r6

004076b6 <.LVL87>:
  4076b6:	448b      	add	fp, r1
  4076b8:	eb02 6bfb 	add.w	fp, r2, fp, ror #27

004076bc <.LVL89>:
        MD5STEP(F2, d, a, b, c, md5->buffer[6]  + 0xc040b340,  9);
  4076bc:	ea82 0e0b 	eor.w	lr, r2, fp
  4076c0:	ea0e 0e04 	and.w	lr, lr, r4
  4076c4:	ea8e 0e02 	eor.w	lr, lr, r2
  4076c8:	4983      	ldr	r1, [pc, #524]	; (4078d8 <.LVL188+0x4c>)
  4076ca:	6a46      	ldr	r6, [r0, #36]	; 0x24
  4076cc:	4431      	add	r1, r6
  4076ce:	440b      	add	r3, r1

004076d0 <.LVL92>:
  4076d0:	449e      	add	lr, r3
  4076d2:	eb0b 5efe 	add.w	lr, fp, lr, ror #23

004076d6 <.LVL94>:
        MD5STEP(F2, c, d, a, b, md5->buffer[11] + 0x265e5a51, 14);
  4076d6:	ea8b 030e 	eor.w	r3, fp, lr
  4076da:	4013      	ands	r3, r2
  4076dc:	ea83 030b 	eor.w	r3, r3, fp
  4076e0:	497e      	ldr	r1, [pc, #504]	; (4078dc <.LVL188+0x50>)
  4076e2:	6b86      	ldr	r6, [r0, #56]	; 0x38
  4076e4:	4431      	add	r1, r6
  4076e6:	440c      	add	r4, r1

004076e8 <.LVL97>:
  4076e8:	4423      	add	r3, r4
  4076ea:	eb0e 43b3 	add.w	r3, lr, r3, ror #18

004076ee <.LVL99>:
        MD5STEP(F2, b, c, d, a, md5->buffer[0]  + 0xe9b6c7aa, 20);
  4076ee:	ea8e 0603 	eor.w	r6, lr, r3
  4076f2:	ea06 060b 	and.w	r6, r6, fp
  4076f6:	ea86 060e 	eor.w	r6, r6, lr
  4076fa:	4979      	ldr	r1, [pc, #484]	; (4078e0 <.LVL188+0x54>)
  4076fc:	68c4      	ldr	r4, [r0, #12]
  4076fe:	4421      	add	r1, r4
  407700:	440a      	add	r2, r1

00407702 <.LVL102>:
  407702:	4416      	add	r6, r2
  407704:	eb03 3636 	add.w	r6, r3, r6, ror #12

00407708 <.LVL104>:
        MD5STEP(F2, a, b, c, d, md5->buffer[5]  + 0xd62f105d,  5);
  407708:	ea83 0206 	eor.w	r2, r3, r6
  40770c:	ea02 020e 	and.w	r2, r2, lr
  407710:	405a      	eors	r2, r3
  407712:	4974      	ldr	r1, [pc, #464]	; (4078e4 <.LVL188+0x58>)
  407714:	6a04      	ldr	r4, [r0, #32]
  407716:	4421      	add	r1, r4
  407718:	448b      	add	fp, r1

0040771a <.LVL107>:
  40771a:	445a      	add	r2, fp
  40771c:	eb06 62f2 	add.w	r2, r6, r2, ror #27

00407720 <.LVL109>:
        MD5STEP(F2, d, a, b, c, md5->buffer[10] + 0x02441453,  9);
  407720:	ea86 0102 	eor.w	r1, r6, r2
  407724:	4019      	ands	r1, r3
  407726:	4071      	eors	r1, r6
  407728:	4c6f      	ldr	r4, [pc, #444]	; (4078e8 <.LVL188+0x5c>)
  40772a:	6b47      	ldr	r7, [r0, #52]	; 0x34
  40772c:	443c      	add	r4, r7
  40772e:	44a6      	add	lr, r4

00407730 <.LVL112>:
  407730:	4471      	add	r1, lr
  407732:	eb02 51f1 	add.w	r1, r2, r1, ror #23

00407736 <.LVL114>:
        MD5STEP(F2, c, d, a, b, md5->buffer[15] + 0xd8a1e681, 14);
  407736:	ea82 0401 	eor.w	r4, r2, r1
  40773a:	4034      	ands	r4, r6
  40773c:	4054      	eors	r4, r2
  40773e:	f8df e1e0 	ldr.w	lr, [pc, #480]	; 407920 <.LVL188+0x94>
  407742:	44e6      	add	lr, ip
  407744:	4473      	add	r3, lr

00407746 <.LVL117>:
  407746:	441c      	add	r4, r3
  407748:	eb01 44b4 	add.w	r4, r1, r4, ror #18

0040774c <.LVL119>:
        MD5STEP(F2, b, c, d, a, md5->buffer[4]  + 0xe7d3fbc8, 20);
  40774c:	ea81 0304 	eor.w	r3, r1, r4
  407750:	4013      	ands	r3, r2
  407752:	404b      	eors	r3, r1
  407754:	f8df e1cc 	ldr.w	lr, [pc, #460]	; 407924 <.LVL188+0x98>
  407758:	69c7      	ldr	r7, [r0, #28]
  40775a:	44be      	add	lr, r7
  40775c:	4476      	add	r6, lr

0040775e <.LVL122>:
  40775e:	4433      	add	r3, r6
  407760:	eb04 3333 	add.w	r3, r4, r3, ror #12

00407764 <.LVL124>:
        MD5STEP(F2, a, b, c, d, md5->buffer[9]  + 0x21e1cde6,  5);
  407764:	ea84 0b03 	eor.w	fp, r4, r3
  407768:	ea0b 0b01 	and.w	fp, fp, r1
  40776c:	ea8b 0b04 	eor.w	fp, fp, r4
  407770:	4e5e      	ldr	r6, [pc, #376]	; (4078ec <.LVL188+0x60>)
  407772:	6b07      	ldr	r7, [r0, #48]	; 0x30
  407774:	443e      	add	r6, r7
  407776:	4432      	add	r2, r6

00407778 <.LVL127>:
  407778:	4493      	add	fp, r2
  40777a:	eb03 6bfb 	add.w	fp, r3, fp, ror #27

0040777e <.LVL129>:
        MD5STEP(F2, d, a, b, c, md5->buffer[14] + 0xc33707d6,  9);
  40777e:	ea83 0e0b 	eor.w	lr, r3, fp
  407782:	ea0e 0e04 	and.w	lr, lr, r4
  407786:	ea8e 0e03 	eor.w	lr, lr, r3
  40778a:	4a59      	ldr	r2, [pc, #356]	; (4078f0 <.LVL188+0x64>)
  40778c:	444a      	add	r2, r9
  40778e:	4411      	add	r1, r2

00407790 <.LVL132>:
  407790:	448e      	add	lr, r1
  407792:	eb0b 5efe 	add.w	lr, fp, lr, ror #23

00407796 <.LVL134>:
        MD5STEP(F2, c, d, a, b, md5->buffer[3]  + 0xf4d50d87, 14);
  407796:	ea8b 060e 	eor.w	r6, fp, lr
  40779a:	401e      	ands	r6, r3
  40779c:	ea86 060b 	eor.w	r6, r6, fp
  4077a0:	4a54      	ldr	r2, [pc, #336]	; (4078f4 <.LVL188+0x68>)
  4077a2:	6981      	ldr	r1, [r0, #24]
  4077a4:	440a      	add	r2, r1
  4077a6:	4414      	add	r4, r2

004077a8 <.LVL137>:
  4077a8:	4426      	add	r6, r4
  4077aa:	eb0e 46b6 	add.w	r6, lr, r6, ror #18

004077ae <.LVL139>:
        MD5STEP(F2, b, c, d, a, md5->buffer[8]  + 0x455a14ed, 20);
  4077ae:	ea8e 0206 	eor.w	r2, lr, r6
  4077b2:	ea02 020b 	and.w	r2, r2, fp
  4077b6:	ea82 020e 	eor.w	r2, r2, lr
  4077ba:	494f      	ldr	r1, [pc, #316]	; (4078f8 <.LVL188+0x6c>)
  4077bc:	6ac4      	ldr	r4, [r0, #44]	; 0x2c
  4077be:	4421      	add	r1, r4
  4077c0:	440b      	add	r3, r1

004077c2 <.LVL142>:
  4077c2:	441a      	add	r2, r3
  4077c4:	eb06 3232 	add.w	r2, r6, r2, ror #12

004077c8 <.LVL144>:
        MD5STEP(F2, a, b, c, d, md5->buffer[13] + 0xa9e3e905,  5);
  4077c8:	ea86 0302 	eor.w	r3, r6, r2
  4077cc:	ea03 030e 	and.w	r3, r3, lr
  4077d0:	4073      	eors	r3, r6
  4077d2:	494a      	ldr	r1, [pc, #296]	; (4078fc <.LVL188+0x70>)
  4077d4:	6c04      	ldr	r4, [r0, #64]	; 0x40
  4077d6:	4421      	add	r1, r4
  4077d8:	448b      	add	fp, r1

004077da <.LVL147>:
  4077da:	445b      	add	r3, fp
  4077dc:	eb02 63f3 	add.w	r3, r2, r3, ror #27

004077e0 <.LVL149>:
        MD5STEP(F2, d, a, b, c, md5->buffer[2]  + 0xfcefa3f8,  9);
  4077e0:	ea82 0103 	eor.w	r1, r2, r3
  4077e4:	4031      	ands	r1, r6
  4077e6:	4051      	eors	r1, r2
  4077e8:	4c45      	ldr	r4, [pc, #276]	; (407900 <.LVL188+0x74>)
  4077ea:	6947      	ldr	r7, [r0, #20]
  4077ec:	443c      	add	r4, r7
  4077ee:	44a6      	add	lr, r4

004077f0 <.LVL152>:
  4077f0:	4471      	add	r1, lr
  4077f2:	eb03 51f1 	add.w	r1, r3, r1, ror #23

004077f6 <.LVL154>:
        MD5STEP(F2, c, d, a, b, md5->buffer[7]  + 0x676f02d9, 14);
  4077f6:	ea83 0401 	eor.w	r4, r3, r1
  4077fa:	4014      	ands	r4, r2
  4077fc:	405c      	eors	r4, r3
  4077fe:	f8df e128 	ldr.w	lr, [pc, #296]	; 407928 <.LVL188+0x9c>
  407802:	44d6      	add	lr, sl
  407804:	4476      	add	r6, lr

00407806 <.LVL157>:
  407806:	4434      	add	r4, r6
  407808:	eb01 44b4 	add.w	r4, r1, r4, ror #18

0040780c <.LVL159>:
        MD5STEP(F2, b, c, d, a, md5->buffer[12] + 0x8d2a4c8a, 20);
  40780c:	ea81 0b04 	eor.w	fp, r1, r4
  407810:	ea03 060b 	and.w	r6, r3, fp
  407814:	404e      	eors	r6, r1
  407816:	f8df e114 	ldr.w	lr, [pc, #276]	; 40792c <.LVL188+0xa0>
  40781a:	44c6      	add	lr, r8
  40781c:	4472      	add	r2, lr

0040781e <.LVL163>:
  40781e:	4416      	add	r6, r2
  407820:	eb04 3636 	add.w	r6, r4, r6, ror #12

00407824 <.LVL165>:

        MD5STEP(F3, a, b, c, d, md5->buffer[5]  + 0xfffa3942,  4);
  407824:	4a37      	ldr	r2, [pc, #220]	; (407904 <.LVL188+0x78>)
  407826:	6a07      	ldr	r7, [r0, #32]
  407828:	443a      	add	r2, r7
  40782a:	4413      	add	r3, r2

0040782c <.LVL166>:
  40782c:	ea8b 0b06 	eor.w	fp, fp, r6
  407830:	445b      	add	r3, fp
  407832:	eb06 7333 	add.w	r3, r6, r3, ror #28

00407836 <.LVL168>:
        MD5STEP(F3, d, a, b, c, md5->buffer[8]  + 0x8771f681, 11);
  407836:	ea84 0206 	eor.w	r2, r4, r6
  40783a:	405a      	eors	r2, r3
  40783c:	f8df e0f0 	ldr.w	lr, [pc, #240]	; 407930 <.LVL188+0xa4>
  407840:	6ac7      	ldr	r7, [r0, #44]	; 0x2c
  407842:	44be      	add	lr, r7
  407844:	4471      	add	r1, lr

00407846 <.LVL171>:
  407846:	4411      	add	r1, r2
  407848:	eb03 5171 	add.w	r1, r3, r1, ror #21

0040784c <.LVL173>:
        MD5STEP(F3, c, d, a, b, md5->buffer[11] + 0x6d9d6122, 16);
  40784c:	ea86 0b03 	eor.w	fp, r6, r3
  407850:	ea8b 0b01 	eor.w	fp, fp, r1
  407854:	4a2c      	ldr	r2, [pc, #176]	; (407908 <.LVL188+0x7c>)
  407856:	6b87      	ldr	r7, [r0, #56]	; 0x38
  407858:	443a      	add	r2, r7
  40785a:	4414      	add	r4, r2

0040785c <.LVL176>:
  40785c:	445c      	add	r4, fp
  40785e:	eb01 4434 	add.w	r4, r1, r4, ror #16

00407862 <.LVL178>:
        MD5STEP(F3, b, c, d, a, md5->buffer[14] + 0xfde5380c, 23);
  407862:	ea83 0e01 	eor.w	lr, r3, r1
  407866:	ea8e 0e04 	eor.w	lr, lr, r4
  40786a:	4a28      	ldr	r2, [pc, #160]	; (40790c <.LVL188+0x80>)
  40786c:	444a      	add	r2, r9
  40786e:	4416      	add	r6, r2

00407870 <.LVL181>:
  407870:	44b6      	add	lr, r6
  407872:	eb04 2e7e 	add.w	lr, r4, lr, ror #9

00407876 <.LVL183>:
        MD5STEP(F3, a, b, c, d, md5->buffer[1]  + 0xa4beea44,  4);
  407876:	ea81 0204 	eor.w	r2, r1, r4
  40787a:	ea82 020e 	eor.w	r2, r2, lr
  40787e:	4e24      	ldr	r6, [pc, #144]	; (407910 <.LVL188+0x84>)
  407880:	6907      	ldr	r7, [r0, #16]
  407882:	443e      	add	r6, r7
  407884:	4433      	add	r3, r6

00407886 <.LVL186>:
  407886:	4413      	add	r3, r2
  407888:	eb0e 7333 	add.w	r3, lr, r3, ror #28

0040788c <.LVL188>:
        MD5STEP(F3, d, a, b, c, md5->buffer[4]  + 0x4bdecfa9, 11);
  40788c:	ea84 020e 	eor.w	r2, r4, lr
  407890:	405a      	eors	r2, r3
  407892:	4e20      	ldr	r6, [pc, #128]	; (407914 <.LVL188+0x88>)
  407894:	69c7      	ldr	r7, [r0, #28]
  407896:	443e      	add	r6, r7
  407898:	4431      	add	r1, r6
  40789a:	e04b      	b.n	407934 <.LVL191>
  40789c:	d76aa478 	.word	0xd76aa478
  4078a0:	e8c7b756 	.word	0xe8c7b756
  4078a4:	242070db 	.word	0x242070db
  4078a8:	c1bdceee 	.word	0xc1bdceee
  4078ac:	f57c0faf 	.word	0xf57c0faf
  4078b0:	4787c62a 	.word	0x4787c62a
  4078b4:	fd469501 	.word	0xfd469501
  4078b8:	698098d8 	.word	0x698098d8
  4078bc:	8b44f7af 	.word	0x8b44f7af
  4078c0:	ffff5bb1 	.word	0xffff5bb1
  4078c4:	895cd7be 	.word	0x895cd7be
  4078c8:	6b901122 	.word	0x6b901122
  4078cc:	fd987193 	.word	0xfd987193
  4078d0:	a679438e 	.word	0xa679438e
  4078d4:	f61e2562 	.word	0xf61e2562
  4078d8:	c040b340 	.word	0xc040b340
  4078dc:	265e5a51 	.word	0x265e5a51
  4078e0:	e9b6c7aa 	.word	0xe9b6c7aa
  4078e4:	d62f105d 	.word	0xd62f105d
  4078e8:	02441453 	.word	0x02441453
  4078ec:	21e1cde6 	.word	0x21e1cde6
  4078f0:	c33707d6 	.word	0xc33707d6
  4078f4:	f4d50d87 	.word	0xf4d50d87
  4078f8:	455a14ed 	.word	0x455a14ed
  4078fc:	a9e3e905 	.word	0xa9e3e905
  407900:	fcefa3f8 	.word	0xfcefa3f8
  407904:	fffa3942 	.word	0xfffa3942
  407908:	6d9d6122 	.word	0x6d9d6122
  40790c:	fde5380c 	.word	0xfde5380c
  407910:	a4beea44 	.word	0xa4beea44
  407914:	4bdecfa9 	.word	0x4bdecfa9
  407918:	a8304613 	.word	0xa8304613
  40791c:	49b40821 	.word	0x49b40821
  407920:	d8a1e681 	.word	0xd8a1e681
  407924:	e7d3fbc8 	.word	0xe7d3fbc8
  407928:	676f02d9 	.word	0x676f02d9
  40792c:	8d2a4c8a 	.word	0x8d2a4c8a
  407930:	8771f681 	.word	0x8771f681

00407934 <.LVL191>:
  407934:	4411      	add	r1, r2
  407936:	eb03 5171 	add.w	r1, r3, r1, ror #21

0040793a <.LVL193>:
        MD5STEP(F3, c, d, a, b, md5->buffer[7]  + 0xf6bb4b60, 16);
  40793a:	ea8e 0b03 	eor.w	fp, lr, r3
  40793e:	ea8b 0b01 	eor.w	fp, fp, r1
  407942:	4a8c      	ldr	r2, [pc, #560]	; (407b74 <.LVL322>)
  407944:	4452      	add	r2, sl
  407946:	4414      	add	r4, r2

00407948 <.LVL196>:
  407948:	44a3      	add	fp, r4
  40794a:	eb01 4b3b 	add.w	fp, r1, fp, ror #16

0040794e <.LVL198>:
        MD5STEP(F3, b, c, d, a, md5->buffer[10] + 0xbebfbc70, 23);
  40794e:	ea83 0201 	eor.w	r2, r3, r1
  407952:	ea82 020b 	eor.w	r2, r2, fp
  407956:	4c88      	ldr	r4, [pc, #544]	; (407b78 <.LVL322+0x4>)
  407958:	6b46      	ldr	r6, [r0, #52]	; 0x34
  40795a:	4434      	add	r4, r6
  40795c:	44a6      	add	lr, r4

0040795e <.LVL201>:
  40795e:	4472      	add	r2, lr
  407960:	eb0b 2272 	add.w	r2, fp, r2, ror #9

00407964 <.LVL203>:
        MD5STEP(F3, a, b, c, d, md5->buffer[13] + 0x289b7ec6,  4);
  407964:	ea81 040b 	eor.w	r4, r1, fp
  407968:	4054      	eors	r4, r2
  40796a:	4e84      	ldr	r6, [pc, #528]	; (407b7c <.LVL322+0x8>)
  40796c:	6c07      	ldr	r7, [r0, #64]	; 0x40
  40796e:	443e      	add	r6, r7
  407970:	4433      	add	r3, r6

00407972 <.LVL206>:
  407972:	4423      	add	r3, r4
  407974:	eb02 7333 	add.w	r3, r2, r3, ror #28

00407978 <.LVL208>:
        MD5STEP(F3, d, a, b, c, md5->buffer[0]  + 0xeaa127fa, 11);
  407978:	ea8b 0e02 	eor.w	lr, fp, r2
  40797c:	ea8e 0e03 	eor.w	lr, lr, r3
  407980:	4c7f      	ldr	r4, [pc, #508]	; (407b80 <.LVL322+0xc>)
  407982:	68c6      	ldr	r6, [r0, #12]
  407984:	4434      	add	r4, r6
  407986:	4421      	add	r1, r4

00407988 <.LVL211>:
  407988:	448e      	add	lr, r1
  40798a:	eb03 5e7e 	add.w	lr, r3, lr, ror #21

0040798e <.LVL213>:
        MD5STEP(F3, c, d, a, b, md5->buffer[3]  + 0xd4ef3085, 16);
  40798e:	ea82 0603 	eor.w	r6, r2, r3
  407992:	ea86 060e 	eor.w	r6, r6, lr
  407996:	497b      	ldr	r1, [pc, #492]	; (407b84 <.LVL322+0x10>)
  407998:	6984      	ldr	r4, [r0, #24]
  40799a:	4421      	add	r1, r4
  40799c:	448b      	add	fp, r1

0040799e <.LVL216>:
  40799e:	445e      	add	r6, fp
  4079a0:	eb0e 4636 	add.w	r6, lr, r6, ror #16

004079a4 <.LVL218>:
        MD5STEP(F3, b, c, d, a, md5->buffer[6]  + 0x04881d05, 23);
  4079a4:	ea83 0b0e 	eor.w	fp, r3, lr
  4079a8:	ea8b 0b06 	eor.w	fp, fp, r6
  4079ac:	4976      	ldr	r1, [pc, #472]	; (407b88 <.LVL322+0x14>)
  4079ae:	6a44      	ldr	r4, [r0, #36]	; 0x24
  4079b0:	4421      	add	r1, r4
  4079b2:	440a      	add	r2, r1

004079b4 <.LVL221>:
  4079b4:	4493      	add	fp, r2
  4079b6:	eb06 2b7b 	add.w	fp, r6, fp, ror #9

004079ba <.LVL223>:
        MD5STEP(F3, a, b, c, d, md5->buffer[9]  + 0xd9d4d039,  4);
  4079ba:	ea8e 0406 	eor.w	r4, lr, r6
  4079be:	ea84 040b 	eor.w	r4, r4, fp
  4079c2:	4a72      	ldr	r2, [pc, #456]	; (407b8c <.LVL322+0x18>)
  4079c4:	6b01      	ldr	r1, [r0, #48]	; 0x30
  4079c6:	440a      	add	r2, r1
  4079c8:	4413      	add	r3, r2

004079ca <.LVL226>:
  4079ca:	441c      	add	r4, r3
  4079cc:	eb0b 7434 	add.w	r4, fp, r4, ror #28

004079d0 <.LVL228>:
        MD5STEP(F3, d, a, b, c, md5->buffer[12] + 0xe6db99e5, 11);
  4079d0:	ea86 010b 	eor.w	r1, r6, fp
  4079d4:	4061      	eors	r1, r4
  4079d6:	4b6e      	ldr	r3, [pc, #440]	; (407b90 <.LVL322+0x1c>)
  4079d8:	4443      	add	r3, r8
  4079da:	449e      	add	lr, r3

004079dc <.LVL231>:
  4079dc:	4471      	add	r1, lr
  4079de:	eb04 5171 	add.w	r1, r4, r1, ror #21

004079e2 <.LVL233>:
        MD5STEP(F3, c, d, a, b, md5->buffer[15] + 0x1fa27cf8, 16);
  4079e2:	ea8b 0304 	eor.w	r3, fp, r4
  4079e6:	404b      	eors	r3, r1
  4079e8:	4a6a      	ldr	r2, [pc, #424]	; (407b94 <.LVL322+0x20>)
  4079ea:	4462      	add	r2, ip
  4079ec:	4416      	add	r6, r2

004079ee <.LVL236>:
  4079ee:	441e      	add	r6, r3
  4079f0:	eb01 4636 	add.w	r6, r1, r6, ror #16

004079f4 <.LVL238>:
        MD5STEP(F3, b, c, d, a, md5->buffer[2]  + 0xc4ac5665, 23);
  4079f4:	ea84 0201 	eor.w	r2, r4, r1
  4079f8:	4072      	eors	r2, r6
  4079fa:	4b67      	ldr	r3, [pc, #412]	; (407b98 <.LVL322+0x24>)
  4079fc:	6947      	ldr	r7, [r0, #20]
  4079fe:	443b      	add	r3, r7
  407a00:	449b      	add	fp, r3

00407a02 <.LVL241>:
  407a02:	445a      	add	r2, fp
  407a04:	eb06 2272 	add.w	r2, r6, r2, ror #9

00407a08 <.LVL243>:

        MD5STEP(F4, a, b, c, d, md5->buffer[0]  + 0xf4292244,  6);
  407a08:	ea62 0301 	orn	r3, r2, r1
  407a0c:	4073      	eors	r3, r6
  407a0e:	f8df e1c8 	ldr.w	lr, [pc, #456]	; 407bd8 <.LVL322+0x64>
  407a12:	68c7      	ldr	r7, [r0, #12]
  407a14:	44be      	add	lr, r7
  407a16:	4474      	add	r4, lr

00407a18 <.LVL246>:
  407a18:	4423      	add	r3, r4
  407a1a:	eb02 63b3 	add.w	r3, r2, r3, ror #26

00407a1e <.LVL248>:
        MD5STEP(F4, d, a, b, c, md5->buffer[7]  + 0x432aff97, 10);
  407a1e:	ea63 0b06 	orn	fp, r3, r6
  407a22:	ea8b 0b02 	eor.w	fp, fp, r2
  407a26:	4c5d      	ldr	r4, [pc, #372]	; (407b9c <.LVL322+0x28>)
  407a28:	4454      	add	r4, sl
  407a2a:	4421      	add	r1, r4

00407a2c <.LVL251>:
  407a2c:	448b      	add	fp, r1
  407a2e:	eb03 5bbb 	add.w	fp, r3, fp, ror #22

00407a32 <.LVL253>:
        MD5STEP(F4, c, d, a, b, md5->buffer[14] + 0xab9423a7, 15);
  407a32:	ea6b 0e02 	orn	lr, fp, r2
  407a36:	ea8e 0e03 	eor.w	lr, lr, r3
  407a3a:	4959      	ldr	r1, [pc, #356]	; (407ba0 <.LVL322+0x2c>)
  407a3c:	4449      	add	r1, r9
  407a3e:	440e      	add	r6, r1

00407a40 <.LVL256>:
  407a40:	44b6      	add	lr, r6
  407a42:	eb0b 4e7e 	add.w	lr, fp, lr, ror #17

00407a46 <.LVL258>:
        MD5STEP(F4, b, c, d, a, md5->buffer[5]  + 0xfc93a039, 21);
  407a46:	ea6e 0403 	orn	r4, lr, r3
  407a4a:	ea84 040b 	eor.w	r4, r4, fp
  407a4e:	4955      	ldr	r1, [pc, #340]	; (407ba4 <.LVL322+0x30>)
  407a50:	6a06      	ldr	r6, [r0, #32]
  407a52:	4431      	add	r1, r6
  407a54:	440a      	add	r2, r1

00407a56 <.LVL261>:
  407a56:	4414      	add	r4, r2
  407a58:	eb0e 24f4 	add.w	r4, lr, r4, ror #11

00407a5c <.LVL263>:
        MD5STEP(F4, a, b, c, d, md5->buffer[12] + 0x655b59c3,  6);
  407a5c:	ea64 060b 	orn	r6, r4, fp
  407a60:	ea86 060e 	eor.w	r6, r6, lr
  407a64:	4a50      	ldr	r2, [pc, #320]	; (407ba8 <.LVL322+0x34>)
  407a66:	4442      	add	r2, r8
  407a68:	4413      	add	r3, r2

00407a6a <.LVL266>:
  407a6a:	441e      	add	r6, r3
  407a6c:	eb04 66b6 	add.w	r6, r4, r6, ror #26

00407a70 <.LVL268>:
        MD5STEP(F4, d, a, b, c, md5->buffer[3]  + 0x8f0ccc92, 10);
  407a70:	ea66 080e 	orn	r8, r6, lr
  407a74:	ea88 0804 	eor.w	r8, r8, r4
  407a78:	4b4c      	ldr	r3, [pc, #304]	; (407bac <.LVL322+0x38>)
  407a7a:	6982      	ldr	r2, [r0, #24]
  407a7c:	4413      	add	r3, r2
  407a7e:	449b      	add	fp, r3

00407a80 <.LVL271>:
  407a80:	44d8      	add	r8, fp
  407a82:	eb06 58b8 	add.w	r8, r6, r8, ror #22

00407a86 <.LVL273>:
        MD5STEP(F4, c, d, a, b, md5->buffer[10] + 0xffeff47d, 15);
  407a86:	ea68 0204 	orn	r2, r8, r4
  407a8a:	4072      	eors	r2, r6
  407a8c:	4948      	ldr	r1, [pc, #288]	; (407bb0 <.LVL322+0x3c>)
  407a8e:	6b43      	ldr	r3, [r0, #52]	; 0x34
  407a90:	4419      	add	r1, r3
  407a92:	448e      	add	lr, r1

00407a94 <.LVL276>:
  407a94:	4472      	add	r2, lr
  407a96:	eb08 4272 	add.w	r2, r8, r2, ror #17

00407a9a <.LVL278>:
        MD5STEP(F4, b, c, d, a, md5->buffer[1]  + 0x85845dd1, 21);
  407a9a:	ea62 0306 	orn	r3, r2, r6
  407a9e:	ea83 0308 	eor.w	r3, r3, r8
  407aa2:	4944      	ldr	r1, [pc, #272]	; (407bb4 <.LVL322+0x40>)
  407aa4:	6907      	ldr	r7, [r0, #16]
  407aa6:	4439      	add	r1, r7
  407aa8:	440c      	add	r4, r1

00407aaa <.LVL281>:
  407aaa:	4423      	add	r3, r4
  407aac:	eb02 23f3 	add.w	r3, r2, r3, ror #11

00407ab0 <.LVL283>:
        MD5STEP(F4, a, b, c, d, md5->buffer[8]  + 0x6fa87e4f,  6);
  407ab0:	ea63 0e08 	orn	lr, r3, r8
  407ab4:	ea8e 0e02 	eor.w	lr, lr, r2
  407ab8:	493f      	ldr	r1, [pc, #252]	; (407bb8 <.LVL322+0x44>)
  407aba:	6ac4      	ldr	r4, [r0, #44]	; 0x2c
  407abc:	4421      	add	r1, r4
  407abe:	440e      	add	r6, r1

00407ac0 <.LVL286>:
  407ac0:	44b6      	add	lr, r6
  407ac2:	eb03 6ebe 	add.w	lr, r3, lr, ror #26

00407ac6 <.LVL288>:
        MD5STEP(F4, d, a, b, c, md5->buffer[15] + 0xfe2ce6e0, 10);
  407ac6:	ea6e 0402 	orn	r4, lr, r2
  407aca:	405c      	eors	r4, r3
  407acc:	493b      	ldr	r1, [pc, #236]	; (407bbc <.LVL322+0x48>)
  407ace:	4461      	add	r1, ip
  407ad0:	4488      	add	r8, r1

00407ad2 <.LVL291>:
  407ad2:	4444      	add	r4, r8
  407ad4:	eb0e 54b4 	add.w	r4, lr, r4, ror #22

00407ad8 <.LVL293>:
        MD5STEP(F4, c, d, a, b, md5->buffer[6]  + 0xa3014314, 15);
  407ad8:	ea64 0603 	orn	r6, r4, r3
  407adc:	ea86 060e 	eor.w	r6, r6, lr
  407ae0:	4937      	ldr	r1, [pc, #220]	; (407bc0 <.LVL322+0x4c>)
  407ae2:	6a47      	ldr	r7, [r0, #36]	; 0x24
  407ae4:	4439      	add	r1, r7
  407ae6:	440a      	add	r2, r1

00407ae8 <.LVL296>:
  407ae8:	4416      	add	r6, r2
  407aea:	eb04 4676 	add.w	r6, r4, r6, ror #17

00407aee <.LVL298>:
        MD5STEP(F4, b, c, d, a, md5->buffer[13] + 0x4e0811a1, 21);
  407aee:	ea66 0c0e 	orn	ip, r6, lr
  407af2:	ea8c 0c04 	eor.w	ip, ip, r4
  407af6:	4933      	ldr	r1, [pc, #204]	; (407bc4 <.LVL322+0x50>)
  407af8:	6c02      	ldr	r2, [r0, #64]	; 0x40
  407afa:	4411      	add	r1, r2
  407afc:	440b      	add	r3, r1

00407afe <.LVL301>:
  407afe:	449c      	add	ip, r3
  407b00:	eb06 2cfc 	add.w	ip, r6, ip, ror #11

00407b04 <.LVL303>:
        MD5STEP(F4, a, b, c, d, md5->buffer[4]  + 0xf7537e82,  6);
  407b04:	ea6c 0204 	orn	r2, ip, r4
  407b08:	4072      	eors	r2, r6
  407b0a:	492f      	ldr	r1, [pc, #188]	; (407bc8 <.LVL322+0x54>)
  407b0c:	69c3      	ldr	r3, [r0, #28]
  407b0e:	4419      	add	r1, r3
  407b10:	448e      	add	lr, r1

00407b12 <.LVL306>:
  407b12:	4472      	add	r2, lr
  407b14:	eb0c 62b2 	add.w	r2, ip, r2, ror #26

00407b18 <.LVL308>:
        MD5STEP(F4, d, a, b, c, md5->buffer[11] + 0xbd3af235, 10);
  407b18:	ea62 0306 	orn	r3, r2, r6
  407b1c:	ea83 030c 	eor.w	r3, r3, ip
  407b20:	492a      	ldr	r1, [pc, #168]	; (407bcc <.LVL322+0x58>)
  407b22:	6b87      	ldr	r7, [r0, #56]	; 0x38
  407b24:	4439      	add	r1, r7
  407b26:	440c      	add	r4, r1

00407b28 <.LVL311>:
  407b28:	441c      	add	r4, r3
  407b2a:	eb02 54b4 	add.w	r4, r2, r4, ror #22

00407b2e <.LVL313>:
        MD5STEP(F4, c, d, a, b, md5->buffer[2]  + 0x2ad7d2bb, 15);
  407b2e:	ea64 030c 	orn	r3, r4, ip
  407b32:	4053      	eors	r3, r2
  407b34:	4926      	ldr	r1, [pc, #152]	; (407bd0 <.LVL322+0x5c>)
  407b36:	6947      	ldr	r7, [r0, #20]
  407b38:	4439      	add	r1, r7
  407b3a:	440e      	add	r6, r1

00407b3c <.LVL316>:
  407b3c:	441e      	add	r6, r3
  407b3e:	eb04 4676 	add.w	r6, r4, r6, ror #17

00407b42 <.LVL318>:
        MD5STEP(F4, b, c, d, a, md5->buffer[9]  + 0xeb86d391, 21);

        /* Add the working vars back into digest state[]  */
        md5->digest[0] += a;
  407b42:	6cc3      	ldr	r3, [r0, #76]	; 0x4c
  407b44:	4413      	add	r3, r2
  407b46:	64c3      	str	r3, [r0, #76]	; 0x4c
        MD5STEP(F4, b, c, d, a, md5->buffer[9]  + 0xeb86d391, 21);
  407b48:	ea66 0202 	orn	r2, r6, r2

00407b4c <.LVL319>:
  407b4c:	4062      	eors	r2, r4
  407b4e:	4921      	ldr	r1, [pc, #132]	; (407bd4 <.LVL322+0x60>)
  407b50:	6b03      	ldr	r3, [r0, #48]	; 0x30
  407b52:	4419      	add	r1, r3
  407b54:	448c      	add	ip, r1
  407b56:	4494      	add	ip, r2
        md5->digest[1] += b;
  407b58:	4435      	add	r5, r6
  407b5a:	eb05 25fc 	add.w	r5, r5, ip, ror #11
  407b5e:	6505      	str	r5, [r0, #80]	; 0x50
        md5->digest[2] += c;
  407b60:	9b01      	ldr	r3, [sp, #4]
  407b62:	4433      	add	r3, r6
  407b64:	6543      	str	r3, [r0, #84]	; 0x54
        md5->digest[3] += d;
  407b66:	6d83      	ldr	r3, [r0, #88]	; 0x58
  407b68:	441c      	add	r4, r3

00407b6a <.LVL320>:
  407b6a:	6584      	str	r4, [r0, #88]	; 0x58

        return 0;
    }
  407b6c:	2000      	movs	r0, #0

00407b6e <.LVL321>:
  407b6e:	b003      	add	sp, #12

00407b70 <.LCFI2>:
  407b70:	e8bd 8ff0 	ldmia.w	sp!, {r4, r5, r6, r7, r8, r9, sl, fp, pc}

00407b74 <.LVL322>:
  407b74:	f6bb4b60 	.word	0xf6bb4b60
  407b78:	bebfbc70 	.word	0xbebfbc70
  407b7c:	289b7ec6 	.word	0x289b7ec6
  407b80:	eaa127fa 	.word	0xeaa127fa
  407b84:	d4ef3085 	.word	0xd4ef3085
  407b88:	04881d05 	.word	0x04881d05
  407b8c:	d9d4d039 	.word	0xd9d4d039
  407b90:	e6db99e5 	.word	0xe6db99e5
  407b94:	1fa27cf8 	.word	0x1fa27cf8
  407b98:	c4ac5665 	.word	0xc4ac5665
  407b9c:	432aff97 	.word	0x432aff97
  407ba0:	ab9423a7 	.word	0xab9423a7
  407ba4:	fc93a039 	.word	0xfc93a039
  407ba8:	655b59c3 	.word	0x655b59c3
  407bac:	8f0ccc92 	.word	0x8f0ccc92
  407bb0:	ffeff47d 	.word	0xffeff47d
  407bb4:	85845dd1 	.word	0x85845dd1
  407bb8:	6fa87e4f 	.word	0x6fa87e4f
  407bbc:	fe2ce6e0 	.word	0xfe2ce6e0
  407bc0:	a3014314 	.word	0xa3014314
  407bc4:	4e0811a1 	.word	0x4e0811a1
  407bc8:	f7537e82 	.word	0xf7537e82
  407bcc:	bd3af235 	.word	0xbd3af235
  407bd0:	2ad7d2bb 	.word	0x2ad7d2bb
  407bd4:	eb86d391 	.word	0xeb86d391
  407bd8:	f4292244 	.word	0xf4292244

Disassembly of section .text._malloc_r%36:

00407bdc <_malloc_r>:
  407bdc:	e92d 4ff0 	stmdb	sp!, {r4, r5, r6, r7, r8, r9, sl, fp, lr}

00407be0 <.LCFI0>:
  407be0:	f101 060b 	add.w	r6, r1, #11
  407be4:	2e16      	cmp	r6, #22
  407be6:	b083      	sub	sp, #12

00407be8 <.LCFI1>:
  407be8:	4605      	mov	r5, r0
  407bea:	f240 809e 	bls.w	407d2a <.LVL46>

00407bee <.LVL1>:
  407bee:	f036 0607 	bics.w	r6, r6, #7

00407bf2 <.LVL2>:
  407bf2:	f100 80bd 	bmi.w	407d70 <.LCFI3>
  407bf6:	42b1      	cmp	r1, r6
  407bf8:	f200 80ba 	bhi.w	407d70 <.LCFI3>
  407bfc:	f005 fef4 	bl	40d9e8 <__malloc_lock>

00407c00 <.LVL3>:
  407c00:	f5b6 7ffc 	cmp.w	r6, #504	; 0x1f8
  407c04:	f0c0 828b 	bcc.w	40811e <.LVL171>
  407c08:	0a73      	lsrs	r3, r6, #9
  407c0a:	f000 80b8 	beq.w	407d7e <.LCFI5>
  407c0e:	2b04      	cmp	r3, #4
  407c10:	f200 816e 	bhi.w	407ef0 <.LCFI11>
  407c14:	09b3      	lsrs	r3, r6, #6
  407c16:	f103 0039 	add.w	r0, r3, #57	; 0x39
  407c1a:	f103 0e38 	add.w	lr, r3, #56	; 0x38
  407c1e:	00c3      	lsls	r3, r0, #3

00407c20 <.LVL4>:
  407c20:	4fb9      	ldr	r7, [pc, #740]	; (407f08 <.LCFI11+0x18>)
  407c22:	443b      	add	r3, r7
  407c24:	f1a3 0108 	sub.w	r1, r3, #8

00407c28 <.LVL5>:
  407c28:	685c      	ldr	r4, [r3, #4]

00407c2a <.LVL6>:
  407c2a:	42a1      	cmp	r1, r4
  407c2c:	d106      	bne.n	407c3c <.LVL10>
  407c2e:	e00c      	b.n	407c4a <.LVL14>

00407c30 <.LVL7>:
  407c30:	2a00      	cmp	r2, #0
  407c32:	f280 80aa 	bge.w	407d8a <.LVL62>

00407c36 <.LVL8>:
  407c36:	68e4      	ldr	r4, [r4, #12]
  407c38:	42a1      	cmp	r1, r4
  407c3a:	d006      	beq.n	407c4a <.LVL14>

00407c3c <.LVL10>:
  407c3c:	6863      	ldr	r3, [r4, #4]
  407c3e:	f023 0303 	bic.w	r3, r3, #3

00407c42 <.LVL11>:
  407c42:	1b9a      	subs	r2, r3, r6

00407c44 <.LVL12>:
  407c44:	2a0f      	cmp	r2, #15
  407c46:	ddf3      	ble.n	407c30 <.LVL7>

00407c48 <.LVL13>:
  407c48:	4670      	mov	r0, lr

00407c4a <.LVL14>:
  407c4a:	693c      	ldr	r4, [r7, #16]
  407c4c:	f8df e2d0 	ldr.w	lr, [pc, #720]	; 407f20 <.LCFI11+0x30>
  407c50:	4574      	cmp	r4, lr
  407c52:	f000 819f 	beq.w	407f94 <.LVL115>
  407c56:	6863      	ldr	r3, [r4, #4]
  407c58:	f023 0303 	bic.w	r3, r3, #3

00407c5c <.LVL16>:
  407c5c:	1b9a      	subs	r2, r3, r6

00407c5e <.LVL17>:
  407c5e:	2a0f      	cmp	r2, #15
  407c60:	f300 8184 	bgt.w	407f6c <.LVL110>
  407c64:	2a00      	cmp	r2, #0
  407c66:	f8c7 e014 	str.w	lr, [r7, #20]
  407c6a:	f8c7 e010 	str.w	lr, [r7, #16]
  407c6e:	f280 809d 	bge.w	407dac <.LCFI7>
  407c72:	f5b3 7f00 	cmp.w	r3, #512	; 0x200
  407c76:	f080 8155 	bcs.w	407f24 <.LVL101>
  407c7a:	08db      	lsrs	r3, r3, #3

00407c7c <.LVL18>:
  407c7c:	f103 0c01 	add.w	ip, r3, #1
  407c80:	1099      	asrs	r1, r3, #2
  407c82:	687a      	ldr	r2, [r7, #4]

00407c84 <.LVL19>:
  407c84:	f857 803c 	ldr.w	r8, [r7, ip, lsl #3]
  407c88:	f8c4 8008 	str.w	r8, [r4, #8]
  407c8c:	2301      	movs	r3, #1

00407c8e <.LVL20>:
  407c8e:	408b      	lsls	r3, r1
  407c90:	eb07 01cc 	add.w	r1, r7, ip, lsl #3

00407c94 <.LVL21>:
  407c94:	4313      	orrs	r3, r2
  407c96:	3908      	subs	r1, #8

00407c98 <.LVL22>:
  407c98:	60e1      	str	r1, [r4, #12]
  407c9a:	607b      	str	r3, [r7, #4]

00407c9c <.LVL23>:
  407c9c:	f847 403c 	str.w	r4, [r7, ip, lsl #3]
  407ca0:	f8c8 400c 	str.w	r4, [r8, #12]

00407ca4 <.LVL24>:
  407ca4:	1082      	asrs	r2, r0, #2
  407ca6:	2401      	movs	r4, #1

00407ca8 <.LVL25>:
  407ca8:	4094      	lsls	r4, r2

00407caa <.LVL26>:
  407caa:	429c      	cmp	r4, r3
  407cac:	f200 808b 	bhi.w	407dc6 <.LCFI9>
  407cb0:	421c      	tst	r4, r3
  407cb2:	d106      	bne.n	407cc2 <.LVL30>
  407cb4:	f020 0003 	bic.w	r0, r0, #3

00407cb8 <.LVL27>:
  407cb8:	0064      	lsls	r4, r4, #1

00407cba <.LVL28>:
  407cba:	421c      	tst	r4, r3
  407cbc:	f100 0004 	add.w	r0, r0, #4

00407cc0 <.LVL29>:
  407cc0:	d0fa      	beq.n	407cb8 <.LVL27>

00407cc2 <.LVL30>:
  407cc2:	eb07 09c0 	add.w	r9, r7, r0, lsl #3

00407cc6 <.LVL31>:
  407cc6:	46cc      	mov	ip, r9
  407cc8:	4680      	mov	r8, r0

00407cca <.LVL32>:
  407cca:	f8dc 300c 	ldr.w	r3, [ip, #12]

00407cce <.LVL33>:
  407cce:	459c      	cmp	ip, r3
  407cd0:	d107      	bne.n	407ce2 <.LVL36>
  407cd2:	e161      	b.n	407f98 <.LVL116>

00407cd4 <.LVL34>:
  407cd4:	2a00      	cmp	r2, #0
  407cd6:	f280 816f 	bge.w	407fb8 <.LVL121>
  407cda:	68db      	ldr	r3, [r3, #12]
  407cdc:	459c      	cmp	ip, r3
  407cde:	f000 815b 	beq.w	407f98 <.LVL116>

00407ce2 <.LVL36>:
  407ce2:	6859      	ldr	r1, [r3, #4]
  407ce4:	f021 0103 	bic.w	r1, r1, #3

00407ce8 <.LVL37>:
  407ce8:	1b8a      	subs	r2, r1, r6

00407cea <.LVL38>:
  407cea:	2a0f      	cmp	r2, #15
  407cec:	ddf2      	ble.n	407cd4 <.LVL34>
  407cee:	f8d3 c00c 	ldr.w	ip, [r3, #12]

00407cf2 <.LVL39>:
  407cf2:	f8d3 8008 	ldr.w	r8, [r3, #8]

00407cf6 <.LVL40>:
  407cf6:	9301      	str	r3, [sp, #4]
  407cf8:	199c      	adds	r4, r3, r6

00407cfa <.LVL41>:
  407cfa:	4628      	mov	r0, r5

00407cfc <.LVL42>:
  407cfc:	f046 0601 	orr.w	r6, r6, #1
  407d00:	f042 0501 	orr.w	r5, r2, #1

00407d04 <.LVL43>:
  407d04:	605e      	str	r6, [r3, #4]
  407d06:	f8c8 c00c 	str.w	ip, [r8, #12]
  407d0a:	f8cc 8008 	str.w	r8, [ip, #8]
  407d0e:	617c      	str	r4, [r7, #20]
  407d10:	613c      	str	r4, [r7, #16]
  407d12:	f8c4 e00c 	str.w	lr, [r4, #12]
  407d16:	f8c4 e008 	str.w	lr, [r4, #8]
  407d1a:	6065      	str	r5, [r4, #4]
  407d1c:	505a      	str	r2, [r3, r1]
  407d1e:	f005 fe65 	bl	40d9ec <__malloc_unlock>

00407d22 <.LVL44>:
  407d22:	9b01      	ldr	r3, [sp, #4]
  407d24:	f103 0408 	add.w	r4, r3, #8

00407d28 <.LVL45>:
  407d28:	e01e      	b.n	407d68 <.LVL58>

00407d2a <.LVL46>:
  407d2a:	2910      	cmp	r1, #16
  407d2c:	d820      	bhi.n	407d70 <.LCFI3>
  407d2e:	f005 fe5b 	bl	40d9e8 <__malloc_lock>

00407d32 <.LVL47>:
  407d32:	2610      	movs	r6, #16

00407d34 <.LVL48>:
  407d34:	2318      	movs	r3, #24
  407d36:	2002      	movs	r0, #2

00407d38 <.LVL49>:
  407d38:	4f73      	ldr	r7, [pc, #460]	; (407f08 <.LCFI11+0x18>)
  407d3a:	443b      	add	r3, r7

00407d3c <.LVL50>:
  407d3c:	f1a3 0208 	sub.w	r2, r3, #8

00407d40 <.LVL51>:
  407d40:	685c      	ldr	r4, [r3, #4]

00407d42 <.LVL52>:
  407d42:	4294      	cmp	r4, r2
  407d44:	f000 8131 	beq.w	407faa <.LVL119>

00407d48 <.LVL53>:
  407d48:	6863      	ldr	r3, [r4, #4]
  407d4a:	68e1      	ldr	r1, [r4, #12]
  407d4c:	68a6      	ldr	r6, [r4, #8]
  407d4e:	f023 0303 	bic.w	r3, r3, #3

00407d52 <.LVL54>:
  407d52:	4423      	add	r3, r4

00407d54 <.LVL55>:
  407d54:	4628      	mov	r0, r5
  407d56:	685a      	ldr	r2, [r3, #4]
  407d58:	60f1      	str	r1, [r6, #12]
  407d5a:	f042 0201 	orr.w	r2, r2, #1
  407d5e:	608e      	str	r6, [r1, #8]
  407d60:	605a      	str	r2, [r3, #4]

00407d62 <.LVL56>:
  407d62:	f005 fe43 	bl	40d9ec <__malloc_unlock>

00407d66 <.LVL57>:
  407d66:	3408      	adds	r4, #8

00407d68 <.LVL58>:
  407d68:	4620      	mov	r0, r4
  407d6a:	b003      	add	sp, #12

00407d6c <.LCFI2>:
  407d6c:	e8bd 8ff0 	ldmia.w	sp!, {r4, r5, r6, r7, r8, r9, sl, fp, pc}

00407d70 <.LCFI3>:
  407d70:	2400      	movs	r4, #0
  407d72:	230c      	movs	r3, #12
  407d74:	4620      	mov	r0, r4

00407d76 <.LVL60>:
  407d76:	602b      	str	r3, [r5, #0]
  407d78:	b003      	add	sp, #12

00407d7a <.LCFI4>:
  407d7a:	e8bd 8ff0 	ldmia.w	sp!, {r4, r5, r6, r7, r8, r9, sl, fp, pc}

00407d7e <.LCFI5>:
  407d7e:	2040      	movs	r0, #64	; 0x40
  407d80:	f44f 7300 	mov.w	r3, #512	; 0x200
  407d84:	f04f 0e3f 	mov.w	lr, #63	; 0x3f
  407d88:	e74a      	b.n	407c20 <.LVL4>

00407d8a <.LVL62>:
  407d8a:	4423      	add	r3, r4

00407d8c <.LVL63>:
  407d8c:	68e1      	ldr	r1, [r4, #12]

00407d8e <.LVL64>:
  407d8e:	685a      	ldr	r2, [r3, #4]

00407d90 <.LVL65>:
  407d90:	68a6      	ldr	r6, [r4, #8]

00407d92 <.LVL66>:
  407d92:	f042 0201 	orr.w	r2, r2, #1
  407d96:	60f1      	str	r1, [r6, #12]
  407d98:	4628      	mov	r0, r5
  407d9a:	608e      	str	r6, [r1, #8]
  407d9c:	605a      	str	r2, [r3, #4]

00407d9e <.LVL67>:
  407d9e:	f005 fe25 	bl	40d9ec <__malloc_unlock>

00407da2 <.LVL68>:
  407da2:	3408      	adds	r4, #8

00407da4 <.LVL69>:
  407da4:	4620      	mov	r0, r4
  407da6:	b003      	add	sp, #12

00407da8 <.LCFI6>:
  407da8:	e8bd 8ff0 	ldmia.w	sp!, {r4, r5, r6, r7, r8, r9, sl, fp, pc}

00407dac <.LCFI7>:
  407dac:	4423      	add	r3, r4

00407dae <.LVL71>:
  407dae:	4628      	mov	r0, r5

00407db0 <.LVL72>:
  407db0:	685a      	ldr	r2, [r3, #4]

00407db2 <.LVL73>:
  407db2:	f042 0201 	orr.w	r2, r2, #1
  407db6:	605a      	str	r2, [r3, #4]

00407db8 <.LVL74>:
  407db8:	f005 fe18 	bl	40d9ec <__malloc_unlock>

00407dbc <.LVL75>:
  407dbc:	3408      	adds	r4, #8

00407dbe <.LVL76>:
  407dbe:	4620      	mov	r0, r4
  407dc0:	b003      	add	sp, #12

00407dc2 <.LCFI8>:
  407dc2:	e8bd 8ff0 	ldmia.w	sp!, {r4, r5, r6, r7, r8, r9, sl, fp, pc}

00407dc6 <.LCFI9>:
  407dc6:	68bc      	ldr	r4, [r7, #8]

00407dc8 <.LVL78>:
  407dc8:	6863      	ldr	r3, [r4, #4]
  407dca:	f023 0a03 	bic.w	sl, r3, #3
  407dce:	45b2      	cmp	sl, r6
  407dd0:	d303      	bcc.n	407dda <.LBB4>
  407dd2:	ebaa 0306 	sub.w	r3, sl, r6
  407dd6:	2b0f      	cmp	r3, #15
  407dd8:	dc7a      	bgt.n	407ed0 <.LBE4>

00407dda <.LBB4>:
  407dda:	4b4c      	ldr	r3, [pc, #304]	; (407f0c <.LCFI11+0x1c>)
  407ddc:	4a4c      	ldr	r2, [pc, #304]	; (407f10 <.LCFI11+0x20>)
  407dde:	9301      	str	r3, [sp, #4]
  407de0:	6811      	ldr	r1, [r2, #0]
  407de2:	681a      	ldr	r2, [r3, #0]
  407de4:	eb06 0801 	add.w	r8, r6, r1
  407de8:	3201      	adds	r2, #1
  407dea:	bf16      	itet	ne
  407dec:	f108 088f 	addne.w	r8, r8, #143	; 0x8f
  407df0:	f108 0810 	addeq.w	r8, r8, #16
  407df4:	f028 087f 	bicne.w	r8, r8, #127	; 0x7f
  407df8:	4641      	mov	r1, r8
  407dfa:	4628      	mov	r0, r5
  407dfc:	f005 fb04 	bl	40d408 <.LFE149>

00407e00 <.LVL80>:
  407e00:	f1b0 3fff 	cmp.w	r0, #4294967295
  407e04:	eb04 0b0a 	add.w	fp, r4, sl

00407e08 <.LVL81>:
  407e08:	4681      	mov	r9, r0

00407e0a <.LVL82>:
  407e0a:	9b01      	ldr	r3, [sp, #4]
  407e0c:	f000 80f1 	beq.w	407ff2 <.LBB10+0x4>
  407e10:	4583      	cmp	fp, r0
  407e12:	f200 80ec 	bhi.w	407fee <.LBB10>
  407e16:	4a3f      	ldr	r2, [pc, #252]	; (407f14 <.LCFI11+0x24>)
  407e18:	6811      	ldr	r1, [r2, #0]
  407e1a:	4441      	add	r1, r8
  407e1c:	6011      	str	r1, [r2, #0]
  407e1e:	f000 8147 	beq.w	4080b0 <.LBB12+0xa>

00407e22 <.LVL83>:
  407e22:	6818      	ldr	r0, [r3, #0]

00407e24 <.LVL84>:
  407e24:	9201      	str	r2, [sp, #4]
  407e26:	3001      	adds	r0, #1
  407e28:	bf1b      	ittet	ne
  407e2a:	eba9 0b0b 	subne.w	fp, r9, fp

00407e2e <.LVL85>:
  407e2e:	4459      	addne	r1, fp
  407e30:	f8c3 9000 	streq.w	r9, [r3]
  407e34:	6011      	strne	r1, [r2, #0]
  407e36:	f019 0107 	ands.w	r1, r9, #7

00407e3a <.LVL86>:
  407e3a:	bf1c      	itt	ne
  407e3c:	f1c1 0308 	rsbne	r3, r1, #8
  407e40:	4499      	addne	r9, r3

00407e42 <.LVL87>:
  407e42:	eb09 0308 	add.w	r3, r9, r8
  407e46:	bf14      	ite	ne
  407e48:	f1c1 0188 	rsbne	r1, r1, #136	; 0x88

00407e4c <.LVL88>:
  407e4c:	2180      	moveq	r1, #128	; 0x80
  407e4e:	f003 037f 	and.w	r3, r3, #127	; 0x7f
  407e52:	eba1 0803 	sub.w	r8, r1, r3

00407e56 <.LVL89>:
  407e56:	4641      	mov	r1, r8
  407e58:	4628      	mov	r0, r5
  407e5a:	f005 fad5 	bl	40d408 <.LFE149>

00407e5e <.LVL90>:
  407e5e:	1c43      	adds	r3, r0, #1
  407e60:	9a01      	ldr	r2, [sp, #4]
  407e62:	f000 813f 	beq.w	4080e4 <.LVL167>
  407e66:	eba0 0309 	sub.w	r3, r0, r9
  407e6a:	4443      	add	r3, r8
  407e6c:	f043 0301 	orr.w	r3, r3, #1

00407e70 <.LVL91>:
  407e70:	6811      	ldr	r1, [r2, #0]
  407e72:	f8c7 9008 	str.w	r9, [r7, #8]
  407e76:	4441      	add	r1, r8
  407e78:	42bc      	cmp	r4, r7
  407e7a:	f8c9 3004 	str.w	r3, [r9, #4]
  407e7e:	6011      	str	r1, [r2, #0]
  407e80:	d017      	beq.n	407eb2 <.LVL94>
  407e82:	f1ba 0f0f 	cmp.w	sl, #15
  407e86:	f240 80ee 	bls.w	408066 <.LBB11>
  407e8a:	6860      	ldr	r0, [r4, #4]
  407e8c:	f1aa 030c 	sub.w	r3, sl, #12
  407e90:	f023 0307 	bic.w	r3, r3, #7

00407e94 <.LVL93>:
  407e94:	eb04 0e03 	add.w	lr, r4, r3
  407e98:	f000 0001 	and.w	r0, r0, #1
  407e9c:	f04f 0c05 	mov.w	ip, #5
  407ea0:	4318      	orrs	r0, r3
  407ea2:	2b0f      	cmp	r3, #15
  407ea4:	6060      	str	r0, [r4, #4]
  407ea6:	f8ce c004 	str.w	ip, [lr, #4]
  407eaa:	f8ce c008 	str.w	ip, [lr, #8]
  407eae:	f200 8110 	bhi.w	4080d2 <.LBB13>

00407eb2 <.LVL94>:
  407eb2:	4b19      	ldr	r3, [pc, #100]	; (407f18 <.LCFI11+0x28>)
  407eb4:	68bc      	ldr	r4, [r7, #8]

00407eb6 <.LVL95>:
  407eb6:	681a      	ldr	r2, [r3, #0]
  407eb8:	4291      	cmp	r1, r2
  407eba:	bf88      	it	hi
  407ebc:	6019      	strhi	r1, [r3, #0]
  407ebe:	4b17      	ldr	r3, [pc, #92]	; (407f1c <.LCFI11+0x2c>)
  407ec0:	681a      	ldr	r2, [r3, #0]
  407ec2:	4291      	cmp	r1, r2
  407ec4:	6862      	ldr	r2, [r4, #4]
  407ec6:	bf88      	it	hi
  407ec8:	6019      	strhi	r1, [r3, #0]
  407eca:	f022 0203 	bic.w	r2, r2, #3
  407ece:	e094      	b.n	407ffa <.LBE10>

00407ed0 <.LBE4>:
  407ed0:	19a2      	adds	r2, r4, r6
  407ed2:	f043 0301 	orr.w	r3, r3, #1

00407ed6 <.LVL97>:
  407ed6:	f046 0601 	orr.w	r6, r6, #1
  407eda:	6066      	str	r6, [r4, #4]
  407edc:	4628      	mov	r0, r5
  407ede:	60ba      	str	r2, [r7, #8]

00407ee0 <.LVL98>:
  407ee0:	6053      	str	r3, [r2, #4]
  407ee2:	f005 fd83 	bl	40d9ec <__malloc_unlock>

00407ee6 <.LVL99>:
  407ee6:	3408      	adds	r4, #8
  407ee8:	4620      	mov	r0, r4
  407eea:	b003      	add	sp, #12

00407eec <.LCFI10>:
  407eec:	e8bd 8ff0 	ldmia.w	sp!, {r4, r5, r6, r7, r8, r9, sl, fp, pc}

00407ef0 <.LCFI11>:
  407ef0:	2b14      	cmp	r3, #20
  407ef2:	d970      	bls.n	407fd6 <.LVL130>
  407ef4:	2b54      	cmp	r3, #84	; 0x54
  407ef6:	f200 80ac 	bhi.w	408052 <.LVL150>
  407efa:	0b33      	lsrs	r3, r6, #12
  407efc:	f103 006f 	add.w	r0, r3, #111	; 0x6f
  407f00:	f103 0e6e 	add.w	lr, r3, #110	; 0x6e
  407f04:	00c3      	lsls	r3, r0, #3
  407f06:	e68b      	b.n	407c20 <.LVL4>
  407f08:	2040d0b0 	.word	0x2040d0b0
  407f0c:	2040dcf8 	.word	0x2040dcf8
  407f10:	2040dcf4 	.word	0x2040dcf4
  407f14:	2040dc1c 	.word	0x2040dc1c
  407f18:	2040dcec 	.word	0x2040dcec
  407f1c:	2040dcf0 	.word	0x2040dcf0
  407f20:	2040d0b8 	.word	0x2040d0b8

00407f24 <.LVL101>:
  407f24:	0a5a      	lsrs	r2, r3, #9

00407f26 <.LVL102>:
  407f26:	2a04      	cmp	r2, #4
  407f28:	d95b      	bls.n	407fe2 <.LVL131>
  407f2a:	2a14      	cmp	r2, #20
  407f2c:	f200 80b3 	bhi.w	408096 <.LVL159>
  407f30:	f102 015c 	add.w	r1, r2, #92	; 0x5c
  407f34:	00c9      	lsls	r1, r1, #3
  407f36:	325b      	adds	r2, #91	; 0x5b

00407f38 <.LVL103>:
  407f38:	eb07 0c01 	add.w	ip, r7, r1
  407f3c:	5879      	ldr	r1, [r7, r1]
  407f3e:	f1ac 0c08 	sub.w	ip, ip, #8

00407f42 <.LVL104>:
  407f42:	458c      	cmp	ip, r1
  407f44:	f000 8093 	beq.w	40806e <.LBE11>

00407f48 <.LVL105>:
  407f48:	684a      	ldr	r2, [r1, #4]
  407f4a:	f022 0203 	bic.w	r2, r2, #3
  407f4e:	4293      	cmp	r3, r2
  407f50:	d27d      	bcs.n	40804e <.LVL148>
  407f52:	6889      	ldr	r1, [r1, #8]
  407f54:	458c      	cmp	ip, r1
  407f56:	d1f7      	bne.n	407f48 <.LVL105>

00407f58 <.LVL107>:
  407f58:	f8dc 200c 	ldr.w	r2, [ip, #12]

00407f5c <.LVL108>:
  407f5c:	687b      	ldr	r3, [r7, #4]

00407f5e <.LVL109>:
  407f5e:	60e2      	str	r2, [r4, #12]
  407f60:	f8c4 c008 	str.w	ip, [r4, #8]
  407f64:	6094      	str	r4, [r2, #8]
  407f66:	f8cc 400c 	str.w	r4, [ip, #12]
  407f6a:	e69b      	b.n	407ca4 <.LVL24>

00407f6c <.LVL110>:
  407f6c:	19a1      	adds	r1, r4, r6

00407f6e <.LVL111>:
  407f6e:	f046 0c01 	orr.w	ip, r6, #1
  407f72:	f042 0601 	orr.w	r6, r2, #1
  407f76:	f8c4 c004 	str.w	ip, [r4, #4]
  407f7a:	4628      	mov	r0, r5

00407f7c <.LVL112>:
  407f7c:	6179      	str	r1, [r7, #20]
  407f7e:	6139      	str	r1, [r7, #16]
  407f80:	f8c1 e00c 	str.w	lr, [r1, #12]
  407f84:	f8c1 e008 	str.w	lr, [r1, #8]
  407f88:	604e      	str	r6, [r1, #4]
  407f8a:	50e2      	str	r2, [r4, r3]
  407f8c:	f005 fd2e 	bl	40d9ec <__malloc_unlock>

00407f90 <.LVL113>:
  407f90:	3408      	adds	r4, #8

00407f92 <.LVL114>:
  407f92:	e6e9      	b.n	407d68 <.LVL58>

00407f94 <.LVL115>:
  407f94:	687b      	ldr	r3, [r7, #4]
  407f96:	e685      	b.n	407ca4 <.LVL24>

00407f98 <.LVL116>:
  407f98:	f108 0801 	add.w	r8, r8, #1

00407f9c <.LVL117>:
  407f9c:	f018 0f03 	tst.w	r8, #3
  407fa0:	f10c 0c08 	add.w	ip, ip, #8

00407fa4 <.LVL118>:
  407fa4:	f47f ae91 	bne.w	407cca <.LVL32>
  407fa8:	e037      	b.n	40801a <.LVL140>

00407faa <.LVL119>:
  407faa:	68dc      	ldr	r4, [r3, #12]
  407fac:	42a3      	cmp	r3, r4
  407fae:	bf08      	it	eq
  407fb0:	3002      	addeq	r0, #2
  407fb2:	f43f ae4a 	beq.w	407c4a <.LVL14>
  407fb6:	e6c7      	b.n	407d48 <.LVL53>

00407fb8 <.LVL121>:
  407fb8:	4419      	add	r1, r3

00407fba <.LVL122>:
  407fba:	461c      	mov	r4, r3

00407fbc <.LVL123>:
  407fbc:	684a      	ldr	r2, [r1, #4]

00407fbe <.LVL124>:
  407fbe:	68db      	ldr	r3, [r3, #12]

00407fc0 <.LVL125>:
  407fc0:	f854 6f08 	ldr.w	r6, [r4, #8]!

00407fc4 <.LVL126>:
  407fc4:	f042 0201 	orr.w	r2, r2, #1
  407fc8:	604a      	str	r2, [r1, #4]

00407fca <.LVL127>:
  407fca:	4628      	mov	r0, r5

00407fcc <.LVL128>:
  407fcc:	60f3      	str	r3, [r6, #12]
  407fce:	609e      	str	r6, [r3, #8]
  407fd0:	f005 fd0c 	bl	40d9ec <__malloc_unlock>

00407fd4 <.LVL129>:
  407fd4:	e6c8      	b.n	407d68 <.LVL58>

00407fd6 <.LVL130>:
  407fd6:	f103 005c 	add.w	r0, r3, #92	; 0x5c
  407fda:	f103 0e5b 	add.w	lr, r3, #91	; 0x5b
  407fde:	00c3      	lsls	r3, r0, #3
  407fe0:	e61e      	b.n	407c20 <.LVL4>

00407fe2 <.LVL131>:
  407fe2:	099a      	lsrs	r2, r3, #6
  407fe4:	f102 0139 	add.w	r1, r2, #57	; 0x39
  407fe8:	00c9      	lsls	r1, r1, #3
  407fea:	3238      	adds	r2, #56	; 0x38
  407fec:	e7a4      	b.n	407f38 <.LVL103>

00407fee <.LBB10>:
  407fee:	42bc      	cmp	r4, r7
  407ff0:	d059      	beq.n	4080a6 <.LBB12>
  407ff2:	68bc      	ldr	r4, [r7, #8]

00407ff4 <.LVL133>:
  407ff4:	6862      	ldr	r2, [r4, #4]
  407ff6:	f022 0203 	bic.w	r2, r2, #3

00407ffa <.LBE10>:
  407ffa:	4296      	cmp	r6, r2
  407ffc:	eba2 0306 	sub.w	r3, r2, r6

00408000 <.LVL135>:
  408000:	d802      	bhi.n	408008 <.LVL136>
  408002:	2b0f      	cmp	r3, #15
  408004:	f73f af64 	bgt.w	407ed0 <.LBE4>

00408008 <.LVL136>:
  408008:	4628      	mov	r0, r5
  40800a:	f005 fcef 	bl	40d9ec <__malloc_unlock>

0040800e <.LVL137>:
  40800e:	2400      	movs	r4, #0
  408010:	e6aa      	b.n	407d68 <.LVL58>

00408012 <.LVL138>:
  408012:	f859 3908 	ldr.w	r3, [r9], #-8

00408016 <.LVL139>:
  408016:	4599      	cmp	r9, r3
  408018:	d17f      	bne.n	40811a <.LVL170>

0040801a <.LVL140>:
  40801a:	f010 0f03 	tst.w	r0, #3
  40801e:	f100 30ff 	add.w	r0, r0, #4294967295
  408022:	d1f6      	bne.n	408012 <.LVL138>
  408024:	687b      	ldr	r3, [r7, #4]
  408026:	ea23 0304 	bic.w	r3, r3, r4
  40802a:	607b      	str	r3, [r7, #4]

0040802c <.LVL142>:
  40802c:	0064      	lsls	r4, r4, #1
  40802e:	429c      	cmp	r4, r3
  408030:	f63f aec9 	bhi.w	407dc6 <.LCFI9>
  408034:	2c00      	cmp	r4, #0
  408036:	f43f aec6 	beq.w	407dc6 <.LCFI9>
  40803a:	421c      	tst	r4, r3
  40803c:	4640      	mov	r0, r8

0040803e <.LVL144>:
  40803e:	f47f ae40 	bne.w	407cc2 <.LVL30>

00408042 <.LVL145>:
  408042:	0064      	lsls	r4, r4, #1

00408044 <.LVL146>:
  408044:	421c      	tst	r4, r3
  408046:	f100 0004 	add.w	r0, r0, #4

0040804a <.LVL147>:
  40804a:	d0fa      	beq.n	408042 <.LVL145>
  40804c:	e639      	b.n	407cc2 <.LVL30>

0040804e <.LVL148>:
  40804e:	468c      	mov	ip, r1

00408050 <.LVL149>:
  408050:	e782      	b.n	407f58 <.LVL107>

00408052 <.LVL150>:
  408052:	f5b3 7faa 	cmp.w	r3, #340	; 0x154
  408056:	d813      	bhi.n	408080 <.LVL158>
  408058:	0bf3      	lsrs	r3, r6, #15
  40805a:	f103 0078 	add.w	r0, r3, #120	; 0x78
  40805e:	f103 0e77 	add.w	lr, r3, #119	; 0x77
  408062:	00c3      	lsls	r3, r0, #3
  408064:	e5dc      	b.n	407c20 <.LVL4>

00408066 <.LBB11>:
  408066:	2301      	movs	r3, #1
  408068:	f8c9 3004 	str.w	r3, [r9, #4]

0040806c <.LVL152>:
  40806c:	e7cc      	b.n	408008 <.LVL136>

0040806e <.LBE11>:
  40806e:	687b      	ldr	r3, [r7, #4]

00408070 <.LVL154>:
  408070:	1092      	asrs	r2, r2, #2

00408072 <.LVL155>:
  408072:	2101      	movs	r1, #1

00408074 <.LVL156>:
  408074:	fa01 f202 	lsl.w	r2, r1, r2
  408078:	4313      	orrs	r3, r2
  40807a:	607b      	str	r3, [r7, #4]

0040807c <.LVL157>:
  40807c:	4662      	mov	r2, ip
  40807e:	e76e      	b.n	407f5e <.LVL109>

00408080 <.LVL158>:
  408080:	f240 5254 	movw	r2, #1364	; 0x554
  408084:	4293      	cmp	r3, r2
  408086:	d81e      	bhi.n	4080c6 <.LBE12>
  408088:	0cb3      	lsrs	r3, r6, #18
  40808a:	f103 007d 	add.w	r0, r3, #125	; 0x7d
  40808e:	f103 0e7c 	add.w	lr, r3, #124	; 0x7c
  408092:	00c3      	lsls	r3, r0, #3
  408094:	e5c4      	b.n	407c20 <.LVL4>

00408096 <.LVL159>:
  408096:	2a54      	cmp	r2, #84	; 0x54
  408098:	d828      	bhi.n	4080ec <.LBE13>
  40809a:	0b1a      	lsrs	r2, r3, #12
  40809c:	f102 016f 	add.w	r1, r2, #111	; 0x6f
  4080a0:	00c9      	lsls	r1, r1, #3
  4080a2:	326e      	adds	r2, #110	; 0x6e
  4080a4:	e748      	b.n	407f38 <.LVL103>

004080a6 <.LBB12>:
  4080a6:	4a20      	ldr	r2, [pc, #128]	; (408128 <.LVL171+0xa>)
  4080a8:	6811      	ldr	r1, [r2, #0]
  4080aa:	4441      	add	r1, r8
  4080ac:	6011      	str	r1, [r2, #0]
  4080ae:	e6b8      	b.n	407e22 <.LVL83>
  4080b0:	f01b 0f7f 	tst.w	fp, #127	; 0x7f
  4080b4:	f47f aeb5 	bne.w	407e22 <.LVL83>

004080b8 <.LVL161>:
  4080b8:	eb0a 0308 	add.w	r3, sl, r8

004080bc <.LVL162>:
  4080bc:	68ba      	ldr	r2, [r7, #8]
  4080be:	f043 0301 	orr.w	r3, r3, #1

004080c2 <.LVL163>:
  4080c2:	6053      	str	r3, [r2, #4]
  4080c4:	e6f5      	b.n	407eb2 <.LVL94>

004080c6 <.LBE12>:
  4080c6:	207f      	movs	r0, #127	; 0x7f
  4080c8:	f44f 737e 	mov.w	r3, #1016	; 0x3f8
  4080cc:	f04f 0e7e 	mov.w	lr, #126	; 0x7e
  4080d0:	e5a6      	b.n	407c20 <.LVL4>

004080d2 <.LBB13>:
  4080d2:	f104 0108 	add.w	r1, r4, #8
  4080d6:	4628      	mov	r0, r5
  4080d8:	9201      	str	r2, [sp, #4]
  4080da:	f001 fad1 	bl	409680 <.LFE174>

004080de <.LVL166>:
  4080de:	9a01      	ldr	r2, [sp, #4]
  4080e0:	6811      	ldr	r1, [r2, #0]
  4080e2:	e6e6      	b.n	407eb2 <.LVL94>

004080e4 <.LVL167>:
  4080e4:	2301      	movs	r3, #1

004080e6 <.LVL168>:
  4080e6:	f04f 0800 	mov.w	r8, #0
  4080ea:	e6c1      	b.n	407e70 <.LVL91>

004080ec <.LBE13>:
  4080ec:	f5b2 7faa 	cmp.w	r2, #340	; 0x154
  4080f0:	d805      	bhi.n	4080fe <.LBE13+0x12>
  4080f2:	0bda      	lsrs	r2, r3, #15
  4080f4:	f102 0178 	add.w	r1, r2, #120	; 0x78
  4080f8:	00c9      	lsls	r1, r1, #3
  4080fa:	3277      	adds	r2, #119	; 0x77
  4080fc:	e71c      	b.n	407f38 <.LVL103>
  4080fe:	f240 5154 	movw	r1, #1364	; 0x554
  408102:	428a      	cmp	r2, r1
  408104:	d805      	bhi.n	408112 <.LBE13+0x26>
  408106:	0c9a      	lsrs	r2, r3, #18
  408108:	f102 017d 	add.w	r1, r2, #125	; 0x7d
  40810c:	00c9      	lsls	r1, r1, #3
  40810e:	327c      	adds	r2, #124	; 0x7c
  408110:	e712      	b.n	407f38 <.LVL103>
  408112:	f44f 717e 	mov.w	r1, #1016	; 0x3f8
  408116:	227e      	movs	r2, #126	; 0x7e
  408118:	e70e      	b.n	407f38 <.LVL103>

0040811a <.LVL170>:
  40811a:	687b      	ldr	r3, [r7, #4]
  40811c:	e786      	b.n	40802c <.LVL142>

0040811e <.LVL171>:
  40811e:	08f0      	lsrs	r0, r6, #3
  408120:	f106 0308 	add.w	r3, r6, #8
  408124:	e608      	b.n	407d38 <.LVL49>
  408126:	bf00      	nop
  408128:	2040dc1c 	.word	0x2040dc1c

Disassembly of section .text._realloc_r%37:

0040812c <_realloc_r>:
  40812c:	2900      	cmp	r1, #0
  40812e:	f000 8095 	beq.w	40825c <.LCFI6>
  408132:	e92d 4ff0 	stmdb	sp!, {r4, r5, r6, r7, r8, r9, sl, fp, lr}

00408136 <.LCFI0>:
  408136:	460d      	mov	r5, r1
  408138:	4616      	mov	r6, r2
  40813a:	b083      	sub	sp, #12

0040813c <.LCFI1>:
  40813c:	4680      	mov	r8, r0
  40813e:	f106 070b 	add.w	r7, r6, #11
  408142:	f005 fc51 	bl	40d9e8 <__malloc_lock>

00408146 <.LVL1>:
  408146:	f855 ec04 	ldr.w	lr, [r5, #-4]
  40814a:	2f16      	cmp	r7, #22
  40814c:	f02e 0403 	bic.w	r4, lr, #3
  408150:	f1a5 0908 	sub.w	r9, r5, #8

00408154 <.LVL2>:
  408154:	d83c      	bhi.n	4081d0 <.LVL18>
  408156:	2210      	movs	r2, #16
  408158:	4617      	mov	r7, r2

0040815a <.LVL3>:
  40815a:	42be      	cmp	r6, r7
  40815c:	d83d      	bhi.n	4081da <.LVL19+0x6>
  40815e:	4294      	cmp	r4, r2
  408160:	da43      	bge.n	4081ea <.LCFI3>
  408162:	4bc4      	ldr	r3, [pc, #784]	; (408474 <.LVL142+0x2>)
  408164:	6899      	ldr	r1, [r3, #8]
  408166:	eb09 0004 	add.w	r0, r9, r4

0040816a <.LVL4>:
  40816a:	4288      	cmp	r0, r1
  40816c:	f000 80b4 	beq.w	4082d8 <.LVL65>
  408170:	6843      	ldr	r3, [r0, #4]
  408172:	f023 0101 	bic.w	r1, r3, #1
  408176:	4401      	add	r1, r0
  408178:	6849      	ldr	r1, [r1, #4]
  40817a:	07c9      	lsls	r1, r1, #31
  40817c:	d54c      	bpl.n	408218 <.LCFI5>

0040817e <.LVL5>:
  40817e:	f01e 0f01 	tst.w	lr, #1
  408182:	f000 809b 	beq.w	4082bc <.LBE12>

00408186 <.LVL6>:
  408186:	4631      	mov	r1, r6
  408188:	4640      	mov	r0, r8
  40818a:	f7ff fd27 	bl	407bdc <.LFE14>

0040818e <.LVL7>:
  40818e:	4606      	mov	r6, r0

00408190 <.LVL8>:
  408190:	2800      	cmp	r0, #0
  408192:	d03a      	beq.n	40820a <.LVL26>

00408194 <.LVL9>:
  408194:	f855 3c04 	ldr.w	r3, [r5, #-4]
  408198:	f023 0301 	bic.w	r3, r3, #1
  40819c:	444b      	add	r3, r9
  40819e:	f1a0 0208 	sub.w	r2, r0, #8

004081a2 <.LVL10>:
  4081a2:	429a      	cmp	r2, r3
  4081a4:	f000 8121 	beq.w	4083ea <.LBE24>

004081a8 <.LBB2>:
  4081a8:	1f22      	subs	r2, r4, #4

004081aa <.LVL11>:
  4081aa:	2a24      	cmp	r2, #36	; 0x24
  4081ac:	f200 8107 	bhi.w	4083be <.LBB21>

004081b0 <.LBB3>:
  4081b0:	2a13      	cmp	r2, #19
  4081b2:	f200 80db 	bhi.w	40836c <.LBB18>
  4081b6:	4603      	mov	r3, r0
  4081b8:	462a      	mov	r2, r5

004081ba <.LVL13>:
  4081ba:	6811      	ldr	r1, [r2, #0]
  4081bc:	6019      	str	r1, [r3, #0]

004081be <.LVL14>:
  4081be:	6851      	ldr	r1, [r2, #4]
  4081c0:	6059      	str	r1, [r3, #4]
  4081c2:	6892      	ldr	r2, [r2, #8]

004081c4 <.LVL15>:
  4081c4:	609a      	str	r2, [r3, #8]

004081c6 <.LBE2>:
  4081c6:	4629      	mov	r1, r5
  4081c8:	4640      	mov	r0, r8
  4081ca:	f001 fa59 	bl	409680 <.LFE174>

004081ce <.LVL17>:
  4081ce:	e01c      	b.n	40820a <.LVL26>

004081d0 <.LVL18>:
  4081d0:	f027 0707 	bic.w	r7, r7, #7

004081d4 <.LVL19>:
  4081d4:	2f00      	cmp	r7, #0
  4081d6:	463a      	mov	r2, r7
  4081d8:	dabf      	bge.n	40815a <.LVL3>
  4081da:	2600      	movs	r6, #0

004081dc <.LVL20>:
  4081dc:	230c      	movs	r3, #12
  4081de:	4630      	mov	r0, r6
  4081e0:	f8c8 3000 	str.w	r3, [r8]
  4081e4:	b003      	add	sp, #12

004081e6 <.LCFI2>:
  4081e6:	e8bd 8ff0 	ldmia.w	sp!, {r4, r5, r6, r7, r8, r9, sl, fp, pc}

004081ea <.LCFI3>:
  4081ea:	462e      	mov	r6, r5

004081ec <.L11>:
  4081ec:	1be3      	subs	r3, r4, r7

004081ee <.LVL23>:
  4081ee:	2b0f      	cmp	r3, #15
  4081f0:	d81e      	bhi.n	408230 <.LVL35>
  4081f2:	f8d9 3004 	ldr.w	r3, [r9, #4]

004081f6 <.LVL24>:
  4081f6:	f003 0301 	and.w	r3, r3, #1
  4081fa:	4323      	orrs	r3, r4
  4081fc:	444c      	add	r4, r9

004081fe <.LVL25>:
  4081fe:	f8c9 3004 	str.w	r3, [r9, #4]
  408202:	6863      	ldr	r3, [r4, #4]
  408204:	f043 0301 	orr.w	r3, r3, #1
  408208:	6063      	str	r3, [r4, #4]

0040820a <.LVL26>:
  40820a:	4640      	mov	r0, r8
  40820c:	f005 fbee 	bl	40d9ec <__malloc_unlock>

00408210 <.LVL27>:
  408210:	4630      	mov	r0, r6
  408212:	b003      	add	sp, #12

00408214 <.LCFI4>:
  408214:	e8bd 8ff0 	ldmia.w	sp!, {r4, r5, r6, r7, r8, r9, sl, fp, pc}

00408218 <.LCFI5>:
  408218:	f023 0303 	bic.w	r3, r3, #3

0040821c <.LVL29>:
  40821c:	18e1      	adds	r1, r4, r3
  40821e:	4291      	cmp	r1, r2
  408220:	db1f      	blt.n	408262 <.LCFI7>
  408222:	68c3      	ldr	r3, [r0, #12]

00408224 <.LVL30>:
  408224:	6882      	ldr	r2, [r0, #8]

00408226 <.LVL31>:
  408226:	462e      	mov	r6, r5

00408228 <.LVL32>:
  408228:	60d3      	str	r3, [r2, #12]
  40822a:	460c      	mov	r4, r1

0040822c <.LVL33>:
  40822c:	609a      	str	r2, [r3, #8]

0040822e <.LVL34>:
  40822e:	e7dd      	b.n	4081ec <.L11>

00408230 <.LVL35>:
  408230:	f8d9 2004 	ldr.w	r2, [r9, #4]
  408234:	eb09 0107 	add.w	r1, r9, r7

00408238 <.LVL36>:
  408238:	f002 0201 	and.w	r2, r2, #1
  40823c:	444c      	add	r4, r9

0040823e <.LVL37>:
  40823e:	f043 0301 	orr.w	r3, r3, #1

00408242 <.LVL38>:
  408242:	4317      	orrs	r7, r2

00408244 <.LVL39>:
  408244:	f8c9 7004 	str.w	r7, [r9, #4]
  408248:	604b      	str	r3, [r1, #4]
  40824a:	6863      	ldr	r3, [r4, #4]
  40824c:	f043 0301 	orr.w	r3, r3, #1
  408250:	3108      	adds	r1, #8

00408252 <.LVL40>:
  408252:	6063      	str	r3, [r4, #4]
  408254:	4640      	mov	r0, r8
  408256:	f001 fa13 	bl	409680 <.LFE174>

0040825a <.LVL41>:
  40825a:	e7d6      	b.n	40820a <.LVL26>

0040825c <.LCFI6>:
  40825c:	4611      	mov	r1, r2

0040825e <.LVL43>:
  40825e:	f7ff bcbd 	b.w	407bdc <.LFE14>

00408262 <.LCFI7>:
  408262:	f01e 0f01 	tst.w	lr, #1
  408266:	d18e      	bne.n	408186 <.LVL6>
  408268:	f855 1c08 	ldr.w	r1, [r5, #-8]
  40826c:	eba9 0a01 	sub.w	sl, r9, r1

00408270 <.LVL45>:
  408270:	f8da 1004 	ldr.w	r1, [sl, #4]
  408274:	f021 0103 	bic.w	r1, r1, #3

00408278 <.LVL46>:
  408278:	440b      	add	r3, r1

0040827a <.LVL47>:
  40827a:	4423      	add	r3, r4
  40827c:	4293      	cmp	r3, r2
  40827e:	db25      	blt.n	4082cc <.LVL63>
  408280:	68c2      	ldr	r2, [r0, #12]

00408282 <.LVL48>:
  408282:	6881      	ldr	r1, [r0, #8]

00408284 <.LVL49>:
  408284:	4656      	mov	r6, sl

00408286 <.LVL50>:
  408286:	60ca      	str	r2, [r1, #12]
  408288:	6091      	str	r1, [r2, #8]

0040828a <.LVL51>:
  40828a:	f8da 100c 	ldr.w	r1, [sl, #12]

0040828e <.LVL52>:
  40828e:	f856 0f08 	ldr.w	r0, [r6, #8]!

00408292 <.LBB7>:
  408292:	1f22      	subs	r2, r4, #4
  408294:	2a24      	cmp	r2, #36	; 0x24

00408296 <.LBE7>:
  408296:	60c1      	str	r1, [r0, #12]
  408298:	6088      	str	r0, [r1, #8]

0040829a <.LBB12>:
  40829a:	f200 8094 	bhi.w	4083c6 <.LBB22>

0040829e <.LBB8>:
  40829e:	2a13      	cmp	r2, #19
  4082a0:	d96f      	bls.n	408382 <.LBB19>

004082a2 <.LVL56>:
  4082a2:	6829      	ldr	r1, [r5, #0]

004082a4 <.LVL57>:
  4082a4:	f8ca 1008 	str.w	r1, [sl, #8]

004082a8 <.LVL58>:
  4082a8:	6869      	ldr	r1, [r5, #4]
  4082aa:	f8ca 100c 	str.w	r1, [sl, #12]
  4082ae:	2a1b      	cmp	r2, #27
  4082b0:	f200 80a2 	bhi.w	4083f8 <.LBB10>
  4082b4:	3508      	adds	r5, #8

004082b6 <.LVL59>:
  4082b6:	f10a 0210 	add.w	r2, sl, #16

004082ba <.LVL60>:
  4082ba:	e063      	b.n	408384 <.LVL92>

004082bc <.LBE12>:
  4082bc:	f855 3c08 	ldr.w	r3, [r5, #-8]
  4082c0:	eba9 0a03 	sub.w	sl, r9, r3

004082c4 <.LVL62>:
  4082c4:	f8da 1004 	ldr.w	r1, [sl, #4]
  4082c8:	f021 0103 	bic.w	r1, r1, #3

004082cc <.LVL63>:
  4082cc:	1863      	adds	r3, r4, r1
  4082ce:	4293      	cmp	r3, r2
  4082d0:	f6ff af59 	blt.w	408186 <.LVL6>
  4082d4:	4656      	mov	r6, sl

004082d6 <.LVL64>:
  4082d6:	e7d8      	b.n	40828a <.LVL51>

004082d8 <.LVL65>:
  4082d8:	6841      	ldr	r1, [r0, #4]
  4082da:	f021 0b03 	bic.w	fp, r1, #3

004082de <.LVL66>:
  4082de:	44a3      	add	fp, r4

004082e0 <.LVL67>:
  4082e0:	f107 0010 	add.w	r0, r7, #16

004082e4 <.LVL68>:
  4082e4:	4583      	cmp	fp, r0
  4082e6:	da56      	bge.n	408396 <.LBE20>

004082e8 <.LVL69>:
  4082e8:	f01e 0f01 	tst.w	lr, #1
  4082ec:	f47f af4b 	bne.w	408186 <.LVL6>
  4082f0:	f855 1c08 	ldr.w	r1, [r5, #-8]

004082f4 <.LVL70>:
  4082f4:	eba9 0a01 	sub.w	sl, r9, r1

004082f8 <.LVL71>:
  4082f8:	f8da 1004 	ldr.w	r1, [sl, #4]
  4082fc:	f021 0103 	bic.w	r1, r1, #3

00408300 <.LVL72>:
  408300:	448b      	add	fp, r1
  408302:	4558      	cmp	r0, fp
  408304:	dce2      	bgt.n	4082cc <.LVL63>
  408306:	4656      	mov	r6, sl

00408308 <.LVL73>:
  408308:	f8da 100c 	ldr.w	r1, [sl, #12]

0040830c <.LVL74>:
  40830c:	f856 0f08 	ldr.w	r0, [r6, #8]!

00408310 <.LBB13>:
  408310:	1f22      	subs	r2, r4, #4
  408312:	2a24      	cmp	r2, #36	; 0x24

00408314 <.LBE13>:
  408314:	60c1      	str	r1, [r0, #12]
  408316:	6088      	str	r0, [r1, #8]

00408318 <.LBB17>:
  408318:	f200 808f 	bhi.w	40843a <.LBE15>

0040831c <.LBB14>:
  40831c:	2a13      	cmp	r2, #19
  40831e:	f240 808a 	bls.w	408436 <.LBB15>

00408322 <.LVL78>:
  408322:	6829      	ldr	r1, [r5, #0]

00408324 <.LVL79>:
  408324:	f8ca 1008 	str.w	r1, [sl, #8]

00408328 <.LVL80>:
  408328:	6869      	ldr	r1, [r5, #4]
  40832a:	f8ca 100c 	str.w	r1, [sl, #12]
  40832e:	2a1b      	cmp	r2, #27
  408330:	f200 808a 	bhi.w	408448 <.LBB16>
  408334:	3508      	adds	r5, #8

00408336 <.LVL81>:
  408336:	f10a 0210 	add.w	r2, sl, #16

0040833a <.LVL82>:
  40833a:	6829      	ldr	r1, [r5, #0]
  40833c:	6011      	str	r1, [r2, #0]

0040833e <.LVL83>:
  40833e:	6869      	ldr	r1, [r5, #4]
  408340:	6051      	str	r1, [r2, #4]
  408342:	68a9      	ldr	r1, [r5, #8]
  408344:	6091      	str	r1, [r2, #8]

00408346 <.LBE14>:
  408346:	eb0a 0107 	add.w	r1, sl, r7
  40834a:	ebab 0207 	sub.w	r2, fp, r7
  40834e:	f042 0201 	orr.w	r2, r2, #1
  408352:	6099      	str	r1, [r3, #8]
  408354:	604a      	str	r2, [r1, #4]
  408356:	f8da 3004 	ldr.w	r3, [sl, #4]
  40835a:	f003 0301 	and.w	r3, r3, #1
  40835e:	431f      	orrs	r7, r3

00408360 <.LVL85>:
  408360:	4640      	mov	r0, r8
  408362:	f8ca 7004 	str.w	r7, [sl, #4]
  408366:	f005 fb41 	bl	40d9ec <__malloc_unlock>

0040836a <.LVL86>:
  40836a:	e751      	b.n	408210 <.LVL27>

0040836c <.LBB18>:
  40836c:	682b      	ldr	r3, [r5, #0]
  40836e:	6003      	str	r3, [r0, #0]

00408370 <.LVL88>:
  408370:	686b      	ldr	r3, [r5, #4]
  408372:	6043      	str	r3, [r0, #4]
  408374:	2a1b      	cmp	r2, #27
  408376:	d82d      	bhi.n	4083d4 <.LBB24>
  408378:	f100 0308 	add.w	r3, r0, #8

0040837c <.LVL89>:
  40837c:	f105 0208 	add.w	r2, r5, #8

00408380 <.LVL90>:
  408380:	e71b      	b.n	4081ba <.LVL13>

00408382 <.LBB19>:
  408382:	4632      	mov	r2, r6

00408384 <.LVL92>:
  408384:	6829      	ldr	r1, [r5, #0]
  408386:	6011      	str	r1, [r2, #0]

00408388 <.LVL93>:
  408388:	6869      	ldr	r1, [r5, #4]
  40838a:	6051      	str	r1, [r2, #4]
  40838c:	68a9      	ldr	r1, [r5, #8]
  40838e:	6091      	str	r1, [r2, #8]

00408390 <.LBE19>:
  408390:	461c      	mov	r4, r3

00408392 <.LBB20>:
  408392:	46d1      	mov	r9, sl

00408394 <.LVL95>:
  408394:	e72a      	b.n	4081ec <.L11>

00408396 <.LBE20>:
  408396:	eb09 0107 	add.w	r1, r9, r7

0040839a <.LVL97>:
  40839a:	ebab 0b07 	sub.w	fp, fp, r7

0040839e <.LVL98>:
  40839e:	f04b 0201 	orr.w	r2, fp, #1
  4083a2:	6099      	str	r1, [r3, #8]
  4083a4:	604a      	str	r2, [r1, #4]

004083a6 <.LVL99>:
  4083a6:	f855 3c04 	ldr.w	r3, [r5, #-4]
  4083aa:	f003 0301 	and.w	r3, r3, #1
  4083ae:	431f      	orrs	r7, r3

004083b0 <.LVL100>:
  4083b0:	4640      	mov	r0, r8

004083b2 <.LVL101>:
  4083b2:	f845 7c04 	str.w	r7, [r5, #-4]
  4083b6:	f005 fb19 	bl	40d9ec <__malloc_unlock>

004083ba <.LVL102>:
  4083ba:	462e      	mov	r6, r5

004083bc <.LVL103>:
  4083bc:	e728      	b.n	408210 <.LVL27>

004083be <.LBB21>:
  4083be:	4629      	mov	r1, r5
  4083c0:	f002 fe14 	bl	40afec <.LBE12>

004083c4 <.LVL105>:
  4083c4:	e6ff      	b.n	4081c6 <.LBE2>

004083c6 <.LBB22>:
  4083c6:	4629      	mov	r1, r5

004083c8 <.LVL107>:
  4083c8:	4630      	mov	r0, r6

004083ca <.LBE22>:
  4083ca:	461c      	mov	r4, r3

004083cc <.LBB23>:
  4083cc:	46d1      	mov	r9, sl

004083ce <.LVL110>:
  4083ce:	f002 fe0d 	bl	40afec <.LBE12>

004083d2 <.LVL111>:
  4083d2:	e70b      	b.n	4081ec <.L11>

004083d4 <.LBB24>:
  4083d4:	68ab      	ldr	r3, [r5, #8]
  4083d6:	6083      	str	r3, [r0, #8]

004083d8 <.LVL113>:
  4083d8:	68eb      	ldr	r3, [r5, #12]
  4083da:	60c3      	str	r3, [r0, #12]
  4083dc:	2a24      	cmp	r2, #36	; 0x24
  4083de:	d017      	beq.n	408410 <.LBB26>
  4083e0:	f100 0310 	add.w	r3, r0, #16

004083e4 <.LVL114>:
  4083e4:	f105 0210 	add.w	r2, r5, #16

004083e8 <.LVL115>:
  4083e8:	e6e7      	b.n	4081ba <.LVL13>

004083ea <.LBE24>:
  4083ea:	f850 3c04 	ldr.w	r3, [r0, #-4]
  4083ee:	f023 0303 	bic.w	r3, r3, #3
  4083f2:	441c      	add	r4, r3

004083f4 <.LVL117>:
  4083f4:	462e      	mov	r6, r5
  4083f6:	e6f9      	b.n	4081ec <.L11>

004083f8 <.LBB10>:
  4083f8:	68a9      	ldr	r1, [r5, #8]
  4083fa:	f8ca 1010 	str.w	r1, [sl, #16]

004083fe <.LVL119>:
  4083fe:	68e9      	ldr	r1, [r5, #12]
  408400:	f8ca 1014 	str.w	r1, [sl, #20]
  408404:	2a24      	cmp	r2, #36	; 0x24
  408406:	d00c      	beq.n	408422 <.LBB11>
  408408:	3510      	adds	r5, #16

0040840a <.LVL120>:
  40840a:	f10a 0218 	add.w	r2, sl, #24

0040840e <.LVL121>:
  40840e:	e7b9      	b.n	408384 <.LVL92>

00408410 <.LBB26>:
  408410:	692b      	ldr	r3, [r5, #16]
  408412:	6103      	str	r3, [r0, #16]
  408414:	696b      	ldr	r3, [r5, #20]
  408416:	6143      	str	r3, [r0, #20]
  408418:	f105 0218 	add.w	r2, r5, #24

0040841c <.LVL123>:
  40841c:	f100 0318 	add.w	r3, r0, #24

00408420 <.LVL124>:
  408420:	e6cb      	b.n	4081ba <.LVL13>

00408422 <.LBB11>:
  408422:	692a      	ldr	r2, [r5, #16]

00408424 <.LVL126>:
  408424:	f8ca 2018 	str.w	r2, [sl, #24]
  408428:	696a      	ldr	r2, [r5, #20]
  40842a:	f8ca 201c 	str.w	r2, [sl, #28]
  40842e:	3518      	adds	r5, #24

00408430 <.LVL127>:
  408430:	f10a 0220 	add.w	r2, sl, #32

00408434 <.LVL128>:
  408434:	e7a6      	b.n	408384 <.LVL92>

00408436 <.LBB15>:
  408436:	4632      	mov	r2, r6

00408438 <.LVL130>:
  408438:	e77f      	b.n	40833a <.LVL82>

0040843a <.LBE15>:
  40843a:	4629      	mov	r1, r5

0040843c <.LVL132>:
  40843c:	4630      	mov	r0, r6

0040843e <.LVL133>:
  40843e:	9301      	str	r3, [sp, #4]
  408440:	f002 fdd4 	bl	40afec <.LBE12>

00408444 <.LVL134>:
  408444:	9b01      	ldr	r3, [sp, #4]
  408446:	e77e      	b.n	408346 <.LBE14>

00408448 <.LBB16>:
  408448:	68a9      	ldr	r1, [r5, #8]
  40844a:	f8ca 1010 	str.w	r1, [sl, #16]

0040844e <.LVL136>:
  40844e:	68e9      	ldr	r1, [r5, #12]
  408450:	f8ca 1014 	str.w	r1, [sl, #20]
  408454:	2a24      	cmp	r2, #36	; 0x24
  408456:	d003      	beq.n	408460 <.LVL139>
  408458:	3510      	adds	r5, #16

0040845a <.LVL137>:
  40845a:	f10a 0218 	add.w	r2, sl, #24

0040845e <.LVL138>:
  40845e:	e76c      	b.n	40833a <.LVL82>

00408460 <.LVL139>:
  408460:	692a      	ldr	r2, [r5, #16]

00408462 <.LVL140>:
  408462:	f8ca 2018 	str.w	r2, [sl, #24]
  408466:	696a      	ldr	r2, [r5, #20]
  408468:	f8ca 201c 	str.w	r2, [sl, #28]
  40846c:	3518      	adds	r5, #24

0040846e <.LVL141>:
  40846e:	f10a 0220 	add.w	r2, sl, #32

00408472 <.LVL142>:
  408472:	e762      	b.n	40833a <.LVL82>
  408474:	2040d0b0 	.word	0x2040d0b0

Disassembly of section .text.__sfvwrite_r%38:

00408478 <__sfvwrite_r>:
  408478:	6893      	ldr	r3, [r2, #8]
  40847a:	2b00      	cmp	r3, #0
  40847c:	d073      	beq.n	408566 <.LCFI4>
  40847e:	e92d 4ff0 	stmdb	sp!, {r4, r5, r6, r7, r8, r9, sl, fp, lr}

00408482 <.LCFI0>:
  408482:	898b      	ldrh	r3, [r1, #12]
  408484:	b083      	sub	sp, #12

00408486 <.LCFI1>:
  408486:	460c      	mov	r4, r1
  408488:	0719      	lsls	r1, r3, #28

0040848a <.LVL1>:
  40848a:	9000      	str	r0, [sp, #0]
  40848c:	4616      	mov	r6, r2
  40848e:	d526      	bpl.n	4084de <.LCFI3>
  408490:	6922      	ldr	r2, [r4, #16]

00408492 <.LVL2>:
  408492:	b322      	cbz	r2, 4084de <.LCFI3>
  408494:	f013 0002 	ands.w	r0, r3, #2

00408498 <.LVL3>:
  408498:	6835      	ldr	r5, [r6, #0]

0040849a <.LVL4>:
  40849a:	d02c      	beq.n	4084f6 <.LVL15+0x6>
  40849c:	f04f 0900 	mov.w	r9, #0
  4084a0:	4fb0      	ldr	r7, [pc, #704]	; (408764 <.LBB4+0xc>)
  4084a2:	46c8      	mov	r8, r9
  4084a4:	46b2      	mov	sl, r6

004084a6 <.LVL5>:
  4084a6:	45b8      	cmp	r8, r7
  4084a8:	4643      	mov	r3, r8
  4084aa:	464a      	mov	r2, r9
  4084ac:	bf28      	it	cs
  4084ae:	463b      	movcs	r3, r7
  4084b0:	9800      	ldr	r0, [sp, #0]
  4084b2:	f1b8 0f00 	cmp.w	r8, #0
  4084b6:	d050      	beq.n	40855a <.LVL25>
  4084b8:	69e1      	ldr	r1, [r4, #28]
  4084ba:	6a66      	ldr	r6, [r4, #36]	; 0x24
  4084bc:	47b0      	blx	r6

004084be <.LVL6>:
  4084be:	2800      	cmp	r0, #0

004084c0 <.LVL7>:
  4084c0:	dd58      	ble.n	408574 <.LVL32>
  4084c2:	f8da 3008 	ldr.w	r3, [sl, #8]
  4084c6:	1a1b      	subs	r3, r3, r0
  4084c8:	4481      	add	r9, r0

004084ca <.LVL8>:
  4084ca:	eba8 0800 	sub.w	r8, r8, r0
  4084ce:	f8ca 3008 	str.w	r3, [sl, #8]
  4084d2:	2b00      	cmp	r3, #0
  4084d4:	d1e7      	bne.n	4084a6 <.LVL5>

004084d6 <.LVL10>:
  4084d6:	2000      	movs	r0, #0
  4084d8:	b003      	add	sp, #12

004084da <.LCFI2>:
  4084da:	e8bd 8ff0 	ldmia.w	sp!, {r4, r5, r6, r7, r8, r9, sl, fp, pc}

004084de <.LCFI3>:
  4084de:	4621      	mov	r1, r4
  4084e0:	9800      	ldr	r0, [sp, #0]

004084e2 <.LVL13>:
  4084e2:	f002 fde7 	bl	40b0b4 <__swsetup_r>

004084e6 <.LVL14>:
  4084e6:	2800      	cmp	r0, #0
  4084e8:	f040 8133 	bne.w	408752 <.LVL91>
  4084ec:	89a3      	ldrh	r3, [r4, #12]
  4084ee:	6835      	ldr	r5, [r6, #0]

004084f0 <.LVL15>:
  4084f0:	f013 0002 	ands.w	r0, r3, #2
  4084f4:	d1d2      	bne.n	40849c <.LVL4+0x2>
  4084f6:	f013 0901 	ands.w	r9, r3, #1
  4084fa:	d145      	bne.n	408588 <.LCFI7>
  4084fc:	464f      	mov	r7, r9
  4084fe:	9601      	str	r6, [sp, #4]

00408500 <.LVL16>:
  408500:	b337      	cbz	r7, 408550 <.LVL22>
  408502:	059a      	lsls	r2, r3, #22
  408504:	f8d4 8008 	ldr.w	r8, [r4, #8]

00408508 <.LVL17>:
  408508:	f140 8083 	bpl.w	408612 <.LVL57>
  40850c:	4547      	cmp	r7, r8
  40850e:	46c3      	mov	fp, r8
  408510:	f0c0 80ab 	bcc.w	40866a <.LVL63>
  408514:	f413 6f90 	tst.w	r3, #1152	; 0x480
  408518:	f040 80ac 	bne.w	408674 <.LBB2>
  40851c:	6820      	ldr	r0, [r4, #0]
  40851e:	46ba      	mov	sl, r7
  408520:	465a      	mov	r2, fp
  408522:	4649      	mov	r1, r9
  408524:	f002 fd62 	bl	40afec <.LBE12>

00408528 <.LVL18>:
  408528:	68a2      	ldr	r2, [r4, #8]
  40852a:	6823      	ldr	r3, [r4, #0]
  40852c:	eba2 0208 	sub.w	r2, r2, r8
  408530:	445b      	add	r3, fp
  408532:	60a2      	str	r2, [r4, #8]
  408534:	6023      	str	r3, [r4, #0]

00408536 <.LVL19>:
  408536:	9a01      	ldr	r2, [sp, #4]
  408538:	6893      	ldr	r3, [r2, #8]
  40853a:	eba3 030a 	sub.w	r3, r3, sl
  40853e:	44d1      	add	r9, sl

00408540 <.LVL20>:
  408540:	eba7 070a 	sub.w	r7, r7, sl
  408544:	6093      	str	r3, [r2, #8]
  408546:	2b00      	cmp	r3, #0
  408548:	d0c5      	beq.n	4084d6 <.LVL10>
  40854a:	89a3      	ldrh	r3, [r4, #12]
  40854c:	2f00      	cmp	r7, #0
  40854e:	d1d8      	bne.n	408502 <.LVL16+0x2>

00408550 <.LVL22>:
  408550:	f8d5 9000 	ldr.w	r9, [r5]
  408554:	686f      	ldr	r7, [r5, #4]

00408556 <.LVL23>:
  408556:	3508      	adds	r5, #8

00408558 <.LVL24>:
  408558:	e7d2      	b.n	408500 <.LVL16>

0040855a <.LVL25>:
  40855a:	f8d5 9000 	ldr.w	r9, [r5]
  40855e:	f8d5 8004 	ldr.w	r8, [r5, #4]
  408562:	3508      	adds	r5, #8

00408564 <.LVL27>:
  408564:	e79f      	b.n	4084a6 <.LVL5>

00408566 <.LCFI4>:
  408566:	2000      	movs	r0, #0

00408568 <.LVL29>:
  408568:	4770      	bx	lr

0040856a <.LCFI5>:
  40856a:	4621      	mov	r1, r4
  40856c:	9800      	ldr	r0, [sp, #0]
  40856e:	f004 fe2b 	bl	40d1c8 <_fflush_r>

00408572 <.LVL31>:
  408572:	b370      	cbz	r0, 4085d2 <.LVL47>

00408574 <.LVL32>:
  408574:	f9b4 300c 	ldrsh.w	r3, [r4, #12]

00408578 <.L22>:
  408578:	f043 0340 	orr.w	r3, r3, #64	; 0x40
  40857c:	f04f 30ff 	mov.w	r0, #4294967295
  408580:	81a3      	strh	r3, [r4, #12]
  408582:	b003      	add	sp, #12

00408584 <.LCFI6>:
  408584:	e8bd 8ff0 	ldmia.w	sp!, {r4, r5, r6, r7, r8, r9, sl, fp, pc}

00408588 <.LCFI7>:
  408588:	4681      	mov	r9, r0

0040858a <.LVL35>:
  40858a:	4633      	mov	r3, r6
  40858c:	464e      	mov	r6, r9

0040858e <.LVL36>:
  40858e:	46a8      	mov	r8, r5

00408590 <.LVL37>:
  408590:	469a      	mov	sl, r3
  408592:	464d      	mov	r5, r9
  408594:	b34e      	cbz	r6, 4085ea <.LVL50>

00408596 <.LVL38>:
  408596:	b380      	cbz	r0, 4085fa <.LVL54>

00408598 <.LVL39>:
  408598:	6820      	ldr	r0, [r4, #0]
  40859a:	6923      	ldr	r3, [r4, #16]
  40859c:	6962      	ldr	r2, [r4, #20]
  40859e:	45b1      	cmp	r9, r6
  4085a0:	46cb      	mov	fp, r9
  4085a2:	bf28      	it	cs
  4085a4:	46b3      	movcs	fp, r6
  4085a6:	4298      	cmp	r0, r3
  4085a8:	465f      	mov	r7, fp

004085aa <.LVL40>:
  4085aa:	d904      	bls.n	4085b6 <.LVL41>
  4085ac:	68a3      	ldr	r3, [r4, #8]
  4085ae:	4413      	add	r3, r2
  4085b0:	459b      	cmp	fp, r3
  4085b2:	f300 80a6 	bgt.w	408702 <.LVL79>

004085b6 <.LVL41>:
  4085b6:	4593      	cmp	fp, r2
  4085b8:	db4b      	blt.n	408652 <.LVL61>
  4085ba:	4613      	mov	r3, r2
  4085bc:	6a67      	ldr	r7, [r4, #36]	; 0x24

004085be <.LVL42>:
  4085be:	69e1      	ldr	r1, [r4, #28]
  4085c0:	9800      	ldr	r0, [sp, #0]
  4085c2:	462a      	mov	r2, r5

004085c4 <.LVL43>:
  4085c4:	47b8      	blx	r7

004085c6 <.LVL44>:
  4085c6:	1e07      	subs	r7, r0, #0
  4085c8:	ddd4      	ble.n	408574 <.LVL32>

004085ca <.LVL45>:
  4085ca:	ebb9 0907 	subs.w	r9, r9, r7

004085ce <.LVL46>:
  4085ce:	d0cc      	beq.n	40856a <.LCFI5>
  4085d0:	2001      	movs	r0, #1

004085d2 <.LVL47>:
  4085d2:	f8da 3008 	ldr.w	r3, [sl, #8]
  4085d6:	1bdb      	subs	r3, r3, r7
  4085d8:	443d      	add	r5, r7

004085da <.LVL48>:
  4085da:	1bf6      	subs	r6, r6, r7
  4085dc:	f8ca 3008 	str.w	r3, [sl, #8]
  4085e0:	2b00      	cmp	r3, #0
  4085e2:	f43f af78 	beq.w	4084d6 <.LVL10>
  4085e6:	2e00      	cmp	r6, #0
  4085e8:	d1d5      	bne.n	408596 <.LVL38>

004085ea <.LVL50>:
  4085ea:	f108 0308 	add.w	r3, r8, #8

004085ee <.LVL51>:
  4085ee:	e913 0060 	ldmdb	r3, {r5, r6}
  4085f2:	4698      	mov	r8, r3

004085f4 <.LVL52>:
  4085f4:	3308      	adds	r3, #8

004085f6 <.LVL53>:
  4085f6:	2e00      	cmp	r6, #0
  4085f8:	d0f9      	beq.n	4085ee <.LVL51>

004085fa <.LVL54>:
  4085fa:	4632      	mov	r2, r6
  4085fc:	210a      	movs	r1, #10
  4085fe:	4628      	mov	r0, r5
  408600:	f003 f896 	bl	40b730 <.LFE0>

00408604 <.LVL55>:
  408604:	2800      	cmp	r0, #0
  408606:	f000 80a1 	beq.w	40874c <.LBE3>
  40860a:	3001      	adds	r0, #1

0040860c <.LVL56>:
  40860c:	eba0 0905 	sub.w	r9, r0, r5
  408610:	e7c2      	b.n	408598 <.LVL39>

00408612 <.LVL57>:
  408612:	6820      	ldr	r0, [r4, #0]
  408614:	6923      	ldr	r3, [r4, #16]
  408616:	4298      	cmp	r0, r3
  408618:	d802      	bhi.n	408620 <.LVL57+0xe>
  40861a:	6963      	ldr	r3, [r4, #20]
  40861c:	429f      	cmp	r7, r3
  40861e:	d25d      	bcs.n	4086dc <.LVL75>
  408620:	45b8      	cmp	r8, r7
  408622:	bf28      	it	cs
  408624:	46b8      	movcs	r8, r7
  408626:	4642      	mov	r2, r8
  408628:	4649      	mov	r1, r9
  40862a:	f002 fcdf 	bl	40afec <.LBE12>

0040862e <.LVL59>:
  40862e:	68a3      	ldr	r3, [r4, #8]
  408630:	6822      	ldr	r2, [r4, #0]
  408632:	eba3 0308 	sub.w	r3, r3, r8
  408636:	4442      	add	r2, r8
  408638:	60a3      	str	r3, [r4, #8]
  40863a:	6022      	str	r2, [r4, #0]
  40863c:	b10b      	cbz	r3, 408642 <.LVL59+0x14>
  40863e:	46c2      	mov	sl, r8
  408640:	e779      	b.n	408536 <.LVL19>
  408642:	4621      	mov	r1, r4
  408644:	9800      	ldr	r0, [sp, #0]
  408646:	f004 fdbf 	bl	40d1c8 <_fflush_r>

0040864a <.LVL60>:
  40864a:	2800      	cmp	r0, #0
  40864c:	d192      	bne.n	408574 <.LVL32>
  40864e:	46c2      	mov	sl, r8
  408650:	e771      	b.n	408536 <.LVL19>

00408652 <.LVL61>:
  408652:	465a      	mov	r2, fp
  408654:	4629      	mov	r1, r5
  408656:	f002 fcc9 	bl	40afec <.LBE12>

0040865a <.LVL62>:
  40865a:	68a2      	ldr	r2, [r4, #8]
  40865c:	6823      	ldr	r3, [r4, #0]
  40865e:	eba2 020b 	sub.w	r2, r2, fp
  408662:	445b      	add	r3, fp
  408664:	60a2      	str	r2, [r4, #8]
  408666:	6023      	str	r3, [r4, #0]
  408668:	e7af      	b.n	4085ca <.LVL45>

0040866a <.LVL63>:
  40866a:	6820      	ldr	r0, [r4, #0]
  40866c:	46b8      	mov	r8, r7

0040866e <.LVL64>:
  40866e:	46ba      	mov	sl, r7
  408670:	46bb      	mov	fp, r7
  408672:	e755      	b.n	408520 <.LVL17+0x18>

00408674 <.LBB2>:
  408674:	6962      	ldr	r2, [r4, #20]
  408676:	6820      	ldr	r0, [r4, #0]
  408678:	6921      	ldr	r1, [r4, #16]
  40867a:	eb02 0842 	add.w	r8, r2, r2, lsl #1

0040867e <.LVL65>:
  40867e:	eba0 0a01 	sub.w	sl, r0, r1

00408682 <.LVL66>:
  408682:	eb08 78d8 	add.w	r8, r8, r8, lsr #31
  408686:	f10a 0001 	add.w	r0, sl, #1
  40868a:	ea4f 0868 	mov.w	r8, r8, asr #1

0040868e <.LVL67>:
  40868e:	4438      	add	r0, r7
  408690:	4540      	cmp	r0, r8
  408692:	4642      	mov	r2, r8
  408694:	bf84      	itt	hi
  408696:	4680      	movhi	r8, r0
  408698:	4642      	movhi	r2, r8
  40869a:	055b      	lsls	r3, r3, #21
  40869c:	d544      	bpl.n	408728 <.LBB3>
  40869e:	4611      	mov	r1, r2
  4086a0:	9800      	ldr	r0, [sp, #0]
  4086a2:	f7ff fa9b 	bl	407bdc <.LFE14>

004086a6 <.LVL69>:
  4086a6:	4683      	mov	fp, r0

004086a8 <.LVL70>:
  4086a8:	2800      	cmp	r0, #0
  4086aa:	d055      	beq.n	408758 <.LBB4>
  4086ac:	4652      	mov	r2, sl
  4086ae:	6921      	ldr	r1, [r4, #16]
  4086b0:	f001 fa16 	bl	409ae0 <.LBE4>

004086b4 <.LVL71>:
  4086b4:	89a3      	ldrh	r3, [r4, #12]
  4086b6:	f423 6390 	bic.w	r3, r3, #1152	; 0x480
  4086ba:	f043 0380 	orr.w	r3, r3, #128	; 0x80
  4086be:	81a3      	strh	r3, [r4, #12]
  4086c0:	eb0b 000a 	add.w	r0, fp, sl
  4086c4:	eba8 030a 	sub.w	r3, r8, sl
  4086c8:	f8c4 b010 	str.w	fp, [r4, #16]
  4086cc:	f8c4 8014 	str.w	r8, [r4, #20]
  4086d0:	6020      	str	r0, [r4, #0]
  4086d2:	60a3      	str	r3, [r4, #8]
  4086d4:	46b8      	mov	r8, r7

004086d6 <.LVL72>:
  4086d6:	46ba      	mov	sl, r7

004086d8 <.LBE2>:
  4086d8:	46bb      	mov	fp, r7

004086da <.LVL74>:
  4086da:	e721      	b.n	408520 <.LVL17+0x18>

004086dc <.LVL75>:
  4086dc:	f06f 4100 	mvn.w	r1, #2147483648	; 0x80000000
  4086e0:	42b9      	cmp	r1, r7
  4086e2:	bf28      	it	cs
  4086e4:	4639      	movcs	r1, r7
  4086e6:	464a      	mov	r2, r9
  4086e8:	fb91 f1f3 	sdiv	r1, r1, r3

004086ec <.LVL76>:
  4086ec:	9800      	ldr	r0, [sp, #0]
  4086ee:	6a66      	ldr	r6, [r4, #36]	; 0x24
  4086f0:	fb03 f301 	mul.w	r3, r3, r1

004086f4 <.LVL77>:
  4086f4:	69e1      	ldr	r1, [r4, #28]
  4086f6:	47b0      	blx	r6

004086f8 <.LVL78>:
  4086f8:	f1b0 0a00 	subs.w	sl, r0, #0
  4086fc:	f73f af1b 	bgt.w	408536 <.LVL19>
  408700:	e738      	b.n	408574 <.LVL32>

00408702 <.LVL79>:
  408702:	461a      	mov	r2, r3

00408704 <.LVL80>:
  408704:	4629      	mov	r1, r5
  408706:	9301      	str	r3, [sp, #4]
  408708:	f002 fc70 	bl	40afec <.LBE12>

0040870c <.LVL81>:
  40870c:	6822      	ldr	r2, [r4, #0]
  40870e:	9b01      	ldr	r3, [sp, #4]
  408710:	9800      	ldr	r0, [sp, #0]
  408712:	441a      	add	r2, r3
  408714:	6022      	str	r2, [r4, #0]
  408716:	4621      	mov	r1, r4
  408718:	f004 fd56 	bl	40d1c8 <_fflush_r>

0040871c <.LVL82>:
  40871c:	9b01      	ldr	r3, [sp, #4]
  40871e:	2800      	cmp	r0, #0
  408720:	f47f af28 	bne.w	408574 <.LVL32>
  408724:	461f      	mov	r7, r3

00408726 <.LVL83>:
  408726:	e750      	b.n	4085ca <.LVL45>

00408728 <.LBB3>:
  408728:	9800      	ldr	r0, [sp, #0]
  40872a:	f7ff fcff 	bl	40812c <.LFE2>

0040872e <.LVL85>:
  40872e:	4683      	mov	fp, r0

00408730 <.LVL86>:
  408730:	2800      	cmp	r0, #0
  408732:	d1c5      	bne.n	4086c0 <.LVL71+0xc>
  408734:	9d00      	ldr	r5, [sp, #0]

00408736 <.LVL87>:
  408736:	6921      	ldr	r1, [r4, #16]
  408738:	4628      	mov	r0, r5

0040873a <.LVL88>:
  40873a:	f000 ffa1 	bl	409680 <.LFE174>

0040873e <.LVL89>:
  40873e:	f9b4 300c 	ldrsh.w	r3, [r4, #12]
  408742:	220c      	movs	r2, #12
  408744:	f023 0380 	bic.w	r3, r3, #128	; 0x80
  408748:	602a      	str	r2, [r5, #0]
  40874a:	e715      	b.n	408578 <.L22>

0040874c <.LBE3>:
  40874c:	f106 0901 	add.w	r9, r6, #1
  408750:	e722      	b.n	408598 <.LVL39>

00408752 <.LVL91>:
  408752:	f04f 30ff 	mov.w	r0, #4294967295
  408756:	e6bf      	b.n	4084d8 <.LVL10+0x2>

00408758 <.LBB4>:
  408758:	9a00      	ldr	r2, [sp, #0]
  40875a:	230c      	movs	r3, #12
  40875c:	6013      	str	r3, [r2, #0]
  40875e:	f9b4 300c 	ldrsh.w	r3, [r4, #12]
  408762:	e709      	b.n	408578 <.L22>
  408764:	7ffffc00 	.word	0x7ffffc00

Disassembly of section .text%39:

00408768 <__udivmoddi4>:
  408768:	e92d 47f0 	stmdb	sp!, {r4, r5, r6, r7, r8, r9, sl, lr}
  40876c:	468c      	mov	ip, r1
  40876e:	460d      	mov	r5, r1
  408770:	4604      	mov	r4, r0
  408772:	9e08      	ldr	r6, [sp, #32]
  408774:	2b00      	cmp	r3, #0
  408776:	d151      	bne.n	40881c <__udivmoddi4+0xb4>
  408778:	428a      	cmp	r2, r1
  40877a:	4617      	mov	r7, r2
  40877c:	d96d      	bls.n	40885a <__udivmoddi4+0xf2>
  40877e:	fab2 fe82 	clz	lr, r2
  408782:	f1be 0f00 	cmp.w	lr, #0
  408786:	d00b      	beq.n	4087a0 <__udivmoddi4+0x38>
  408788:	f1ce 0c20 	rsb	ip, lr, #32
  40878c:	fa01 f50e 	lsl.w	r5, r1, lr
  408790:	fa20 fc0c 	lsr.w	ip, r0, ip
  408794:	fa02 f70e 	lsl.w	r7, r2, lr
  408798:	ea4c 0c05 	orr.w	ip, ip, r5
  40879c:	fa00 f40e 	lsl.w	r4, r0, lr
  4087a0:	ea4f 4a17 	mov.w	sl, r7, lsr #16
  4087a4:	0c25      	lsrs	r5, r4, #16
  4087a6:	fbbc f8fa 	udiv	r8, ip, sl
  4087aa:	fa1f f987 	uxth.w	r9, r7
  4087ae:	fb0a cc18 	mls	ip, sl, r8, ip
  4087b2:	ea45 450c 	orr.w	r5, r5, ip, lsl #16
  4087b6:	fb08 f309 	mul.w	r3, r8, r9
  4087ba:	42ab      	cmp	r3, r5
  4087bc:	d90a      	bls.n	4087d4 <__udivmoddi4+0x6c>
  4087be:	19ed      	adds	r5, r5, r7
  4087c0:	f108 32ff 	add.w	r2, r8, #4294967295
  4087c4:	f080 8123 	bcs.w	408a0e <__udivmoddi4+0x2a6>
  4087c8:	42ab      	cmp	r3, r5
  4087ca:	f240 8120 	bls.w	408a0e <__udivmoddi4+0x2a6>
  4087ce:	f1a8 0802 	sub.w	r8, r8, #2
  4087d2:	443d      	add	r5, r7
  4087d4:	1aed      	subs	r5, r5, r3
  4087d6:	b2a4      	uxth	r4, r4
  4087d8:	fbb5 f0fa 	udiv	r0, r5, sl
  4087dc:	fb0a 5510 	mls	r5, sl, r0, r5
  4087e0:	ea44 4405 	orr.w	r4, r4, r5, lsl #16
  4087e4:	fb00 f909 	mul.w	r9, r0, r9
  4087e8:	45a1      	cmp	r9, r4
  4087ea:	d909      	bls.n	408800 <__udivmoddi4+0x98>
  4087ec:	19e4      	adds	r4, r4, r7
  4087ee:	f100 33ff 	add.w	r3, r0, #4294967295
  4087f2:	f080 810a 	bcs.w	408a0a <__udivmoddi4+0x2a2>
  4087f6:	45a1      	cmp	r9, r4
  4087f8:	f240 8107 	bls.w	408a0a <__udivmoddi4+0x2a2>
  4087fc:	3802      	subs	r0, #2
  4087fe:	443c      	add	r4, r7
  408800:	eba4 0409 	sub.w	r4, r4, r9
  408804:	ea40 4008 	orr.w	r0, r0, r8, lsl #16
  408808:	2100      	movs	r1, #0
  40880a:	2e00      	cmp	r6, #0
  40880c:	d061      	beq.n	4088d2 <__udivmoddi4+0x16a>
  40880e:	fa24 f40e 	lsr.w	r4, r4, lr
  408812:	2300      	movs	r3, #0
  408814:	6034      	str	r4, [r6, #0]
  408816:	6073      	str	r3, [r6, #4]
  408818:	e8bd 87f0 	ldmia.w	sp!, {r4, r5, r6, r7, r8, r9, sl, pc}
  40881c:	428b      	cmp	r3, r1
  40881e:	d907      	bls.n	408830 <__udivmoddi4+0xc8>
  408820:	2e00      	cmp	r6, #0
  408822:	d054      	beq.n	4088ce <__udivmoddi4+0x166>
  408824:	2100      	movs	r1, #0
  408826:	e886 0021 	stmia.w	r6, {r0, r5}
  40882a:	4608      	mov	r0, r1
  40882c:	e8bd 87f0 	ldmia.w	sp!, {r4, r5, r6, r7, r8, r9, sl, pc}
  408830:	fab3 f183 	clz	r1, r3
  408834:	2900      	cmp	r1, #0
  408836:	f040 808e 	bne.w	408956 <__udivmoddi4+0x1ee>
  40883a:	42ab      	cmp	r3, r5
  40883c:	d302      	bcc.n	408844 <__udivmoddi4+0xdc>
  40883e:	4282      	cmp	r2, r0
  408840:	f200 80fa 	bhi.w	408a38 <__udivmoddi4+0x2d0>
  408844:	1a84      	subs	r4, r0, r2
  408846:	eb65 0503 	sbc.w	r5, r5, r3
  40884a:	2001      	movs	r0, #1
  40884c:	46ac      	mov	ip, r5
  40884e:	2e00      	cmp	r6, #0
  408850:	d03f      	beq.n	4088d2 <__udivmoddi4+0x16a>
  408852:	e886 1010 	stmia.w	r6, {r4, ip}
  408856:	e8bd 87f0 	ldmia.w	sp!, {r4, r5, r6, r7, r8, r9, sl, pc}
  40885a:	b912      	cbnz	r2, 408862 <__udivmoddi4+0xfa>
  40885c:	2701      	movs	r7, #1
  40885e:	fbb7 f7f2 	udiv	r7, r7, r2
  408862:	fab7 fe87 	clz	lr, r7
  408866:	f1be 0f00 	cmp.w	lr, #0
  40886a:	d134      	bne.n	4088d6 <__udivmoddi4+0x16e>
  40886c:	1beb      	subs	r3, r5, r7
  40886e:	0c3a      	lsrs	r2, r7, #16
  408870:	fa1f fc87 	uxth.w	ip, r7
  408874:	2101      	movs	r1, #1
  408876:	fbb3 f8f2 	udiv	r8, r3, r2
  40887a:	0c25      	lsrs	r5, r4, #16
  40887c:	fb02 3318 	mls	r3, r2, r8, r3
  408880:	ea45 4503 	orr.w	r5, r5, r3, lsl #16
  408884:	fb0c f308 	mul.w	r3, ip, r8
  408888:	42ab      	cmp	r3, r5
  40888a:	d907      	bls.n	40889c <__udivmoddi4+0x134>
  40888c:	19ed      	adds	r5, r5, r7
  40888e:	f108 30ff 	add.w	r0, r8, #4294967295
  408892:	d202      	bcs.n	40889a <__udivmoddi4+0x132>
  408894:	42ab      	cmp	r3, r5
  408896:	f200 80d1 	bhi.w	408a3c <__udivmoddi4+0x2d4>
  40889a:	4680      	mov	r8, r0
  40889c:	1aed      	subs	r5, r5, r3
  40889e:	b2a3      	uxth	r3, r4
  4088a0:	fbb5 f0f2 	udiv	r0, r5, r2
  4088a4:	fb02 5510 	mls	r5, r2, r0, r5
  4088a8:	ea43 4405 	orr.w	r4, r3, r5, lsl #16
  4088ac:	fb0c fc00 	mul.w	ip, ip, r0
  4088b0:	45a4      	cmp	ip, r4
  4088b2:	d907      	bls.n	4088c4 <__udivmoddi4+0x15c>
  4088b4:	19e4      	adds	r4, r4, r7
  4088b6:	f100 33ff 	add.w	r3, r0, #4294967295
  4088ba:	d202      	bcs.n	4088c2 <__udivmoddi4+0x15a>
  4088bc:	45a4      	cmp	ip, r4
  4088be:	f200 80b8 	bhi.w	408a32 <__udivmoddi4+0x2ca>
  4088c2:	4618      	mov	r0, r3
  4088c4:	eba4 040c 	sub.w	r4, r4, ip
  4088c8:	ea40 4008 	orr.w	r0, r0, r8, lsl #16
  4088cc:	e79d      	b.n	40880a <__udivmoddi4+0xa2>
  4088ce:	4631      	mov	r1, r6
  4088d0:	4630      	mov	r0, r6
  4088d2:	e8bd 87f0 	ldmia.w	sp!, {r4, r5, r6, r7, r8, r9, sl, pc}
  4088d6:	f1ce 0420 	rsb	r4, lr, #32
  4088da:	fa05 f30e 	lsl.w	r3, r5, lr
  4088de:	fa07 f70e 	lsl.w	r7, r7, lr
  4088e2:	fa20 f804 	lsr.w	r8, r0, r4
  4088e6:	0c3a      	lsrs	r2, r7, #16
  4088e8:	fa25 f404 	lsr.w	r4, r5, r4
  4088ec:	ea48 0803 	orr.w	r8, r8, r3
  4088f0:	fbb4 f1f2 	udiv	r1, r4, r2
  4088f4:	ea4f 4518 	mov.w	r5, r8, lsr #16
  4088f8:	fb02 4411 	mls	r4, r2, r1, r4
  4088fc:	fa1f fc87 	uxth.w	ip, r7
  408900:	ea45 4504 	orr.w	r5, r5, r4, lsl #16
  408904:	fb01 f30c 	mul.w	r3, r1, ip
  408908:	42ab      	cmp	r3, r5
  40890a:	fa00 f40e 	lsl.w	r4, r0, lr
  40890e:	d909      	bls.n	408924 <__udivmoddi4+0x1bc>
  408910:	19ed      	adds	r5, r5, r7
  408912:	f101 30ff 	add.w	r0, r1, #4294967295
  408916:	f080 808a 	bcs.w	408a2e <__udivmoddi4+0x2c6>
  40891a:	42ab      	cmp	r3, r5
  40891c:	f240 8087 	bls.w	408a2e <__udivmoddi4+0x2c6>
  408920:	3902      	subs	r1, #2
  408922:	443d      	add	r5, r7
  408924:	1aeb      	subs	r3, r5, r3
  408926:	fa1f f588 	uxth.w	r5, r8
  40892a:	fbb3 f0f2 	udiv	r0, r3, r2
  40892e:	fb02 3310 	mls	r3, r2, r0, r3
  408932:	ea45 4503 	orr.w	r5, r5, r3, lsl #16
  408936:	fb00 f30c 	mul.w	r3, r0, ip
  40893a:	42ab      	cmp	r3, r5
  40893c:	d907      	bls.n	40894e <__udivmoddi4+0x1e6>
  40893e:	19ed      	adds	r5, r5, r7
  408940:	f100 38ff 	add.w	r8, r0, #4294967295
  408944:	d26f      	bcs.n	408a26 <__udivmoddi4+0x2be>
  408946:	42ab      	cmp	r3, r5
  408948:	d96d      	bls.n	408a26 <__udivmoddi4+0x2be>
  40894a:	3802      	subs	r0, #2
  40894c:	443d      	add	r5, r7
  40894e:	1aeb      	subs	r3, r5, r3
  408950:	ea40 4101 	orr.w	r1, r0, r1, lsl #16
  408954:	e78f      	b.n	408876 <__udivmoddi4+0x10e>
  408956:	f1c1 0720 	rsb	r7, r1, #32
  40895a:	fa22 f807 	lsr.w	r8, r2, r7
  40895e:	408b      	lsls	r3, r1
  408960:	fa05 f401 	lsl.w	r4, r5, r1
  408964:	ea48 0303 	orr.w	r3, r8, r3
  408968:	fa20 fe07 	lsr.w	lr, r0, r7
  40896c:	ea4f 4c13 	mov.w	ip, r3, lsr #16
  408970:	40fd      	lsrs	r5, r7
  408972:	ea4e 0e04 	orr.w	lr, lr, r4
  408976:	fbb5 f9fc 	udiv	r9, r5, ip
  40897a:	ea4f 441e 	mov.w	r4, lr, lsr #16
  40897e:	fb0c 5519 	mls	r5, ip, r9, r5
  408982:	fa1f f883 	uxth.w	r8, r3
  408986:	ea44 4505 	orr.w	r5, r4, r5, lsl #16
  40898a:	fb09 f408 	mul.w	r4, r9, r8
  40898e:	42ac      	cmp	r4, r5
  408990:	fa02 f201 	lsl.w	r2, r2, r1
  408994:	fa00 fa01 	lsl.w	sl, r0, r1
  408998:	d908      	bls.n	4089ac <__udivmoddi4+0x244>
  40899a:	18ed      	adds	r5, r5, r3
  40899c:	f109 30ff 	add.w	r0, r9, #4294967295
  4089a0:	d243      	bcs.n	408a2a <__udivmoddi4+0x2c2>
  4089a2:	42ac      	cmp	r4, r5
  4089a4:	d941      	bls.n	408a2a <__udivmoddi4+0x2c2>
  4089a6:	f1a9 0902 	sub.w	r9, r9, #2
  4089aa:	441d      	add	r5, r3
  4089ac:	1b2d      	subs	r5, r5, r4
  4089ae:	fa1f fe8e 	uxth.w	lr, lr
  4089b2:	fbb5 f0fc 	udiv	r0, r5, ip
  4089b6:	fb0c 5510 	mls	r5, ip, r0, r5
  4089ba:	ea4e 4405 	orr.w	r4, lr, r5, lsl #16
  4089be:	fb00 f808 	mul.w	r8, r0, r8
  4089c2:	45a0      	cmp	r8, r4
  4089c4:	d907      	bls.n	4089d6 <__udivmoddi4+0x26e>
  4089c6:	18e4      	adds	r4, r4, r3
  4089c8:	f100 35ff 	add.w	r5, r0, #4294967295
  4089cc:	d229      	bcs.n	408a22 <__udivmoddi4+0x2ba>
  4089ce:	45a0      	cmp	r8, r4
  4089d0:	d927      	bls.n	408a22 <__udivmoddi4+0x2ba>
  4089d2:	3802      	subs	r0, #2
  4089d4:	441c      	add	r4, r3
  4089d6:	ea40 4009 	orr.w	r0, r0, r9, lsl #16
  4089da:	eba4 0408 	sub.w	r4, r4, r8
  4089de:	fba0 8902 	umull	r8, r9, r0, r2
  4089e2:	454c      	cmp	r4, r9
  4089e4:	46c6      	mov	lr, r8
  4089e6:	464d      	mov	r5, r9
  4089e8:	d315      	bcc.n	408a16 <__udivmoddi4+0x2ae>
  4089ea:	d012      	beq.n	408a12 <__udivmoddi4+0x2aa>
  4089ec:	b156      	cbz	r6, 408a04 <__udivmoddi4+0x29c>
  4089ee:	ebba 030e 	subs.w	r3, sl, lr
  4089f2:	eb64 0405 	sbc.w	r4, r4, r5
  4089f6:	fa04 f707 	lsl.w	r7, r4, r7
  4089fa:	40cb      	lsrs	r3, r1
  4089fc:	431f      	orrs	r7, r3
  4089fe:	40cc      	lsrs	r4, r1
  408a00:	6037      	str	r7, [r6, #0]
  408a02:	6074      	str	r4, [r6, #4]
  408a04:	2100      	movs	r1, #0
  408a06:	e8bd 87f0 	ldmia.w	sp!, {r4, r5, r6, r7, r8, r9, sl, pc}
  408a0a:	4618      	mov	r0, r3
  408a0c:	e6f8      	b.n	408800 <__udivmoddi4+0x98>
  408a0e:	4690      	mov	r8, r2
  408a10:	e6e0      	b.n	4087d4 <__udivmoddi4+0x6c>
  408a12:	45c2      	cmp	sl, r8
  408a14:	d2ea      	bcs.n	4089ec <__udivmoddi4+0x284>
  408a16:	ebb8 0e02 	subs.w	lr, r8, r2
  408a1a:	eb69 0503 	sbc.w	r5, r9, r3
  408a1e:	3801      	subs	r0, #1
  408a20:	e7e4      	b.n	4089ec <__udivmoddi4+0x284>
  408a22:	4628      	mov	r0, r5
  408a24:	e7d7      	b.n	4089d6 <__udivmoddi4+0x26e>
  408a26:	4640      	mov	r0, r8
  408a28:	e791      	b.n	40894e <__udivmoddi4+0x1e6>
  408a2a:	4681      	mov	r9, r0
  408a2c:	e7be      	b.n	4089ac <__udivmoddi4+0x244>
  408a2e:	4601      	mov	r1, r0
  408a30:	e778      	b.n	408924 <__udivmoddi4+0x1bc>
  408a32:	3802      	subs	r0, #2
  408a34:	443c      	add	r4, r7
  408a36:	e745      	b.n	4088c4 <__udivmoddi4+0x15c>
  408a38:	4608      	mov	r0, r1
  408a3a:	e708      	b.n	40884e <__udivmoddi4+0xe6>
  408a3c:	f1a8 0802 	sub.w	r8, r8, #2
  408a40:	443d      	add	r5, r7
  408a42:	e72b      	b.n	40889c <__udivmoddi4+0x134>

Disassembly of section .text.wc_Sha512Final%40:

00408a48 <wc_Sha512Final>:

int wc_Sha512Final(Sha512* sha512, byte* hash)
{
    int ret;

    if (sha512 == NULL || hash == NULL) {
  408a48:	2800      	cmp	r0, #0
  408a4a:	f000 8120 	beq.w	408c8e <.LBE801>
{
  408a4e:	e92d 4ff0 	stmdb	sp!, {r4, r5, r6, r7, r8, r9, sl, fp, lr}

00408a52 <.LCFI7>:
  408a52:	b083      	sub	sp, #12

00408a54 <.LCFI8>:
  408a54:	468e      	mov	lr, r1
  408a56:	4601      	mov	r1, r0

00408a58 <.LVL46>:
    if (sha512 == NULL || hash == NULL) {
  408a58:	f1be 0f00 	cmp.w	lr, #0
  408a5c:	f000 8111 	beq.w	408c82 <.LBE799>

00408a60 <.LBB762>:
    byte* local = (byte*)sha512->buffer;
  408a60:	f100 0358 	add.w	r3, r0, #88	; 0x58
  408a64:	9301      	str	r3, [sp, #4]

00408a66 <.LVL48>:
    if (sha512 == NULL) {
  408a66:	2800      	cmp	r0, #0
  408a68:	f000 810e 	beq.w	408c88 <.LBB801>
    AddLength(sha512, sha512->buffLen);               /* before adding pads */
  408a6c:	6800      	ldr	r0, [r0, #0]

00408a6e <.LBB764>:
    word64 tmp = sha512->loLen;
  408a6e:	e9d1 2302 	ldrd	r2, r3, [r1, #8]

00408a72 <.LVL50>:
    if ( (sha512->loLen += len) < tmp)
  408a72:	eb12 0a00 	adds.w	sl, r2, r0
  408a76:	f143 0b00 	adc.w	fp, r3, #0
  408a7a:	e9c1 ab02 	strd	sl, fp, [r1, #8]
  408a7e:	459b      	cmp	fp, r3
  408a80:	bf08      	it	eq
  408a82:	4592      	cmpeq	sl, r2
  408a84:	d206      	bcs.n	408a94 <.LVL52+0x4>
        sha512->hiLen++;                       /* carry low to high */
  408a86:	e9d1 2304 	ldrd	r2, r3, [r1, #16]

00408a8a <.LVL51>:
  408a8a:	3201      	adds	r2, #1
  408a8c:	f143 0300 	adc.w	r3, r3, #0

00408a90 <.LVL52>:
  408a90:	e9c1 2304 	strd	r2, r3, [r1, #16]
  408a94:	468a      	mov	sl, r1
  408a96:	46f3      	mov	fp, lr

00408a98 <.LBE764>:
    local[sha512->buffLen++] = 0x80;  /* add 1 */
  408a98:	1c43      	adds	r3, r0, #1
  408a9a:	600b      	str	r3, [r1, #0]
  408a9c:	2380      	movs	r3, #128	; 0x80
  408a9e:	9a01      	ldr	r2, [sp, #4]
  408aa0:	5413      	strb	r3, [r2, r0]
    if (sha512->buffLen > SHA512_PAD_SIZE) {
  408aa2:	6808      	ldr	r0, [r1, #0]
  408aa4:	2870      	cmp	r0, #112	; 0x70
  408aa6:	d92f      	bls.n	408b08 <.LVL61>

00408aa8 <.LVL54>:
        XMEMSET(&local[sha512->buffLen], 0, SHA512_BLOCK_SIZE - sha512->buffLen);
  408aa8:	1a1a      	subs	r2, r3, r0
  408aaa:	2100      	movs	r1, #0

00408aac <.LVL55>:
  408aac:	9b01      	ldr	r3, [sp, #4]
  408aae:	4418      	add	r0, r3
  408ab0:	f002 ff7c 	bl	40b9ac <.LFE166>

00408ab4 <.LVL56>:
        sha512->buffLen += SHA512_BLOCK_SIZE - sha512->buffLen;
  408ab4:	4652      	mov	r2, sl
  408ab6:	2380      	movs	r3, #128	; 0x80
  408ab8:	f842 3b50 	str.w	r3, [r2], #80

00408abc <.LVL57>:
  408abc:	f10a 0ed0 	add.w	lr, sl, #208	; 0xd0

00408ac0 <.LBB766>:
        out[i] = ByteReverseWord64(in[i]);
  408ac0:	6893      	ldr	r3, [r2, #8]
  408ac2:	68d1      	ldr	r1, [r2, #12]

00408ac4 <.LBB768>:
    value = ((value & 0xFF00FF00) >> 8) | ((value & 0x00FF00FF) << 8);
  408ac4:	0a18      	lsrs	r0, r3, #8
  408ac6:	f000 10ff 	and.w	r0, r0, #16711935	; 0xff00ff
  408aca:	021b      	lsls	r3, r3, #8
  408acc:	f003 23ff 	and.w	r3, r3, #4278255360	; 0xff00ff00
  408ad0:	4303      	orrs	r3, r0

00408ad2 <.LBE770>:
	return (word64)(ByteReverseWord32((word32)value)) << 32 |
  408ad2:	ea4f 4733 	mov.w	r7, r3, ror #16
  408ad6:	2600      	movs	r6, #0

00408ad8 <.LBB772>:
    value = ((value & 0xFF00FF00) >> 8) | ((value & 0x00FF00FF) << 8);
  408ad8:	0a0b      	lsrs	r3, r1, #8
  408ada:	f003 13ff 	and.w	r3, r3, #16711935	; 0xff00ff
  408ade:	0209      	lsls	r1, r1, #8
  408ae0:	f001 21ff 	and.w	r1, r1, #4278255360	; 0xff00ff00
  408ae4:	430b      	orrs	r3, r1

00408ae6 <.LBB774>:
        return (x << y) | (x >> (sizeof(y) * 8 - y));
  408ae6:	ea4f 4333 	mov.w	r3, r3, ror #16

00408aea <.LBE772>:
	return (word64)(ByteReverseWord32((word32)value)) << 32 |
  408aea:	ea46 0003 	orr.w	r0, r6, r3
  408aee:	4639      	mov	r1, r7

00408af0 <.LBE768>:
        out[i] = ByteReverseWord64(in[i]);
  408af0:	e9e2 0102 	strd	r0, r1, [r2, #8]!
    for (i = 0; i < count; i++)
  408af4:	4572      	cmp	r2, lr
  408af6:	d1e3      	bne.n	408ac0 <.LBB766>

00408af8 <.LBE766>:
        ret = Transform(sha512);
  408af8:	4650      	mov	r0, sl
  408afa:	f7f7 fb4b 	bl	400194 <_etext>

00408afe <.LVL60>:
        if (ret != 0)
  408afe:	4602      	mov	r2, r0
  408b00:	2800      	cmp	r0, #0
  408b02:	d151      	bne.n	408ba8 <.LBE762>
        sha512->buffLen = 0;
  408b04:	f8ca 6000 	str.w	r6, [sl]

00408b08 <.LVL61>:
    XMEMSET(&local[sha512->buffLen], 0, SHA512_PAD_SIZE - sha512->buffLen);
  408b08:	f8da 0000 	ldr.w	r0, [sl]
  408b0c:	f1c0 0270 	rsb	r2, r0, #112	; 0x70
  408b10:	2100      	movs	r1, #0
  408b12:	9b01      	ldr	r3, [sp, #4]
  408b14:	4418      	add	r0, r3
  408b16:	f002 ff49 	bl	40b9ac <.LFE166>

00408b1a <.LVL62>:
    sha512->hiLen = (sha512->loLen >> (8 * sizeof(sha512->loLen) - 3)) +
  408b1a:	f8da 7008 	ldr.w	r7, [sl, #8]
  408b1e:	f8da 600c 	ldr.w	r6, [sl, #12]
                                                         (sha512->hiLen << 3);
  408b22:	f8da 2010 	ldr.w	r2, [sl, #16]
  408b26:	f8da 3014 	ldr.w	r3, [sl, #20]
  408b2a:	00d9      	lsls	r1, r3, #3
  408b2c:	ea41 7152 	orr.w	r1, r1, r2, lsr #29
  408b30:	00d0      	lsls	r0, r2, #3
    sha512->hiLen = (sha512->loLen >> (8 * sizeof(sha512->loLen) - 3)) +
  408b32:	0f72      	lsrs	r2, r6, #29
  408b34:	2300      	movs	r3, #0
  408b36:	1812      	adds	r2, r2, r0
  408b38:	414b      	adcs	r3, r1
  408b3a:	e9ca 2304 	strd	r2, r3, [sl, #16]
    sha512->loLen = sha512->loLen << 3;
  408b3e:	00f6      	lsls	r6, r6, #3
  408b40:	ea46 7657 	orr.w	r6, r6, r7, lsr #29
  408b44:	00ff      	lsls	r7, r7, #3
  408b46:	f8ca 7008 	str.w	r7, [sl, #8]
  408b4a:	f8ca 600c 	str.w	r6, [sl, #12]

00408b4e <.LVL63>:
  408b4e:	f10a 0250 	add.w	r2, sl, #80	; 0x50
  408b52:	f10a 06c0 	add.w	r6, sl, #192	; 0xc0

00408b56 <.LBB776>:
        out[i] = ByteReverseWord64(in[i]);
  408b56:	6893      	ldr	r3, [r2, #8]
  408b58:	68d1      	ldr	r1, [r2, #12]

00408b5a <.LBB778>:
    value = ((value & 0xFF00FF00) >> 8) | ((value & 0x00FF00FF) << 8);
  408b5a:	0a18      	lsrs	r0, r3, #8
  408b5c:	f000 10ff 	and.w	r0, r0, #16711935	; 0xff00ff
  408b60:	021b      	lsls	r3, r3, #8
  408b62:	f003 23ff 	and.w	r3, r3, #4278255360	; 0xff00ff00
  408b66:	4303      	orrs	r3, r0

00408b68 <.LBE780>:
	return (word64)(ByteReverseWord32((word32)value)) << 32 |
  408b68:	ea4f 4533 	mov.w	r5, r3, ror #16
  408b6c:	2400      	movs	r4, #0

00408b6e <.LBB782>:
    value = ((value & 0xFF00FF00) >> 8) | ((value & 0x00FF00FF) << 8);
  408b6e:	0a0b      	lsrs	r3, r1, #8
  408b70:	f003 13ff 	and.w	r3, r3, #16711935	; 0xff00ff
  408b74:	0209      	lsls	r1, r1, #8
  408b76:	f001 21ff 	and.w	r1, r1, #4278255360	; 0xff00ff00
  408b7a:	430b      	orrs	r3, r1

00408b7c <.LBB784>:
        return (x << y) | (x >> (sizeof(y) * 8 - y));
  408b7c:	ea4f 4333 	mov.w	r3, r3, ror #16

00408b80 <.LBE782>:
	return (word64)(ByteReverseWord32((word32)value)) << 32 |
  408b80:	ea44 0003 	orr.w	r0, r4, r3
  408b84:	4629      	mov	r1, r5

00408b86 <.LBE778>:
        out[i] = ByteReverseWord64(in[i]);
  408b86:	e9e2 0102 	strd	r0, r1, [r2, #8]!
    for (i = 0; i < count; i++)
  408b8a:	42b2      	cmp	r2, r6
  408b8c:	d1e3      	bne.n	408b56 <.LBB776>

00408b8e <.LBE776>:
    sha512->buffer[SHA512_BLOCK_SIZE / sizeof(word64) - 2] = sha512->hiLen;
  408b8e:	e9da 2304 	ldrd	r2, r3, [sl, #16]
  408b92:	e9ca 2332 	strd	r2, r3, [sl, #200]	; 0xc8
    sha512->buffer[SHA512_BLOCK_SIZE / sizeof(word64) - 1] = sha512->loLen;
  408b96:	e9da 2302 	ldrd	r2, r3, [sl, #8]
  408b9a:	e9ca 2334 	strd	r2, r3, [sl, #208]	; 0xd0
    ret = Transform(sha512);
  408b9e:	4650      	mov	r0, sl
  408ba0:	f7f7 faf8 	bl	400194 <_etext>

00408ba4 <.LVL66>:
    if (ret != 0)
  408ba4:	4602      	mov	r2, r0
  408ba6:	b118      	cbz	r0, 408bb0 <.LBB798>

00408ba8 <.LBE762>:
        return ret;

    XMEMCPY(hash, sha512->digest, SHA512_DIGEST_SIZE);

    return InitSha512(sha512);  /* reset state */
}
  408ba8:	4610      	mov	r0, r2
  408baa:	b003      	add	sp, #12

00408bac <.LCFI9>:
  408bac:	e8bd 8ff0 	ldmia.w	sp!, {r4, r5, r6, r7, r8, r9, sl, fp, pc}

00408bb0 <.LBB798>:
        ByteReverseWords64(sha512->digest, sha512->digest, SHA512_DIGEST_SIZE);
  408bb0:	f10a 0618 	add.w	r6, sl, #24

00408bb4 <.LVL69>:
  408bb4:	f10a 0410 	add.w	r4, sl, #16
  408bb8:	f10a 0550 	add.w	r5, sl, #80	; 0x50

00408bbc <.LBB786>:
        out[i] = ByteReverseWord64(in[i]);
  408bbc:	68a3      	ldr	r3, [r4, #8]
  408bbe:	68e1      	ldr	r1, [r4, #12]

00408bc0 <.LBB788>:
    value = ((value & 0xFF00FF00) >> 8) | ((value & 0x00FF00FF) << 8);
  408bc0:	0a18      	lsrs	r0, r3, #8
  408bc2:	f000 10ff 	and.w	r0, r0, #16711935	; 0xff00ff
  408bc6:	021b      	lsls	r3, r3, #8
  408bc8:	f003 23ff 	and.w	r3, r3, #4278255360	; 0xff00ff00
  408bcc:	4303      	orrs	r3, r0

00408bce <.LBE790>:
	return (word64)(ByteReverseWord32((word32)value)) << 32 |
  408bce:	ea4f 4933 	mov.w	r9, r3, ror #16
  408bd2:	f04f 0800 	mov.w	r8, #0

00408bd6 <.LBB792>:
    value = ((value & 0xFF00FF00) >> 8) | ((value & 0x00FF00FF) << 8);
  408bd6:	0a0b      	lsrs	r3, r1, #8
  408bd8:	f003 13ff 	and.w	r3, r3, #16711935	; 0xff00ff
  408bdc:	0209      	lsls	r1, r1, #8
  408bde:	f001 21ff 	and.w	r1, r1, #4278255360	; 0xff00ff00
  408be2:	430b      	orrs	r3, r1

00408be4 <.LBB794>:
        return (x << y) | (x >> (sizeof(y) * 8 - y));
  408be4:	ea4f 4333 	mov.w	r3, r3, ror #16

00408be8 <.LBE792>:
	return (word64)(ByteReverseWord32((word32)value)) << 32 |
  408be8:	ea48 0003 	orr.w	r0, r8, r3
  408bec:	4649      	mov	r1, r9

00408bee <.LBE788>:
        out[i] = ByteReverseWord64(in[i]);
  408bee:	e9e4 0102 	strd	r0, r1, [r4, #8]!
    for (i = 0; i < count; i++)
  408bf2:	42ac      	cmp	r4, r5
  408bf4:	d1e2      	bne.n	408bbc <.LBB786>

00408bf6 <.LBE786>:
    XMEMCPY(hash, sha512->digest, SHA512_DIGEST_SIZE);
  408bf6:	4633      	mov	r3, r6
  408bf8:	46de      	mov	lr, fp
  408bfa:	3640      	adds	r6, #64	; 0x40

00408bfc <.LVL72>:
  408bfc:	681d      	ldr	r5, [r3, #0]
  408bfe:	685c      	ldr	r4, [r3, #4]
  408c00:	6898      	ldr	r0, [r3, #8]
  408c02:	68d9      	ldr	r1, [r3, #12]
  408c04:	f8ce 5000 	str.w	r5, [lr]
  408c08:	f8ce 4004 	str.w	r4, [lr, #4]
  408c0c:	f8ce 0008 	str.w	r0, [lr, #8]
  408c10:	f8ce 100c 	str.w	r1, [lr, #12]
  408c14:	3310      	adds	r3, #16
  408c16:	f10e 0e10 	add.w	lr, lr, #16
  408c1a:	42b3      	cmp	r3, r6
  408c1c:	d1ee      	bne.n	408bfc <.LVL72>

00408c1e <.LBB799>:
    sha512->digest[0] = W64LIT(0x6a09e667f3bcc908);
  408c1e:	a11e      	add	r1, pc, #120	; (adr r1, 408c98 <.LVL78+0x4>)
  408c20:	e9d1 0100 	ldrd	r0, r1, [r1]
  408c24:	e9ca 0106 	strd	r0, r1, [sl, #24]
    sha512->digest[1] = W64LIT(0xbb67ae8584caa73b);
  408c28:	a11d      	add	r1, pc, #116	; (adr r1, 408ca0 <.LVL78+0xc>)
  408c2a:	e9d1 0100 	ldrd	r0, r1, [r1]
  408c2e:	e9ca 0108 	strd	r0, r1, [sl, #32]
    sha512->digest[2] = W64LIT(0x3c6ef372fe94f82b);
  408c32:	a11d      	add	r1, pc, #116	; (adr r1, 408ca8 <.LVL78+0x14>)
  408c34:	e9d1 0100 	ldrd	r0, r1, [r1]
  408c38:	e9ca 010a 	strd	r0, r1, [sl, #40]	; 0x28
    sha512->digest[3] = W64LIT(0xa54ff53a5f1d36f1);
  408c3c:	a11c      	add	r1, pc, #112	; (adr r1, 408cb0 <.LVL78+0x1c>)
  408c3e:	e9d1 0100 	ldrd	r0, r1, [r1]
  408c42:	e9ca 010c 	strd	r0, r1, [sl, #48]	; 0x30
    sha512->digest[4] = W64LIT(0x510e527fade682d1);
  408c46:	a11c      	add	r1, pc, #112	; (adr r1, 408cb8 <.LVL78+0x24>)
  408c48:	e9d1 0100 	ldrd	r0, r1, [r1]
  408c4c:	e9ca 010e 	strd	r0, r1, [sl, #56]	; 0x38
    sha512->digest[5] = W64LIT(0x9b05688c2b3e6c1f);
  408c50:	a11b      	add	r1, pc, #108	; (adr r1, 408cc0 <.LVL78+0x2c>)
  408c52:	e9d1 0100 	ldrd	r0, r1, [r1]
  408c56:	e9ca 0110 	strd	r0, r1, [sl, #64]	; 0x40
    sha512->digest[6] = W64LIT(0x1f83d9abfb41bd6b);
  408c5a:	a11b      	add	r1, pc, #108	; (adr r1, 408cc8 <.LVL78+0x34>)
  408c5c:	e9d1 0100 	ldrd	r0, r1, [r1]
  408c60:	e9ca 0112 	strd	r0, r1, [sl, #72]	; 0x48
    sha512->digest[7] = W64LIT(0x5be0cd19137e2179);
  408c64:	a11a      	add	r1, pc, #104	; (adr r1, 408cd0 <.LVL78+0x3c>)
  408c66:	e9d1 0100 	ldrd	r0, r1, [r1]
  408c6a:	e9ca 0114 	strd	r0, r1, [sl, #80]	; 0x50
    sha512->buffLen = 0;
  408c6e:	2300      	movs	r3, #0
  408c70:	f8ca 3000 	str.w	r3, [sl]
    sha512->loLen   = 0;
  408c74:	2000      	movs	r0, #0
  408c76:	2100      	movs	r1, #0
  408c78:	e9ca 0102 	strd	r0, r1, [sl, #8]
    sha512->hiLen   = 0;
  408c7c:	e9ca 0104 	strd	r0, r1, [sl, #16]
  408c80:	e792      	b.n	408ba8 <.LBE762>

00408c82 <.LBE799>:
        return BAD_FUNC_ARG;
  408c82:	f06f 02ac 	mvn.w	r2, #172	; 0xac
  408c86:	e78f      	b.n	408ba8 <.LBE762>

00408c88 <.LBB801>:
        return BAD_FUNC_ARG;
  408c88:	f06f 02ac 	mvn.w	r2, #172	; 0xac

00408c8c <.LVL76>:
  408c8c:	e78c      	b.n	408ba8 <.LBE762>

00408c8e <.LBE801>:
        return BAD_FUNC_ARG;
  408c8e:	f06f 02ac 	mvn.w	r2, #172	; 0xac
}
  408c92:	4610      	mov	r0, r2

00408c94 <.LVL78>:
  408c94:	4770      	bx	lr
  408c96:	bf00      	nop
  408c98:	f3bcc908 	.word	0xf3bcc908
  408c9c:	6a09e667 	.word	0x6a09e667
  408ca0:	84caa73b 	.word	0x84caa73b
  408ca4:	bb67ae85 	.word	0xbb67ae85
  408ca8:	fe94f82b 	.word	0xfe94f82b
  408cac:	3c6ef372 	.word	0x3c6ef372
  408cb0:	5f1d36f1 	.word	0x5f1d36f1
  408cb4:	a54ff53a 	.word	0xa54ff53a
  408cb8:	ade682d1 	.word	0xade682d1
  408cbc:	510e527f 	.word	0x510e527f
  408cc0:	2b3e6c1f 	.word	0x2b3e6c1f
  408cc4:	9b05688c 	.word	0x9b05688c
  408cc8:	fb41bd6b 	.word	0xfb41bd6b
  408ccc:	1f83d9ab 	.word	0x1f83d9ab
  408cd0:	137e2179 	.word	0x137e2179
  408cd4:	5be0cd19 	.word	0x5be0cd19

Disassembly of section .text.wc_Sha384Final%41:

00408cd8 <wc_Sha384Final>:

int wc_Sha384Final(Sha384* sha384, byte* hash)
{
    int ret;

    if (sha384 == NULL || hash == NULL) {
  408cd8:	2800      	cmp	r0, #0
  408cda:	f000 8120 	beq.w	408f1e <.LBE922>
{
  408cde:	e92d 4ff0 	stmdb	sp!, {r4, r5, r6, r7, r8, r9, sl, fp, lr}

00408ce2 <.LCFI14>:
  408ce2:	b083      	sub	sp, #12

00408ce4 <.LCFI15>:
  408ce4:	468e      	mov	lr, r1
  408ce6:	4601      	mov	r1, r0

00408ce8 <.LVL105>:
    if (sha384 == NULL || hash == NULL) {
  408ce8:	f1be 0f00 	cmp.w	lr, #0
  408cec:	f000 8111 	beq.w	408f12 <.LBE920>

00408cf0 <.LBB883>:
    byte* local = (byte*)sha512->buffer;
  408cf0:	f100 0358 	add.w	r3, r0, #88	; 0x58
  408cf4:	9301      	str	r3, [sp, #4]

00408cf6 <.LVL107>:
    if (sha512 == NULL) {
  408cf6:	2800      	cmp	r0, #0
  408cf8:	f000 810e 	beq.w	408f18 <.LBB922>
    AddLength(sha512, sha512->buffLen);               /* before adding pads */
  408cfc:	6800      	ldr	r0, [r0, #0]

00408cfe <.LBB885>:
    word64 tmp = sha512->loLen;
  408cfe:	e9d1 2302 	ldrd	r2, r3, [r1, #8]

00408d02 <.LVL109>:
    if ( (sha512->loLen += len) < tmp)
  408d02:	eb12 0a00 	adds.w	sl, r2, r0
  408d06:	f143 0b00 	adc.w	fp, r3, #0
  408d0a:	e9c1 ab02 	strd	sl, fp, [r1, #8]
  408d0e:	459b      	cmp	fp, r3
  408d10:	bf08      	it	eq
  408d12:	4592      	cmpeq	sl, r2
  408d14:	d206      	bcs.n	408d24 <.LVL111+0x4>
        sha512->hiLen++;                       /* carry low to high */
  408d16:	e9d1 2304 	ldrd	r2, r3, [r1, #16]

00408d1a <.LVL110>:
  408d1a:	3201      	adds	r2, #1
  408d1c:	f143 0300 	adc.w	r3, r3, #0

00408d20 <.LVL111>:
  408d20:	e9c1 2304 	strd	r2, r3, [r1, #16]
  408d24:	468a      	mov	sl, r1
  408d26:	46f3      	mov	fp, lr

00408d28 <.LBE885>:
    local[sha512->buffLen++] = 0x80;  /* add 1 */
  408d28:	1c43      	adds	r3, r0, #1
  408d2a:	600b      	str	r3, [r1, #0]
  408d2c:	2380      	movs	r3, #128	; 0x80
  408d2e:	9a01      	ldr	r2, [sp, #4]
  408d30:	5413      	strb	r3, [r2, r0]
    if (sha512->buffLen > SHA512_PAD_SIZE) {
  408d32:	6808      	ldr	r0, [r1, #0]
  408d34:	2870      	cmp	r0, #112	; 0x70
  408d36:	d92f      	bls.n	408d98 <.LVL120>

00408d38 <.LVL113>:
        XMEMSET(&local[sha512->buffLen], 0, SHA512_BLOCK_SIZE - sha512->buffLen);
  408d38:	1a1a      	subs	r2, r3, r0
  408d3a:	2100      	movs	r1, #0

00408d3c <.LVL114>:
  408d3c:	9b01      	ldr	r3, [sp, #4]
  408d3e:	4418      	add	r0, r3
  408d40:	f002 fe34 	bl	40b9ac <.LFE166>

00408d44 <.LVL115>:
        sha512->buffLen += SHA512_BLOCK_SIZE - sha512->buffLen;
  408d44:	4652      	mov	r2, sl
  408d46:	2380      	movs	r3, #128	; 0x80
  408d48:	f842 3b50 	str.w	r3, [r2], #80

00408d4c <.LVL116>:
  408d4c:	f10a 0ed0 	add.w	lr, sl, #208	; 0xd0

00408d50 <.LBB887>:
        out[i] = ByteReverseWord64(in[i]);
  408d50:	6893      	ldr	r3, [r2, #8]
  408d52:	68d1      	ldr	r1, [r2, #12]

00408d54 <.LBB889>:
    value = ((value & 0xFF00FF00) >> 8) | ((value & 0x00FF00FF) << 8);
  408d54:	0a18      	lsrs	r0, r3, #8
  408d56:	f000 10ff 	and.w	r0, r0, #16711935	; 0xff00ff
  408d5a:	021b      	lsls	r3, r3, #8
  408d5c:	f003 23ff 	and.w	r3, r3, #4278255360	; 0xff00ff00
  408d60:	4303      	orrs	r3, r0

00408d62 <.LBE891>:
	return (word64)(ByteReverseWord32((word32)value)) << 32 |
  408d62:	ea4f 4733 	mov.w	r7, r3, ror #16
  408d66:	2600      	movs	r6, #0

00408d68 <.LBB893>:
    value = ((value & 0xFF00FF00) >> 8) | ((value & 0x00FF00FF) << 8);
  408d68:	0a0b      	lsrs	r3, r1, #8
  408d6a:	f003 13ff 	and.w	r3, r3, #16711935	; 0xff00ff
  408d6e:	0209      	lsls	r1, r1, #8
  408d70:	f001 21ff 	and.w	r1, r1, #4278255360	; 0xff00ff00
  408d74:	430b      	orrs	r3, r1

00408d76 <.LBB895>:
        return (x << y) | (x >> (sizeof(y) * 8 - y));
  408d76:	ea4f 4333 	mov.w	r3, r3, ror #16

00408d7a <.LBE893>:
	return (word64)(ByteReverseWord32((word32)value)) << 32 |
  408d7a:	ea46 0003 	orr.w	r0, r6, r3
  408d7e:	4639      	mov	r1, r7

00408d80 <.LBE889>:
        out[i] = ByteReverseWord64(in[i]);
  408d80:	e9e2 0102 	strd	r0, r1, [r2, #8]!
    for (i = 0; i < count; i++)
  408d84:	4572      	cmp	r2, lr
  408d86:	d1e3      	bne.n	408d50 <.LBB887>

00408d88 <.LBE887>:
        ret = Transform(sha512);
  408d88:	4650      	mov	r0, sl
  408d8a:	f7f7 fa03 	bl	400194 <_etext>

00408d8e <.LVL119>:
        if (ret != 0)
  408d8e:	4602      	mov	r2, r0
  408d90:	2800      	cmp	r0, #0
  408d92:	d151      	bne.n	408e38 <.LBE883>
        sha512->buffLen = 0;
  408d94:	f8ca 6000 	str.w	r6, [sl]

00408d98 <.LVL120>:
    XMEMSET(&local[sha512->buffLen], 0, SHA512_PAD_SIZE - sha512->buffLen);
  408d98:	f8da 0000 	ldr.w	r0, [sl]
  408d9c:	f1c0 0270 	rsb	r2, r0, #112	; 0x70
  408da0:	2100      	movs	r1, #0
  408da2:	9b01      	ldr	r3, [sp, #4]
  408da4:	4418      	add	r0, r3
  408da6:	f002 fe01 	bl	40b9ac <.LFE166>

00408daa <.LVL121>:
    sha512->hiLen = (sha512->loLen >> (8 * sizeof(sha512->loLen) - 3)) +
  408daa:	f8da 7008 	ldr.w	r7, [sl, #8]
  408dae:	f8da 600c 	ldr.w	r6, [sl, #12]
                                                         (sha512->hiLen << 3);
  408db2:	f8da 2010 	ldr.w	r2, [sl, #16]
  408db6:	f8da 3014 	ldr.w	r3, [sl, #20]
  408dba:	00d9      	lsls	r1, r3, #3
  408dbc:	ea41 7152 	orr.w	r1, r1, r2, lsr #29
  408dc0:	00d0      	lsls	r0, r2, #3
    sha512->hiLen = (sha512->loLen >> (8 * sizeof(sha512->loLen) - 3)) +
  408dc2:	0f72      	lsrs	r2, r6, #29
  408dc4:	2300      	movs	r3, #0
  408dc6:	1812      	adds	r2, r2, r0
  408dc8:	414b      	adcs	r3, r1
  408dca:	e9ca 2304 	strd	r2, r3, [sl, #16]
    sha512->loLen = sha512->loLen << 3;
  408dce:	00f6      	lsls	r6, r6, #3
  408dd0:	ea46 7657 	orr.w	r6, r6, r7, lsr #29
  408dd4:	00ff      	lsls	r7, r7, #3
  408dd6:	f8ca 7008 	str.w	r7, [sl, #8]
  408dda:	f8ca 600c 	str.w	r6, [sl, #12]

00408dde <.LVL122>:
  408dde:	f10a 0250 	add.w	r2, sl, #80	; 0x50
  408de2:	f10a 06c0 	add.w	r6, sl, #192	; 0xc0

00408de6 <.LBB897>:
        out[i] = ByteReverseWord64(in[i]);
  408de6:	6893      	ldr	r3, [r2, #8]
  408de8:	68d1      	ldr	r1, [r2, #12]

00408dea <.LBB899>:
    value = ((value & 0xFF00FF00) >> 8) | ((value & 0x00FF00FF) << 8);
  408dea:	0a18      	lsrs	r0, r3, #8
  408dec:	f000 10ff 	and.w	r0, r0, #16711935	; 0xff00ff
  408df0:	021b      	lsls	r3, r3, #8
  408df2:	f003 23ff 	and.w	r3, r3, #4278255360	; 0xff00ff00
  408df6:	4303      	orrs	r3, r0

00408df8 <.LBE901>:
	return (word64)(ByteReverseWord32((word32)value)) << 32 |
  408df8:	ea4f 4533 	mov.w	r5, r3, ror #16
  408dfc:	2400      	movs	r4, #0

00408dfe <.LBB903>:
    value = ((value & 0xFF00FF00) >> 8) | ((value & 0x00FF00FF) << 8);
  408dfe:	0a0b      	lsrs	r3, r1, #8
  408e00:	f003 13ff 	and.w	r3, r3, #16711935	; 0xff00ff
  408e04:	0209      	lsls	r1, r1, #8
  408e06:	f001 21ff 	and.w	r1, r1, #4278255360	; 0xff00ff00
  408e0a:	430b      	orrs	r3, r1

00408e0c <.LBB905>:
        return (x << y) | (x >> (sizeof(y) * 8 - y));
  408e0c:	ea4f 4333 	mov.w	r3, r3, ror #16

00408e10 <.LBE903>:
	return (word64)(ByteReverseWord32((word32)value)) << 32 |
  408e10:	ea44 0003 	orr.w	r0, r4, r3
  408e14:	4629      	mov	r1, r5

00408e16 <.LBE899>:
        out[i] = ByteReverseWord64(in[i]);
  408e16:	e9e2 0102 	strd	r0, r1, [r2, #8]!
    for (i = 0; i < count; i++)
  408e1a:	42b2      	cmp	r2, r6
  408e1c:	d1e3      	bne.n	408de6 <.LBB897>

00408e1e <.LBE897>:
    sha512->buffer[SHA512_BLOCK_SIZE / sizeof(word64) - 2] = sha512->hiLen;
  408e1e:	e9da 2304 	ldrd	r2, r3, [sl, #16]
  408e22:	e9ca 2332 	strd	r2, r3, [sl, #200]	; 0xc8
    sha512->buffer[SHA512_BLOCK_SIZE / sizeof(word64) - 1] = sha512->loLen;
  408e26:	e9da 2302 	ldrd	r2, r3, [sl, #8]
  408e2a:	e9ca 2334 	strd	r2, r3, [sl, #208]	; 0xd0
    ret = Transform(sha512);
  408e2e:	4650      	mov	r0, sl
  408e30:	f7f7 f9b0 	bl	400194 <_etext>

00408e34 <.LVL125>:
    if (ret != 0)
  408e34:	4602      	mov	r2, r0
  408e36:	b118      	cbz	r0, 408e40 <.LBB919>

00408e38 <.LBE883>:
        return ret;

    XMEMCPY(hash, sha384->digest, SHA384_DIGEST_SIZE);

    return InitSha384(sha384);  /* reset state */
}
  408e38:	4610      	mov	r0, r2
  408e3a:	b003      	add	sp, #12

00408e3c <.LCFI16>:
  408e3c:	e8bd 8ff0 	ldmia.w	sp!, {r4, r5, r6, r7, r8, r9, sl, fp, pc}

00408e40 <.LBB919>:
        ByteReverseWords64(sha512->digest, sha512->digest, SHA512_DIGEST_SIZE);
  408e40:	f10a 0618 	add.w	r6, sl, #24

00408e44 <.LVL128>:
  408e44:	f10a 0410 	add.w	r4, sl, #16
  408e48:	f10a 0550 	add.w	r5, sl, #80	; 0x50

00408e4c <.LBB907>:
        out[i] = ByteReverseWord64(in[i]);
  408e4c:	68a3      	ldr	r3, [r4, #8]
  408e4e:	68e1      	ldr	r1, [r4, #12]

00408e50 <.LBB909>:
    value = ((value & 0xFF00FF00) >> 8) | ((value & 0x00FF00FF) << 8);
  408e50:	0a18      	lsrs	r0, r3, #8
  408e52:	f000 10ff 	and.w	r0, r0, #16711935	; 0xff00ff
  408e56:	021b      	lsls	r3, r3, #8
  408e58:	f003 23ff 	and.w	r3, r3, #4278255360	; 0xff00ff00
  408e5c:	4303      	orrs	r3, r0

00408e5e <.LBE911>:
	return (word64)(ByteReverseWord32((word32)value)) << 32 |
  408e5e:	ea4f 4933 	mov.w	r9, r3, ror #16
  408e62:	f04f 0800 	mov.w	r8, #0

00408e66 <.LBB913>:
    value = ((value & 0xFF00FF00) >> 8) | ((value & 0x00FF00FF) << 8);
  408e66:	0a0b      	lsrs	r3, r1, #8
  408e68:	f003 13ff 	and.w	r3, r3, #16711935	; 0xff00ff
  408e6c:	0209      	lsls	r1, r1, #8
  408e6e:	f001 21ff 	and.w	r1, r1, #4278255360	; 0xff00ff00
  408e72:	430b      	orrs	r3, r1

00408e74 <.LBB915>:
        return (x << y) | (x >> (sizeof(y) * 8 - y));
  408e74:	ea4f 4333 	mov.w	r3, r3, ror #16

00408e78 <.LBE913>:
	return (word64)(ByteReverseWord32((word32)value)) << 32 |
  408e78:	ea48 0003 	orr.w	r0, r8, r3
  408e7c:	4649      	mov	r1, r9

00408e7e <.LBE909>:
        out[i] = ByteReverseWord64(in[i]);
  408e7e:	e9e4 0102 	strd	r0, r1, [r4, #8]!
    for (i = 0; i < count; i++)
  408e82:	42ac      	cmp	r4, r5
  408e84:	d1e2      	bne.n	408e4c <.LBB907>

00408e86 <.LBE907>:
    XMEMCPY(hash, sha384->digest, SHA384_DIGEST_SIZE);
  408e86:	4633      	mov	r3, r6
  408e88:	46de      	mov	lr, fp
  408e8a:	3630      	adds	r6, #48	; 0x30

00408e8c <.LVL131>:
  408e8c:	681d      	ldr	r5, [r3, #0]
  408e8e:	685c      	ldr	r4, [r3, #4]
  408e90:	6898      	ldr	r0, [r3, #8]
  408e92:	68d9      	ldr	r1, [r3, #12]
  408e94:	f8ce 5000 	str.w	r5, [lr]
  408e98:	f8ce 4004 	str.w	r4, [lr, #4]
  408e9c:	f8ce 0008 	str.w	r0, [lr, #8]
  408ea0:	f8ce 100c 	str.w	r1, [lr, #12]
  408ea4:	3310      	adds	r3, #16
  408ea6:	f10e 0e10 	add.w	lr, lr, #16
  408eaa:	42b3      	cmp	r3, r6
  408eac:	d1ee      	bne.n	408e8c <.LVL131>

00408eae <.LBB920>:
    sha384->digest[0] = W64LIT(0xcbbb9d5dc1059ed8);
  408eae:	a11e      	add	r1, pc, #120	; (adr r1, 408f28 <.LVL137+0x4>)
  408eb0:	e9d1 0100 	ldrd	r0, r1, [r1]
  408eb4:	e9ca 0106 	strd	r0, r1, [sl, #24]
    sha384->digest[1] = W64LIT(0x629a292a367cd507);
  408eb8:	a11d      	add	r1, pc, #116	; (adr r1, 408f30 <.LVL137+0xc>)
  408eba:	e9d1 0100 	ldrd	r0, r1, [r1]
  408ebe:	e9ca 0108 	strd	r0, r1, [sl, #32]
    sha384->digest[2] = W64LIT(0x9159015a3070dd17);
  408ec2:	a11d      	add	r1, pc, #116	; (adr r1, 408f38 <.LVL137+0x14>)
  408ec4:	e9d1 0100 	ldrd	r0, r1, [r1]
  408ec8:	e9ca 010a 	strd	r0, r1, [sl, #40]	; 0x28
    sha384->digest[3] = W64LIT(0x152fecd8f70e5939);
  408ecc:	a11c      	add	r1, pc, #112	; (adr r1, 408f40 <.LVL137+0x1c>)
  408ece:	e9d1 0100 	ldrd	r0, r1, [r1]
  408ed2:	e9ca 010c 	strd	r0, r1, [sl, #48]	; 0x30
    sha384->digest[4] = W64LIT(0x67332667ffc00b31);
  408ed6:	a11c      	add	r1, pc, #112	; (adr r1, 408f48 <.LVL137+0x24>)
  408ed8:	e9d1 0100 	ldrd	r0, r1, [r1]
  408edc:	e9ca 010e 	strd	r0, r1, [sl, #56]	; 0x38
    sha384->digest[5] = W64LIT(0x8eb44a8768581511);
  408ee0:	a11b      	add	r1, pc, #108	; (adr r1, 408f50 <.LVL137+0x2c>)
  408ee2:	e9d1 0100 	ldrd	r0, r1, [r1]
  408ee6:	e9ca 0110 	strd	r0, r1, [sl, #64]	; 0x40
    sha384->digest[6] = W64LIT(0xdb0c2e0d64f98fa7);
  408eea:	a11b      	add	r1, pc, #108	; (adr r1, 408f58 <.LVL137+0x34>)
  408eec:	e9d1 0100 	ldrd	r0, r1, [r1]
  408ef0:	e9ca 0112 	strd	r0, r1, [sl, #72]	; 0x48
    sha384->digest[7] = W64LIT(0x47b5481dbefa4fa4);
  408ef4:	a11a      	add	r1, pc, #104	; (adr r1, 408f60 <.LVL137+0x3c>)
  408ef6:	e9d1 0100 	ldrd	r0, r1, [r1]
  408efa:	e9ca 0114 	strd	r0, r1, [sl, #80]	; 0x50
    sha384->buffLen = 0;
  408efe:	2300      	movs	r3, #0
  408f00:	f8ca 3000 	str.w	r3, [sl]
    sha384->loLen   = 0;
  408f04:	2000      	movs	r0, #0
  408f06:	2100      	movs	r1, #0
  408f08:	e9ca 0102 	strd	r0, r1, [sl, #8]
    sha384->hiLen   = 0;
  408f0c:	e9ca 0104 	strd	r0, r1, [sl, #16]
  408f10:	e792      	b.n	408e38 <.LBE883>

00408f12 <.LBE920>:
        return BAD_FUNC_ARG;
  408f12:	f06f 02ac 	mvn.w	r2, #172	; 0xac
  408f16:	e78f      	b.n	408e38 <.LBE883>

00408f18 <.LBB922>:
        return BAD_FUNC_ARG;
  408f18:	f06f 02ac 	mvn.w	r2, #172	; 0xac

00408f1c <.LVL135>:
  408f1c:	e78c      	b.n	408e38 <.LBE883>

00408f1e <.LBE922>:
        return BAD_FUNC_ARG;
  408f1e:	f06f 02ac 	mvn.w	r2, #172	; 0xac
}
  408f22:	4610      	mov	r0, r2

00408f24 <.LVL137>:
  408f24:	4770      	bx	lr
  408f26:	bf00      	nop
  408f28:	c1059ed8 	.word	0xc1059ed8
  408f2c:	cbbb9d5d 	.word	0xcbbb9d5d
  408f30:	367cd507 	.word	0x367cd507
  408f34:	629a292a 	.word	0x629a292a
  408f38:	3070dd17 	.word	0x3070dd17
  408f3c:	9159015a 	.word	0x9159015a
  408f40:	f70e5939 	.word	0xf70e5939
  408f44:	152fecd8 	.word	0x152fecd8
  408f48:	ffc00b31 	.word	0xffc00b31
  408f4c:	67332667 	.word	0x67332667
  408f50:	68581511 	.word	0x68581511
  408f54:	8eb44a87 	.word	0x8eb44a87
  408f58:	64f98fa7 	.word	0x64f98fa7
  408f5c:	db0c2e0d 	.word	0xdb0c2e0d
  408f60:	befa4fa4 	.word	0xbefa4fa4
  408f64:	47b5481d 	.word	0x47b5481d

Disassembly of section .rodata.K512%42:

00408f68 <K512>:
  408f68:	d728ae22 428a2f98 23ef65cd 71374491     ".(../.B.e.#.D7q
  408f78:	ec4d3b2f b5c0fbcf 8189dbbc e9b5dba5     /;M.............
  408f88:	f348b538 3956c25b b605d019 59f111f1     8.H.[.V9.......Y
  408f98:	af194f9b 923f82a4 da6d8118 ab1c5ed5     .O....?...m..^..
  408fa8:	a3030242 d807aa98 45706fbe 12835b01     B........opE.[..
  408fb8:	4ee4b28c 243185be d5ffb4e2 550c7dc3     ...N..1$.....}.U
  408fc8:	f27b896f 72be5d74 3b1696b1 80deb1fe     o.{.t].r...;....
  408fd8:	25c71235 9bdc06a7 cf692694 c19bf174     5..%.....&i.t...
  408fe8:	9ef14ad2 e49b69c1 384f25e3 efbe4786     .J...i...%O8.G..
  408ff8:	8b8cd5b5 0fc19dc6 77ac9c65 240ca1cc     ........e..w...$
  409008:	592b0275 2de92c6f 6ea6e483 4a7484aa     u.+Yo,.-...n..tJ
  409018:	bd41fbd4 5cb0a9dc 831153b5 76f988da     ..A....\.S.....v
  409028:	ee66dfab 983e5152 2db43210 a831c66d     ..f.RQ>..2.-m.1.
  409038:	98fb213f b00327c8 beef0ee4 bf597fc7     ?!...'........Y.
  409048:	3da88fc2 c6e00bf3 930aa725 d5a79147     ...=....%...G...
  409058:	e003826f 06ca6351 0a0e6e70 14292967     o...Qc..pn..g)).
  409068:	46d22ffc 27b70a85 5c26c926 2e1b2138     ./.F...'&.&\8!..
  409078:	5ac42aed 4d2c6dfc 9d95b3df 53380d13     .*.Z.m,M......8S
  409088:	8baf63de 650a7354 3c77b2a8 766a0abb     .c..Ts.e..w<..jv
  409098:	47edaee6 81c2c92e 1482353b 92722c85     ...G....;5...,r.
  4090a8:	4cf10364 a2bfe8a1 bc423001 a81a664b     d..L.....0B.Kf..
  4090b8:	d0f89791 c24b8b70 0654be30 c76c51a3     ....p.K.0.T..Ql.
  4090c8:	d6ef5218 d192e819 5565a910 d6990624     .R........eU$...
  4090d8:	5771202a f40e3585 32bbd1b8 106aa070     * qW.5.....2p.j.
  4090e8:	b8d2d0c8 19a4c116 5141ab53 1e376c08     ........S.AQ.l7.
  4090f8:	df8eeb99 2748774c e19b48a8 34b0bcb5     ....LwH'.H.....4
  409108:	c5c95a63 391c0cb3 e3418acb 4ed8aa4a     cZ.....9..A.J..N
  409118:	7763e373 5b9cca4f d6b2b8a3 682e6ff3     s.cwO..[.....o.h
  409128:	5defb2fc 748f82ee 43172f60 78a5636f     ...]...t`/.Coc.x
  409138:	a1f0ab72 84c87814 1a6439ec 8cc70208     r....x...9d.....
  409148:	23631e28 90befffa de82bde9 a4506ceb     (.c#.........lP.
  409158:	b2c67915 bef9a3f7 e372532b c67178f2     .y......+Sr..xq.
  409168:	ea26619c ca273ece 21c0c207 d186b8c7     .a&..>'....!....
  409178:	cde0eb1e eada7dd6 ee6ed178 f57d4f7f     .....}..x.n..O}.
  409188:	72176fba 06f067aa a2c898a6 0a637dc5     .o.r.g.......}c.
  409198:	bef90dae 113f9804 131c471b 1b710b35     ......?..G..5.q.
  4091a8:	23047d84 28db77f5 40c72493 32caab7b     .}.#.w.(.$.@{..2
  4091b8:	15c9bebc 3c9ebe0a 9c100d4c 431d67c4     .......<L....g.C
  4091c8:	cb3e42b6 4cc5d4be fc657e2a 597f299c     .B>....L*~e..).Y
  4091d8:	3ad6faec 5fcb6fab 4a475817 6c44198c     ...:.o._.XGJ..Dl

Disassembly of section .rodata%43:

004091e8 <.LANCHOR0>:
  4091e8:	0000000d 	.word	0x0000000d
  4091ec:	7261485b 	.word	0x7261485b
  4091f0:	75614664 	.word	0x75614664
  4091f4:	0d5d746c 	.word	0x0d5d746c
  4091f8:	00000000 	.word	0x00000000
  4091fc:	7453202d 	.word	0x7453202d
  409200:	206b6361 	.word	0x206b6361
  409204:	6d617266 	.word	0x6d617266
  409208:	000d3a65 	.word	0x000d3a65
  40920c:	20305220 	.word	0x20305220
  409210:	30203d20 	.word	0x30203d20
  409214:	38302578 	.word	0x38302578
  409218:	0a0d586c 	.word	0x0a0d586c
  40921c:	00000000 	.word	0x00000000
  409220:	20315220 	.word	0x20315220
  409224:	30203d20 	.word	0x30203d20
  409228:	38302578 	.word	0x38302578
  40922c:	0a0d586c 	.word	0x0a0d586c
  409230:	00000000 	.word	0x00000000
  409234:	20325220 	.word	0x20325220
  409238:	30203d20 	.word	0x30203d20
  40923c:	38302578 	.word	0x38302578
  409240:	0a0d586c 	.word	0x0a0d586c
  409244:	00000000 	.word	0x00000000
  409248:	20335220 	.word	0x20335220
  40924c:	30203d20 	.word	0x30203d20
  409250:	38302578 	.word	0x38302578
  409254:	0a0d586c 	.word	0x0a0d586c
  409258:	00000000 	.word	0x00000000
  40925c:	32315220 	.word	0x32315220
  409260:	30203d20 	.word	0x30203d20
  409264:	38302578 	.word	0x38302578
  409268:	0a0d586c 	.word	0x0a0d586c
  40926c:	00000000 	.word	0x00000000
  409270:	20524c20 	.word	0x20524c20
  409274:	30203d20 	.word	0x30203d20
  409278:	38302578 	.word	0x38302578
  40927c:	0a0d586c 	.word	0x0a0d586c
  409280:	00000000 	.word	0x00000000
  409284:	20435020 	.word	0x20435020
  409288:	30203d20 	.word	0x30203d20
  40928c:	38302578 	.word	0x38302578
  409290:	0a0d586c 	.word	0x0a0d586c
  409294:	00000000 	.word	0x00000000
  409298:	52535020 	.word	0x52535020
  40929c:	30203d20 	.word	0x30203d20
  4092a0:	38302578 	.word	0x38302578
  4092a4:	0a0d586c 	.word	0x0a0d586c
  4092a8:	00000000 	.word	0x00000000
  4092ac:	5346202d 	.word	0x5346202d
  4092b0:	41462f52 	.word	0x41462f52
  4092b4:	000d3a52 	.word	0x000d3a52
  4092b8:	53464320 	.word	0x53464320
  4092bc:	203d2052 	.word	0x203d2052
  4092c0:	30257830 	.word	0x30257830
  4092c4:	0d586c38 	.word	0x0d586c38
  4092c8:	0000000a 	.word	0x0000000a
  4092cc:	53464820 	.word	0x53464820
  4092d0:	203d2052 	.word	0x203d2052
  4092d4:	30257830 	.word	0x30257830
  4092d8:	0d586c38 	.word	0x0d586c38
  4092dc:	0000000a 	.word	0x0000000a
  4092e0:	53464420 	.word	0x53464420
  4092e4:	203d2052 	.word	0x203d2052
  4092e8:	30257830 	.word	0x30257830
  4092ec:	0d586c38 	.word	0x0d586c38
  4092f0:	0000000a 	.word	0x0000000a
  4092f4:	53464120 	.word	0x53464120
  4092f8:	203d2052 	.word	0x203d2052
  4092fc:	30257830 	.word	0x30257830
  409300:	0d586c38 	.word	0x0d586c38
  409304:	0000000a 	.word	0x0000000a
  409308:	464d4d20 	.word	0x464d4d20
  40930c:	3d205241 	.word	0x3d205241
  409310:	25783020 	.word	0x25783020
  409314:	586c3830 	.word	0x586c3830
  409318:	00000a0d 	.word	0x00000a0d
  40931c:	41464220 	.word	0x41464220
  409320:	203d2052 	.word	0x203d2052
  409324:	30257830 	.word	0x30257830
  409328:	0d586c38 	.word	0x0d586c38
  40932c:	0000000a 	.word	0x0000000a
  409330:	694d202d 	.word	0x694d202d
  409334:	000d6373 	.word	0x000d6373
  409338:	2f524c20 	.word	0x2f524c20
  40933c:	5f435845 	.word	0x5f435845
  409340:	55544552 	.word	0x55544552
  409344:	3d204e52 	.word	0x3d204e52
  409348:	25783020 	.word	0x25783020
  40934c:	42202c58 	.word	0x42202c58
  409350:	32207469 	.word	0x32207469
  409354:	6425203a 	.word	0x6425203a
  409358:	00000a0d 	.word	0x00000a0d
  40935c:	6265445b 	.word	0x6265445b
  409360:	61466775 	.word	0x61466775
  409364:	5d746c75 	.word	0x5d746c75
  409368:	0000000d 	.word	0x0000000d
  40936c:	6d654d5b 	.word	0x6d654d5b
  409370:	4d79726f 	.word	0x4d79726f
  409374:	67616e61 	.word	0x67616e61
  409378:	6e656d65 	.word	0x6e656d65
  40937c:	000d5d74 	.word	0x000d5d74
  409380:	53464320 	.word	0x53464320
  409384:	3d202052 	.word	0x3d202052
  409388:	25783020 	.word	0x25783020
  40938c:	586c3830 	.word	0x586c3830
  409390:	00000a0d 	.word	0x00000a0d
  409394:	464d4d20 	.word	0x464d4d20
  409398:	3d205253 	.word	0x3d205253
  40939c:	25783020 	.word	0x25783020
  4093a0:	0d583230 	.word	0x0d583230
  4093a4:	0000000a 	.word	0x0000000a
  4093a8:	53464820 	.word	0x53464820
  4093ac:	3d202052 	.word	0x3d202052
  4093b0:	25783020 	.word	0x25783020
  4093b4:	586c3830 	.word	0x586c3830
  4093b8:	00000a0d 	.word	0x00000a0d
  4093bc:	53464420 	.word	0x53464420
  4093c0:	3d202052 	.word	0x3d202052
  4093c4:	25783020 	.word	0x25783020
  4093c8:	586c3830 	.word	0x586c3830
  4093cc:	00000a0d 	.word	0x00000a0d
  4093d0:	53464120 	.word	0x53464120
  4093d4:	3d202052 	.word	0x3d202052
  4093d8:	25783020 	.word	0x25783020
  4093dc:	586c3830 	.word	0x586c3830
  4093e0:	00000a0d 	.word	0x00000a0d
  4093e4:	7375425b 	.word	0x7375425b
  4093e8:	6c756146 	.word	0x6c756146
  4093ec:	000d5d74 	.word	0x000d5d74
  4093f0:	53464220 	.word	0x53464220
  4093f4:	3d202052 	.word	0x3d202052
  4093f8:	25783020 	.word	0x25783020
  4093fc:	0d583230 	.word	0x0d583230
  409400:	0000000a 	.word	0x0000000a
  409404:	46424120 	.word	0x46424120
  409408:	3d205253 	.word	0x3d205253
  40940c:	25783020 	.word	0x25783020
  409410:	586c3830 	.word	0x586c3830
  409414:	00000a0d 	.word	0x00000a0d
  409418:	6173555b 	.word	0x6173555b
  40941c:	61466567 	.word	0x61466567
  409420:	5d746c75 	.word	0x5d746c75
  409424:	0000000d 	.word	0x0000000d
  409428:	53465520 	.word	0x53465520
  40942c:	203d2052 	.word	0x203d2052
  409430:	30257830 	.word	0x30257830
  409434:	0a0d5834 	.word	0x0a0d5834
  409438:	00          	.byte	0x00
  409439:	00          	.byte	0x00
  40943a:	bf00      	nop

Disassembly of section .text.APP_Tasks%44:

0040943c <APP_Tasks>:

  Remarks:
    See prototype in app.h.
 */

void APP_Tasks(void) {
  40943c:	b570      	push	{r4, r5, r6, lr}

0040943e <.LCFI18>:

    static int i;

    /* Check the application's current state. */
    switch (appData.state) {
  40943e:	4b80      	ldr	r3, [pc, #512]	; (409640 <.LBE44+0xe>)
  409440:	781b      	ldrb	r3, [r3, #0]
  409442:	2b08      	cmp	r3, #8
  409444:	f200 80fa 	bhi.w	40963c <.LBE44+0xa>
  409448:	e8df f013 	tbh	[pc, r3, lsl #1]
  40944c:	000d0009 	.word	0x000d0009
  409450:	00190013 	.word	0x00190013
  409454:	0025001f 	.word	0x0025001f
  409458:	00ee002e 	.word	0x00ee002e
  40945c:	00b7      	.short	0x00b7
            //            SYS_MESSAGE("SYS_MESSAGE:" "\r\n Application created " __DATE__ " " __TIME__ " initialized!\r\n");            
            //            SYS_DEBUG(SYS_ERROR_INFO,"SYS_DEBUG:" "\r\n Application created " __DATE__ " " __TIME__ " initialized!\r\n");
            // SYS_CONSOLE_Write(SYS_CONSOLE_INDEX_0, STDOUT_FILENO, msgBuffer, strlen(msgBuffer));            


            appData.state = APP_STATE_RUN_MD5_FEED;
  40945e:	2201      	movs	r2, #1
  409460:	4b77      	ldr	r3, [pc, #476]	; (409640 <.LBE44+0xe>)
  409462:	701a      	strb	r2, [r3, #0]
            break;
  409464:	bd70      	pop	{r4, r5, r6, pc}
            appData.state = APP_STATE_RUN_MD5_FEED;
            break;
#endif

        case APP_STATE_RUN_MD5_FEED:
            APP_Md5Run_Feed();
  409466:	f003 f86d 	bl	40c544 <APP_Md5Run_Feed>

0040946a <.LVL61>:
            appData.state = APP_STATE_RUN_SHA1_FEED;
  40946a:	2202      	movs	r2, #2
  40946c:	4b74      	ldr	r3, [pc, #464]	; (409640 <.LBE44+0xe>)
  40946e:	701a      	strb	r2, [r3, #0]
            break;
  409470:	bd70      	pop	{r4, r5, r6, pc}

        case APP_STATE_RUN_SHA1_FEED:
            APP_ShaRun_Feed();
  409472:	f002 ff15 	bl	40c2a0 <.LFE143>

00409476 <.LVL62>:
            appData.state = APP_STATE_RUN_SHA256_FEED;
  409476:	2203      	movs	r2, #3
  409478:	4b71      	ldr	r3, [pc, #452]	; (409640 <.LBE44+0xe>)
  40947a:	701a      	strb	r2, [r3, #0]
            break;
  40947c:	bd70      	pop	{r4, r5, r6, pc}

        case APP_STATE_RUN_SHA256_FEED:
            APP_Sha256Run_Feed();
  40947e:	f002 ff49 	bl	40c314 <.LFE166>

00409482 <.LVL63>:
            appData.state = APP_STATE_RUN_SHA384_FEED;
  409482:	2204      	movs	r2, #4
  409484:	4b6e      	ldr	r3, [pc, #440]	; (409640 <.LBE44+0xe>)
  409486:	701a      	strb	r2, [r3, #0]
            break;
  409488:	bd70      	pop	{r4, r5, r6, pc}

        case APP_STATE_RUN_SHA384_FEED:
            APP_Sha384Run_Feed();
  40948a:	f003 f9e5 	bl	40c858 <APP_Sha384Run_Feed>

0040948e <.LVL64>:
            appData.state = APP_STATE_RUN_SHA512_FEED;
  40948e:	2205      	movs	r2, #5
  409490:	4b6b      	ldr	r3, [pc, #428]	; (409640 <.LBE44+0xe>)
  409492:	701a      	strb	r2, [r3, #0]
            break;
  409494:	bd70      	pop	{r4, r5, r6, pc}

        case APP_STATE_RUN_SHA512_FEED:
            APP_Sha512Run_Feed();
  409496:	f003 fa0d 	bl	40c8b4 <.LFE168>

0040949a <.LVL65>:
            i = 0;
  40949a:	2200      	movs	r2, #0
  40949c:	4b69      	ldr	r3, [pc, #420]	; (409644 <.LBE44+0x12>)
  40949e:	601a      	str	r2, [r3, #0]
            appData.state = APP_STATE_DISPLAY_RESULTS;
  4094a0:	2206      	movs	r2, #6
  4094a2:	4b67      	ldr	r3, [pc, #412]	; (409640 <.LBE44+0xe>)
  4094a4:	701a      	strb	r2, [r3, #0]
            break;
  4094a6:	bd70      	pop	{r4, r5, r6, pc}

        case APP_STATE_DISPLAY_RESULTS:
            switch (i) {
  4094a8:	4b66      	ldr	r3, [pc, #408]	; (409644 <.LBE44+0x12>)
  4094aa:	681b      	ldr	r3, [r3, #0]
  4094ac:	3b01      	subs	r3, #1
  4094ae:	2b08      	cmp	r3, #8
  4094b0:	d81c      	bhi.n	4094ec <.LVL68>
  4094b2:	e8df f003 	tbb	[pc, r3]
  4094b6:	1b05      	.short	0x1b05
  4094b8:	1b3d1b26 	.word	0x1b3d1b26
  4094bc:	1b54      	.short	0x1b54
  4094be:	6b          	.byte	0x6b
  4094bf:	00          	.byte	0x00
                    sprintf(printBuffer, "%s\t took %d clock cycles", printBuffer, (int) appData.md5_timing);
#endif
                    break;

                case 1:
                    sprintf(printBuffer, "%s\n\rMD5 from feed:     ", printBuffer);
  4094c0:	4c61      	ldr	r4, [pc, #388]	; (409648 <.LBE44+0x16>)
  4094c2:	4d62      	ldr	r5, [pc, #392]	; (40964c <.LBE44+0x1a>)
  4094c4:	4622      	mov	r2, r4
  4094c6:	f105 0108 	add.w	r1, r5, #8
  4094ca:	4620      	mov	r0, r4
  4094cc:	f003 fb46 	bl	40cb5c <.LFE166>

004094d0 <.LVL66>:
                    APP_DisplayHash(appData.md5_feed_result, CRYPT_MD5_DIGEST_SIZE);
  4094d0:	4e5b      	ldr	r6, [pc, #364]	; (409640 <.LBE44+0xe>)
  4094d2:	2110      	movs	r1, #16
  4094d4:	f106 00cc 	add.w	r0, r6, #204	; 0xcc
  4094d8:	f003 fe4a 	bl	40d170 <L0>

004094dc <.LVL67>:
                    sprintf(printBuffer, "%s\t took %d clock cycles", printBuffer, (int) appData.md5_feed_timing);
  4094dc:	f8d6 30dc 	ldr.w	r3, [r6, #220]	; 0xdc
  4094e0:	4622      	mov	r2, r4
  4094e2:	f105 0120 	add.w	r1, r5, #32
  4094e6:	4620      	mov	r0, r4
  4094e8:	f003 fb38 	bl	40cb5c <.LFE166>

004094ec <.LVL68>:
                    sprintf(printBuffer, "%s\n\rSHA512 from feed:  ", printBuffer);
                    APP_DisplayHash(appData.sha512_feed_result, CRYPT_SHA512_DIGEST_SIZE);
                    sprintf(printBuffer, "%s\t took %d clock cycles", printBuffer, (int) appData.sha512_feed_timing);
                    break;
            }
            i++;
  4094ec:	4a55      	ldr	r2, [pc, #340]	; (409644 <.LBE44+0x12>)
  4094ee:	6813      	ldr	r3, [r2, #0]
  4094f0:	3301      	adds	r3, #1
  4094f2:	6013      	str	r3, [r2, #0]
            if (i > 9)
  4094f4:	2b09      	cmp	r3, #9
                appData.state = APP_STATE_CHECK_RESULTS;
  4094f6:	bfcc      	ite	gt
  4094f8:	2208      	movgt	r2, #8
            else {
                appData.state = APP_STATE_WAIT_FOR_CONSOLE;
  4094fa:	2207      	movle	r2, #7
  4094fc:	4b50      	ldr	r3, [pc, #320]	; (409640 <.LBE44+0xe>)
  4094fe:	701a      	strb	r2, [r3, #0]
  409500:	bd70      	pop	{r4, r5, r6, pc}
                    sprintf(printBuffer, "%s\n\rSHA from feed:     ", printBuffer);
  409502:	4c51      	ldr	r4, [pc, #324]	; (409648 <.LBE44+0x16>)
  409504:	4d51      	ldr	r5, [pc, #324]	; (40964c <.LBE44+0x1a>)
  409506:	4622      	mov	r2, r4
  409508:	f105 013c 	add.w	r1, r5, #60	; 0x3c
  40950c:	4620      	mov	r0, r4
  40950e:	f003 fb25 	bl	40cb5c <.LFE166>

00409512 <.LVL69>:
                    APP_DisplayHash(appData.sha1_feed_result, CRYPT_SHA_DIGEST_SIZE);
  409512:	4e4b      	ldr	r6, [pc, #300]	; (409640 <.LBE44+0xe>)
  409514:	2114      	movs	r1, #20
  409516:	f106 00e0 	add.w	r0, r6, #224	; 0xe0
  40951a:	f003 fe29 	bl	40d170 <L0>

0040951e <.LVL70>:
                    sprintf(printBuffer, "%s\t took %d clock cycles", printBuffer, (int) appData.sha1_feed_timing);
  40951e:	f8d6 30f4 	ldr.w	r3, [r6, #244]	; 0xf4
  409522:	4622      	mov	r2, r4
  409524:	f105 0120 	add.w	r1, r5, #32
  409528:	4620      	mov	r0, r4
  40952a:	f003 fb17 	bl	40cb5c <.LFE166>

0040952e <.LVL71>:
                    break;
  40952e:	e7dd      	b.n	4094ec <.LVL68>
                    sprintf(printBuffer, "%s\n\rSHA256 from feed:  ", printBuffer);
  409530:	4c45      	ldr	r4, [pc, #276]	; (409648 <.LBE44+0x16>)
  409532:	4d46      	ldr	r5, [pc, #280]	; (40964c <.LBE44+0x1a>)
  409534:	4622      	mov	r2, r4
  409536:	f105 0154 	add.w	r1, r5, #84	; 0x54
  40953a:	4620      	mov	r0, r4
  40953c:	f003 fb0e 	bl	40cb5c <.LFE166>

00409540 <.LVL72>:
                    APP_DisplayHash(appData.sha256_feed_result, CRYPT_SHA256_DIGEST_SIZE);
  409540:	4e3f      	ldr	r6, [pc, #252]	; (409640 <.LBE44+0xe>)
  409542:	2120      	movs	r1, #32
  409544:	f106 00f8 	add.w	r0, r6, #248	; 0xf8
  409548:	f003 fe12 	bl	40d170 <L0>

0040954c <.LVL73>:
                    sprintf(printBuffer, "%s\t took %d clock cycles", printBuffer, (int) appData.sha256_feed_timing);
  40954c:	f8d6 3118 	ldr.w	r3, [r6, #280]	; 0x118
  409550:	4622      	mov	r2, r4
  409552:	f105 0120 	add.w	r1, r5, #32
  409556:	4620      	mov	r0, r4
  409558:	f003 fb00 	bl	40cb5c <.LFE166>

0040955c <.LVL74>:
                    break;
  40955c:	e7c6      	b.n	4094ec <.LVL68>
                    sprintf(printBuffer, "%s\n\rSHA384 from feed:  ", printBuffer);
  40955e:	4c3a      	ldr	r4, [pc, #232]	; (409648 <.LBE44+0x16>)
  409560:	4d3a      	ldr	r5, [pc, #232]	; (40964c <.LBE44+0x1a>)
  409562:	4622      	mov	r2, r4
  409564:	f105 016c 	add.w	r1, r5, #108	; 0x6c
  409568:	4620      	mov	r0, r4
  40956a:	f003 faf7 	bl	40cb5c <.LFE166>

0040956e <.LVL75>:
                    APP_DisplayHash(appData.sha384_feed_result, CRYPT_SHA384_DIGEST_SIZE);
  40956e:	4e34      	ldr	r6, [pc, #208]	; (409640 <.LBE44+0xe>)
  409570:	2130      	movs	r1, #48	; 0x30
  409572:	f506 708e 	add.w	r0, r6, #284	; 0x11c
  409576:	f003 fdfb 	bl	40d170 <L0>

0040957a <.LVL76>:
                    sprintf(printBuffer, "%s\t took %d clock cycles", printBuffer, (int) appData.sha384_feed_timing);
  40957a:	f8d6 314c 	ldr.w	r3, [r6, #332]	; 0x14c
  40957e:	4622      	mov	r2, r4
  409580:	f105 0120 	add.w	r1, r5, #32
  409584:	4620      	mov	r0, r4
  409586:	f003 fae9 	bl	40cb5c <.LFE166>

0040958a <.LVL77>:
                    break;
  40958a:	e7af      	b.n	4094ec <.LVL68>
                    sprintf(printBuffer, "%s\n\rSHA512 from feed:  ", printBuffer);
  40958c:	4c2e      	ldr	r4, [pc, #184]	; (409648 <.LBE44+0x16>)
  40958e:	4d2f      	ldr	r5, [pc, #188]	; (40964c <.LBE44+0x1a>)
  409590:	4622      	mov	r2, r4
  409592:	f105 0184 	add.w	r1, r5, #132	; 0x84
  409596:	4620      	mov	r0, r4
  409598:	f003 fae0 	bl	40cb5c <.LFE166>

0040959c <.LVL78>:
                    APP_DisplayHash(appData.sha512_feed_result, CRYPT_SHA512_DIGEST_SIZE);
  40959c:	4e28      	ldr	r6, [pc, #160]	; (409640 <.LBE44+0xe>)
  40959e:	2140      	movs	r1, #64	; 0x40
  4095a0:	f506 70a8 	add.w	r0, r6, #336	; 0x150
  4095a4:	f003 fde4 	bl	40d170 <L0>

004095a8 <.LVL79>:
                    sprintf(printBuffer, "%s\t took %d clock cycles", printBuffer, (int) appData.sha512_feed_timing);
  4095a8:	f8d6 3190 	ldr.w	r3, [r6, #400]	; 0x190
  4095ac:	4622      	mov	r2, r4
  4095ae:	f105 0120 	add.w	r1, r5, #32
  4095b2:	4620      	mov	r0, r4
  4095b4:	f003 fad2 	bl	40cb5c <.LFE166>

004095b8 <.LVL80>:
                    break;
  4095b8:	e798      	b.n	4094ec <.LVL68>
                    memcmp(SHAExpected, appData.sha1_result, CRYPT_SHA_DIGEST_SIZE) ||
                    memcmp(SHA256Expected, appData.sha256_result, CRYPT_SHA256_DIGEST_SIZE) ||
                    memcmp(SHA384Expected, appData.sha384_result, CRYPT_SHA384_DIGEST_SIZE) ||
                    memcmp(SHA512Expected, appData.sha512_result, CRYPT_SHA512_DIGEST_SIZE) ||
#endif
                    memcmp(MD5Expected, appData.md5_feed_result, CRYPT_MD5_DIGEST_SIZE) ||
  4095ba:	2210      	movs	r2, #16
  4095bc:	4924      	ldr	r1, [pc, #144]	; (409650 <.LBE44+0x1e>)
  4095be:	4825      	ldr	r0, [pc, #148]	; (409654 <.LBE44+0x22>)
  4095c0:	f003 f8ba 	bl	40c738 <.LFE163>

004095c4 <.LVL81>:
            if (
  4095c4:	b9b8      	cbnz	r0, 4095f6 <.LVL85+0x2>
                    memcmp(SHAExpected, appData.sha1_feed_result, CRYPT_SHA_DIGEST_SIZE) ||
  4095c6:	2214      	movs	r2, #20
  4095c8:	4923      	ldr	r1, [pc, #140]	; (409658 <.LBE44+0x26>)
  4095ca:	4824      	ldr	r0, [pc, #144]	; (40965c <.LBE44+0x2a>)
  4095cc:	f003 f8b4 	bl	40c738 <.LFE163>

004095d0 <.LVL82>:
                    memcmp(MD5Expected, appData.md5_feed_result, CRYPT_MD5_DIGEST_SIZE) ||
  4095d0:	b988      	cbnz	r0, 4095f6 <.LVL85+0x2>
                    memcmp(SHA256Expected, appData.sha256_feed_result, CRYPT_SHA256_DIGEST_SIZE) ||
  4095d2:	2220      	movs	r2, #32
  4095d4:	4922      	ldr	r1, [pc, #136]	; (409660 <.LBE44+0x2e>)
  4095d6:	4823      	ldr	r0, [pc, #140]	; (409664 <.LBE44+0x32>)
  4095d8:	f003 f8ae 	bl	40c738 <.LFE163>

004095dc <.LVL83>:
                    memcmp(SHAExpected, appData.sha1_feed_result, CRYPT_SHA_DIGEST_SIZE) ||
  4095dc:	b958      	cbnz	r0, 4095f6 <.LVL85+0x2>
                    memcmp(SHA384Expected, appData.sha384_feed_result, CRYPT_SHA384_DIGEST_SIZE) ||
  4095de:	2230      	movs	r2, #48	; 0x30
  4095e0:	4921      	ldr	r1, [pc, #132]	; (409668 <.LBE44+0x36>)
  4095e2:	4822      	ldr	r0, [pc, #136]	; (40966c <.LBE44+0x3a>)
  4095e4:	f003 f8a8 	bl	40c738 <.LFE163>

004095e8 <.LVL84>:
                    memcmp(SHA256Expected, appData.sha256_feed_result, CRYPT_SHA256_DIGEST_SIZE) ||
  4095e8:	b928      	cbnz	r0, 4095f6 <.LVL85+0x2>
                    memcmp(SHA512Expected, appData.sha512_feed_result, CRYPT_SHA512_DIGEST_SIZE)) {
  4095ea:	2240      	movs	r2, #64	; 0x40
  4095ec:	4920      	ldr	r1, [pc, #128]	; (409670 <.LBE44+0x3e>)
  4095ee:	4821      	ldr	r0, [pc, #132]	; (409674 <.LBE44+0x42>)
  4095f0:	f003 f8a2 	bl	40c738 <.LFE163>

004095f4 <.LVL85>:
                    memcmp(SHA384Expected, appData.sha384_feed_result, CRYPT_SHA384_DIGEST_SIZE) ||
  4095f4:	b190      	cbz	r0, 40961c <.LVL88+0x8>
                // We had an error during comparions
                sprintf(printBuffer, "%s\n\rA test failed.", printBuffer);
  4095f6:	4814      	ldr	r0, [pc, #80]	; (409648 <.LBE44+0x16>)
  4095f8:	4602      	mov	r2, r0
  4095fa:	491f      	ldr	r1, [pc, #124]	; (409678 <.LBE44+0x46>)
  4095fc:	f003 faae 	bl	40cb5c <.LFE166>

00409600 <.LVL86>:
                //BSP_LEDOn(BSP_LED_1);
            } else {
                sprintf(printBuffer, "%s\n\rAll tests passed.", printBuffer);
                //BSP_LEDOn(BSP_LED_3);
            }
            SYS_CONSOLE_Write(SYS_CONSOLE_INDEX_0, STDOUT_FILENO, printBuffer, strlen(printBuffer));
  409600:	4c11      	ldr	r4, [pc, #68]	; (409648 <.LBE44+0x16>)
  409602:	4620      	mov	r0, r4
  409604:	f001 fbbc 	bl	40ad80 <strlen>

00409608 <.LVL87>:
  409608:	4603      	mov	r3, r0
  40960a:	4622      	mov	r2, r4
  40960c:	2101      	movs	r1, #1
  40960e:	2000      	movs	r0, #0
  409610:	f003 fd66 	bl	40d0e0 <.LFE0>

00409614 <.LVL88>:
            appData.state = APP_SPIN;
  409614:	2209      	movs	r2, #9
  409616:	4b0a      	ldr	r3, [pc, #40]	; (409640 <.LBE44+0xe>)
  409618:	701a      	strb	r2, [r3, #0]
            break;
  40961a:	bd70      	pop	{r4, r5, r6, pc}
                sprintf(printBuffer, "%s\n\rAll tests passed.", printBuffer);
  40961c:	480a      	ldr	r0, [pc, #40]	; (409648 <.LBE44+0x16>)
  40961e:	4602      	mov	r2, r0
  409620:	4916      	ldr	r1, [pc, #88]	; (40967c <.LBE44+0x4a>)
  409622:	f003 fa9b 	bl	40cb5c <.LFE166>

00409626 <.LVL89>:
  409626:	e7eb      	b.n	409600 <.LVL86>

        case APP_STATE_WAIT_FOR_CONSOLE:
            //            if (appData.wrComplete)
            if (appData.wallTime <= APP_getTicks())
  409628:	4b05      	ldr	r3, [pc, #20]	; (409640 <.LBE44+0xe>)
  40962a:	f8d3 4194 	ldr.w	r4, [r3, #404]	; 0x194

0040962e <.LBB44>:
    return SYS_TIME_CounterGet();
  40962e:	f003 fd6f 	bl	40d110 <.LFE6>

00409632 <.LBE44>:
            if (appData.wallTime <= APP_getTicks())
  409632:	4284      	cmp	r4, r0
  409634:	d802      	bhi.n	40963c <.LBE44+0xa>
                appData.state = APP_STATE_DISPLAY_RESULTS;
  409636:	2206      	movs	r2, #6
  409638:	4b01      	ldr	r3, [pc, #4]	; (409640 <.LBE44+0xe>)
  40963a:	701a      	strb	r2, [r3, #0]
  40963c:	bd70      	pop	{r4, r5, r6, pc}
  40963e:	bf00      	nop
  409640:	2040d6b8 	.word	0x2040d6b8
  409644:	2040dce0 	.word	0x2040dce0
  409648:	20400488 	.word	0x20400488
  40964c:	0040a4ec 	.word	0x0040a4ec
  409650:	2040d784 	.word	0x2040d784
  409654:	0040d728 	.word	0x0040d728
  409658:	2040d798 	.word	0x2040d798
  40965c:	0040ad68 	.word	0x0040ad68
  409660:	2040d7b0 	.word	0x2040d7b0
  409664:	0040d3c0 	.word	0x0040d3c0
  409668:	2040d7d4 	.word	0x2040d7d4
  40966c:	0040d078 	.word	0x0040d078
  409670:	2040d808 	.word	0x2040d808
  409674:	0040cd10 	.word	0x0040cd10
  409678:	0040a588 	.word	0x0040a588
  40967c:	0040a59c 	.word	0x0040a59c

Disassembly of section .text._free_r%45:

00409680 <_free_r>:
  409680:	2900      	cmp	r1, #0
  409682:	d044      	beq.n	40970e <.LVL43>
  409684:	e92d 41f0 	stmdb	sp!, {r4, r5, r6, r7, r8, lr}

00409688 <.LCFI1>:
  409688:	460d      	mov	r5, r1
  40968a:	4680      	mov	r8, r0
  40968c:	f004 f9ac 	bl	40d9e8 <__malloc_lock>

00409690 <.LVL24>:
  409690:	f855 7c04 	ldr.w	r7, [r5, #-4]
  409694:	4969      	ldr	r1, [pc, #420]	; (40983c <.LVL82+0xa>)
  409696:	f027 0301 	bic.w	r3, r7, #1
  40969a:	f1a5 0408 	sub.w	r4, r5, #8

0040969e <.LVL25>:
  40969e:	18e2      	adds	r2, r4, r3

004096a0 <.LVL26>:
  4096a0:	688e      	ldr	r6, [r1, #8]
  4096a2:	6850      	ldr	r0, [r2, #4]
  4096a4:	42b2      	cmp	r2, r6
  4096a6:	f020 0003 	bic.w	r0, r0, #3

004096aa <.LVL27>:
  4096aa:	d05e      	beq.n	40976a <.LVL56>
  4096ac:	07fe      	lsls	r6, r7, #31
  4096ae:	6050      	str	r0, [r2, #4]

004096b0 <.LVL28>:
  4096b0:	d40b      	bmi.n	4096ca <.LVL34>
  4096b2:	f855 7c08 	ldr.w	r7, [r5, #-8]

004096b6 <.LVL29>:
  4096b6:	1be4      	subs	r4, r4, r7
  4096b8:	f101 0e08 	add.w	lr, r1, #8
  4096bc:	68a5      	ldr	r5, [r4, #8]

004096be <.LVL31>:
  4096be:	4575      	cmp	r5, lr
  4096c0:	443b      	add	r3, r7
  4096c2:	d06d      	beq.n	4097a0 <.LVL70>
  4096c4:	68e7      	ldr	r7, [r4, #12]

004096c6 <.LVL33>:
  4096c6:	60ef      	str	r7, [r5, #12]
  4096c8:	60bd      	str	r5, [r7, #8]

004096ca <.LVL34>:
  4096ca:	1815      	adds	r5, r2, r0
  4096cc:	686d      	ldr	r5, [r5, #4]
  4096ce:	07ed      	lsls	r5, r5, #31
  4096d0:	d53e      	bpl.n	409750 <.LCFI5>
  4096d2:	f043 0201 	orr.w	r2, r3, #1

004096d6 <.LVL35>:
  4096d6:	6062      	str	r2, [r4, #4]
  4096d8:	50e3      	str	r3, [r4, r3]

004096da <.LVL36>:
  4096da:	f5b3 7f00 	cmp.w	r3, #512	; 0x200
  4096de:	d217      	bcs.n	409710 <.LCFI3>
  4096e0:	08db      	lsrs	r3, r3, #3

004096e2 <.LVL37>:
  4096e2:	1c58      	adds	r0, r3, #1
  4096e4:	109a      	asrs	r2, r3, #2
  4096e6:	684d      	ldr	r5, [r1, #4]
  4096e8:	f851 7030 	ldr.w	r7, [r1, r0, lsl #3]
  4096ec:	60a7      	str	r7, [r4, #8]
  4096ee:	2301      	movs	r3, #1

004096f0 <.LVL38>:
  4096f0:	4093      	lsls	r3, r2
  4096f2:	eb01 02c0 	add.w	r2, r1, r0, lsl #3

004096f6 <.LVL39>:
  4096f6:	432b      	orrs	r3, r5
  4096f8:	3a08      	subs	r2, #8

004096fa <.LVL40>:
  4096fa:	60e2      	str	r2, [r4, #12]
  4096fc:	604b      	str	r3, [r1, #4]
  4096fe:	f841 4030 	str.w	r4, [r1, r0, lsl #3]
  409702:	60fc      	str	r4, [r7, #12]

00409704 <.LVL41>:
  409704:	4640      	mov	r0, r8
  409706:	e8bd 41f0 	ldmia.w	sp!, {r4, r5, r6, r7, r8, lr}

0040970a <.LCFI2>:
  40970a:	f004 b96f 	b.w	40d9ec <__malloc_unlock>

0040970e <.LVL43>:
  40970e:	4770      	bx	lr

00409710 <.LCFI3>:
  409710:	0a5a      	lsrs	r2, r3, #9
  409712:	2a04      	cmp	r2, #4
  409714:	d852      	bhi.n	4097bc <.LVL74>
  409716:	099a      	lsrs	r2, r3, #6
  409718:	f102 0739 	add.w	r7, r2, #57	; 0x39
  40971c:	00ff      	lsls	r7, r7, #3
  40971e:	f102 0538 	add.w	r5, r2, #56	; 0x38

00409722 <.LVL45>:
  409722:	19c8      	adds	r0, r1, r7
  409724:	59ca      	ldr	r2, [r1, r7]
  409726:	3808      	subs	r0, #8

00409728 <.LVL46>:
  409728:	4290      	cmp	r0, r2
  40972a:	d04f      	beq.n	4097cc <.LVL75>
  40972c:	6851      	ldr	r1, [r2, #4]
  40972e:	f021 0103 	bic.w	r1, r1, #3
  409732:	428b      	cmp	r3, r1
  409734:	d232      	bcs.n	40979c <.LVL68>
  409736:	6892      	ldr	r2, [r2, #8]
  409738:	4290      	cmp	r0, r2
  40973a:	d1f7      	bne.n	40972c <.LVL46+0x4>

0040973c <.LVL48>:
  40973c:	68c3      	ldr	r3, [r0, #12]

0040973e <.LVL49>:
  40973e:	60a0      	str	r0, [r4, #8]
  409740:	60e3      	str	r3, [r4, #12]
  409742:	609c      	str	r4, [r3, #8]
  409744:	60c4      	str	r4, [r0, #12]
  409746:	4640      	mov	r0, r8

00409748 <.LVL50>:
  409748:	e8bd 41f0 	ldmia.w	sp!, {r4, r5, r6, r7, r8, lr}

0040974c <.LCFI4>:
  40974c:	f004 b94e 	b.w	40d9ec <__malloc_unlock>

00409750 <.LCFI5>:
  409750:	6895      	ldr	r5, [r2, #8]
  409752:	4f3b      	ldr	r7, [pc, #236]	; (409840 <.LVL82+0xe>)
  409754:	42bd      	cmp	r5, r7
  409756:	4403      	add	r3, r0
  409758:	d040      	beq.n	4097dc <.LVL79>
  40975a:	68d0      	ldr	r0, [r2, #12]

0040975c <.LVL54>:
  40975c:	60e8      	str	r0, [r5, #12]
  40975e:	f043 0201 	orr.w	r2, r3, #1

00409762 <.LVL55>:
  409762:	6085      	str	r5, [r0, #8]
  409764:	6062      	str	r2, [r4, #4]
  409766:	50e3      	str	r3, [r4, r3]
  409768:	e7b7      	b.n	4096da <.LVL36>

0040976a <.LVL56>:
  40976a:	07ff      	lsls	r7, r7, #31

0040976c <.LVL57>:
  40976c:	4403      	add	r3, r0
  40976e:	d407      	bmi.n	409780 <.LVL64>
  409770:	f855 2c08 	ldr.w	r2, [r5, #-8]

00409774 <.LVL59>:
  409774:	1aa4      	subs	r4, r4, r2

00409776 <.LVL60>:
  409776:	4413      	add	r3, r2
  409778:	68a0      	ldr	r0, [r4, #8]

0040977a <.LVL62>:
  40977a:	68e2      	ldr	r2, [r4, #12]

0040977c <.LVL63>:
  40977c:	60c2      	str	r2, [r0, #12]
  40977e:	6090      	str	r0, [r2, #8]

00409780 <.LVL64>:
  409780:	4a30      	ldr	r2, [pc, #192]	; (409844 <.LVL82+0x12>)
  409782:	6812      	ldr	r2, [r2, #0]
  409784:	f043 0001 	orr.w	r0, r3, #1
  409788:	4293      	cmp	r3, r2
  40978a:	6060      	str	r0, [r4, #4]

0040978c <.LVL65>:
  40978c:	608c      	str	r4, [r1, #8]
  40978e:	d3b9      	bcc.n	409704 <.LVL41>
  409790:	4b2d      	ldr	r3, [pc, #180]	; (409848 <.LVL82+0x16>)

00409792 <.LVL66>:
  409792:	4640      	mov	r0, r8
  409794:	6819      	ldr	r1, [r3, #0]
  409796:	f002 f9eb 	bl	40bb70 <.LFE0>

0040979a <.LVL67>:
  40979a:	e7b3      	b.n	409704 <.LVL41>

0040979c <.LVL68>:
  40979c:	4610      	mov	r0, r2

0040979e <.LVL69>:
  40979e:	e7cd      	b.n	40973c <.LVL48>

004097a0 <.LVL70>:
  4097a0:	1811      	adds	r1, r2, r0
  4097a2:	6849      	ldr	r1, [r1, #4]
  4097a4:	07c9      	lsls	r1, r1, #31
  4097a6:	d444      	bmi.n	409832 <.LVL82>
  4097a8:	6891      	ldr	r1, [r2, #8]
  4097aa:	68d2      	ldr	r2, [r2, #12]

004097ac <.LVL71>:
  4097ac:	60ca      	str	r2, [r1, #12]
  4097ae:	4403      	add	r3, r0

004097b0 <.LVL72>:
  4097b0:	f043 0001 	orr.w	r0, r3, #1

004097b4 <.LVL73>:
  4097b4:	6091      	str	r1, [r2, #8]
  4097b6:	6060      	str	r0, [r4, #4]
  4097b8:	50e3      	str	r3, [r4, r3]
  4097ba:	e7a3      	b.n	409704 <.LVL41>

004097bc <.LVL74>:
  4097bc:	2a14      	cmp	r2, #20
  4097be:	d816      	bhi.n	4097ee <.LVL81>
  4097c0:	f102 075c 	add.w	r7, r2, #92	; 0x5c
  4097c4:	00ff      	lsls	r7, r7, #3
  4097c6:	f102 055b 	add.w	r5, r2, #91	; 0x5b
  4097ca:	e7aa      	b.n	409722 <.LVL45>

004097cc <.LVL75>:
  4097cc:	10aa      	asrs	r2, r5, #2

004097ce <.LVL76>:
  4097ce:	2301      	movs	r3, #1

004097d0 <.LVL77>:
  4097d0:	684d      	ldr	r5, [r1, #4]

004097d2 <.LVL78>:
  4097d2:	4093      	lsls	r3, r2
  4097d4:	432b      	orrs	r3, r5
  4097d6:	604b      	str	r3, [r1, #4]
  4097d8:	4603      	mov	r3, r0
  4097da:	e7b0      	b.n	40973e <.LVL49>

004097dc <.LVL79>:
  4097dc:	f043 0201 	orr.w	r2, r3, #1

004097e0 <.LVL80>:
  4097e0:	614c      	str	r4, [r1, #20]
  4097e2:	610c      	str	r4, [r1, #16]
  4097e4:	60e5      	str	r5, [r4, #12]
  4097e6:	60a5      	str	r5, [r4, #8]
  4097e8:	6062      	str	r2, [r4, #4]
  4097ea:	50e3      	str	r3, [r4, r3]
  4097ec:	e78a      	b.n	409704 <.LVL41>

004097ee <.LVL81>:
  4097ee:	2a54      	cmp	r2, #84	; 0x54
  4097f0:	d806      	bhi.n	409800 <.LVL81+0x12>
  4097f2:	0b1a      	lsrs	r2, r3, #12
  4097f4:	f102 076f 	add.w	r7, r2, #111	; 0x6f
  4097f8:	00ff      	lsls	r7, r7, #3
  4097fa:	f102 056e 	add.w	r5, r2, #110	; 0x6e
  4097fe:	e790      	b.n	409722 <.LVL45>
  409800:	f5b2 7faa 	cmp.w	r2, #340	; 0x154
  409804:	d806      	bhi.n	409814 <.LVL81+0x26>
  409806:	0bda      	lsrs	r2, r3, #15
  409808:	f102 0778 	add.w	r7, r2, #120	; 0x78
  40980c:	00ff      	lsls	r7, r7, #3
  40980e:	f102 0577 	add.w	r5, r2, #119	; 0x77
  409812:	e786      	b.n	409722 <.LVL45>
  409814:	f240 5054 	movw	r0, #1364	; 0x554
  409818:	4282      	cmp	r2, r0
  40981a:	d806      	bhi.n	40982a <.LVL81+0x3c>
  40981c:	0c9a      	lsrs	r2, r3, #18
  40981e:	f102 077d 	add.w	r7, r2, #125	; 0x7d
  409822:	00ff      	lsls	r7, r7, #3
  409824:	f102 057c 	add.w	r5, r2, #124	; 0x7c
  409828:	e77b      	b.n	409722 <.LVL45>
  40982a:	f44f 777e 	mov.w	r7, #1016	; 0x3f8
  40982e:	257e      	movs	r5, #126	; 0x7e
  409830:	e777      	b.n	409722 <.LVL45>

00409832 <.LVL82>:
  409832:	f043 0101 	orr.w	r1, r3, #1
  409836:	6061      	str	r1, [r4, #4]
  409838:	6013      	str	r3, [r2, #0]
  40983a:	e763      	b.n	409704 <.LVL41>
  40983c:	2040d0b0 	.word	0x2040d0b0
  409840:	2040d0b8 	.word	0x2040d0b8
  409844:	2040dcfc 	.word	0x2040dcfc
  409848:	2040dcf4 	.word	0x2040dcf4

Disassembly of section .text.Console_UART_Tasks%46:

0040984c <Console_UART_Tasks>:
        consUartData.isReadComplete = true;
    }
}

void Console_UART_Tasks(SYS_MODULE_OBJ object)
{
  40984c:	e92d 41f0 	stmdb	sp!, {r4, r5, r6, r7, r8, lr}

00409850 <.LCFI5>:
    /* Update the application state machine based
     * on the current state */
    struct QPacket pkt;
    size_t *sizeRead;

    switch(consUartData.state)
  409850:	4b4c      	ldr	r3, [pc, #304]	; (409984 <.LVL45+0x4>)
  409852:	781b      	ldrb	r3, [r3, #0]
  409854:	2b08      	cmp	r3, #8
  409856:	f200 8093 	bhi.w	409980 <.LVL45>
  40985a:	e8df f003 	tbb	[pc, r3]
  40985e:	9105      	.short	0x9105
  409860:	6029124f 	.word	0x6029124f
  409864:	9191      	.short	0x9191
  409866:	8f          	.byte	0x8f
  409867:	00          	.byte	0x00
    {
        case CONSOLE_UART_STATE_INIT:

            /* Register a callback with device layer to get event notification (for end point 0) */
            USART1_WriteCallbackRegister(UARTDeviceWriteCallback, 0);
  409868:	2100      	movs	r1, #0
  40986a:	4847      	ldr	r0, [pc, #284]	; (409988 <.LVL45+0x8>)

0040986c <.LVL19>:
  40986c:	f004 f802 	bl	40d874 <.LFE171>

00409870 <.LVL20>:
            USART1_ReadCallbackRegister(UARTDeviceReadCallback, 0);
  409870:	2100      	movs	r1, #0
  409872:	4846      	ldr	r0, [pc, #280]	; (40998c <.LVL45+0xc>)
  409874:	f004 f806 	bl	40d884 <.LFE150>

00409878 <.LVL21>:

            /* If the driver was opened, it is ready for operation */
            consUartData.state = CONSOLE_UART_STATE_READY;
  409878:	2202      	movs	r2, #2
  40987a:	4b42      	ldr	r3, [pc, #264]	; (409984 <.LVL45+0x4>)
  40987c:	701a      	strb	r2, [r3, #0]

            break;
  40987e:	e8bd 81f0 	ldmia.w	sp!, {r4, r5, r6, r7, r8, pc}

00409882 <.LVL22>:

        case CONSOLE_UART_STATE_SCHEDULE_READ:

            consUartData.state = CONSOLE_UART_STATE_WAIT_FOR_READ_COMPLETE;
  409882:	2204      	movs	r2, #4
  409884:	4b3f      	ldr	r3, [pc, #252]	; (409984 <.LVL45+0x4>)
  409886:	701a      	strb	r2, [r3, #0]

            if (readQueue.numElem)
  409888:	4b41      	ldr	r3, [pc, #260]	; (409990 <.LVL45+0x10>)
  40988a:	689b      	ldr	r3, [r3, #8]
  40988c:	2b00      	cmp	r3, #0
  40988e:	d077      	beq.n	409980 <.LVL45>
            {
                consUartData.isReadComplete = false;
  409890:	2200      	movs	r2, #0
  409892:	4b3c      	ldr	r3, [pc, #240]	; (409984 <.LVL45+0x4>)
  409894:	f883 2044 	strb.w	r2, [r3, #68]	; 0x44
                pkt = rdQueueElements[readQueue.tailPos];
  409898:	4b3e      	ldr	r3, [pc, #248]	; (409994 <.LVL45+0x14>)
  40989a:	4a3d      	ldr	r2, [pc, #244]	; (409990 <.LVL45+0x10>)
  40989c:	6812      	ldr	r2, [r2, #0]
  40989e:	eb03 01c2 	add.w	r1, r3, r2, lsl #3

004098a2 <.LVL23>:

                USART1_Read (pkt.data.buf, pkt.sz);
  4098a2:	6849      	ldr	r1, [r1, #4]

004098a4 <.LVL24>:
  4098a4:	f853 0032 	ldr.w	r0, [r3, r2, lsl #3]

004098a8 <.LVL25>:
  4098a8:	f003 fb36 	bl	40cf18 <.LFE145>

004098ac <.LVL26>:
  4098ac:	e8bd 81f0 	ldmia.w	sp!, {r4, r5, r6, r7, r8, pc}

004098b0 <.LVL27>:
            }
            break;

        case CONSOLE_UART_STATE_WAIT_FOR_READ_COMPLETE:

            if(consUartData.isReadComplete)
  4098b0:	4b34      	ldr	r3, [pc, #208]	; (409984 <.LVL45+0x4>)
  4098b2:	f893 3044 	ldrb.w	r3, [r3, #68]	; 0x44
  4098b6:	b943      	cbnz	r3, 4098ca <.LVL27+0x1a>
                    consUartData.state = CONSOLE_UART_STATE_SCHEDULE_READ;
                }
            }
            else
            {
                if (writeQueue.numElem)
  4098b8:	4b37      	ldr	r3, [pc, #220]	; (409998 <.LVL45+0x18>)
  4098ba:	689b      	ldr	r3, [r3, #8]
  4098bc:	2b00      	cmp	r3, #0
  4098be:	d05f      	beq.n	409980 <.LVL45>
                {
                    consUartData.state = CONSOLE_UART_STATE_SCHEDULE_WRITE;
  4098c0:	2205      	movs	r2, #5
  4098c2:	4b30      	ldr	r3, [pc, #192]	; (409984 <.LVL45+0x4>)
  4098c4:	701a      	strb	r2, [r3, #0]
  4098c6:	e8bd 81f0 	ldmia.w	sp!, {r4, r5, r6, r7, r8, pc}
                sizeRead = &rdQueueElements[readQueue.tailPos].sz;
  4098ca:	4c31      	ldr	r4, [pc, #196]	; (409990 <.LVL45+0x10>)
  4098cc:	6825      	ldr	r5, [r4, #0]

004098ce <.LVL28>:
                popQueue(&readQueue);
  4098ce:	4620      	mov	r0, r4

004098d0 <.LVL29>:
  4098d0:	f003 fe20 	bl	40d514 <.LFE4>

004098d4 <.LVL30>:
                if (readQueue.numElem == 0)
  4098d4:	68a3      	ldr	r3, [r4, #8]
  4098d6:	b963      	cbnz	r3, 4098f2 <.LVL31+0xa>
                    if (consUartData.rdCallback != NULL)
  4098d8:	4b2a      	ldr	r3, [pc, #168]	; (409984 <.LVL45+0x4>)
  4098da:	6c9b      	ldr	r3, [r3, #72]	; 0x48
  4098dc:	b123      	cbz	r3, 4098e8 <.LVL31>
                sizeRead = &rdQueueElements[readQueue.tailPos].sz;
  4098de:	482d      	ldr	r0, [pc, #180]	; (409994 <.LVL45+0x14>)
  4098e0:	eb00 00c5 	add.w	r0, r0, r5, lsl #3
                        consUartData.rdCallback(sizeRead);
  4098e4:	3004      	adds	r0, #4
  4098e6:	4798      	blx	r3

004098e8 <.LVL31>:
                    consUartData.state = CONSOLE_UART_STATE_READY;
  4098e8:	2202      	movs	r2, #2
  4098ea:	4b26      	ldr	r3, [pc, #152]	; (409984 <.LVL45+0x4>)
  4098ec:	701a      	strb	r2, [r3, #0]
  4098ee:	e8bd 81f0 	ldmia.w	sp!, {r4, r5, r6, r7, r8, pc}
                    consUartData.state = CONSOLE_UART_STATE_SCHEDULE_READ;
  4098f2:	2203      	movs	r2, #3
  4098f4:	4b23      	ldr	r3, [pc, #140]	; (409984 <.LVL45+0x4>)
  4098f6:	701a      	strb	r2, [r3, #0]
  4098f8:	e8bd 81f0 	ldmia.w	sp!, {r4, r5, r6, r7, r8, pc}

004098fc <.LVL33>:
            }
            break;

        case CONSOLE_UART_STATE_READY:

            if (readQueue.numElem)
  4098fc:	4b24      	ldr	r3, [pc, #144]	; (409990 <.LVL45+0x10>)
  4098fe:	689b      	ldr	r3, [r3, #8]
  409900:	b943      	cbnz	r3, 409914 <.LVL33+0x18>
            {
                consUartData.state = CONSOLE_UART_STATE_SCHEDULE_READ;
            }
            else if (writeQueue.numElem)
  409902:	4b25      	ldr	r3, [pc, #148]	; (409998 <.LVL45+0x18>)
  409904:	689b      	ldr	r3, [r3, #8]
  409906:	2b00      	cmp	r3, #0
  409908:	d03a      	beq.n	409980 <.LVL45>
            {
                /* If there is data to be written, then try writing it */
                consUartData.state = CONSOLE_UART_STATE_SCHEDULE_WRITE;
  40990a:	2205      	movs	r2, #5
  40990c:	4b1d      	ldr	r3, [pc, #116]	; (409984 <.LVL45+0x4>)
  40990e:	701a      	strb	r2, [r3, #0]
  409910:	e8bd 81f0 	ldmia.w	sp!, {r4, r5, r6, r7, r8, pc}
                consUartData.state = CONSOLE_UART_STATE_SCHEDULE_READ;
  409914:	2203      	movs	r2, #3
  409916:	4b1b      	ldr	r3, [pc, #108]	; (409984 <.LVL45+0x4>)
  409918:	701a      	strb	r2, [r3, #0]
  40991a:	e8bd 81f0 	ldmia.w	sp!, {r4, r5, r6, r7, r8, pc}
            }
            break;

        case CONSOLE_UART_STATE_SCHEDULE_WRITE:

            if (writeQueue.numElem)
  40991e:	4b1e      	ldr	r3, [pc, #120]	; (409998 <.LVL45+0x18>)
  409920:	689b      	ldr	r3, [r3, #8]
  409922:	b36b      	cbz	r3, 409980 <.LVL45>
            {
                /* This means there is data to sent out */
                pkt = wrQueueElements[writeQueue.tailPos];
  409924:	4b1d      	ldr	r3, [pc, #116]	; (40999c <.LVL45+0x1c>)
  409926:	4a1c      	ldr	r2, [pc, #112]	; (409998 <.LVL45+0x18>)
  409928:	6812      	ldr	r2, [r2, #0]
  40992a:	eb03 01c2 	add.w	r1, r3, r2, lsl #3
  40992e:	f853 6032 	ldr.w	r6, [r3, r2, lsl #3]

00409932 <.LVL34>:
  409932:	684d      	ldr	r5, [r1, #4]

00409934 <.LBB6>:

                    if(status == true)
                    {
                        /* This means this buffer was added successfully to
                         * the PLIB. Do a callback. */
                        if (consUartData.wrCallback != NULL)
  409934:	f8df 804c 	ldr.w	r8, [pc, #76]	; 409984 <.LVL45+0x4>
                        {
                            consUartData.wrCallback((void *)wrQueueElements[writeQueue.tailPos].data.cbuf);
                        }

                        /* Remove this element from the write queue */
                        popQueue(&writeQueue);
  409938:	4c17      	ldr	r4, [pc, #92]	; (409998 <.LVL45+0x18>)
                        pkt = wrQueueElements[writeQueue.tailPos];
  40993a:	461f      	mov	r7, r3
  40993c:	e00e      	b.n	40995c <.LBB7>

0040993e <.LVL36>:
                            consUartData.wrCallback((void *)wrQueueElements[writeQueue.tailPos].data.cbuf);
  40993e:	6822      	ldr	r2, [r4, #0]
  409940:	f857 0032 	ldr.w	r0, [r7, r2, lsl #3]

00409944 <.LVL37>:
  409944:	4798      	blx	r3
                        popQueue(&writeQueue);
  409946:	4620      	mov	r0, r4
  409948:	f003 fde4 	bl	40d514 <.LFE4>

0040994c <.LVL39>:
                        pkt = wrQueueElements[writeQueue.tailPos];
  40994c:	6823      	ldr	r3, [r4, #0]
  40994e:	eb07 02c3 	add.w	r2, r7, r3, lsl #3
  409952:	f857 6033 	ldr.w	r6, [r7, r3, lsl #3]

00409956 <.LVL40>:
  409956:	6855      	ldr	r5, [r2, #4]

00409958 <.LBE6>:
                    {
                        /* Got an invalid handle. This most likely means
                         * that the write buffer queue is full */
                    }

                } while(writeQueue.numElem);
  409958:	68a3      	ldr	r3, [r4, #8]
  40995a:	b153      	cbz	r3, 409972 <.LBE7>

0040995c <.LBB7>:
                    bool status = USART1_Write(pkt.data.buf, pkt.sz);
  40995c:	4629      	mov	r1, r5
  40995e:	4630      	mov	r0, r6
  409960:	f003 f990 	bl	40cc84 <.LFE165>

00409964 <.LVL42>:
                    if(status == true)
  409964:	2800      	cmp	r0, #0
  409966:	d0f7      	beq.n	409958 <.LBE6>
                        if (consUartData.wrCallback != NULL)
  409968:	f8d8 304c 	ldr.w	r3, [r8, #76]	; 0x4c
  40996c:	2b00      	cmp	r3, #0
  40996e:	d1e6      	bne.n	40993e <.LVL36>
  409970:	e7e9      	b.n	409946 <.LVL37+0x2>

00409972 <.LBE7>:
                /* If we are here, it either means there is nothing more to
                 * write of the write buffer queue is full. We cannot do much
                 * with respect to write at point. We move the state to
                 * ready */

                consUartData.state = CONSOLE_UART_STATE_READY;
  409972:	2202      	movs	r2, #2
  409974:	4b03      	ldr	r3, [pc, #12]	; (409984 <.LVL45+0x4>)
  409976:	701a      	strb	r2, [r3, #0]
  409978:	e8bd 81f0 	ldmia.w	sp!, {r4, r5, r6, r7, r8, pc}

0040997c <.LVL44>:
        case CONSOLE_UART_STATE_OPERATIONAL_ERROR:

            /* We arrive at this state if the UART driver reports an error on a read or write operation
               We will attempt to recover by flushing the local buffers */

            Console_UART_Flush();
  40997c:	f003 fa90 	bl	40cea0 <Console_UART_Flush>

00409980 <.LVL45>:
  409980:	e8bd 81f0 	ldmia.w	sp!, {r4, r5, r6, r7, r8, pc}
  409984:	2040db9c 	.word	0x2040db9c
  409988:	0040d865 	.word	0x0040d865
  40998c:	0040d68d 	.word	0x0040d68d
  409990:	2040dc94 	.word	0x2040dc94
  409994:	2040db4c 	.word	0x2040db4c
  409998:	2040dca8 	.word	0x2040dca8
  40999c:	2040d4b8 	.word	0x2040d4b8

Disassembly of section .text.__sflush_r%47:

004099a0 <__sflush_r>:
  4099a0:	f9b1 300c 	ldrsh.w	r3, [r1, #12]

004099a4 <.LVL1>:
  4099a4:	b29a      	uxth	r2, r3
  4099a6:	e92d 41f0 	stmdb	sp!, {r4, r5, r6, r7, r8, lr}

004099aa <.LCFI0>:
  4099aa:	460d      	mov	r5, r1
  4099ac:	0711      	lsls	r1, r2, #28

004099ae <.LVL2>:
  4099ae:	4680      	mov	r8, r0
  4099b0:	d43a      	bmi.n	409a28 <.LBE2>
  4099b2:	686a      	ldr	r2, [r5, #4]
  4099b4:	f443 6300 	orr.w	r3, r3, #2048	; 0x800

004099b8 <.LVL3>:
  4099b8:	2a00      	cmp	r2, #0
  4099ba:	81ab      	strh	r3, [r5, #12]

004099bc <.LVL4>:
  4099bc:	dd6f      	ble.n	409a9e <.LBE6>
  4099be:	6aac      	ldr	r4, [r5, #40]	; 0x28
  4099c0:	2c00      	cmp	r4, #0
  4099c2:	d049      	beq.n	409a58 <.LBB3>

004099c4 <.LBB2>:
  4099c4:	2200      	movs	r2, #0
  4099c6:	b29b      	uxth	r3, r3
  4099c8:	f8d8 6000 	ldr.w	r6, [r8]

004099cc <.LVL5>:
  4099cc:	f8c8 2000 	str.w	r2, [r8]
  4099d0:	f413 5280 	ands.w	r2, r3, #4096	; 0x1000
  4099d4:	d067      	beq.n	409aa6 <.LVL25>
  4099d6:	6d2a      	ldr	r2, [r5, #80]	; 0x50

004099d8 <.LVL6>:
  4099d8:	075f      	lsls	r7, r3, #29
  4099da:	d505      	bpl.n	4099e8 <.LVL6+0x10>
  4099dc:	6869      	ldr	r1, [r5, #4]
  4099de:	6b2b      	ldr	r3, [r5, #48]	; 0x30
  4099e0:	1a52      	subs	r2, r2, r1
  4099e2:	b10b      	cbz	r3, 4099e8 <.LVL6+0x10>
  4099e4:	6beb      	ldr	r3, [r5, #60]	; 0x3c
  4099e6:	1ad2      	subs	r2, r2, r3
  4099e8:	2300      	movs	r3, #0
  4099ea:	69e9      	ldr	r1, [r5, #28]
  4099ec:	4640      	mov	r0, r8
  4099ee:	47a0      	blx	r4

004099f0 <.LVL9>:
  4099f0:	1c44      	adds	r4, r0, #1
  4099f2:	d03c      	beq.n	409a6e <.LBB6>
  4099f4:	f9b5 300c 	ldrsh.w	r3, [r5, #12]
  4099f8:	692a      	ldr	r2, [r5, #16]
  4099fa:	602a      	str	r2, [r5, #0]
  4099fc:	f423 6300 	bic.w	r3, r3, #2048	; 0x800
  409a00:	2200      	movs	r2, #0
  409a02:	81ab      	strh	r3, [r5, #12]
  409a04:	04db      	lsls	r3, r3, #19
  409a06:	606a      	str	r2, [r5, #4]
  409a08:	d447      	bmi.n	409a9a <.LBB6+0x2c>
  409a0a:	6b29      	ldr	r1, [r5, #48]	; 0x30
  409a0c:	f8c8 6000 	str.w	r6, [r8]
  409a10:	b311      	cbz	r1, 409a58 <.LBB3>
  409a12:	f105 0340 	add.w	r3, r5, #64	; 0x40
  409a16:	4299      	cmp	r1, r3
  409a18:	d002      	beq.n	409a20 <.LVL11>
  409a1a:	4640      	mov	r0, r8

00409a1c <.LVL10>:
  409a1c:	f7ff fe30 	bl	409680 <.LFE174>

00409a20 <.LVL11>:
  409a20:	2000      	movs	r0, #0
  409a22:	6328      	str	r0, [r5, #48]	; 0x30
  409a24:	e8bd 81f0 	ldmia.w	sp!, {r4, r5, r6, r7, r8, pc}

00409a28 <.LBE2>:
  409a28:	692e      	ldr	r6, [r5, #16]

00409a2a <.LVL13>:
  409a2a:	b1ae      	cbz	r6, 409a58 <.LBB3>
  409a2c:	682c      	ldr	r4, [r5, #0]
  409a2e:	602e      	str	r6, [r5, #0]
  409a30:	0791      	lsls	r1, r2, #30
  409a32:	bf0c      	ite	eq
  409a34:	696b      	ldreq	r3, [r5, #20]

00409a36 <.LVL14>:
  409a36:	2300      	movne	r3, #0
  409a38:	1ba4      	subs	r4, r4, r6

00409a3a <.LVL15>:
  409a3a:	60ab      	str	r3, [r5, #8]
  409a3c:	e00a      	b.n	409a54 <.LVL20>

00409a3e <.LVL16>:
  409a3e:	4623      	mov	r3, r4
  409a40:	4632      	mov	r2, r6
  409a42:	6a6f      	ldr	r7, [r5, #36]	; 0x24
  409a44:	69e9      	ldr	r1, [r5, #28]
  409a46:	4640      	mov	r0, r8
  409a48:	47b8      	blx	r7

00409a4a <.LVL17>:
  409a4a:	2800      	cmp	r0, #0
  409a4c:	eba4 0400 	sub.w	r4, r4, r0

00409a50 <.LVL18>:
  409a50:	4406      	add	r6, r0

00409a52 <.LVL19>:
  409a52:	dd04      	ble.n	409a5e <.LBE3>

00409a54 <.LVL20>:
  409a54:	2c00      	cmp	r4, #0
  409a56:	dcf2      	bgt.n	409a3e <.LVL16>

00409a58 <.LBB3>:
  409a58:	2000      	movs	r0, #0
  409a5a:	e8bd 81f0 	ldmia.w	sp!, {r4, r5, r6, r7, r8, pc}

00409a5e <.LBE3>:
  409a5e:	89ab      	ldrh	r3, [r5, #12]
  409a60:	f043 0340 	orr.w	r3, r3, #64	; 0x40
  409a64:	81ab      	strh	r3, [r5, #12]
  409a66:	f04f 30ff 	mov.w	r0, #4294967295
  409a6a:	e8bd 81f0 	ldmia.w	sp!, {r4, r5, r6, r7, r8, pc}

00409a6e <.LBB6>:
  409a6e:	f8d8 4000 	ldr.w	r4, [r8]
  409a72:	2c1d      	cmp	r4, #29
  409a74:	d8f3      	bhi.n	409a5e <.LBE3>
  409a76:	4b19      	ldr	r3, [pc, #100]	; (409adc <.LVL32>)
  409a78:	40e3      	lsrs	r3, r4
  409a7a:	43db      	mvns	r3, r3
  409a7c:	f013 0301 	ands.w	r3, r3, #1
  409a80:	d1ed      	bne.n	409a5e <.LBE3>
  409a82:	f9b5 200c 	ldrsh.w	r2, [r5, #12]
  409a86:	606b      	str	r3, [r5, #4]
  409a88:	f422 6300 	bic.w	r3, r2, #2048	; 0x800
  409a8c:	6929      	ldr	r1, [r5, #16]
  409a8e:	81ab      	strh	r3, [r5, #12]
  409a90:	04da      	lsls	r2, r3, #19
  409a92:	6029      	str	r1, [r5, #0]
  409a94:	d5b9      	bpl.n	409a0a <.LVL9+0x1a>
  409a96:	2c00      	cmp	r4, #0
  409a98:	d1b7      	bne.n	409a0a <.LVL9+0x1a>
  409a9a:	6528      	str	r0, [r5, #80]	; 0x50
  409a9c:	e7b5      	b.n	409a0a <.LVL9+0x1a>

00409a9e <.LBE6>:
  409a9e:	6bea      	ldr	r2, [r5, #60]	; 0x3c
  409aa0:	2a00      	cmp	r2, #0
  409aa2:	dc8c      	bgt.n	4099be <.LVL4+0x2>

00409aa4 <.LBB7>:
  409aa4:	e7d8      	b.n	409a58 <.LBB3>

00409aa6 <.LVL25>:
  409aa6:	2301      	movs	r3, #1
  409aa8:	69e9      	ldr	r1, [r5, #28]
  409aaa:	4640      	mov	r0, r8

00409aac <.LVL26>:
  409aac:	47a0      	blx	r4

00409aae <.LVL27>:
  409aae:	1c43      	adds	r3, r0, #1
  409ab0:	4602      	mov	r2, r0

00409ab2 <.LVL28>:
  409ab2:	d002      	beq.n	409aba <.LVL28+0x8>
  409ab4:	89ab      	ldrh	r3, [r5, #12]
  409ab6:	6aac      	ldr	r4, [r5, #40]	; 0x28
  409ab8:	e78e      	b.n	4099d8 <.LVL6>
  409aba:	f8d8 3000 	ldr.w	r3, [r8]
  409abe:	2b00      	cmp	r3, #0
  409ac0:	d0f8      	beq.n	409ab4 <.LVL28+0x2>

00409ac2 <.LBB4>:
  409ac2:	2b1d      	cmp	r3, #29
  409ac4:	d001      	beq.n	409aca <.LVL30>
  409ac6:	2b16      	cmp	r3, #22
  409ac8:	d102      	bne.n	409ad0 <.LVL31>

00409aca <.LVL30>:
  409aca:	f8c8 6000 	str.w	r6, [r8]
  409ace:	e7c3      	b.n	409a58 <.LBB3>

00409ad0 <.LVL31>:
  409ad0:	89ab      	ldrh	r3, [r5, #12]
  409ad2:	f043 0340 	orr.w	r3, r3, #64	; 0x40
  409ad6:	81ab      	strh	r3, [r5, #12]
  409ad8:	e8bd 81f0 	ldmia.w	sp!, {r4, r5, r6, r7, r8, pc}

00409adc <.LVL32>:
  409adc:	20400001 	.word	0x20400001

Disassembly of section .text%48:

00409ae0 <memcpy>:
  409ae0:	4684      	mov	ip, r0
  409ae2:	ea41 0300 	orr.w	r3, r1, r0
  409ae6:	f013 0303 	ands.w	r3, r3, #3
  409aea:	d16d      	bne.n	409bc8 <memcpy+0xe8>
  409aec:	3a40      	subs	r2, #64	; 0x40
  409aee:	d341      	bcc.n	409b74 <memcpy+0x94>
  409af0:	f851 3b04 	ldr.w	r3, [r1], #4
  409af4:	f840 3b04 	str.w	r3, [r0], #4
  409af8:	f851 3b04 	ldr.w	r3, [r1], #4
  409afc:	f840 3b04 	str.w	r3, [r0], #4
  409b00:	f851 3b04 	ldr.w	r3, [r1], #4
  409b04:	f840 3b04 	str.w	r3, [r0], #4
  409b08:	f851 3b04 	ldr.w	r3, [r1], #4
  409b0c:	f840 3b04 	str.w	r3, [r0], #4
  409b10:	f851 3b04 	ldr.w	r3, [r1], #4
  409b14:	f840 3b04 	str.w	r3, [r0], #4
  409b18:	f851 3b04 	ldr.w	r3, [r1], #4
  409b1c:	f840 3b04 	str.w	r3, [r0], #4
  409b20:	f851 3b04 	ldr.w	r3, [r1], #4
  409b24:	f840 3b04 	str.w	r3, [r0], #4
  409b28:	f851 3b04 	ldr.w	r3, [r1], #4
  409b2c:	f840 3b04 	str.w	r3, [r0], #4
  409b30:	f851 3b04 	ldr.w	r3, [r1], #4
  409b34:	f840 3b04 	str.w	r3, [r0], #4
  409b38:	f851 3b04 	ldr.w	r3, [r1], #4
  409b3c:	f840 3b04 	str.w	r3, [r0], #4
  409b40:	f851 3b04 	ldr.w	r3, [r1], #4
  409b44:	f840 3b04 	str.w	r3, [r0], #4
  409b48:	f851 3b04 	ldr.w	r3, [r1], #4
  409b4c:	f840 3b04 	str.w	r3, [r0], #4
  409b50:	f851 3b04 	ldr.w	r3, [r1], #4
  409b54:	f840 3b04 	str.w	r3, [r0], #4
  409b58:	f851 3b04 	ldr.w	r3, [r1], #4
  409b5c:	f840 3b04 	str.w	r3, [r0], #4
  409b60:	f851 3b04 	ldr.w	r3, [r1], #4
  409b64:	f840 3b04 	str.w	r3, [r0], #4
  409b68:	f851 3b04 	ldr.w	r3, [r1], #4
  409b6c:	f840 3b04 	str.w	r3, [r0], #4
  409b70:	3a40      	subs	r2, #64	; 0x40
  409b72:	d2bd      	bcs.n	409af0 <memcpy+0x10>
  409b74:	3230      	adds	r2, #48	; 0x30
  409b76:	d311      	bcc.n	409b9c <memcpy+0xbc>
  409b78:	f851 3b04 	ldr.w	r3, [r1], #4
  409b7c:	f840 3b04 	str.w	r3, [r0], #4
  409b80:	f851 3b04 	ldr.w	r3, [r1], #4
  409b84:	f840 3b04 	str.w	r3, [r0], #4
  409b88:	f851 3b04 	ldr.w	r3, [r1], #4
  409b8c:	f840 3b04 	str.w	r3, [r0], #4
  409b90:	f851 3b04 	ldr.w	r3, [r1], #4
  409b94:	f840 3b04 	str.w	r3, [r0], #4
  409b98:	3a10      	subs	r2, #16
  409b9a:	d2ed      	bcs.n	409b78 <memcpy+0x98>
  409b9c:	320c      	adds	r2, #12
  409b9e:	d305      	bcc.n	409bac <memcpy+0xcc>
  409ba0:	f851 3b04 	ldr.w	r3, [r1], #4
  409ba4:	f840 3b04 	str.w	r3, [r0], #4
  409ba8:	3a04      	subs	r2, #4
  409baa:	d2f9      	bcs.n	409ba0 <memcpy+0xc0>
  409bac:	3204      	adds	r2, #4
  409bae:	d008      	beq.n	409bc2 <memcpy+0xe2>
  409bb0:	07d2      	lsls	r2, r2, #31
  409bb2:	bf1c      	itt	ne
  409bb4:	f811 3b01 	ldrbne.w	r3, [r1], #1
  409bb8:	f800 3b01 	strbne.w	r3, [r0], #1
  409bbc:	d301      	bcc.n	409bc2 <memcpy+0xe2>
  409bbe:	880b      	ldrh	r3, [r1, #0]
  409bc0:	8003      	strh	r3, [r0, #0]
  409bc2:	4660      	mov	r0, ip
  409bc4:	4770      	bx	lr
  409bc6:	bf00      	nop
  409bc8:	2a08      	cmp	r2, #8
  409bca:	d313      	bcc.n	409bf4 <memcpy+0x114>
  409bcc:	078b      	lsls	r3, r1, #30
  409bce:	d08d      	beq.n	409aec <memcpy+0xc>
  409bd0:	f010 0303 	ands.w	r3, r0, #3
  409bd4:	d08a      	beq.n	409aec <memcpy+0xc>
  409bd6:	f1c3 0304 	rsb	r3, r3, #4
  409bda:	1ad2      	subs	r2, r2, r3
  409bdc:	07db      	lsls	r3, r3, #31
  409bde:	bf1c      	itt	ne
  409be0:	f811 3b01 	ldrbne.w	r3, [r1], #1
  409be4:	f800 3b01 	strbne.w	r3, [r0], #1
  409be8:	d380      	bcc.n	409aec <memcpy+0xc>
  409bea:	f831 3b02 	ldrh.w	r3, [r1], #2
  409bee:	f820 3b02 	strh.w	r3, [r0], #2
  409bf2:	e77b      	b.n	409aec <memcpy+0xc>
  409bf4:	3a04      	subs	r2, #4
  409bf6:	d3d9      	bcc.n	409bac <memcpy+0xcc>
  409bf8:	3a01      	subs	r2, #1
  409bfa:	f811 3b01 	ldrb.w	r3, [r1], #1
  409bfe:	f800 3b01 	strb.w	r3, [r0], #1
  409c02:	d2f9      	bcs.n	409bf8 <memcpy+0x118>
  409c04:	780b      	ldrb	r3, [r1, #0]
  409c06:	7003      	strb	r3, [r0, #0]
  409c08:	784b      	ldrb	r3, [r1, #1]
  409c0a:	7043      	strb	r3, [r0, #1]
  409c0c:	788b      	ldrb	r3, [r1, #2]
  409c0e:	7083      	strb	r3, [r0, #2]
  409c10:	4660      	mov	r0, ip
  409c12:	4770      	bx	lr

Disassembly of section .text.BusFault_Handler_C%49:

00409c14 <BusFault_Handler_C>:
    asm("MOV    R1, LR");
    asm("B      BusFault_Handler_C");
}

void BusFault_Handler_C(uint32_t * hardfault_args, unsigned int lr_value)
{
  409c14:	e92d 4ff0 	stmdb	sp!, {r4, r5, r6, r7, r8, r9, sl, fp, lr}

00409c18 <.LCFI6>:
  409c18:	b087      	sub	sp, #28

00409c1a <.LCFI7>:
  409c1a:	460e      	mov	r6, r1
    uint32_t stacked_psr;
    uint32_t cfsr;
    uint8_t  bfsr;
    uint32_t bus_fault_address;

    bus_fault_address = SCB->BFAR;  // BusFault Address Register
  409c1c:	4d44      	ldr	r5, [pc, #272]	; (409d30 <.LVL141+0x2>)
  409c1e:	6bab      	ldr	r3, [r5, #56]	; 0x38
  409c20:	9300      	str	r3, [sp, #0]

00409c22 <.LVL104>:
    cfsr              = SCB->CFSR;  // Configurable Fault Status Register
  409c22:	f8d5 8028 	ldr.w	r8, [r5, #40]	; 0x28

00409c26 <.LVL105>:

    bfsr = ( cfsr & 0x0000FF00 ) >>8;  // Bus Fault Status
  409c26:	ea4f 2718 	mov.w	r7, r8, lsr #8

    stacked_r0  = hardfault_args[0];
  409c2a:	f8d0 b000 	ldr.w	fp, [r0]
    stacked_r1  = hardfault_args[1];
  409c2e:	f8d0 a004 	ldr.w	sl, [r0, #4]
    stacked_r2  = hardfault_args[2];
  409c32:	f8d0 9008 	ldr.w	r9, [r0, #8]
    stacked_r3  = hardfault_args[3];
  409c36:	68c3      	ldr	r3, [r0, #12]

00409c38 <.LVL110>:
  409c38:	9301      	str	r3, [sp, #4]

00409c3a <.LVL111>:
    stacked_r12 = hardfault_args[4];
  409c3a:	6902      	ldr	r2, [r0, #16]
  409c3c:	9202      	str	r2, [sp, #8]

00409c3e <.LVL112>:
    stacked_lr  = hardfault_args[5];  // Link Register
  409c3e:	6944      	ldr	r4, [r0, #20]
  409c40:	9403      	str	r4, [sp, #12]

00409c42 <.LVL113>:
    stacked_pc  = hardfault_args[6];  // Program Counter
  409c42:	6983      	ldr	r3, [r0, #24]

00409c44 <.LVL114>:
  409c44:	9304      	str	r3, [sp, #16]

00409c46 <.LVL115>:
    stacked_psr = hardfault_args[7];  // Program Status Register
  409c46:	69c0      	ldr	r0, [r0, #28]

00409c48 <.LVL116>:
  409c48:	9005      	str	r0, [sp, #20]

00409c4a <.LVL117>:

    printf("\r\n");
  409c4a:	4c3a      	ldr	r4, [pc, #232]	; (409d34 <.LVL141+0x6>)

00409c4c <.LVL118>:
  409c4c:	4620      	mov	r0, r4

00409c4e <.LVL119>:
  409c4e:	f003 fe29 	bl	40d8a4 <.LFE0>

00409c52 <.LVL120>:
    printf("[BusFault]\r\n");
  409c52:	f504 70fe 	add.w	r0, r4, #508	; 0x1fc
  409c56:	f003 fe25 	bl	40d8a4 <.LFE0>

00409c5a <.LVL121>:
    printf("- Stack frame:\r\n");
  409c5a:	f104 0014 	add.w	r0, r4, #20
  409c5e:	f003 fe21 	bl	40d8a4 <.LFE0>

00409c62 <.LVL122>:
    printf(" R0  = 0x%08lX\r\n", stacked_r0);
  409c62:	4659      	mov	r1, fp
  409c64:	f104 0024 	add.w	r0, r4, #36	; 0x24
  409c68:	f003 fb44 	bl	40d2f4 <.LFE141>

00409c6c <.LVL123>:
    printf(" R1  = 0x%08lX\r\n", stacked_r1);
  409c6c:	4651      	mov	r1, sl
  409c6e:	f104 0038 	add.w	r0, r4, #56	; 0x38
  409c72:	f003 fb3f 	bl	40d2f4 <.LFE141>

00409c76 <.LVL124>:
    printf(" R2  = 0x%08lX\r\n", stacked_r2);
  409c76:	4649      	mov	r1, r9
  409c78:	f104 004c 	add.w	r0, r4, #76	; 0x4c
  409c7c:	f003 fb3a 	bl	40d2f4 <.LFE141>

00409c80 <.LVL125>:
    printf(" R3  = 0x%08lX\r\n", stacked_r3);
  409c80:	9901      	ldr	r1, [sp, #4]
  409c82:	f104 0060 	add.w	r0, r4, #96	; 0x60
  409c86:	f003 fb35 	bl	40d2f4 <.LFE141>

00409c8a <.LVL126>:
    printf(" R12 = 0x%08lX\r\n", stacked_r12);
  409c8a:	9902      	ldr	r1, [sp, #8]
  409c8c:	f104 0074 	add.w	r0, r4, #116	; 0x74
  409c90:	f003 fb30 	bl	40d2f4 <.LFE141>

00409c94 <.LVL127>:
    printf(" LR  = 0x%08lX\r\n", stacked_lr);
  409c94:	9903      	ldr	r1, [sp, #12]
  409c96:	f104 0088 	add.w	r0, r4, #136	; 0x88
  409c9a:	f003 fb2b 	bl	40d2f4 <.LFE141>

00409c9e <.LVL128>:
    printf(" PC  = 0x%08lX\r\n", stacked_pc);
  409c9e:	9904      	ldr	r1, [sp, #16]
  409ca0:	f104 009c 	add.w	r0, r4, #156	; 0x9c
  409ca4:	f003 fb26 	bl	40d2f4 <.LFE141>

00409ca8 <.LVL129>:
    printf(" PSR = 0x%08lX\r\n", stacked_psr);
  409ca8:	9905      	ldr	r1, [sp, #20]
  409caa:	f104 00b0 	add.w	r0, r4, #176	; 0xb0
  409cae:	f003 fb21 	bl	40d2f4 <.LFE141>

00409cb2 <.LVL130>:
    printf("- FSR/FAR:\r\n");
  409cb2:	f104 00c4 	add.w	r0, r4, #196	; 0xc4
  409cb6:	f003 fdf5 	bl	40d8a4 <.LFE0>

00409cba <.LVL131>:
    printf(" CFSR  = 0x%08lX\r\n", cfsr);
  409cba:	4641      	mov	r1, r8
  409cbc:	f504 70cc 	add.w	r0, r4, #408	; 0x198
  409cc0:	f003 fb18 	bl	40d2f4 <.LFE141>

00409cc4 <.LVL132>:
    printf(" BFSR  = 0x%02X\r\n",  bfsr);
  409cc4:	fa5f f887 	uxtb.w	r8, r7

00409cc8 <.LVL133>:
  409cc8:	4641      	mov	r1, r8
  409cca:	f504 7002 	add.w	r0, r4, #520	; 0x208
  409cce:	f003 fb11 	bl	40d2f4 <.LFE141>

00409cd2 <.LVL134>:
    printf(" HFSR  = 0x%08lX\r\n", SCB->HFSR); // HardFault Status
  409cd2:	6ae9      	ldr	r1, [r5, #44]	; 0x2c
  409cd4:	f504 70e0 	add.w	r0, r4, #448	; 0x1c0
  409cd8:	f003 fb0c 	bl	40d2f4 <.LFE141>

00409cdc <.LVL135>:
    printf(" DFSR  = 0x%08lX\r\n", SCB->DFSR); // Debug Fault Status
  409cdc:	6b29      	ldr	r1, [r5, #48]	; 0x30
  409cde:	f504 70ea 	add.w	r0, r4, #468	; 0x1d4
  409ce2:	f003 fb07 	bl	40d2f4 <.LFE141>

00409ce6 <.LVL136>:
    printf(" AFSR  = 0x%08lX\r\n", SCB->AFSR); // Auxiliary Fault Status
  409ce6:	6be9      	ldr	r1, [r5, #60]	; 0x3c
  409ce8:	f504 70f4 	add.w	r0, r4, #488	; 0x1e8
  409cec:	f003 fb02 	bl	40d2f4 <.LFE141>

00409cf0 <.LVL137>:
    if (bfsr & 0x04) printf(" ABFSR = 0x%08lX\r\n", SCB->ABFSR);
  409cf0:	f018 0f04 	tst.w	r8, #4
  409cf4:	d110      	bne.n	409d18 <.LVL139+0x4>
    if (bfsr & 0x80) printf(" BFAR = 0x%08lX\r\n", bus_fault_address);
  409cf6:	f017 0f80 	tst.w	r7, #128	; 0x80
  409cfa:	d114      	bne.n	409d26 <.LVL140+0x2>
    printf("- Misc\r\n");
  409cfc:	4c0d      	ldr	r4, [pc, #52]	; (409d34 <.LVL141+0x6>)
  409cfe:	f504 70a4 	add.w	r0, r4, #328	; 0x148
  409d02:	f003 fdcf 	bl	40d8a4 <.LFE0>

00409d06 <.LVL138>:
    printf(" LR/EXC_RETURN = 0x%X, Bit 2: %d\r\n", lr_value, (lr_value & 0x4)>>2 );
  409d06:	f3c6 0280 	ubfx	r2, r6, #2, #1
  409d0a:	4631      	mov	r1, r6
  409d0c:	f504 70a8 	add.w	r0, r4, #336	; 0x150
  409d10:	f003 faf0 	bl	40d2f4 <.LFE141>

00409d14 <.LVL139>:

  #if defined(__DEBUG) || defined(__DEBUG_D) && defined(__XC32)
    __builtin_software_breakpoint();
  409d14:	be00      	bkpt	0x0000
  409d16:	e7fe      	b.n	409d16 <.LVL139+0x2>
    if (bfsr & 0x04) printf(" ABFSR = 0x%08lX\r\n", SCB->ABFSR);
  409d18:	f8d5 12a8 	ldr.w	r1, [r5, #680]	; 0x2a8
  409d1c:	f504 7007 	add.w	r0, r4, #540	; 0x21c
  409d20:	f003 fae8 	bl	40d2f4 <.LFE141>

00409d24 <.LVL140>:
  409d24:	e7e7      	b.n	409cf6 <.LVL137+0x6>
    if (bfsr & 0x80) printf(" BFAR = 0x%08lX\r\n", bus_fault_address);
  409d26:	9900      	ldr	r1, [sp, #0]
  409d28:	4803      	ldr	r0, [pc, #12]	; (409d38 <.LVL141+0xa>)
  409d2a:	f003 fae3 	bl	40d2f4 <.LFE141>

00409d2e <.LVL141>:
  409d2e:	e7e5      	b.n	409cfc <.LVL137+0xc>
  409d30:	e000ed00 	.word	0xe000ed00
  409d34:	004091e8 	.word	0x004091e8
  409d38:	0040931c 	.word	0x0040931c

Disassembly of section .text.quorem%50:

00409d3c <quorem>:
  409d3c:	6902      	ldr	r2, [r0, #16]
  409d3e:	690b      	ldr	r3, [r1, #16]

00409d40 <.LVL1>:
  409d40:	4293      	cmp	r3, r2
  409d42:	f300 808d 	bgt.w	409e60 <.LCFI3>
  409d46:	e92d 4ff0 	stmdb	sp!, {r4, r5, r6, r7, r8, r9, sl, fp, lr}

00409d4a <.LCFI0>:
  409d4a:	f103 38ff 	add.w	r8, r3, #4294967295
  409d4e:	f101 0714 	add.w	r7, r1, #20

00409d52 <.LVL2>:
  409d52:	f100 0b14 	add.w	fp, r0, #20
  409d56:	f857 2028 	ldr.w	r2, [r7, r8, lsl #2]
  409d5a:	f85b 3028 	ldr.w	r3, [fp, r8, lsl #2]
  409d5e:	ea4f 0488 	mov.w	r4, r8, lsl #2
  409d62:	b083      	sub	sp, #12

00409d64 <.LCFI1>:
  409d64:	3201      	adds	r2, #1
  409d66:	fbb3 f9f2 	udiv	r9, r3, r2
  409d6a:	eb0b 0304 	add.w	r3, fp, r4
  409d6e:	9400      	str	r4, [sp, #0]
  409d70:	eb07 0a04 	add.w	sl, r7, r4

00409d74 <.LVL3>:
  409d74:	9301      	str	r3, [sp, #4]

00409d76 <.LVL4>:
  409d76:	f1b9 0f00 	cmp.w	r9, #0
  409d7a:	d039      	beq.n	409df0 <.LVL23>
  409d7c:	2500      	movs	r5, #0
  409d7e:	462e      	mov	r6, r5
  409d80:	46bc      	mov	ip, r7
  409d82:	46de      	mov	lr, fp

00409d84 <.LVL5>:
  409d84:	f85c 4b04 	ldr.w	r4, [ip], #4

00409d88 <.LVL6>:
  409d88:	f8de 3000 	ldr.w	r3, [lr]
  409d8c:	b2a2      	uxth	r2, r4
  409d8e:	fb09 5502 	mla	r5, r9, r2, r5

00409d92 <.LVL7>:
  409d92:	0c22      	lsrs	r2, r4, #16
  409d94:	0c2c      	lsrs	r4, r5, #16

00409d96 <.LVL8>:
  409d96:	fb09 4202 	mla	r2, r9, r2, r4

00409d9a <.LVL9>:
  409d9a:	b2ad      	uxth	r5, r5

00409d9c <.LVL10>:
  409d9c:	1b75      	subs	r5, r6, r5
  409d9e:	b296      	uxth	r6, r2

00409da0 <.LVL11>:
  409da0:	ebc6 4613 	rsb	r6, r6, r3, lsr #16
  409da4:	fa15 f383 	uxtah	r3, r5, r3
  409da8:	eb06 4623 	add.w	r6, r6, r3, asr #16
  409dac:	b29b      	uxth	r3, r3
  409dae:	ea43 4306 	orr.w	r3, r3, r6, lsl #16
  409db2:	45e2      	cmp	sl, ip
  409db4:	ea4f 4512 	mov.w	r5, r2, lsr #16

00409db8 <.LVL12>:
  409db8:	f84e 3b04 	str.w	r3, [lr], #4

00409dbc <.LVL13>:
  409dbc:	ea4f 4626 	mov.w	r6, r6, asr #16

00409dc0 <.LVL14>:
  409dc0:	d2e0      	bcs.n	409d84 <.LVL5>
  409dc2:	9b00      	ldr	r3, [sp, #0]
  409dc4:	f85b 3003 	ldr.w	r3, [fp, r3]
  409dc8:	b993      	cbnz	r3, 409df0 <.LVL23>

00409dca <.LVL15>:
  409dca:	9c01      	ldr	r4, [sp, #4]
  409dcc:	1f23      	subs	r3, r4, #4

00409dce <.LVL16>:
  409dce:	459b      	cmp	fp, r3
  409dd0:	d20c      	bcs.n	409dec <.LVL22>
  409dd2:	f854 3c04 	ldr.w	r3, [r4, #-4]

00409dd6 <.LVL17>:
  409dd6:	b94b      	cbnz	r3, 409dec <.LVL22>
  409dd8:	f1a4 0308 	sub.w	r3, r4, #8
  409ddc:	e002      	b.n	409de4 <.LVL19+0x2>

00409dde <.LVL18>:
  409dde:	681a      	ldr	r2, [r3, #0]
  409de0:	3b04      	subs	r3, #4

00409de2 <.LVL19>:
  409de2:	b91a      	cbnz	r2, 409dec <.LVL22>
  409de4:	459b      	cmp	fp, r3
  409de6:	f108 38ff 	add.w	r8, r8, #4294967295

00409dea <.LVL21>:
  409dea:	d3f8      	bcc.n	409dde <.LVL18>

00409dec <.LVL22>:
  409dec:	f8c0 8010 	str.w	r8, [r0, #16]

00409df0 <.LVL23>:
  409df0:	4604      	mov	r4, r0
  409df2:	f003 f925 	bl	40d040 <.LFE17>

00409df6 <.LVL24>:
  409df6:	2800      	cmp	r0, #0
  409df8:	db2e      	blt.n	409e58 <.LVL46>
  409dfa:	f109 0901 	add.w	r9, r9, #1

00409dfe <.LVL25>:
  409dfe:	465d      	mov	r5, fp
  409e00:	2300      	movs	r3, #0

00409e02 <.LVL26>:
  409e02:	f857 1b04 	ldr.w	r1, [r7], #4

00409e06 <.LVL27>:
  409e06:	6828      	ldr	r0, [r5, #0]
  409e08:	b28a      	uxth	r2, r1
  409e0a:	1a9a      	subs	r2, r3, r2
  409e0c:	0c0b      	lsrs	r3, r1, #16

00409e0e <.LVL28>:
  409e0e:	fa12 f280 	uxtah	r2, r2, r0

00409e12 <.LVL29>:
  409e12:	ebc3 4310 	rsb	r3, r3, r0, lsr #16

00409e16 <.LVL30>:
  409e16:	eb03 4322 	add.w	r3, r3, r2, asr #16

00409e1a <.LVL31>:
  409e1a:	b292      	uxth	r2, r2

00409e1c <.LVL32>:
  409e1c:	ea42 4203 	orr.w	r2, r2, r3, lsl #16
  409e20:	45ba      	cmp	sl, r7
  409e22:	f845 2b04 	str.w	r2, [r5], #4

00409e26 <.LVL33>:
  409e26:	ea4f 4323 	mov.w	r3, r3, asr #16

00409e2a <.LVL34>:
  409e2a:	d2ea      	bcs.n	409e02 <.LVL26>

00409e2c <.LVL35>:
  409e2c:	f85b 2028 	ldr.w	r2, [fp, r8, lsl #2]
  409e30:	eb0b 0388 	add.w	r3, fp, r8, lsl #2

00409e34 <.LVL36>:
  409e34:	b982      	cbnz	r2, 409e58 <.LVL46>

00409e36 <.LVL37>:
  409e36:	1f1a      	subs	r2, r3, #4

00409e38 <.LVL38>:
  409e38:	4593      	cmp	fp, r2
  409e3a:	d20b      	bcs.n	409e54 <.LVL45>
  409e3c:	f853 2c04 	ldr.w	r2, [r3, #-4]

00409e40 <.LVL39>:
  409e40:	b942      	cbnz	r2, 409e54 <.LVL45>
  409e42:	3b08      	subs	r3, #8

00409e44 <.LVL40>:
  409e44:	e002      	b.n	409e4c <.LVL42+0x2>

00409e46 <.LVL41>:
  409e46:	681a      	ldr	r2, [r3, #0]
  409e48:	3b04      	subs	r3, #4

00409e4a <.LVL42>:
  409e4a:	b91a      	cbnz	r2, 409e54 <.LVL45>
  409e4c:	459b      	cmp	fp, r3
  409e4e:	f108 38ff 	add.w	r8, r8, #4294967295

00409e52 <.LVL44>:
  409e52:	d3f8      	bcc.n	409e46 <.LVL41>

00409e54 <.LVL45>:
  409e54:	f8c4 8010 	str.w	r8, [r4, #16]

00409e58 <.LVL46>:
  409e58:	4648      	mov	r0, r9
  409e5a:	b003      	add	sp, #12

00409e5c <.LCFI2>:
  409e5c:	e8bd 8ff0 	ldmia.w	sp!, {r4, r5, r6, r7, r8, r9, sl, fp, pc}

00409e60 <.LCFI3>:
  409e60:	2000      	movs	r0, #0

00409e62 <.LVL48>:
  409e62:	4770      	bx	lr

Disassembly of section .text.USART1_InterruptHandler%51:

00409e64 <USART1_InterruptHandler>:

    return;
}

void USART1_InterruptHandler( void )
{
  409e64:	b570      	push	{r4, r5, r6, lr}

00409e66 <.LCFI0>:
    /* Error status */
    uint32_t errorStatus = (USART1_REGS->US_CSR & (US_CSR_OVRE_Msk | US_CSR_FRAME_Msk | US_CSR_PARE_Msk));
  409e66:	4b46      	ldr	r3, [pc, #280]	; (409f80 <.LBB11+0xe>)
  409e68:	695b      	ldr	r3, [r3, #20]

00409e6a <.LVL0>:

    if(errorStatus != 0)
  409e6a:	f013 0fe0 	tst.w	r3, #224	; 0xe0
  409e6e:	d00e      	beq.n	409e8e <.LVL1+0x1c>
    {
        /* Client must call USARTx_ErrorGet() function to clear the errors */

        /* USART errors are normally associated with the receiver, hence calling
         * receiver context */
        if( usart1Obj.rxCallback != NULL )
  409e70:	4b44      	ldr	r3, [pc, #272]	; (409f84 <.LBB11+0x12>)

00409e72 <.LVL1>:
  409e72:	6a5b      	ldr	r3, [r3, #36]	; 0x24
  409e74:	b113      	cbz	r3, 409e7c <.LVL1+0xa>
        {
            usart1Obj.rxCallback(usart1Obj.rxContext);
  409e76:	4a43      	ldr	r2, [pc, #268]	; (409f84 <.LBB11+0x12>)
  409e78:	6a90      	ldr	r0, [r2, #40]	; 0x28
  409e7a:	4798      	blx	r3
        }

        usart1Obj.rxBusyStatus = false;
  409e7c:	4b41      	ldr	r3, [pc, #260]	; (409f84 <.LBB11+0x12>)
  409e7e:	2200      	movs	r2, #0
  409e80:	f883 202c 	strb.w	r2, [r3, #44]	; 0x2c
        usart1Obj.rxSize = 0;
  409e84:	61da      	str	r2, [r3, #28]
        usart1Obj.rxProcessedSize = 0;
  409e86:	621a      	str	r2, [r3, #32]

        /* Disable Read, Overrun, Parity and Framing error interrupts */
        USART1_REGS->US_IDR = (US_IDR_RXRDY_Msk | US_IDR_FRAME_Msk | US_IDR_PARE_Msk | US_IDR_OVRE_Msk);
  409e88:	22e1      	movs	r2, #225	; 0xe1
  409e8a:	4b3d      	ldr	r3, [pc, #244]	; (409f80 <.LBB11+0xe>)
  409e8c:	60da      	str	r2, [r3, #12]
    }

    /* Receiver status */
    if(US_CSR_RXRDY_Msk == (USART1_REGS->US_CSR& US_CSR_RXRDY_Msk))
  409e8e:	4b3c      	ldr	r3, [pc, #240]	; (409f80 <.LBB11+0xe>)
  409e90:	695b      	ldr	r3, [r3, #20]
  409e92:	f013 0f01 	tst.w	r3, #1
  409e96:	d105      	bne.n	409ea4 <.LBB6>
    {
        USART1_ISR_RX_Handler();
    }

    /* Transmitter status */
    if(US_CSR_TXEMPTY_Msk == (USART1_REGS->US_CSR& US_CSR_TXEMPTY_Msk))
  409e98:	4b39      	ldr	r3, [pc, #228]	; (409f80 <.LBB11+0xe>)
  409e9a:	695b      	ldr	r3, [r3, #20]
  409e9c:	f413 7f00 	tst.w	r3, #512	; 0x200
  409ea0:	d134      	bne.n	409f0c <.LBB8>
  409ea2:	bd70      	pop	{r4, r5, r6, pc}

00409ea4 <.LBB6>:
    if(usart1Obj.rxBusyStatus == true)
  409ea4:	4b37      	ldr	r3, [pc, #220]	; (409f84 <.LBB11+0x12>)
  409ea6:	f893 302c 	ldrb.w	r3, [r3, #44]	; 0x2c
  409eaa:	2b00      	cmp	r3, #0
  409eac:	d0f4      	beq.n	409e98 <.LVL1+0x26>
        while((US_CSR_RXRDY_Msk == (USART1_REGS->US_CSR& US_CSR_RXRDY_Msk)) && (usart1Obj.rxSize > usart1Obj.rxProcessedSize) )
  409eae:	4b34      	ldr	r3, [pc, #208]	; (409f80 <.LBB11+0xe>)
  409eb0:	695b      	ldr	r3, [r3, #20]
  409eb2:	f013 0f01 	tst.w	r3, #1
  409eb6:	d023      	beq.n	409f00 <.LBB6+0x5c>
  409eb8:	4a32      	ldr	r2, [pc, #200]	; (409f84 <.LBB11+0x12>)
  409eba:	6a13      	ldr	r3, [r2, #32]
  409ebc:	69d2      	ldr	r2, [r2, #28]
  409ebe:	429a      	cmp	r2, r3
  409ec0:	d90e      	bls.n	409ee0 <.LBB6+0x3c>
            usart1Obj.rxBuffer[usart1Obj.rxProcessedSize++] = (USART1_REGS->US_RHR& US_RHR_RXCHR_Msk);
  409ec2:	4a30      	ldr	r2, [pc, #192]	; (409f84 <.LBB11+0x12>)
  409ec4:	492e      	ldr	r1, [pc, #184]	; (409f80 <.LBB11+0xe>)
  409ec6:	6990      	ldr	r0, [r2, #24]
  409ec8:	1c5c      	adds	r4, r3, #1
  409eca:	6214      	str	r4, [r2, #32]
  409ecc:	698c      	ldr	r4, [r1, #24]
  409ece:	54c4      	strb	r4, [r0, r3]
        while((US_CSR_RXRDY_Msk == (USART1_REGS->US_CSR& US_CSR_RXRDY_Msk)) && (usart1Obj.rxSize > usart1Obj.rxProcessedSize) )
  409ed0:	694b      	ldr	r3, [r1, #20]
  409ed2:	f013 0f01 	tst.w	r3, #1
  409ed6:	d013      	beq.n	409f00 <.LBB6+0x5c>
  409ed8:	6a13      	ldr	r3, [r2, #32]
  409eda:	69d0      	ldr	r0, [r2, #28]
  409edc:	4283      	cmp	r3, r0
  409ede:	d3f2      	bcc.n	409ec6 <.LBB6+0x22>
            usart1Obj.rxBusyStatus = false;
  409ee0:	4b28      	ldr	r3, [pc, #160]	; (409f84 <.LBB11+0x12>)
  409ee2:	2200      	movs	r2, #0
  409ee4:	f883 202c 	strb.w	r2, [r3, #44]	; 0x2c
            usart1Obj.rxSize = 0;
  409ee8:	61da      	str	r2, [r3, #28]
            usart1Obj.rxProcessedSize = 0;
  409eea:	621a      	str	r2, [r3, #32]
            USART1_REGS->US_IDR = (US_IDR_RXRDY_Msk | US_IDR_FRAME_Msk | US_IDR_PARE_Msk | US_IDR_OVRE_Msk);
  409eec:	21e1      	movs	r1, #225	; 0xe1
  409eee:	4a24      	ldr	r2, [pc, #144]	; (409f80 <.LBB11+0xe>)
  409ef0:	60d1      	str	r1, [r2, #12]
            if(usart1Obj.rxCallback != NULL)
  409ef2:	6a5b      	ldr	r3, [r3, #36]	; 0x24
  409ef4:	2b00      	cmp	r3, #0
  409ef6:	d0cf      	beq.n	409e98 <.LVL1+0x26>
                usart1Obj.rxCallback(usart1Obj.rxContext);
  409ef8:	4a22      	ldr	r2, [pc, #136]	; (409f84 <.LBB11+0x12>)
  409efa:	6a90      	ldr	r0, [r2, #40]	; 0x28
  409efc:	4798      	blx	r3
  409efe:	e7cb      	b.n	409e98 <.LVL1+0x26>
        if(usart1Obj.rxProcessedSize >= usart1Obj.rxSize)
  409f00:	4b20      	ldr	r3, [pc, #128]	; (409f84 <.LBB11+0x12>)
  409f02:	6a1a      	ldr	r2, [r3, #32]
  409f04:	69db      	ldr	r3, [r3, #28]
  409f06:	429a      	cmp	r2, r3
  409f08:	d3c6      	bcc.n	409e98 <.LVL1+0x26>
  409f0a:	e7e9      	b.n	409ee0 <.LBB6+0x3c>

00409f0c <.LBB8>:
    if(usart1Obj.txBusyStatus == true)
  409f0c:	4b1d      	ldr	r3, [pc, #116]	; (409f84 <.LBB11+0x12>)
  409f0e:	7d1b      	ldrb	r3, [r3, #20]
  409f10:	2b00      	cmp	r3, #0
  409f12:	d0c6      	beq.n	409ea2 <.LVL1+0x30>
        while((US_CSR_TXEMPTY_Msk == (USART1_REGS->US_CSR& US_CSR_TXEMPTY_Msk)) && (usart1Obj.txSize > usart1Obj.txProcessedSize) )
  409f14:	4b1a      	ldr	r3, [pc, #104]	; (409f80 <.LBB11+0xe>)
  409f16:	695b      	ldr	r3, [r3, #20]
  409f18:	f413 7f00 	tst.w	r3, #512	; 0x200
  409f1c:	d029      	beq.n	409f72 <.LBB11>
  409f1e:	4b19      	ldr	r3, [pc, #100]	; (409f84 <.LBB11+0x12>)
  409f20:	685d      	ldr	r5, [r3, #4]
  409f22:	689b      	ldr	r3, [r3, #8]
  409f24:	429d      	cmp	r5, r3
  409f26:	d914      	bls.n	409f52 <.LBB8+0x46>
            USART1_REGS->US_THR|= usart1Obj.txBuffer[usart1Obj.txProcessedSize++];
  409f28:	4a16      	ldr	r2, [pc, #88]	; (409f84 <.LBB11+0x12>)
  409f2a:	6814      	ldr	r4, [r2, #0]
  409f2c:	4423      	add	r3, r4
  409f2e:	4425      	add	r5, r4
  409f30:	4616      	mov	r6, r2
  409f32:	f1c4 0401 	rsb	r4, r4, #1
  409f36:	4912      	ldr	r1, [pc, #72]	; (409f80 <.LBB11+0xe>)
  409f38:	18e2      	adds	r2, r4, r3
  409f3a:	60b2      	str	r2, [r6, #8]
  409f3c:	f813 2b01 	ldrb.w	r2, [r3], #1
  409f40:	69c8      	ldr	r0, [r1, #28]
  409f42:	4302      	orrs	r2, r0
  409f44:	61ca      	str	r2, [r1, #28]
        while((US_CSR_TXEMPTY_Msk == (USART1_REGS->US_CSR& US_CSR_TXEMPTY_Msk)) && (usart1Obj.txSize > usart1Obj.txProcessedSize) )
  409f46:	694a      	ldr	r2, [r1, #20]
  409f48:	f412 7f00 	tst.w	r2, #512	; 0x200
  409f4c:	d011      	beq.n	409f72 <.LBB11>
  409f4e:	429d      	cmp	r5, r3
  409f50:	d1f2      	bne.n	409f38 <.LBB8+0x2c>
            usart1Obj.txBusyStatus = false;
  409f52:	4b0c      	ldr	r3, [pc, #48]	; (409f84 <.LBB11+0x12>)
  409f54:	2200      	movs	r2, #0
  409f56:	751a      	strb	r2, [r3, #20]
            usart1Obj.txSize = 0;
  409f58:	605a      	str	r2, [r3, #4]
            usart1Obj.txProcessedSize = 0;
  409f5a:	609a      	str	r2, [r3, #8]
            USART1_REGS->US_IDR = US_IDR_TXEMPTY_Msk;
  409f5c:	f44f 7100 	mov.w	r1, #512	; 0x200
  409f60:	4a07      	ldr	r2, [pc, #28]	; (409f80 <.LBB11+0xe>)
  409f62:	60d1      	str	r1, [r2, #12]
            if(usart1Obj.txCallback != NULL)
  409f64:	68db      	ldr	r3, [r3, #12]
  409f66:	2b00      	cmp	r3, #0
  409f68:	d09b      	beq.n	409ea2 <.LVL1+0x30>
                usart1Obj.txCallback(usart1Obj.txContext);
  409f6a:	4a06      	ldr	r2, [pc, #24]	; (409f84 <.LBB11+0x12>)
  409f6c:	6910      	ldr	r0, [r2, #16]
  409f6e:	4798      	blx	r3

00409f70 <.LBE8>:
    {
        USART1_ISR_TX_Handler();
    }

    return;
  409f70:	e797      	b.n	409ea2 <.LVL1+0x30>

00409f72 <.LBB11>:
        if(usart1Obj.txProcessedSize >= usart1Obj.txSize)
  409f72:	4b04      	ldr	r3, [pc, #16]	; (409f84 <.LBB11+0x12>)
  409f74:	689a      	ldr	r2, [r3, #8]
  409f76:	685b      	ldr	r3, [r3, #4]
  409f78:	429a      	cmp	r2, r3
  409f7a:	d392      	bcc.n	409ea2 <.LVL1+0x30>
  409f7c:	e7e9      	b.n	409f52 <.LBB8+0x46>
  409f7e:	bf00      	nop
  409f80:	40028000 	.word	0x40028000
  409f84:	20400454 	.word	0x20400454

Disassembly of section .text.__multiply%52:

00409f88 <__multiply>:
  409f88:	e92d 4ff0 	stmdb	sp!, {r4, r5, r6, r7, r8, r9, sl, fp, lr}

00409f8c <.LCFI7>:
  409f8c:	690c      	ldr	r4, [r1, #16]
  409f8e:	6915      	ldr	r5, [r2, #16]
  409f90:	42ac      	cmp	r4, r5
  409f92:	b083      	sub	sp, #12

00409f94 <.LCFI8>:
  409f94:	468b      	mov	fp, r1
  409f96:	4616      	mov	r6, r2
  409f98:	da04      	bge.n	409fa4 <.LVL110>
  409f9a:	4622      	mov	r2, r4

00409f9c <.LVL108>:
  409f9c:	46b3      	mov	fp, r6
  409f9e:	462c      	mov	r4, r5
  409fa0:	460e      	mov	r6, r1

00409fa2 <.LVL109>:
  409fa2:	4615      	mov	r5, r2

00409fa4 <.LVL110>:
  409fa4:	f8db 3008 	ldr.w	r3, [fp, #8]
  409fa8:	f8db 1004 	ldr.w	r1, [fp, #4]

00409fac <.LVL111>:
  409fac:	eb04 0805 	add.w	r8, r4, r5

00409fb0 <.LVL112>:
  409fb0:	4598      	cmp	r8, r3
  409fb2:	bfc8      	it	gt
  409fb4:	3101      	addgt	r1, #1
  409fb6:	f002 fdf7 	bl	40cba8 <.LFE2>

00409fba <.LVL114>:
  409fba:	f100 0914 	add.w	r9, r0, #20
  409fbe:	eb09 0a88 	add.w	sl, r9, r8, lsl #2
  409fc2:	45d1      	cmp	r9, sl
  409fc4:	9000      	str	r0, [sp, #0]

00409fc6 <.LVL115>:
  409fc6:	d205      	bcs.n	409fd4 <.LVL118>
  409fc8:	464b      	mov	r3, r9
  409fca:	2100      	movs	r1, #0

00409fcc <.LVL116>:
  409fcc:	f843 1b04 	str.w	r1, [r3], #4
  409fd0:	459a      	cmp	sl, r3
  409fd2:	d8fb      	bhi.n	409fcc <.LVL116>

00409fd4 <.LVL118>:
  409fd4:	f106 0c14 	add.w	ip, r6, #20
  409fd8:	eb0c 0385 	add.w	r3, ip, r5, lsl #2
  409fdc:	f10b 0b14 	add.w	fp, fp, #20

00409fe0 <.LVL119>:
  409fe0:	459c      	cmp	ip, r3
  409fe2:	eb0b 0e84 	add.w	lr, fp, r4, lsl #2

00409fe6 <.LVL120>:
  409fe6:	d24c      	bcs.n	40a082 <.LVL144>
  409fe8:	f8cd a004 	str.w	sl, [sp, #4]
  409fec:	469a      	mov	sl, r3

00409fee <.LVL121>:
  409fee:	f8dc 5000 	ldr.w	r5, [ip]
  409ff2:	b2af      	uxth	r7, r5

00409ff4 <.LVL122>:
  409ff4:	b1ef      	cbz	r7, 40a032 <.LVL130>
  409ff6:	2100      	movs	r1, #0
  409ff8:	464d      	mov	r5, r9
  409ffa:	465e      	mov	r6, fp
  409ffc:	460c      	mov	r4, r1

00409ffe <.LVL123>:
  409ffe:	f856 2b04 	ldr.w	r2, [r6], #4

0040a002 <.LVL124>:
  40a002:	6828      	ldr	r0, [r5, #0]
  40a004:	b293      	uxth	r3, r2
  40a006:	b281      	uxth	r1, r0
  40a008:	fb07 1303 	mla	r3, r7, r3, r1
  40a00c:	0c12      	lsrs	r2, r2, #16
  40a00e:	0c01      	lsrs	r1, r0, #16
  40a010:	4423      	add	r3, r4

0040a012 <.LVL125>:
  40a012:	fb07 1102 	mla	r1, r7, r2, r1
  40a016:	eb01 4113 	add.w	r1, r1, r3, lsr #16

0040a01a <.LVL126>:
  40a01a:	b29b      	uxth	r3, r3

0040a01c <.LVL127>:
  40a01c:	ea43 4301 	orr.w	r3, r3, r1, lsl #16
  40a020:	45b6      	cmp	lr, r6
  40a022:	f845 3b04 	str.w	r3, [r5], #4

0040a026 <.LVL128>:
  40a026:	ea4f 4411 	mov.w	r4, r1, lsr #16

0040a02a <.LVL129>:
  40a02a:	d8e8      	bhi.n	409ffe <.LVL123>
  40a02c:	602c      	str	r4, [r5, #0]
  40a02e:	f8dc 5000 	ldr.w	r5, [ip]

0040a032 <.LVL130>:
  40a032:	0c2d      	lsrs	r5, r5, #16

0040a034 <.LVL131>:
  40a034:	d01d      	beq.n	40a072 <.LVL141>

0040a036 <.LVL132>:
  40a036:	f8d9 3000 	ldr.w	r3, [r9]

0040a03a <.LVL133>:
  40a03a:	4648      	mov	r0, r9
  40a03c:	461c      	mov	r4, r3
  40a03e:	4659      	mov	r1, fp
  40a040:	2200      	movs	r2, #0

0040a042 <.LVL134>:
  40a042:	880e      	ldrh	r6, [r1, #0]
  40a044:	0c24      	lsrs	r4, r4, #16
  40a046:	fb05 4406 	mla	r4, r5, r6, r4
  40a04a:	4422      	add	r2, r4

0040a04c <.LVL135>:
  40a04c:	b29b      	uxth	r3, r3

0040a04e <.LVL136>:
  40a04e:	ea43 4302 	orr.w	r3, r3, r2, lsl #16
  40a052:	f840 3b04 	str.w	r3, [r0], #4

0040a056 <.LVL137>:
  40a056:	f851 3b04 	ldr.w	r3, [r1], #4

0040a05a <.LVL138>:
  40a05a:	6804      	ldr	r4, [r0, #0]
  40a05c:	0c1b      	lsrs	r3, r3, #16
  40a05e:	b2a6      	uxth	r6, r4
  40a060:	fb05 6303 	mla	r3, r5, r3, r6
  40a064:	eb03 4312 	add.w	r3, r3, r2, lsr #16

0040a068 <.LVL139>:
  40a068:	458e      	cmp	lr, r1
  40a06a:	ea4f 4213 	mov.w	r2, r3, lsr #16

0040a06e <.LVL140>:
  40a06e:	d8e8      	bhi.n	40a042 <.LVL134>
  40a070:	6003      	str	r3, [r0, #0]

0040a072 <.LVL141>:
  40a072:	f10c 0c04 	add.w	ip, ip, #4
  40a076:	45e2      	cmp	sl, ip
  40a078:	f109 0904 	add.w	r9, r9, #4
  40a07c:	d8b7      	bhi.n	409fee <.LVL121>
  40a07e:	f8dd a004 	ldr.w	sl, [sp, #4]

0040a082 <.LVL144>:
  40a082:	f1b8 0f00 	cmp.w	r8, #0
  40a086:	dd0b      	ble.n	40a0a0 <.LVL149>
  40a088:	f85a 3c04 	ldr.w	r3, [sl, #-4]
  40a08c:	f1aa 0a04 	sub.w	sl, sl, #4
  40a090:	b11b      	cbz	r3, 40a09a <.LVL147>
  40a092:	e005      	b.n	40a0a0 <.LVL149>
  40a094:	f85a 3d04 	ldr.w	r3, [sl, #-4]!

0040a098 <.LVL146>:
  40a098:	b913      	cbnz	r3, 40a0a0 <.LVL149>

0040a09a <.LVL147>:
  40a09a:	f1b8 0801 	subs.w	r8, r8, #1

0040a09e <.LVL148>:
  40a09e:	d1f9      	bne.n	40a094 <.LVL144+0x12>

0040a0a0 <.LVL149>:
  40a0a0:	9800      	ldr	r0, [sp, #0]
  40a0a2:	f8c0 8010 	str.w	r8, [r0, #16]
  40a0a6:	b003      	add	sp, #12

0040a0a8 <.LCFI9>:
  40a0a8:	e8bd 8ff0 	ldmia.w	sp!, {r4, r5, r6, r7, r8, r9, sl, fp, pc}

Disassembly of section .text.Reset_Handler%53:

0040a0ac <Reset_Handler>:
/**
 * \brief This is the code that gets called on processor reset.
 * To initialize the device, and call the main() routine.
 */
void __attribute__((optimize("-O1"), section(".text.Reset_Handler"), long_call)) Reset_Handler(void)
{
  40a0ac:	b5f8      	push	{r3, r4, r5, r6, r7, lr}

0040a0ae <.LCFI0>:
    uint32_t *pSrc;

    /* Call the optional application-provided _on_reset() function. */
    if (_on_reset)
  40a0ae:	4b3f      	ldr	r3, [pc, #252]	; (40a1ac <.LVL15+0x6>)
  40a0b0:	b103      	cbz	r3, 40a0b4 <.LVL0>
    {
        _on_reset();
  40a0b2:	4798      	blx	r3

0040a0b4 <.LVL0>:
    }

    /* Reserved for use by MPLAB XC32. */
    if (__xc32_on_reset)
  40a0b4:	4b3e      	ldr	r3, [pc, #248]	; (40a1b0 <.LVL15+0xa>)
  40a0b6:	b103      	cbz	r3, 40a0ba <.LBB143>
        __xc32_on_reset();
  40a0b8:	4798      	blx	r3

0040a0ba <.LBB143>:
 */
__STATIC_FORCEINLINE uint32_t __get_PRIMASK(void)
{
  uint32_t result;

  __ASM volatile ("MRS %0, primask" : "=r" (result) :: "memory");
  40a0ba:	f3ef 8110 	mrs	r1, PRIMASK

0040a0be <.LBB147>:
  __ASM volatile ("cpsid i" : : : "memory");
  40a0be:	b672      	cpsid	i

0040a0c0 <.LBE147>:
     SCB->CPACR |= (0xFu << 20);
  40a0c0:	4a3c      	ldr	r2, [pc, #240]	; (40a1b4 <.LVL15+0xe>)
  40a0c2:	f8d2 3088 	ldr.w	r3, [r2, #136]	; 0x88
  40a0c6:	f443 0370 	orr.w	r3, r3, #15728640	; 0xf00000
  40a0ca:	f8c2 3088 	str.w	r3, [r2, #136]	; 0x88

0040a0ce <.LBB149>:
  \details Acts as a special kind of Data Memory Barrier.
           It completes when all explicit memory accesses before this instruction complete.
 */
__STATIC_FORCEINLINE void __DSB(void)
{
  __ASM volatile ("dsb 0xF":::"memory");
  40a0ce:	f3bf 8f4f 	dsb	sy

0040a0d2 <.LBB151>:
  __ASM volatile ("isb 0xF":::"memory");
  40a0d2:	f3bf 8f6f 	isb	sy

0040a0d6 <.LBE151>:
    if (!prim)
  40a0d6:	b901      	cbnz	r1, 40a0da <.LBB155>

0040a0d8 <.LBB153>:
  __ASM volatile ("cpsie i" : : : "memory");
  40a0d8:	b662      	cpsie	i

0040a0da <.LBB155>:
  __ASM volatile ("dsb 0xF":::"memory");
  40a0da:	f3bf 8f4f 	dsb	sy

0040a0de <.LBB159>:
  __ASM volatile ("isb 0xF":::"memory");
  40a0de:	f3bf 8f6f 	isb	sy

0040a0e2 <.LBE159>:
    SCB->ITCMCR &= ~(uint32_t)SCB_ITCMCR_EN_Msk;
  40a0e2:	4c34      	ldr	r4, [pc, #208]	; (40a1b4 <.LVL15+0xe>)
  40a0e4:	f8d4 3290 	ldr.w	r3, [r4, #656]	; 0x290
  40a0e8:	f023 0301 	bic.w	r3, r3, #1
  40a0ec:	f8c4 3290 	str.w	r3, [r4, #656]	; 0x290
    SCB->DTCMCR &= ~(uint32_t)SCB_ITCMCR_EN_Msk;
  40a0f0:	f8d4 3294 	ldr.w	r3, [r4, #660]	; 0x294
  40a0f4:	f023 0301 	bic.w	r3, r3, #1
  40a0f8:	f8c4 3294 	str.w	r3, [r4, #660]	; 0x294

0040a0fc <.LBB161>:
  __ASM volatile ("dsb 0xF":::"memory");
  40a0fc:	f3bf 8f4f 	dsb	sy

0040a100 <.LBB163>:
  __ASM volatile ("isb 0xF":::"memory");
  40a100:	f3bf 8f6f 	isb	sy

0040a104 <.LBE155>:
    /* Disable TCM  */
    TCM_Disable();

    /* Initialize data after TCM is enabled.
     * Data initialization from the XC32 .dinit template */
    __pic32c_data_initialization();
  40a104:	f001 fcea 	bl	40badc <.LFE163>

0040a108 <.LVL2>:
	

#  ifdef SCB_VTOR_TBLOFF_Msk
    /*  Set the vector-table base address in FLASH */
    pSrc = (uint32_t *) & __svectors;
    SCB->VTOR = ((uint32_t) pSrc & SCB_VTOR_TBLOFF_Msk);
  40a108:	4b2b      	ldr	r3, [pc, #172]	; (40a1b8 <.LVL15+0x12>)
  40a10a:	f023 037f 	bic.w	r3, r3, #127	; 0x7f
  40a10e:	60a3      	str	r3, [r4, #8]
#  endif /* SCB_VTOR_TBLOFF_Msk */

    /* Initialize the C library */
    __libc_init_array();
  40a110:	4b2a      	ldr	r3, [pc, #168]	; (40a1bc <.LVL15+0x16>)
  40a112:	4798      	blx	r3

0040a114 <.LBB165>:
  __ASM volatile ("dsb 0xF":::"memory");
  40a114:	f3bf 8f4f 	dsb	sy

0040a118 <.LBB170>:
  __ASM volatile ("isb 0xF":::"memory");
  40a118:	f3bf 8f6f 	isb	sy

0040a11c <.LBE170>:
__STATIC_INLINE void SCB_EnableICache (void)
{
  #if defined (__ICACHE_PRESENT) && (__ICACHE_PRESENT == 1U)
    __DSB();
    __ISB();
    SCB->ICIALLU = 0UL;                     /* invalidate I-Cache */
  40a11c:	2200      	movs	r2, #0
  40a11e:	f8c4 2250 	str.w	r2, [r4, #592]	; 0x250

0040a122 <.LBB172>:
  __ASM volatile ("dsb 0xF":::"memory");
  40a122:	f3bf 8f4f 	dsb	sy

0040a126 <.LBB174>:
  __ASM volatile ("isb 0xF":::"memory");
  40a126:	f3bf 8f6f 	isb	sy

0040a12a <.LBE174>:
    __DSB();
    __ISB();
    SCB->CCR |=  (uint32_t)SCB_CCR_IC_Msk;  /* enable I-Cache */
  40a12a:	6963      	ldr	r3, [r4, #20]
  40a12c:	f443 3300 	orr.w	r3, r3, #131072	; 0x20000
  40a130:	6163      	str	r3, [r4, #20]

0040a132 <.LBB176>:
  __ASM volatile ("dsb 0xF":::"memory");
  40a132:	f3bf 8f4f 	dsb	sy

0040a136 <.LBB178>:
  __ASM volatile ("isb 0xF":::"memory");
  40a136:	f3bf 8f6f 	isb	sy

0040a13a <.LBB180>:
  #if defined (__DCACHE_PRESENT) && (__DCACHE_PRESENT == 1U)
    uint32_t ccsidr;
    uint32_t sets;
    uint32_t ways;

    SCB->CSSELR = 0U; /*(0U << 1U) | 0U;*/  /* Level 1 data cache */
  40a13a:	f8c4 2084 	str.w	r2, [r4, #132]	; 0x84

0040a13e <.LBB183>:
  __ASM volatile ("dsb 0xF":::"memory");
  40a13e:	f3bf 8f4f 	dsb	sy

0040a142 <.LBE183>:
    __DSB();

    ccsidr = SCB->CCSIDR;
  40a142:	f8d4 5080 	ldr.w	r5, [r4, #128]	; 0x80

0040a146 <.LVL4>:

                                            /* invalidate D-Cache */
    sets = (uint32_t)(CCSIDR_SETS(ccsidr));
  40a146:	f3c5 364e 	ubfx	r6, r5, #13, #15

0040a14a <.LVL5>:
    do {
      ways = (uint32_t)(CCSIDR_WAYS(ccsidr));
  40a14a:	f3c5 05c9 	ubfx	r5, r5, #3, #10

0040a14e <.LVL6>:
  40a14e:	0177      	lsls	r7, r6, #5
  40a150:	ea4f 7c85 	mov.w	ip, r5, lsl #30
      do {
        SCB->DCISW = (((sets << SCB_DCISW_SET_Pos) & SCB_DCISW_SET_Msk) |
  40a154:	f643 7ee0 	movw	lr, #16352	; 0x3fe0
  40a158:	4620      	mov	r0, r4
  40a15a:	ea07 040e 	and.w	r4, r7, lr
  40a15e:	4662      	mov	r2, ip
      ways = (uint32_t)(CCSIDR_WAYS(ccsidr));
  40a160:	462b      	mov	r3, r5

0040a162 <.LVL8>:
        SCB->DCISW = (((sets << SCB_DCISW_SET_Pos) & SCB_DCISW_SET_Msk) |
  40a162:	ea42 0104 	orr.w	r1, r2, r4
  40a166:	f8c0 1260 	str.w	r1, [r0, #608]	; 0x260
                      ((ways << SCB_DCISW_WAY_Pos) & SCB_DCISW_WAY_Msk)  );
        #if defined ( __CC_ARM )
          __schedule_barrier();
        #endif
      } while (ways-- != 0U);
  40a16a:	3b01      	subs	r3, #1
  40a16c:	f102 4240 	add.w	r2, r2, #3221225472	; 0xc0000000
  40a170:	f1b3 3fff 	cmp.w	r3, #4294967295
  40a174:	d1f5      	bne.n	40a162 <.LVL8>
    } while(sets-- != 0U);
  40a176:	3e01      	subs	r6, #1
  40a178:	3f20      	subs	r7, #32
  40a17a:	f1b6 3fff 	cmp.w	r6, #4294967295
  40a17e:	d1ec      	bne.n	40a15a <.LVL6+0xc>

0040a180 <.LBB185>:
  40a180:	f3bf 8f4f 	dsb	sy

0040a184 <.LBE185>:
    __DSB();

    SCB->CCR |=  (uint32_t)SCB_CCR_DC_Msk;  /* enable D-Cache */
  40a184:	4a0b      	ldr	r2, [pc, #44]	; (40a1b4 <.LVL15+0xe>)
  40a186:	6953      	ldr	r3, [r2, #20]

0040a188 <.LVL11>:
  40a188:	f443 3380 	orr.w	r3, r3, #65536	; 0x10000
  40a18c:	6153      	str	r3, [r2, #20]

0040a18e <.LBB187>:
  40a18e:	f3bf 8f4f 	dsb	sy

0040a192 <.LBB189>:
  __ASM volatile ("isb 0xF":::"memory");
  40a192:	f3bf 8f6f 	isb	sy

0040a196 <.LBE180>:

    /* Enable Data Cache    */
    DCache_Enable();

    /* Call the optional application-provided _on_bootstrap() function. */
    if (_on_bootstrap)
  40a196:	4b0a      	ldr	r3, [pc, #40]	; (40a1c0 <.LVL15+0x1a>)
  40a198:	b103      	cbz	r3, 40a19c <.LVL13>
    {
        _on_bootstrap();
  40a19a:	4798      	blx	r3

0040a19c <.LVL13>:
    }

    /* Reserved for use by MPLAB XC32. */
    if (__xc32_on_bootstrap)
  40a19c:	4b09      	ldr	r3, [pc, #36]	; (40a1c4 <.LVL15+0x1e>)
  40a19e:	b103      	cbz	r3, 40a1a2 <.LVL14>
    {
        __xc32_on_bootstrap();
  40a1a0:	4798      	blx	r3

0040a1a2 <.LVL14>:
    }

    /* Branch to application's main function */
    main();
  40a1a2:	f003 fba7 	bl	40d8f4 <main>

0040a1a6 <.LVL15>:
#if (defined(__DEBUG) || defined(__DEBUG_D)) && defined(__XC32)
    __builtin_software_breakpoint();
  40a1a6:	be00      	bkpt	0x0000
  40a1a8:	e7fe      	b.n	40a1a8 <.LVL15+0x2>
  40a1aa:	bf00      	nop
	...
  40a1b4:	e000ed00 	.word	0xe000ed00
  40a1b8:	00400000 	.word	0x00400000
  40a1bc:	0040cac1 	.word	0x0040cac1
	...

Disassembly of section .text.HardFault_Handler_C%54:

0040a1c8 <HardFault_Handler_C>:
{
  40a1c8:	e92d 4ff0 	stmdb	sp!, {r4, r5, r6, r7, r8, r9, sl, fp, lr}

0040a1cc <.LCFI0>:
  40a1cc:	b087      	sub	sp, #28

0040a1ce <.LCFI1>:
  40a1ce:	460f      	mov	r7, r1
    bus_fault_address       = SCB->BFAR;  // BusFault Address Register
  40a1d0:	4d3f      	ldr	r5, [pc, #252]	; (40a2d0 <.LVL36+0x2>)
  40a1d2:	6bab      	ldr	r3, [r5, #56]	; 0x38
  40a1d4:	9300      	str	r3, [sp, #0]

0040a1d6 <.LVL1>:
    memmanage_fault_address = SCB->MMFAR; // MemManage Fault Address Register
  40a1d6:	6b6b      	ldr	r3, [r5, #52]	; 0x34

0040a1d8 <.LVL2>:
  40a1d8:	9301      	str	r3, [sp, #4]

0040a1da <.LVL3>:
    cfsr                    = SCB->CFSR;  // Configurable Fault Status Register
  40a1da:	6aae      	ldr	r6, [r5, #40]	; 0x28
    stacked_r0  = hardfault_args[0];
  40a1dc:	f8d0 b000 	ldr.w	fp, [r0]
    stacked_r1  = hardfault_args[1];
  40a1e0:	f8d0 a004 	ldr.w	sl, [r0, #4]
    stacked_r2  = hardfault_args[2];
  40a1e4:	f8d0 9008 	ldr.w	r9, [r0, #8]
    stacked_r3  = hardfault_args[3];
  40a1e8:	f8d0 800c 	ldr.w	r8, [r0, #12]
    stacked_r12 = hardfault_args[4];
  40a1ec:	6903      	ldr	r3, [r0, #16]

0040a1ee <.LVL9>:
  40a1ee:	9302      	str	r3, [sp, #8]

0040a1f0 <.LVL10>:
    stacked_lr  = hardfault_args[5];  // Link Register
  40a1f0:	6942      	ldr	r2, [r0, #20]
  40a1f2:	9203      	str	r2, [sp, #12]

0040a1f4 <.LVL11>:
    stacked_pc  = hardfault_args[6];  // Program Counter
  40a1f4:	6984      	ldr	r4, [r0, #24]
  40a1f6:	9404      	str	r4, [sp, #16]

0040a1f8 <.LVL12>:
    stacked_psr = hardfault_args[7];  // Program Status Register
  40a1f8:	69c0      	ldr	r0, [r0, #28]

0040a1fa <.LVL13>:
  40a1fa:	9005      	str	r0, [sp, #20]

0040a1fc <.LVL14>:
    printf("\r\n");
  40a1fc:	4c35      	ldr	r4, [pc, #212]	; (40a2d4 <.LVL36+0x6>)

0040a1fe <.LVL15>:
  40a1fe:	4620      	mov	r0, r4

0040a200 <.LVL16>:
  40a200:	f003 fb50 	bl	40d8a4 <.LFE0>

0040a204 <.LVL17>:
    printf("[HardFault]\r\n");
  40a204:	1d20      	adds	r0, r4, #4
  40a206:	f003 fb4d 	bl	40d8a4 <.LFE0>

0040a20a <.LVL18>:
    printf("- Stack frame:\r\n");
  40a20a:	f104 0014 	add.w	r0, r4, #20
  40a20e:	f003 fb49 	bl	40d8a4 <.LFE0>

0040a212 <.LVL19>:
    printf(" R0  = 0x%08lX\r\n", stacked_r0);
  40a212:	4659      	mov	r1, fp
  40a214:	f104 0024 	add.w	r0, r4, #36	; 0x24
  40a218:	f003 f86c 	bl	40d2f4 <.LFE141>

0040a21c <.LVL20>:
    printf(" R1  = 0x%08lX\r\n", stacked_r1);
  40a21c:	4651      	mov	r1, sl
  40a21e:	f104 0038 	add.w	r0, r4, #56	; 0x38
  40a222:	f003 f867 	bl	40d2f4 <.LFE141>

0040a226 <.LVL21>:
    printf(" R2  = 0x%08lX\r\n", stacked_r2);
  40a226:	4649      	mov	r1, r9
  40a228:	f104 004c 	add.w	r0, r4, #76	; 0x4c
  40a22c:	f003 f862 	bl	40d2f4 <.LFE141>

0040a230 <.LVL22>:
    printf(" R3  = 0x%08lX\r\n", stacked_r3);
  40a230:	4641      	mov	r1, r8
  40a232:	f104 0060 	add.w	r0, r4, #96	; 0x60
  40a236:	f003 f85d 	bl	40d2f4 <.LFE141>

0040a23a <.LVL23>:
    printf(" R12 = 0x%08lX\r\n", stacked_r12);
  40a23a:	9902      	ldr	r1, [sp, #8]
  40a23c:	f104 0074 	add.w	r0, r4, #116	; 0x74
  40a240:	f003 f858 	bl	40d2f4 <.LFE141>

0040a244 <.LVL24>:
    printf(" LR  = 0x%08lX\r\n", stacked_lr);
  40a244:	9903      	ldr	r1, [sp, #12]
  40a246:	f104 0088 	add.w	r0, r4, #136	; 0x88
  40a24a:	f003 f853 	bl	40d2f4 <.LFE141>

0040a24e <.LVL25>:
    printf(" PC  = 0x%08lX\r\n", stacked_pc);
  40a24e:	9904      	ldr	r1, [sp, #16]
  40a250:	f104 009c 	add.w	r0, r4, #156	; 0x9c
  40a254:	f003 f84e 	bl	40d2f4 <.LFE141>

0040a258 <.LVL26>:
    printf(" PSR = 0x%08lX\r\n", stacked_psr);
  40a258:	9905      	ldr	r1, [sp, #20]
  40a25a:	f104 00b0 	add.w	r0, r4, #176	; 0xb0
  40a25e:	f003 f849 	bl	40d2f4 <.LFE141>

0040a262 <.LVL27>:
    printf("- FSR/FAR:\r\n");
  40a262:	f104 00c4 	add.w	r0, r4, #196	; 0xc4
  40a266:	f003 fb1d 	bl	40d8a4 <.LFE0>

0040a26a <.LVL28>:
    printf(" CFSR = 0x%08lX\r\n", cfsr);
  40a26a:	4631      	mov	r1, r6
  40a26c:	f104 00d0 	add.w	r0, r4, #208	; 0xd0
  40a270:	f003 f840 	bl	40d2f4 <.LFE141>

0040a274 <.LVL29>:
    printf(" HFSR = 0x%08lX\r\n", SCB->HFSR); // HardFault Status
  40a274:	6ae9      	ldr	r1, [r5, #44]	; 0x2c
  40a276:	f104 00e4 	add.w	r0, r4, #228	; 0xe4
  40a27a:	f003 f83b 	bl	40d2f4 <.LFE141>

0040a27e <.LVL30>:
    printf(" DFSR = 0x%08lX\r\n", SCB->DFSR); // Debug Fault Status
  40a27e:	6b29      	ldr	r1, [r5, #48]	; 0x30
  40a280:	f104 00f8 	add.w	r0, r4, #248	; 0xf8
  40a284:	f003 f836 	bl	40d2f4 <.LFE141>

0040a288 <.LVL31>:
    printf(" AFSR = 0x%08lX\r\n", SCB->AFSR); // Auxiliary Fault Status
  40a288:	6be9      	ldr	r1, [r5, #60]	; 0x3c
  40a28a:	f504 7086 	add.w	r0, r4, #268	; 0x10c
  40a28e:	f003 f831 	bl	40d2f4 <.LFE141>

0040a292 <.LVL32>:
    if (cfsr & 0x0080) printf(" MMFAR = 0x%08lX\r\n", memmanage_fault_address);
  40a292:	f016 0f80 	tst.w	r6, #128	; 0x80
  40a296:	d110      	bne.n	40a2ba <.LVL34+0x4>
    if (cfsr & 0x8000) printf(" BFAR = 0x%08lX\r\n", bus_fault_address);
  40a298:	f416 4f00 	tst.w	r6, #32768	; 0x8000
  40a29c:	d113      	bne.n	40a2c6 <.LVL35+0x2>
    printf("- Misc\r\n");
  40a29e:	4c0d      	ldr	r4, [pc, #52]	; (40a2d4 <.LVL36+0x6>)
  40a2a0:	f504 70a4 	add.w	r0, r4, #328	; 0x148
  40a2a4:	f003 fafe 	bl	40d8a4 <.LFE0>

0040a2a8 <.LVL33>:
    printf(" LR/EXC_RETURN = 0x%X, Bit 2: %d\r\n", lr_value, (lr_value & 0x4)>>2 );
  40a2a8:	f3c7 0280 	ubfx	r2, r7, #2, #1
  40a2ac:	4639      	mov	r1, r7
  40a2ae:	f504 70a8 	add.w	r0, r4, #336	; 0x150
  40a2b2:	f003 f81f 	bl	40d2f4 <.LFE141>

0040a2b6 <.LVL34>:
    __builtin_software_breakpoint();
  40a2b6:	be00      	bkpt	0x0000
  40a2b8:	e7fe      	b.n	40a2b8 <.LVL34+0x2>
    if (cfsr & 0x0080) printf(" MMFAR = 0x%08lX\r\n", memmanage_fault_address);
  40a2ba:	9901      	ldr	r1, [sp, #4]
  40a2bc:	f504 7090 	add.w	r0, r4, #288	; 0x120
  40a2c0:	f003 f818 	bl	40d2f4 <.LFE141>

0040a2c4 <.LVL35>:
  40a2c4:	e7e8      	b.n	40a298 <.LVL32+0x6>
    if (cfsr & 0x8000) printf(" BFAR = 0x%08lX\r\n", bus_fault_address);
  40a2c6:	9900      	ldr	r1, [sp, #0]
  40a2c8:	4803      	ldr	r0, [pc, #12]	; (40a2d8 <.LVL36+0xa>)
  40a2ca:	f003 f813 	bl	40d2f4 <.LFE141>

0040a2ce <.LVL36>:
  40a2ce:	e7e6      	b.n	40a29e <.LVL32+0xc>
  40a2d0:	e000ed00 	.word	0xe000ed00
  40a2d4:	004091e8 	.word	0x004091e8
  40a2d8:	0040931c 	.word	0x0040931c

Disassembly of section .text.MemoryManagement_Handler_C%55:

0040a2dc <MemoryManagement_Handler_C>:
{
  40a2dc:	e92d 4ff0 	stmdb	sp!, {r4, r5, r6, r7, r8, r9, sl, fp, lr}

0040a2e0 <.LCFI4>:
  40a2e0:	b087      	sub	sp, #28

0040a2e2 <.LCFI5>:
  40a2e2:	460f      	mov	r7, r1
    memmanage_fault_address = SCB->MMFAR; // MemManage Fault Address Register
  40a2e4:	4d3d      	ldr	r5, [pc, #244]	; (40a3dc <.LVL102+0x2>)
  40a2e6:	6b6b      	ldr	r3, [r5, #52]	; 0x34
  40a2e8:	9301      	str	r3, [sp, #4]

0040a2ea <.LVL69>:
    cfsr                    = SCB->CFSR;  // Configurable Fault Status Register
  40a2ea:	6aae      	ldr	r6, [r5, #40]	; 0x28
    stacked_r0  = hardfault_args[0];
  40a2ec:	6803      	ldr	r3, [r0, #0]

0040a2ee <.LVL71>:
  40a2ee:	9302      	str	r3, [sp, #8]

0040a2f0 <.LVL72>:
    stacked_r1  = hardfault_args[1];
  40a2f0:	f8d0 b004 	ldr.w	fp, [r0, #4]
    stacked_r2  = hardfault_args[2];
  40a2f4:	f8d0 a008 	ldr.w	sl, [r0, #8]
    stacked_r3  = hardfault_args[3];
  40a2f8:	f8d0 900c 	ldr.w	r9, [r0, #12]
    stacked_r12 = hardfault_args[4];
  40a2fc:	f8d0 8010 	ldr.w	r8, [r0, #16]
    stacked_lr  = hardfault_args[5];  // Link Register
  40a300:	6942      	ldr	r2, [r0, #20]
  40a302:	9203      	str	r2, [sp, #12]

0040a304 <.LVL77>:
    stacked_pc  = hardfault_args[6];  // Program Counter
  40a304:	6984      	ldr	r4, [r0, #24]
  40a306:	9404      	str	r4, [sp, #16]

0040a308 <.LVL78>:
    stacked_psr = hardfault_args[7];  // Program Status Register
  40a308:	69c0      	ldr	r0, [r0, #28]

0040a30a <.LVL79>:
  40a30a:	9005      	str	r0, [sp, #20]

0040a30c <.LVL80>:
    printf("\r\n");
  40a30c:	4c34      	ldr	r4, [pc, #208]	; (40a3e0 <.LVL102+0x6>)

0040a30e <.LVL81>:
  40a30e:	4620      	mov	r0, r4

0040a310 <.LVL82>:
  40a310:	f003 fac8 	bl	40d8a4 <.LFE0>

0040a314 <.LVL83>:
    printf("[MemoryManagement]\r\n");
  40a314:	f504 70c2 	add.w	r0, r4, #388	; 0x184
  40a318:	f003 fac4 	bl	40d8a4 <.LFE0>

0040a31c <.LVL84>:
    printf("- Stack frame:\r\n");
  40a31c:	f104 0014 	add.w	r0, r4, #20
  40a320:	f003 fac0 	bl	40d8a4 <.LFE0>

0040a324 <.LVL85>:
    printf(" R0  = 0x%08lX\r\n", stacked_r0);
  40a324:	9902      	ldr	r1, [sp, #8]
  40a326:	f104 0024 	add.w	r0, r4, #36	; 0x24
  40a32a:	f002 ffe3 	bl	40d2f4 <.LFE141>

0040a32e <.LVL86>:
    printf(" R1  = 0x%08lX\r\n", stacked_r1);
  40a32e:	4659      	mov	r1, fp
  40a330:	f104 0038 	add.w	r0, r4, #56	; 0x38
  40a334:	f002 ffde 	bl	40d2f4 <.LFE141>

0040a338 <.LVL87>:
    printf(" R2  = 0x%08lX\r\n", stacked_r2);
  40a338:	4651      	mov	r1, sl
  40a33a:	f104 004c 	add.w	r0, r4, #76	; 0x4c
  40a33e:	f002 ffd9 	bl	40d2f4 <.LFE141>

0040a342 <.LVL88>:
    printf(" R3  = 0x%08lX\r\n", stacked_r3);
  40a342:	4649      	mov	r1, r9
  40a344:	f104 0060 	add.w	r0, r4, #96	; 0x60
  40a348:	f002 ffd4 	bl	40d2f4 <.LFE141>

0040a34c <.LVL89>:
    printf(" R12 = 0x%08lX\r\n", stacked_r12);
  40a34c:	4641      	mov	r1, r8
  40a34e:	f104 0074 	add.w	r0, r4, #116	; 0x74
  40a352:	f002 ffcf 	bl	40d2f4 <.LFE141>

0040a356 <.LVL90>:
    printf(" LR  = 0x%08lX\r\n", stacked_lr);
  40a356:	9903      	ldr	r1, [sp, #12]
  40a358:	f104 0088 	add.w	r0, r4, #136	; 0x88
  40a35c:	f002 ffca 	bl	40d2f4 <.LFE141>

0040a360 <.LVL91>:
    printf(" PC  = 0x%08lX\r\n", stacked_pc);
  40a360:	9904      	ldr	r1, [sp, #16]
  40a362:	f104 009c 	add.w	r0, r4, #156	; 0x9c
  40a366:	f002 ffc5 	bl	40d2f4 <.LFE141>

0040a36a <.LVL92>:
    printf(" PSR = 0x%08lX\r\n", stacked_psr);
  40a36a:	9905      	ldr	r1, [sp, #20]
  40a36c:	f104 00b0 	add.w	r0, r4, #176	; 0xb0
  40a370:	f002 ffc0 	bl	40d2f4 <.LFE141>

0040a374 <.LVL93>:
    printf("- FSR/FAR:\r\n");
  40a374:	f104 00c4 	add.w	r0, r4, #196	; 0xc4
  40a378:	f003 fa94 	bl	40d8a4 <.LFE0>

0040a37c <.LVL94>:
    printf(" CFSR  = 0x%08lX\r\n", cfsr);
  40a37c:	4631      	mov	r1, r6
  40a37e:	f504 70cc 	add.w	r0, r4, #408	; 0x198
  40a382:	f002 ffb7 	bl	40d2f4 <.LFE141>

0040a386 <.LVL95>:
    printf(" MMFSR = 0x%02X\r\n", mmfsr);
  40a386:	b2f1      	uxtb	r1, r6
  40a388:	f504 70d6 	add.w	r0, r4, #428	; 0x1ac
  40a38c:	f002 ffb2 	bl	40d2f4 <.LFE141>

0040a390 <.LVL96>:
    printf(" HFSR  = 0x%08lX\r\n", SCB->HFSR); // HardFault Status
  40a390:	6ae9      	ldr	r1, [r5, #44]	; 0x2c
  40a392:	f504 70e0 	add.w	r0, r4, #448	; 0x1c0
  40a396:	f002 ffad 	bl	40d2f4 <.LFE141>

0040a39a <.LVL97>:
    printf(" DFSR  = 0x%08lX\r\n", SCB->DFSR); // Debug Fault Status
  40a39a:	6b29      	ldr	r1, [r5, #48]	; 0x30
  40a39c:	f504 70ea 	add.w	r0, r4, #468	; 0x1d4
  40a3a0:	f002 ffa8 	bl	40d2f4 <.LFE141>

0040a3a4 <.LVL98>:
    printf(" AFSR  = 0x%08lX\r\n", SCB->AFSR); // Auxiliary Fault Status
  40a3a4:	6be9      	ldr	r1, [r5, #60]	; 0x3c
  40a3a6:	f504 70f4 	add.w	r0, r4, #488	; 0x1e8
  40a3aa:	f002 ffa3 	bl	40d2f4 <.LFE141>

0040a3ae <.LVL99>:
    if (cfsr & 0x0080) printf(" MMFAR = 0x%08lX\r\n", memmanage_fault_address);
  40a3ae:	f016 0f80 	tst.w	r6, #128	; 0x80
  40a3b2:	d10d      	bne.n	40a3d0 <.LVL101+0x4>
    printf("- Misc\r\n");
  40a3b4:	4c0a      	ldr	r4, [pc, #40]	; (40a3e0 <.LVL102+0x6>)
  40a3b6:	f504 70a4 	add.w	r0, r4, #328	; 0x148
  40a3ba:	f003 fa73 	bl	40d8a4 <.LFE0>

0040a3be <.LVL100>:
    printf(" LR/EXC_RETURN = 0x%X, Bit 2: %d\r\n", lr_value, (lr_value & 0x4)>>2 );
  40a3be:	f3c7 0280 	ubfx	r2, r7, #2, #1
  40a3c2:	4639      	mov	r1, r7
  40a3c4:	f504 70a8 	add.w	r0, r4, #336	; 0x150
  40a3c8:	f002 ff94 	bl	40d2f4 <.LFE141>

0040a3cc <.LVL101>:
    __builtin_software_breakpoint();
  40a3cc:	be00      	bkpt	0x0000
  40a3ce:	e7fe      	b.n	40a3ce <.LVL101+0x2>
    if (cfsr & 0x0080) printf(" MMFAR = 0x%08lX\r\n", memmanage_fault_address);
  40a3d0:	9901      	ldr	r1, [sp, #4]
  40a3d2:	f504 7090 	add.w	r0, r4, #288	; 0x120
  40a3d6:	f002 ff8d 	bl	40d2f4 <.LFE141>

0040a3da <.LVL102>:
  40a3da:	e7eb      	b.n	40a3b4 <.LVL99+0x6>
  40a3dc:	e000ed00 	.word	0xe000ed00
  40a3e0:	004091e8 	.word	0x004091e8

Disassembly of section .text.__mdiff%56:

0040a3e4 <__mdiff>:
  40a3e4:	e92d 41f0 	stmdb	sp!, {r4, r5, r6, r7, r8, lr}

0040a3e8 <.LBB30>:
  40a3e8:	690f      	ldr	r7, [r1, #16]

0040a3ea <.LBE30>:
  40a3ea:	460e      	mov	r6, r1

0040a3ec <.LBB35>:
  40a3ec:	6911      	ldr	r1, [r2, #16]

0040a3ee <.LVL227>:
  40a3ee:	1a7f      	subs	r7, r7, r1

0040a3f0 <.LVL228>:
  40a3f0:	2f00      	cmp	r7, #0

0040a3f2 <.LBE35>:
  40a3f2:	4690      	mov	r8, r2

0040a3f4 <.LBB36>:
  40a3f4:	d117      	bne.n	40a426 <.LVL243>
  40a3f6:	0089      	lsls	r1, r1, #2
  40a3f8:	f106 0514 	add.w	r5, r6, #20
  40a3fc:	f102 0e14 	add.w	lr, r2, #20
  40a400:	186b      	adds	r3, r5, r1
  40a402:	4471      	add	r1, lr
  40a404:	e001      	b.n	40a40a <.LVL233+0x4>

0040a406 <.LVL233>:
  40a406:	429d      	cmp	r5, r3
  40a408:	d25c      	bcs.n	40a4c4 <.LVL274>
  40a40a:	f853 2d04 	ldr.w	r2, [r3, #-4]!
  40a40e:	f851 4d04 	ldr.w	r4, [r1, #-4]!
  40a412:	42a2      	cmp	r2, r4
  40a414:	d0f7      	beq.n	40a406 <.LVL233>
  40a416:	d25e      	bcs.n	40a4d6 <.LBB37>
  40a418:	4633      	mov	r3, r6
  40a41a:	462c      	mov	r4, r5

0040a41c <.LVL238>:
  40a41c:	4646      	mov	r6, r8

0040a41e <.LVL239>:
  40a41e:	4675      	mov	r5, lr
  40a420:	4698      	mov	r8, r3

0040a422 <.LBE36>:
  40a422:	2701      	movs	r7, #1
  40a424:	e005      	b.n	40a432 <.LVL245>

0040a426 <.LVL243>:
  40a426:	db58      	blt.n	40a4da <.LBE37>

0040a428 <.LVL244>:
  40a428:	f106 0514 	add.w	r5, r6, #20
  40a42c:	f108 0414 	add.w	r4, r8, #20
  40a430:	2700      	movs	r7, #0

0040a432 <.LVL245>:
  40a432:	6871      	ldr	r1, [r6, #4]
  40a434:	f002 fbb8 	bl	40cba8 <.LFE2>

0040a438 <.LVL246>:
  40a438:	f8d8 3010 	ldr.w	r3, [r8, #16]
  40a43c:	6936      	ldr	r6, [r6, #16]

0040a43e <.LVL247>:
  40a43e:	60c7      	str	r7, [r0, #12]
  40a440:	eb04 0c83 	add.w	ip, r4, r3, lsl #2
  40a444:	46a6      	mov	lr, r4
  40a446:	eb05 0786 	add.w	r7, r5, r6, lsl #2

0040a44a <.LVL248>:
  40a44a:	f100 0414 	add.w	r4, r0, #20

0040a44e <.LVL249>:
  40a44e:	2300      	movs	r3, #0

0040a450 <.LVL250>:
  40a450:	f85e 1b04 	ldr.w	r1, [lr], #4
  40a454:	f855 8b04 	ldr.w	r8, [r5], #4

0040a458 <.LVL251>:
  40a458:	b28a      	uxth	r2, r1
  40a45a:	fa13 f388 	uxtah	r3, r3, r8

0040a45e <.LVL252>:
  40a45e:	0c09      	lsrs	r1, r1, #16
  40a460:	1a9a      	subs	r2, r3, r2

0040a462 <.LVL253>:
  40a462:	ebc1 4318 	rsb	r3, r1, r8, lsr #16
  40a466:	eb03 4322 	add.w	r3, r3, r2, asr #16

0040a46a <.LVL254>:
  40a46a:	b292      	uxth	r2, r2

0040a46c <.LVL255>:
  40a46c:	ea42 4203 	orr.w	r2, r2, r3, lsl #16
  40a470:	45f4      	cmp	ip, lr
  40a472:	f844 2b04 	str.w	r2, [r4], #4

0040a476 <.LVL256>:
  40a476:	ea4f 4323 	mov.w	r3, r3, asr #16

0040a47a <.LVL257>:
  40a47a:	d8e9      	bhi.n	40a450 <.LVL250>

0040a47c <.LVL258>:
  40a47c:	42af      	cmp	r7, r5
  40a47e:	d917      	bls.n	40a4b0 <.LVL269>
  40a480:	46a4      	mov	ip, r4

0040a482 <.LVL259>:
  40a482:	46ae      	mov	lr, r5

0040a484 <.LVL260>:
  40a484:	f85e 2b04 	ldr.w	r2, [lr], #4

0040a488 <.LVL261>:
  40a488:	fa13 f382 	uxtah	r3, r3, r2

0040a48c <.LVL262>:
  40a48c:	1419      	asrs	r1, r3, #16

0040a48e <.LVL263>:
  40a48e:	eb01 4112 	add.w	r1, r1, r2, lsr #16

0040a492 <.LVL264>:
  40a492:	b29b      	uxth	r3, r3

0040a494 <.LVL265>:
  40a494:	ea43 4201 	orr.w	r2, r3, r1, lsl #16
  40a498:	4577      	cmp	r7, lr
  40a49a:	f84c 2b04 	str.w	r2, [ip], #4

0040a49e <.LVL266>:
  40a49e:	ea4f 4321 	mov.w	r3, r1, asr #16

0040a4a2 <.LVL267>:
  40a4a2:	d8ef      	bhi.n	40a484 <.LVL260>
  40a4a4:	43ed      	mvns	r5, r5
  40a4a6:	442f      	add	r7, r5

0040a4a8 <.LVL268>:
  40a4a8:	f027 0703 	bic.w	r7, r7, #3
  40a4ac:	3704      	adds	r7, #4
  40a4ae:	443c      	add	r4, r7

0040a4b0 <.LVL269>:
  40a4b0:	3c04      	subs	r4, #4
  40a4b2:	b922      	cbnz	r2, 40a4be <.LVL273+0x4>

0040a4b4 <.LVL271>:
  40a4b4:	f854 3d04 	ldr.w	r3, [r4, #-4]!

0040a4b8 <.LVL272>:
  40a4b8:	3e01      	subs	r6, #1

0040a4ba <.LVL273>:
  40a4ba:	2b00      	cmp	r3, #0
  40a4bc:	d0fa      	beq.n	40a4b4 <.LVL271>
  40a4be:	6106      	str	r6, [r0, #16]
  40a4c0:	e8bd 81f0 	ldmia.w	sp!, {r4, r5, r6, r7, r8, pc}

0040a4c4 <.LVL274>:
  40a4c4:	2100      	movs	r1, #0
  40a4c6:	f002 fb6f 	bl	40cba8 <.LFE2>

0040a4ca <.LVL275>:
  40a4ca:	2201      	movs	r2, #1
  40a4cc:	2300      	movs	r3, #0
  40a4ce:	6102      	str	r2, [r0, #16]
  40a4d0:	6143      	str	r3, [r0, #20]
  40a4d2:	e8bd 81f0 	ldmia.w	sp!, {r4, r5, r6, r7, r8, pc}

0040a4d6 <.LBB37>:
  40a4d6:	4674      	mov	r4, lr
  40a4d8:	e7ab      	b.n	40a432 <.LVL245>

0040a4da <.LBE37>:
  40a4da:	4633      	mov	r3, r6
  40a4dc:	f106 0414 	add.w	r4, r6, #20
  40a4e0:	f102 0514 	add.w	r5, r2, #20
  40a4e4:	4616      	mov	r6, r2

0040a4e6 <.LVL278>:
  40a4e6:	2701      	movs	r7, #1
  40a4e8:	4698      	mov	r8, r3
  40a4ea:	e7a2      	b.n	40a432 <.LVL245>

Disassembly of section .rodata%57:

0040a4ec <.LANCHOR1>:
  40a4ec:	30257325 	.word	0x30257325
  40a4f0:	00005832 	.word	0x00005832
  40a4f4:	0d0a7325 	.word	0x0d0a7325
  40a4f8:	2035444d 	.word	0x2035444d
  40a4fc:	6d6f7266 	.word	0x6d6f7266
  40a500:	65656620 	.word	0x65656620
  40a504:	20203a64 	.word	0x20203a64
  40a508:	00202020 	.word	0x00202020
  40a50c:	20097325 	.word	0x20097325
  40a510:	6b6f6f74 	.word	0x6b6f6f74
  40a514:	20642520 	.word	0x20642520
  40a518:	636f6c63 	.word	0x636f6c63
  40a51c:	7963206b 	.word	0x7963206b
  40a520:	73656c63 	.word	0x73656c63
  40a524:	00000000 	.word	0x00000000
  40a528:	0d0a7325 	.word	0x0d0a7325
  40a52c:	20414853 	.word	0x20414853
  40a530:	6d6f7266 	.word	0x6d6f7266
  40a534:	65656620 	.word	0x65656620
  40a538:	20203a64 	.word	0x20203a64
  40a53c:	00202020 	.word	0x00202020
  40a540:	0d0a7325 	.word	0x0d0a7325
  40a544:	32414853 	.word	0x32414853
  40a548:	66203635 	.word	0x66203635
  40a54c:	206d6f72 	.word	0x206d6f72
  40a550:	64656566 	.word	0x64656566
  40a554:	0020203a 	.word	0x0020203a
  40a558:	0d0a7325 	.word	0x0d0a7325
  40a55c:	33414853 	.word	0x33414853
  40a560:	66203438 	.word	0x66203438
  40a564:	206d6f72 	.word	0x206d6f72
  40a568:	64656566 	.word	0x64656566
  40a56c:	0020203a 	.word	0x0020203a
  40a570:	0d0a7325 	.word	0x0d0a7325
  40a574:	35414853 	.word	0x35414853
  40a578:	66203231 	.word	0x66203231
  40a57c:	206d6f72 	.word	0x206d6f72
  40a580:	64656566 	.word	0x64656566
  40a584:	0020203a 	.word	0x0020203a
  40a588:	0d0a7325 	.word	0x0d0a7325
  40a58c:	65742041 	.word	0x65742041
  40a590:	66207473 	.word	0x66207473
  40a594:	656c6961 	.word	0x656c6961
  40a598:	00002e64 	.word	0x00002e64
  40a59c:	0d0a7325 	.word	0x0d0a7325
  40a5a0:	206c6c41 	.word	0x206c6c41
  40a5a4:	74736574 	.word	0x74736574
  40a5a8:	61702073 	.word	0x61702073
  40a5ac:	64657373 	.word	0x64657373
  40a5b0:	0000002e 	.word	0x0000002e
  40a5b4:	41200a0d 	.word	0x41200a0d
  40a5b8:	696c7070 	.word	0x696c7070
  40a5bc:	69746163 	.word	0x69746163
  40a5c0:	63206e6f 	.word	0x63206e6f
  40a5c4:	74616572 	.word	0x74616572
  40a5c8:	53206465 	.word	0x53206465
  40a5cc:	31207065 	.word	0x31207065
  40a5d0:	30322039 	.word	0x30322039
  40a5d4:	31203831 	.word	0x31203831
  40a5d8:	34333a33 	.word	0x34333a33
  40a5dc:	2039313a 	.word	0x2039313a
  40a5e0:	74696e69 	.word	0x74696e69
  40a5e4:	696c6169 	.word	0x696c6169
  40a5e8:	2164657a 	.word	0x2164657a
  40a5ec:	0a0d      	.short	0x0a0d
	...

Disassembly of section .rodata._ctype_%58:

0040a5f0 <_ctype_>:
  40a5f0:	2000 2020 2020 2020 2020 2828 2828 2028     .         ((((( 
  40a600:	2020 2020 2020 2020 2020 2020 2020 2020                     
  40a610:	8820 1010 1010 1010 1010 1010 1010 1010      ...............
  40a620:	0410 0404 0404 0404 0404 1004 1010 1010     ................
  40a630:	1010 4141 4141 4141 0101 0101 0101 0101     ..AAAAAA........
  40a640:	0101 0101 0101 0101 0101 0101 1010 1010     ................
  40a650:	1010 4242 4242 4242 0202 0202 0202 0202     ..BBBBBB........
  40a660:	0202 0202 0202 0202 0202 0202 1010 1010     ................
  40a670:	0020 0000 0000 0000 0000 0000 0000 0000      ...............
	...
  40a6f0:	0000 bf00                                   ....

Disassembly of section .text.__ssprint_r%59:

0040a6f4 <__ssprint_r>:
  40a6f4:	e92d 4ff0 	stmdb	sp!, {r4, r5, r6, r7, r8, r9, sl, fp, lr}

0040a6f8 <.LCFI0>:
  40a6f8:	6893      	ldr	r3, [r2, #8]
  40a6fa:	b083      	sub	sp, #12

0040a6fc <.LCFI1>:
  40a6fc:	4690      	mov	r8, r2

0040a6fe <.LVL1>:
  40a6fe:	2b00      	cmp	r3, #0
  40a700:	d070      	beq.n	40a7e4 <.LCFI3>
  40a702:	4682      	mov	sl, r0
  40a704:	460c      	mov	r4, r1
  40a706:	6817      	ldr	r7, [r2, #0]
  40a708:	688d      	ldr	r5, [r1, #8]
  40a70a:	6808      	ldr	r0, [r1, #0]

0040a70c <.LVL2>:
  40a70c:	e042      	b.n	40a794 <.LVL16>

0040a70e <.LVL3>:
  40a70e:	89a3      	ldrh	r3, [r4, #12]
  40a710:	f413 6f90 	tst.w	r3, #1152	; 0x480
  40a714:	d02e      	beq.n	40a774 <.LBE2>

0040a716 <.LBB2>:
  40a716:	6965      	ldr	r5, [r4, #20]
  40a718:	6921      	ldr	r1, [r4, #16]
  40a71a:	eb05 0545 	add.w	r5, r5, r5, lsl #1
  40a71e:	eba0 0b01 	sub.w	fp, r0, r1

0040a722 <.LVL4>:
  40a722:	eb05 75d5 	add.w	r5, r5, r5, lsr #31
  40a726:	f10b 0001 	add.w	r0, fp, #1
  40a72a:	106d      	asrs	r5, r5, #1

0040a72c <.LVL5>:
  40a72c:	4430      	add	r0, r6
  40a72e:	42a8      	cmp	r0, r5
  40a730:	462a      	mov	r2, r5
  40a732:	bf84      	itt	hi
  40a734:	4605      	movhi	r5, r0
  40a736:	462a      	movhi	r2, r5
  40a738:	055b      	lsls	r3, r3, #21
  40a73a:	d538      	bpl.n	40a7ae <.LBB3>
  40a73c:	4611      	mov	r1, r2
  40a73e:	4650      	mov	r0, sl
  40a740:	f7fd fa4c 	bl	407bdc <.LFE14>

0040a744 <.LVL7>:
  40a744:	2800      	cmp	r0, #0
  40a746:	d03c      	beq.n	40a7c2 <.L10>
  40a748:	465a      	mov	r2, fp
  40a74a:	6921      	ldr	r1, [r4, #16]
  40a74c:	9001      	str	r0, [sp, #4]
  40a74e:	f7ff f9c7 	bl	409ae0 <.LBE4>

0040a752 <.LVL8>:
  40a752:	89a2      	ldrh	r2, [r4, #12]
  40a754:	9b01      	ldr	r3, [sp, #4]
  40a756:	f422 6290 	bic.w	r2, r2, #1152	; 0x480
  40a75a:	f042 0280 	orr.w	r2, r2, #128	; 0x80
  40a75e:	81a2      	strh	r2, [r4, #12]

0040a760 <.LVL9>:
  40a760:	eba5 020b 	sub.w	r2, r5, fp
  40a764:	eb03 000b 	add.w	r0, r3, fp
  40a768:	6165      	str	r5, [r4, #20]
  40a76a:	6123      	str	r3, [r4, #16]
  40a76c:	6020      	str	r0, [r4, #0]
  40a76e:	60a2      	str	r2, [r4, #8]
  40a770:	4635      	mov	r5, r6

0040a772 <.LVL10>:
  40a772:	46b3      	mov	fp, r6

0040a774 <.LBE2>:
  40a774:	465a      	mov	r2, fp
  40a776:	4649      	mov	r1, r9
  40a778:	f000 fc38 	bl	40afec <.LBE12>

0040a77c <.LVL12>:
  40a77c:	f8d8 3008 	ldr.w	r3, [r8, #8]
  40a780:	68a2      	ldr	r2, [r4, #8]
  40a782:	6820      	ldr	r0, [r4, #0]
  40a784:	1b55      	subs	r5, r2, r5

0040a786 <.LVL13>:
  40a786:	4458      	add	r0, fp
  40a788:	1b9e      	subs	r6, r3, r6

0040a78a <.LVL14>:
  40a78a:	60a5      	str	r5, [r4, #8]
  40a78c:	6020      	str	r0, [r4, #0]

0040a78e <.LVL15>:
  40a78e:	f8c8 6008 	str.w	r6, [r8, #8]
  40a792:	b33e      	cbz	r6, 40a7e4 <.LCFI3>

0040a794 <.LVL16>:
  40a794:	687e      	ldr	r6, [r7, #4]

0040a796 <.LVL17>:
  40a796:	463b      	mov	r3, r7
  40a798:	3708      	adds	r7, #8

0040a79a <.LVL18>:
  40a79a:	2e00      	cmp	r6, #0
  40a79c:	d0fa      	beq.n	40a794 <.LVL16>
  40a79e:	42ae      	cmp	r6, r5
  40a7a0:	f8d3 9000 	ldr.w	r9, [r3]
  40a7a4:	46ab      	mov	fp, r5
  40a7a6:	d2b2      	bcs.n	40a70e <.LVL3>
  40a7a8:	4635      	mov	r5, r6

0040a7aa <.LVL19>:
  40a7aa:	46b3      	mov	fp, r6
  40a7ac:	e7e2      	b.n	40a774 <.LBE2>

0040a7ae <.LBB3>:
  40a7ae:	4650      	mov	r0, sl
  40a7b0:	f7fd fcbc 	bl	40812c <.LFE2>

0040a7b4 <.LVL21>:
  40a7b4:	4603      	mov	r3, r0
  40a7b6:	2800      	cmp	r0, #0
  40a7b8:	d1d2      	bne.n	40a760 <.LVL9>
  40a7ba:	6921      	ldr	r1, [r4, #16]
  40a7bc:	4650      	mov	r0, sl

0040a7be <.LVL22>:
  40a7be:	f7fe ff5f 	bl	409680 <.LFE174>

0040a7c2 <.L10>:
  40a7c2:	230c      	movs	r3, #12
  40a7c4:	f8ca 3000 	str.w	r3, [sl]

0040a7c8 <.LBE3>:
  40a7c8:	89a3      	ldrh	r3, [r4, #12]
  40a7ca:	2200      	movs	r2, #0
  40a7cc:	f043 0340 	orr.w	r3, r3, #64	; 0x40
  40a7d0:	f04f 30ff 	mov.w	r0, #4294967295
  40a7d4:	81a3      	strh	r3, [r4, #12]
  40a7d6:	f8c8 2008 	str.w	r2, [r8, #8]
  40a7da:	f8c8 2004 	str.w	r2, [r8, #4]
  40a7de:	b003      	add	sp, #12

0040a7e0 <.LCFI2>:
  40a7e0:	e8bd 8ff0 	ldmia.w	sp!, {r4, r5, r6, r7, r8, r9, sl, fp, pc}

0040a7e4 <.LCFI3>:
  40a7e4:	2000      	movs	r0, #0
  40a7e6:	f8c8 0004 	str.w	r0, [r8, #4]
  40a7ea:	b003      	add	sp, #12

0040a7ec <.LCFI4>:
  40a7ec:	e8bd 8ff0 	ldmia.w	sp!, {r4, r5, r6, r7, r8, r9, sl, fp, pc}

Disassembly of section .text.UsageFault_Handler_C%60:

0040a7f0 <UsageFault_Handler_C>:
    asm("MOV    R1, LR");
    asm("B      UsageFault_Handler_C");
}

void UsageFault_Handler_C(uint32_t * hardfault_args, unsigned int lr_value)
{
  40a7f0:	e92d 4ff0 	stmdb	sp!, {r4, r5, r6, r7, r8, r9, sl, fp, lr}

0040a7f4 <.LCFI8>:
  40a7f4:	b085      	sub	sp, #20

0040a7f6 <.LCFI9>:
  40a7f6:	460e      	mov	r6, r1
    uint32_t stacked_pc;
    uint32_t stacked_psr;
    uint32_t cfsr;
    uint16_t ufsr;

    cfsr = SCB->CFSR;  // Configurable Fault Status Register
  40a7f8:	4d37      	ldr	r5, [pc, #220]	; (40a8d8 <.LVL173+0x4>)
  40a7fa:	6aaf      	ldr	r7, [r5, #40]	; 0x28
    ufsr = cfsr >> 16; // Usage Fault Status

    stacked_r0  = hardfault_args[0];
  40a7fc:	6803      	ldr	r3, [r0, #0]
  40a7fe:	9300      	str	r3, [sp, #0]

0040a800 <.LVL144>:
    stacked_r1  = hardfault_args[1];
  40a800:	f8d0 b004 	ldr.w	fp, [r0, #4]
    stacked_r2  = hardfault_args[2];
  40a804:	f8d0 a008 	ldr.w	sl, [r0, #8]
    stacked_r3  = hardfault_args[3];
  40a808:	f8d0 900c 	ldr.w	r9, [r0, #12]
    stacked_r12 = hardfault_args[4];
  40a80c:	f8d0 8010 	ldr.w	r8, [r0, #16]
    stacked_lr  = hardfault_args[5];  // Link Register
  40a810:	6942      	ldr	r2, [r0, #20]
  40a812:	9201      	str	r2, [sp, #4]

0040a814 <.LVL149>:
    stacked_pc  = hardfault_args[6];  // Program Counter
  40a814:	6984      	ldr	r4, [r0, #24]
  40a816:	9402      	str	r4, [sp, #8]

0040a818 <.LVL150>:
    stacked_psr = hardfault_args[7];  // Program Status Register
  40a818:	69c0      	ldr	r0, [r0, #28]

0040a81a <.LVL151>:
  40a81a:	9003      	str	r0, [sp, #12]

0040a81c <.LVL152>:

    printf("\r\n");
  40a81c:	4c2f      	ldr	r4, [pc, #188]	; (40a8dc <.LVL173+0x8>)

0040a81e <.LVL153>:
  40a81e:	4620      	mov	r0, r4

0040a820 <.LVL154>:
  40a820:	f003 f840 	bl	40d8a4 <.LFE0>

0040a824 <.LVL155>:
    printf("[UsageFault]\r\n");
  40a824:	f504 700c 	add.w	r0, r4, #560	; 0x230
  40a828:	f003 f83c 	bl	40d8a4 <.LFE0>

0040a82c <.LVL156>:
    printf("- Stack frame:\r\n");
  40a82c:	f104 0014 	add.w	r0, r4, #20
  40a830:	f003 f838 	bl	40d8a4 <.LFE0>

0040a834 <.LVL157>:
    printf(" R0  = 0x%08lX\r\n", stacked_r0);
  40a834:	9900      	ldr	r1, [sp, #0]
  40a836:	f104 0024 	add.w	r0, r4, #36	; 0x24
  40a83a:	f002 fd5b 	bl	40d2f4 <.LFE141>

0040a83e <.LVL158>:
    printf(" R1  = 0x%08lX\r\n", stacked_r1);
  40a83e:	4659      	mov	r1, fp
  40a840:	f104 0038 	add.w	r0, r4, #56	; 0x38
  40a844:	f002 fd56 	bl	40d2f4 <.LFE141>

0040a848 <.LVL159>:
    printf(" R2  = 0x%08lX\r\n", stacked_r2);
  40a848:	4651      	mov	r1, sl
  40a84a:	f104 004c 	add.w	r0, r4, #76	; 0x4c
  40a84e:	f002 fd51 	bl	40d2f4 <.LFE141>

0040a852 <.LVL160>:
    printf(" R3  = 0x%08lX\r\n", stacked_r3);
  40a852:	4649      	mov	r1, r9
  40a854:	f104 0060 	add.w	r0, r4, #96	; 0x60
  40a858:	f002 fd4c 	bl	40d2f4 <.LFE141>

0040a85c <.LVL161>:
    printf(" R12 = 0x%08lX\r\n", stacked_r12);
  40a85c:	4641      	mov	r1, r8
  40a85e:	f104 0074 	add.w	r0, r4, #116	; 0x74
  40a862:	f002 fd47 	bl	40d2f4 <.LFE141>

0040a866 <.LVL162>:
    printf(" LR  = 0x%08lX\r\n", stacked_lr);
  40a866:	9901      	ldr	r1, [sp, #4]
  40a868:	f104 0088 	add.w	r0, r4, #136	; 0x88
  40a86c:	f002 fd42 	bl	40d2f4 <.LFE141>

0040a870 <.LVL163>:
    printf(" PC  = 0x%08lX\r\n", stacked_pc);
  40a870:	9902      	ldr	r1, [sp, #8]
  40a872:	f104 009c 	add.w	r0, r4, #156	; 0x9c
  40a876:	f002 fd3d 	bl	40d2f4 <.LFE141>

0040a87a <.LVL164>:
    printf(" PSR = 0x%08lX\r\n", stacked_psr);
  40a87a:	9903      	ldr	r1, [sp, #12]
  40a87c:	f104 00b0 	add.w	r0, r4, #176	; 0xb0
  40a880:	f002 fd38 	bl	40d2f4 <.LFE141>

0040a884 <.LVL165>:
    printf("- FSR/FAR:\r\n");
  40a884:	f104 00c4 	add.w	r0, r4, #196	; 0xc4
  40a888:	f003 f80c 	bl	40d8a4 <.LFE0>

0040a88c <.LVL166>:
    printf(" CFSR = 0x%08lX\r\n", cfsr);
  40a88c:	4639      	mov	r1, r7
  40a88e:	f104 00d0 	add.w	r0, r4, #208	; 0xd0
  40a892:	f002 fd2f 	bl	40d2f4 <.LFE141>

0040a896 <.LVL167>:
    printf(" UFSR = 0x%04X\r\n",  ufsr);
  40a896:	0c39      	lsrs	r1, r7, #16
  40a898:	f504 7010 	add.w	r0, r4, #576	; 0x240
  40a89c:	f002 fd2a 	bl	40d2f4 <.LFE141>

0040a8a0 <.LVL168>:
    printf(" HFSR = 0x%08lX\r\n", SCB->HFSR); // HardFault Status
  40a8a0:	6ae9      	ldr	r1, [r5, #44]	; 0x2c
  40a8a2:	f104 00e4 	add.w	r0, r4, #228	; 0xe4
  40a8a6:	f002 fd25 	bl	40d2f4 <.LFE141>

0040a8aa <.LVL169>:
    printf(" DFSR = 0x%08lX\r\n", SCB->DFSR); // Debug Fault Status
  40a8aa:	6b29      	ldr	r1, [r5, #48]	; 0x30
  40a8ac:	f104 00f8 	add.w	r0, r4, #248	; 0xf8
  40a8b0:	f002 fd20 	bl	40d2f4 <.LFE141>

0040a8b4 <.LVL170>:
    printf(" AFSR = 0x%08lX\r\n", SCB->AFSR); // Auxiliary Fault Status
  40a8b4:	6be9      	ldr	r1, [r5, #60]	; 0x3c
  40a8b6:	f504 7086 	add.w	r0, r4, #268	; 0x10c
  40a8ba:	f002 fd1b 	bl	40d2f4 <.LFE141>

0040a8be <.LVL171>:
    printf("- Misc\r\n");
  40a8be:	f504 70a4 	add.w	r0, r4, #328	; 0x148
  40a8c2:	f002 ffef 	bl	40d8a4 <.LFE0>

0040a8c6 <.LVL172>:
    printf(" LR/EXC_RETURN = 0x%X, Bit 2: %d\r\n", lr_value, (lr_value & 0x4)>>2 );
  40a8c6:	f3c6 0280 	ubfx	r2, r6, #2, #1
  40a8ca:	4631      	mov	r1, r6
  40a8cc:	f504 70a8 	add.w	r0, r4, #336	; 0x150
  40a8d0:	f002 fd10 	bl	40d2f4 <.LFE141>

0040a8d4 <.LVL173>:

  #if defined(__DEBUG) || defined(__DEBUG_D) && defined(__XC32)
    __builtin_software_breakpoint();
  40a8d4:	be00      	bkpt	0x0000
  40a8d6:	e7fe      	b.n	40a8d6 <.LVL173+0x2>
  40a8d8:	e000ed00 	.word	0xe000ed00
  40a8dc:	004091e8 	.word	0x004091e8

Disassembly of section .text.__sinit.part.1%61:

0040a8e0 <__sinit.part.1>:
  40a8e0:	e92d 4ff0 	stmdb	sp!, {r4, r5, r6, r7, r8, r9, sl, fp, lr}

0040a8e4 <.LCFI0>:
  40a8e4:	4b35      	ldr	r3, [pc, #212]	; (40a9bc <.LVL13>)
  40a8e6:	6845      	ldr	r5, [r0, #4]

0040a8e8 <.LVL5>:
  40a8e8:	63c3      	str	r3, [r0, #60]	; 0x3c
  40a8ea:	2400      	movs	r4, #0
  40a8ec:	4607      	mov	r7, r0
  40a8ee:	f500 723b 	add.w	r2, r0, #748	; 0x2ec

0040a8f2 <.LBB34>:
  40a8f2:	2304      	movs	r3, #4

0040a8f4 <.LBE34>:
  40a8f4:	2103      	movs	r1, #3
  40a8f6:	f8c0 12e4 	str.w	r1, [r0, #740]	; 0x2e4
  40a8fa:	f8c0 22e8 	str.w	r2, [r0, #744]	; 0x2e8
  40a8fe:	f8c0 42e0 	str.w	r4, [r0, #736]	; 0x2e0
  40a902:	b083      	sub	sp, #12

0040a904 <.LBB39>:
  40a904:	602c      	str	r4, [r5, #0]
  40a906:	606c      	str	r4, [r5, #4]
  40a908:	60ac      	str	r4, [r5, #8]
  40a90a:	666c      	str	r4, [r5, #100]	; 0x64
  40a90c:	81ec      	strh	r4, [r5, #14]
  40a90e:	612c      	str	r4, [r5, #16]
  40a910:	616c      	str	r4, [r5, #20]
  40a912:	61ac      	str	r4, [r5, #24]
  40a914:	81ab      	strh	r3, [r5, #12]
  40a916:	4621      	mov	r1, r4
  40a918:	f105 005c 	add.w	r0, r5, #92	; 0x5c

0040a91c <.LVL6>:
  40a91c:	2208      	movs	r2, #8
  40a91e:	f001 f845 	bl	40b9ac <.LFE166>

0040a922 <.LBE39>:
  40a922:	68be      	ldr	r6, [r7, #8]

0040a924 <.LBB40>:
  40a924:	f8df b098 	ldr.w	fp, [pc, #152]	; 40a9c0 <.LVL13+0x4>
  40a928:	f8df a098 	ldr.w	sl, [pc, #152]	; 40a9c4 <.LVL13+0x8>
  40a92c:	f8df 9098 	ldr.w	r9, [pc, #152]	; 40a9c8 <.LVL13+0xc>
  40a930:	f8df 8098 	ldr.w	r8, [pc, #152]	; 40a9cc <.LVL13+0x10>
  40a934:	f8c5 b020 	str.w	fp, [r5, #32]

0040a938 <.LBB41>:
  40a938:	2301      	movs	r3, #1
  40a93a:	2209      	movs	r2, #9

0040a93c <.LBB46>:
  40a93c:	f8c5 a024 	str.w	sl, [r5, #36]	; 0x24
  40a940:	f8c5 9028 	str.w	r9, [r5, #40]	; 0x28
  40a944:	f8c5 802c 	str.w	r8, [r5, #44]	; 0x2c

0040a948 <.LVL8>:
  40a948:	61ed      	str	r5, [r5, #28]

0040a94a <.LBB47>:
  40a94a:	4621      	mov	r1, r4
  40a94c:	81f3      	strh	r3, [r6, #14]
  40a94e:	81b2      	strh	r2, [r6, #12]
  40a950:	f106 005c 	add.w	r0, r6, #92	; 0x5c
  40a954:	6034      	str	r4, [r6, #0]
  40a956:	6074      	str	r4, [r6, #4]
  40a958:	60b4      	str	r4, [r6, #8]
  40a95a:	6674      	str	r4, [r6, #100]	; 0x64
  40a95c:	6134      	str	r4, [r6, #16]
  40a95e:	6174      	str	r4, [r6, #20]
  40a960:	61b4      	str	r4, [r6, #24]
  40a962:	2208      	movs	r2, #8
  40a964:	9301      	str	r3, [sp, #4]
  40a966:	f001 f821 	bl	40b9ac <.LFE166>

0040a96a <.LBE47>:
  40a96a:	68fd      	ldr	r5, [r7, #12]

0040a96c <.LBB48>:
  40a96c:	61f6      	str	r6, [r6, #28]

0040a96e <.LBB49>:
  40a96e:	2012      	movs	r0, #18
  40a970:	2202      	movs	r2, #2

0040a972 <.LBB53>:
  40a972:	f8c6 b020 	str.w	fp, [r6, #32]
  40a976:	f8c6 a024 	str.w	sl, [r6, #36]	; 0x24
  40a97a:	f8c6 9028 	str.w	r9, [r6, #40]	; 0x28
  40a97e:	f8c6 802c 	str.w	r8, [r6, #44]	; 0x2c

0040a982 <.LBB54>:
  40a982:	4621      	mov	r1, r4
  40a984:	81a8      	strh	r0, [r5, #12]
  40a986:	81ea      	strh	r2, [r5, #14]
  40a988:	602c      	str	r4, [r5, #0]
  40a98a:	606c      	str	r4, [r5, #4]
  40a98c:	60ac      	str	r4, [r5, #8]
  40a98e:	666c      	str	r4, [r5, #100]	; 0x64
  40a990:	612c      	str	r4, [r5, #16]
  40a992:	616c      	str	r4, [r5, #20]
  40a994:	61ac      	str	r4, [r5, #24]
  40a996:	f105 005c 	add.w	r0, r5, #92	; 0x5c
  40a99a:	2208      	movs	r2, #8
  40a99c:	f001 f806 	bl	40b9ac <.LFE166>

0040a9a0 <.LBE54>:
  40a9a0:	9b01      	ldr	r3, [sp, #4]

0040a9a2 <.LBB55>:
  40a9a2:	61ed      	str	r5, [r5, #28]
  40a9a4:	f8c5 b020 	str.w	fp, [r5, #32]
  40a9a8:	f8c5 a024 	str.w	sl, [r5, #36]	; 0x24
  40a9ac:	f8c5 9028 	str.w	r9, [r5, #40]	; 0x28
  40a9b0:	f8c5 802c 	str.w	r8, [r5, #44]	; 0x2c

0040a9b4 <.LBE55>:
  40a9b4:	63bb      	str	r3, [r7, #56]	; 0x38
  40a9b6:	b003      	add	sp, #12

0040a9b8 <.LCFI2>:
  40a9b8:	e8bd 8ff0 	ldmia.w	sp!, {r4, r5, r6, r7, r8, r9, sl, fp, pc}

0040a9bc <.LVL13>:
  40a9bc:	0040d9a5 	.word	0x0040d9a5
  40a9c0:	0040d42d 	.word	0x0040d42d
  40a9c4:	0040cf55 	.word	0x0040cf55
  40a9c8:	0040d4d9 	.word	0x0040d4d9
  40a9cc:	0040d9d5 	.word	0x0040d9d5

Disassembly of section .text.wc_Sha512Update%62:

0040a9d0 <wc_Sha512Update>:
{
  40a9d0:	e92d 4ff8 	stmdb	sp!, {r3, r4, r5, r6, r7, r8, r9, sl, fp, lr}

0040a9d4 <.LCFI6>:
    if (sha512 == NULL || (data == NULL && len > 0)) {
  40a9d4:	2800      	cmp	r0, #0
  40a9d6:	d065      	beq.n	40aaa4 <.LVL43>
  40a9d8:	4689      	mov	r9, r1
  40a9da:	4615      	mov	r5, r2
  40a9dc:	4680      	mov	r8, r0
  40a9de:	b909      	cbnz	r1, 40a9e4 <.LBB700>
  40a9e0:	2a00      	cmp	r2, #0
  40a9e2:	d162      	bne.n	40aaaa <.LVL43+0x6>

0040a9e4 <.LBB700>:
    byte* local = (byte*)sha512->buffer;
  40a9e4:	f108 0b58 	add.w	fp, r8, #88	; 0x58

0040a9e8 <.LVL25>:
    if (sha512->buffLen >= SHA512_BLOCK_SIZE)
  40a9e8:	f8d8 3000 	ldr.w	r3, [r8]
  40a9ec:	2b7f      	cmp	r3, #127	; 0x7f
  40a9ee:	d85f      	bhi.n	40aab0 <.LBB719>
    while (len) {
  40a9f0:	2d00      	cmp	r5, #0
  40a9f2:	d060      	beq.n	40aab6 <.LBB719+0x6>
  40a9f4:	f108 0ad0 	add.w	sl, r8, #208	; 0xd0
  40a9f8:	e004      	b.n	40aa04 <.LBB717>

0040a9fa <.LBB702>:
            sha512->buffLen = 0;
  40a9fa:	2300      	movs	r3, #0
  40a9fc:	f8c8 3000 	str.w	r3, [r8]

0040aa00 <.LBE702>:
    while (len) {
  40aa00:	2d00      	cmp	r5, #0
  40aa02:	d04b      	beq.n	40aa9c <.LBE715>

0040aa04 <.LBB717>:
        word32 add = min(len, SHA512_BLOCK_SIZE - sha512->buffLen);
  40aa04:	f8d8 0000 	ldr.w	r0, [r8]

0040aa08 <.LVL28>:
  40aa08:	f1c0 0480 	rsb	r4, r0, #128	; 0x80

0040aa0c <.LBB703>:
    #if defined(HAVE_FIPS) && !defined(min) /* so ifdef check passes */
        #define min min
    #endif
    STATIC INLINE word32 min(word32 a, word32 b)
    {
        return a > b ? b : a;
  40aa0c:	42ac      	cmp	r4, r5
  40aa0e:	bf28      	it	cs
  40aa10:	462c      	movcs	r4, r5

0040aa12 <.LBE703>:
        XMEMCPY(&local[sha512->buffLen], data, add);
  40aa12:	4622      	mov	r2, r4
  40aa14:	4649      	mov	r1, r9
  40aa16:	4458      	add	r0, fp
  40aa18:	f7ff f862 	bl	409ae0 <.LBE4>

0040aa1c <.LVL31>:
        sha512->buffLen += add;
  40aa1c:	f8d8 3000 	ldr.w	r3, [r8]
  40aa20:	4423      	add	r3, r4
  40aa22:	f8c8 3000 	str.w	r3, [r8]
        data            += add;
  40aa26:	44a1      	add	r9, r4
        len             -= add;
  40aa28:	1b2d      	subs	r5, r5, r4
        if (sha512->buffLen == SHA512_BLOCK_SIZE) {
  40aa2a:	2b80      	cmp	r3, #128	; 0x80
  40aa2c:	d1e8      	bne.n	40aa00 <.LBE702>
  40aa2e:	f108 0250 	add.w	r2, r8, #80	; 0x50

0040aa32 <.LBB705>:
        out[i] = ByteReverseWord64(in[i]);
  40aa32:	6893      	ldr	r3, [r2, #8]
  40aa34:	68d1      	ldr	r1, [r2, #12]

0040aa36 <.LBB707>:
    value = ((value & 0xFF00FF00) >> 8) | ((value & 0x00FF00FF) << 8);
  40aa36:	0a18      	lsrs	r0, r3, #8
  40aa38:	f000 10ff 	and.w	r0, r0, #16711935	; 0xff00ff
  40aa3c:	021b      	lsls	r3, r3, #8
  40aa3e:	f003 23ff 	and.w	r3, r3, #4278255360	; 0xff00ff00
  40aa42:	4303      	orrs	r3, r0

0040aa44 <.LBE709>:
	return (word64)(ByteReverseWord32((word32)value)) << 32 |
  40aa44:	ea4f 4733 	mov.w	r7, r3, ror #16
  40aa48:	2600      	movs	r6, #0

0040aa4a <.LBB711>:
    value = ((value & 0xFF00FF00) >> 8) | ((value & 0x00FF00FF) << 8);
  40aa4a:	0a0b      	lsrs	r3, r1, #8
  40aa4c:	f003 13ff 	and.w	r3, r3, #16711935	; 0xff00ff
  40aa50:	0209      	lsls	r1, r1, #8
  40aa52:	f001 21ff 	and.w	r1, r1, #4278255360	; 0xff00ff00
  40aa56:	430b      	orrs	r3, r1

0040aa58 <.LBB713>:
        return (x << y) | (x >> (sizeof(y) * 8 - y));
  40aa58:	ea4f 4333 	mov.w	r3, r3, ror #16

0040aa5c <.LBE711>:
	return (word64)(ByteReverseWord32((word32)value)) << 32 |
  40aa5c:	ea46 0003 	orr.w	r0, r6, r3
  40aa60:	4639      	mov	r1, r7

0040aa62 <.LBE707>:
        out[i] = ByteReverseWord64(in[i]);
  40aa62:	e9e2 0102 	strd	r0, r1, [r2, #8]!
    for (i = 0; i < count; i++)
  40aa66:	4592      	cmp	sl, r2
  40aa68:	d1e3      	bne.n	40aa32 <.LBB705>

0040aa6a <.LBE705>:
            ret = Transform(sha512);
  40aa6a:	4640      	mov	r0, r8
  40aa6c:	f7f5 fb92 	bl	400194 <_etext>

0040aa70 <.LVL35>:
            if (ret != 0)
  40aa70:	4603      	mov	r3, r0
  40aa72:	b9a0      	cbnz	r0, 40aa9e <.LBE700>

0040aa74 <.LBB715>:
    word64 tmp = sha512->loLen;
  40aa74:	e9d8 2302 	ldrd	r2, r3, [r8, #8]

0040aa78 <.LVL37>:
    if ( (sha512->loLen += len) < tmp)
  40aa78:	f112 0080 	adds.w	r0, r2, #128	; 0x80

0040aa7c <.LVL38>:
  40aa7c:	f143 0100 	adc.w	r1, r3, #0
  40aa80:	e9c8 0102 	strd	r0, r1, [r8, #8]
  40aa84:	4299      	cmp	r1, r3
  40aa86:	bf08      	it	eq
  40aa88:	4290      	cmpeq	r0, r2
  40aa8a:	d2b6      	bcs.n	40a9fa <.LBB702>
        sha512->hiLen++;                       /* carry low to high */
  40aa8c:	e9d8 2304 	ldrd	r2, r3, [r8, #16]

0040aa90 <.LVL39>:
  40aa90:	3201      	adds	r2, #1
  40aa92:	f143 0300 	adc.w	r3, r3, #0

0040aa96 <.LVL40>:
  40aa96:	e9c8 2304 	strd	r2, r3, [r8, #16]
  40aa9a:	e7ae      	b.n	40a9fa <.LBB702>

0040aa9c <.LBE715>:
    while (len) {
  40aa9c:	2300      	movs	r3, #0

0040aa9e <.LBE700>:
}
  40aa9e:	4618      	mov	r0, r3
  40aaa0:	e8bd 8ff8 	ldmia.w	sp!, {r3, r4, r5, r6, r7, r8, r9, sl, fp, pc}

0040aaa4 <.LVL43>:
        return BAD_FUNC_ARG;
  40aaa4:	f06f 03ac 	mvn.w	r3, #172	; 0xac
  40aaa8:	e7f9      	b.n	40aa9e <.LBE700>
  40aaaa:	f06f 03ac 	mvn.w	r3, #172	; 0xac
  40aaae:	e7f6      	b.n	40aa9e <.LBE700>

0040aab0 <.LBB719>:
        return BUFFER_E;
  40aab0:	f06f 0383 	mvn.w	r3, #131	; 0x83
  40aab4:	e7f3      	b.n	40aa9e <.LBE700>
    while (len) {
  40aab6:	2300      	movs	r3, #0
  40aab8:	e7f1      	b.n	40aa9e <.LBE700>

Disassembly of section .text.wc_Sha384Update%63:

0040aaba <wc_Sha384Update>:
{
  40aaba:	e92d 4ff8 	stmdb	sp!, {r3, r4, r5, r6, r7, r8, r9, sl, fp, lr}

0040aabe <.LCFI13>:
    if (sha384 == NULL || (data == NULL && len > 0)) {
  40aabe:	2800      	cmp	r0, #0
  40aac0:	d065      	beq.n	40ab8e <.LVL102>
  40aac2:	4689      	mov	r9, r1
  40aac4:	4615      	mov	r5, r2
  40aac6:	4680      	mov	r8, r0
  40aac8:	b909      	cbnz	r1, 40aace <.LBB821>
  40aaca:	2a00      	cmp	r2, #0
  40aacc:	d162      	bne.n	40ab94 <.LVL102+0x6>

0040aace <.LBB821>:
    byte* local = (byte*)sha512->buffer;
  40aace:	f108 0b58 	add.w	fp, r8, #88	; 0x58

0040aad2 <.LVL84>:
    if (sha512->buffLen >= SHA512_BLOCK_SIZE)
  40aad2:	f8d8 3000 	ldr.w	r3, [r8]
  40aad6:	2b7f      	cmp	r3, #127	; 0x7f
  40aad8:	d85f      	bhi.n	40ab9a <.LBB840>
    while (len) {
  40aada:	2d00      	cmp	r5, #0
  40aadc:	d060      	beq.n	40aba0 <.LBB840+0x6>
  40aade:	f108 0ad0 	add.w	sl, r8, #208	; 0xd0
  40aae2:	e004      	b.n	40aaee <.LBB838>

0040aae4 <.LBB823>:
            sha512->buffLen = 0;
  40aae4:	2300      	movs	r3, #0
  40aae6:	f8c8 3000 	str.w	r3, [r8]

0040aaea <.LBE823>:
    while (len) {
  40aaea:	2d00      	cmp	r5, #0
  40aaec:	d04b      	beq.n	40ab86 <.LBE836>

0040aaee <.LBB838>:
        word32 add = min(len, SHA512_BLOCK_SIZE - sha512->buffLen);
  40aaee:	f8d8 0000 	ldr.w	r0, [r8]

0040aaf2 <.LVL87>:
  40aaf2:	f1c0 0480 	rsb	r4, r0, #128	; 0x80

0040aaf6 <.LBB824>:
        return a > b ? b : a;
  40aaf6:	42ac      	cmp	r4, r5
  40aaf8:	bf28      	it	cs
  40aafa:	462c      	movcs	r4, r5

0040aafc <.LBE824>:
        XMEMCPY(&local[sha512->buffLen], data, add);
  40aafc:	4622      	mov	r2, r4
  40aafe:	4649      	mov	r1, r9
  40ab00:	4458      	add	r0, fp
  40ab02:	f7fe ffed 	bl	409ae0 <.LBE4>

0040ab06 <.LVL90>:
        sha512->buffLen += add;
  40ab06:	f8d8 3000 	ldr.w	r3, [r8]
  40ab0a:	4423      	add	r3, r4
  40ab0c:	f8c8 3000 	str.w	r3, [r8]
        data            += add;
  40ab10:	44a1      	add	r9, r4
        len             -= add;
  40ab12:	1b2d      	subs	r5, r5, r4
        if (sha512->buffLen == SHA512_BLOCK_SIZE) {
  40ab14:	2b80      	cmp	r3, #128	; 0x80
  40ab16:	d1e8      	bne.n	40aaea <.LBE823>
  40ab18:	f108 0250 	add.w	r2, r8, #80	; 0x50

0040ab1c <.LBB826>:
        out[i] = ByteReverseWord64(in[i]);
  40ab1c:	6893      	ldr	r3, [r2, #8]
  40ab1e:	68d1      	ldr	r1, [r2, #12]

0040ab20 <.LBB828>:
    value = ((value & 0xFF00FF00) >> 8) | ((value & 0x00FF00FF) << 8);
  40ab20:	0a18      	lsrs	r0, r3, #8
  40ab22:	f000 10ff 	and.w	r0, r0, #16711935	; 0xff00ff
  40ab26:	021b      	lsls	r3, r3, #8
  40ab28:	f003 23ff 	and.w	r3, r3, #4278255360	; 0xff00ff00
  40ab2c:	4303      	orrs	r3, r0

0040ab2e <.LBE830>:
	return (word64)(ByteReverseWord32((word32)value)) << 32 |
  40ab2e:	ea4f 4733 	mov.w	r7, r3, ror #16
  40ab32:	2600      	movs	r6, #0

0040ab34 <.LBB832>:
    value = ((value & 0xFF00FF00) >> 8) | ((value & 0x00FF00FF) << 8);
  40ab34:	0a0b      	lsrs	r3, r1, #8
  40ab36:	f003 13ff 	and.w	r3, r3, #16711935	; 0xff00ff
  40ab3a:	0209      	lsls	r1, r1, #8
  40ab3c:	f001 21ff 	and.w	r1, r1, #4278255360	; 0xff00ff00
  40ab40:	430b      	orrs	r3, r1

0040ab42 <.LBB834>:
        return (x << y) | (x >> (sizeof(y) * 8 - y));
  40ab42:	ea4f 4333 	mov.w	r3, r3, ror #16

0040ab46 <.LBE832>:
	return (word64)(ByteReverseWord32((word32)value)) << 32 |
  40ab46:	ea46 0003 	orr.w	r0, r6, r3
  40ab4a:	4639      	mov	r1, r7

0040ab4c <.LBE828>:
        out[i] = ByteReverseWord64(in[i]);
  40ab4c:	e9e2 0102 	strd	r0, r1, [r2, #8]!
    for (i = 0; i < count; i++)
  40ab50:	4592      	cmp	sl, r2
  40ab52:	d1e3      	bne.n	40ab1c <.LBB826>

0040ab54 <.LBE826>:
            ret = Transform(sha512);
  40ab54:	4640      	mov	r0, r8
  40ab56:	f7f5 fb1d 	bl	400194 <_etext>

0040ab5a <.LVL94>:
            if (ret != 0)
  40ab5a:	4603      	mov	r3, r0
  40ab5c:	b9a0      	cbnz	r0, 40ab88 <.LBE821>

0040ab5e <.LBB836>:
    word64 tmp = sha512->loLen;
  40ab5e:	e9d8 2302 	ldrd	r2, r3, [r8, #8]

0040ab62 <.LVL96>:
    if ( (sha512->loLen += len) < tmp)
  40ab62:	f112 0080 	adds.w	r0, r2, #128	; 0x80

0040ab66 <.LVL97>:
  40ab66:	f143 0100 	adc.w	r1, r3, #0
  40ab6a:	e9c8 0102 	strd	r0, r1, [r8, #8]
  40ab6e:	4299      	cmp	r1, r3
  40ab70:	bf08      	it	eq
  40ab72:	4290      	cmpeq	r0, r2
  40ab74:	d2b6      	bcs.n	40aae4 <.LBB823>
        sha512->hiLen++;                       /* carry low to high */
  40ab76:	e9d8 2304 	ldrd	r2, r3, [r8, #16]

0040ab7a <.LVL98>:
  40ab7a:	3201      	adds	r2, #1
  40ab7c:	f143 0300 	adc.w	r3, r3, #0

0040ab80 <.LVL99>:
  40ab80:	e9c8 2304 	strd	r2, r3, [r8, #16]
  40ab84:	e7ae      	b.n	40aae4 <.LBB823>

0040ab86 <.LBE836>:
    while (len) {
  40ab86:	2300      	movs	r3, #0

0040ab88 <.LBE821>:
}
  40ab88:	4618      	mov	r0, r3
  40ab8a:	e8bd 8ff8 	ldmia.w	sp!, {r3, r4, r5, r6, r7, r8, r9, sl, fp, pc}

0040ab8e <.LVL102>:
        return BAD_FUNC_ARG;
  40ab8e:	f06f 03ac 	mvn.w	r3, #172	; 0xac
  40ab92:	e7f9      	b.n	40ab88 <.LBE821>
  40ab94:	f06f 03ac 	mvn.w	r3, #172	; 0xac
  40ab98:	e7f6      	b.n	40ab88 <.LBE821>

0040ab9a <.LBB840>:
        return BUFFER_E;
  40ab9a:	f06f 0383 	mvn.w	r3, #131	; 0x83
  40ab9e:	e7f3      	b.n	40ab88 <.LBE821>
    while (len) {
  40aba0:	2300      	movs	r3, #0
  40aba2:	e7f1      	b.n	40ab88 <.LBE821>

Disassembly of section .text.DebugMonitor_Handler_C%64:

0040aba4 <DebugMonitor_Handler_C>:
{
  40aba4:	e92d 4ff0 	stmdb	sp!, {r4, r5, r6, r7, r8, r9, sl, fp, lr}

0040aba8 <.LCFI2>:
  40aba8:	b085      	sub	sp, #20

0040abaa <.LCFI3>:
  40abaa:	460e      	mov	r6, r1
    cfsr = SCB->CFSR;  // Configurable Fault Status Register
  40abac:	4d35      	ldr	r5, [pc, #212]	; (40ac84 <.LVL67+0x6>)
  40abae:	6aab      	ldr	r3, [r5, #40]	; 0x28
  40abb0:	9300      	str	r3, [sp, #0]

0040abb2 <.LVL38>:
    stacked_r0  = hardfault_args[0];
  40abb2:	6802      	ldr	r2, [r0, #0]
  40abb4:	9201      	str	r2, [sp, #4]

0040abb6 <.LVL39>:
    stacked_r1  = hardfault_args[1];
  40abb6:	f8d0 b004 	ldr.w	fp, [r0, #4]
    stacked_r2  = hardfault_args[2];
  40abba:	f8d0 a008 	ldr.w	sl, [r0, #8]
    stacked_r3  = hardfault_args[3];
  40abbe:	f8d0 900c 	ldr.w	r9, [r0, #12]
    stacked_r12 = hardfault_args[4];
  40abc2:	f8d0 8010 	ldr.w	r8, [r0, #16]
    stacked_lr  = hardfault_args[5];  // Link Register
  40abc6:	6947      	ldr	r7, [r0, #20]
    stacked_pc  = hardfault_args[6];  // Program Counter
  40abc8:	6984      	ldr	r4, [r0, #24]
  40abca:	9402      	str	r4, [sp, #8]

0040abcc <.LVL45>:
    stacked_psr = hardfault_args[7];  // Program Status Register
  40abcc:	69c0      	ldr	r0, [r0, #28]

0040abce <.LVL46>:
  40abce:	9003      	str	r0, [sp, #12]

0040abd0 <.LVL47>:
    printf("\r\n");
  40abd0:	4c2d      	ldr	r4, [pc, #180]	; (40ac88 <.LVL67+0xa>)

0040abd2 <.LVL48>:
  40abd2:	4620      	mov	r0, r4

0040abd4 <.LVL49>:
  40abd4:	f002 fe66 	bl	40d8a4 <.LFE0>

0040abd8 <.LVL50>:
    printf("[DebugFault]\r\n");
  40abd8:	f504 70ba 	add.w	r0, r4, #372	; 0x174
  40abdc:	f002 fe62 	bl	40d8a4 <.LFE0>

0040abe0 <.LVL51>:
    printf("- Stack frame:\r\n");
  40abe0:	f104 0014 	add.w	r0, r4, #20
  40abe4:	f002 fe5e 	bl	40d8a4 <.LFE0>

0040abe8 <.LVL52>:
    printf(" R0  = 0x%08lX\r\n", stacked_r0);
  40abe8:	9901      	ldr	r1, [sp, #4]
  40abea:	f104 0024 	add.w	r0, r4, #36	; 0x24
  40abee:	f002 fb81 	bl	40d2f4 <.LFE141>

0040abf2 <.LVL53>:
    printf(" R1  = 0x%08lX\r\n", stacked_r1);
  40abf2:	4659      	mov	r1, fp
  40abf4:	f104 0038 	add.w	r0, r4, #56	; 0x38
  40abf8:	f002 fb7c 	bl	40d2f4 <.LFE141>

0040abfc <.LVL54>:
    printf(" R2  = 0x%08lX\r\n", stacked_r2);
  40abfc:	4651      	mov	r1, sl
  40abfe:	f104 004c 	add.w	r0, r4, #76	; 0x4c
  40ac02:	f002 fb77 	bl	40d2f4 <.LFE141>

0040ac06 <.LVL55>:
    printf(" R3  = 0x%08lX\r\n", stacked_r3);
  40ac06:	4649      	mov	r1, r9
  40ac08:	f104 0060 	add.w	r0, r4, #96	; 0x60
  40ac0c:	f002 fb72 	bl	40d2f4 <.LFE141>

0040ac10 <.LVL56>:
    printf(" R12 = 0x%08lX\r\n", stacked_r12);
  40ac10:	4641      	mov	r1, r8
  40ac12:	f104 0074 	add.w	r0, r4, #116	; 0x74
  40ac16:	f002 fb6d 	bl	40d2f4 <.LFE141>

0040ac1a <.LVL57>:
    printf(" LR  = 0x%08lX\r\n", stacked_lr);
  40ac1a:	4639      	mov	r1, r7
  40ac1c:	f104 0088 	add.w	r0, r4, #136	; 0x88
  40ac20:	f002 fb68 	bl	40d2f4 <.LFE141>

0040ac24 <.LVL58>:
    printf(" PC  = 0x%08lX\r\n", stacked_pc);
  40ac24:	9902      	ldr	r1, [sp, #8]
  40ac26:	f104 009c 	add.w	r0, r4, #156	; 0x9c
  40ac2a:	f002 fb63 	bl	40d2f4 <.LFE141>

0040ac2e <.LVL59>:
    printf(" PSR = 0x%08lX\r\n", stacked_psr);
  40ac2e:	9903      	ldr	r1, [sp, #12]
  40ac30:	f104 00b0 	add.w	r0, r4, #176	; 0xb0
  40ac34:	f002 fb5e 	bl	40d2f4 <.LFE141>

0040ac38 <.LVL60>:
    printf("- FSR/FAR:\r\n");
  40ac38:	f104 00c4 	add.w	r0, r4, #196	; 0xc4
  40ac3c:	f002 fe32 	bl	40d8a4 <.LFE0>

0040ac40 <.LVL61>:
    printf(" CFSR = 0x%08lX\r\n", cfsr);
  40ac40:	9900      	ldr	r1, [sp, #0]
  40ac42:	f104 00d0 	add.w	r0, r4, #208	; 0xd0
  40ac46:	f002 fb55 	bl	40d2f4 <.LFE141>

0040ac4a <.LVL62>:
    printf(" HFSR = 0x%08lX\r\n", SCB->HFSR); // HardFault Status
  40ac4a:	6ae9      	ldr	r1, [r5, #44]	; 0x2c
  40ac4c:	f104 00e4 	add.w	r0, r4, #228	; 0xe4
  40ac50:	f002 fb50 	bl	40d2f4 <.LFE141>

0040ac54 <.LVL63>:
    printf(" DFSR = 0x%08lX\r\n", SCB->DFSR); // Debug Fault Status
  40ac54:	6b29      	ldr	r1, [r5, #48]	; 0x30
  40ac56:	f104 00f8 	add.w	r0, r4, #248	; 0xf8
  40ac5a:	f002 fb4b 	bl	40d2f4 <.LFE141>

0040ac5e <.LVL64>:
    printf(" AFSR = 0x%08lX\r\n", SCB->AFSR); // Auxiliary Fault Status
  40ac5e:	6be9      	ldr	r1, [r5, #60]	; 0x3c
  40ac60:	f504 7086 	add.w	r0, r4, #268	; 0x10c
  40ac64:	f002 fb46 	bl	40d2f4 <.LFE141>

0040ac68 <.LVL65>:
    printf("- Misc\r\n");
  40ac68:	f504 70a4 	add.w	r0, r4, #328	; 0x148
  40ac6c:	f002 fe1a 	bl	40d8a4 <.LFE0>

0040ac70 <.LVL66>:
    printf(" LR/EXC_RETURN = 0x%X, Bit 2: %d\r\n", lr_value, (lr_value & 0x4)>>2 );
  40ac70:	f3c6 0280 	ubfx	r2, r6, #2, #1
  40ac74:	4631      	mov	r1, r6
  40ac76:	f504 70a8 	add.w	r0, r4, #336	; 0x150
  40ac7a:	f002 fb3b 	bl	40d2f4 <.LFE141>

0040ac7e <.LVL67>:
    __builtin_software_breakpoint();
  40ac7e:	be00      	bkpt	0x0000
  40ac80:	e7fe      	b.n	40ac80 <.LVL67+0x2>
  40ac82:	bf00      	nop
  40ac84:	e000ed00 	.word	0xe000ed00
  40ac88:	004091e8 	.word	0x004091e8

Disassembly of section .text.Sha256Process%65:

0040ac8c <Sha256Process>:



/* length is in bytes */
static int32_t Sha256Process(Sha256* sha256, const uint8_t *input, word32 length)
{
  40ac8c:	b410      	push	{r4}

0040ac8e <.LCFI0>:

    ICM_REGS->ICM_CTRL = ICM_CTRL_SWRST(1);
  40ac8e:	2404      	movs	r4, #4
  40ac90:	4b33      	ldr	r3, [pc, #204]	; (40ad60 <.LCFI1+0x2>)
  40ac92:	605c      	str	r4, [r3, #4]
    sha256->icm_descriptor.start_addr = (uint32_t)input;
  40ac94:	6001      	str	r1, [r0, #0]

    /* Transfer size = (tran_size + 1) * 512bits */
    sha256->icm_descriptor.tran_size =  (length >> 6) - 1;
  40ac96:	0994      	lsrs	r4, r2, #6
  40ac98:	3c01      	subs	r4, #1
  40ac9a:	6084      	str	r4, [r0, #8]

0040ac9c <.LBB50>:
  __ASM volatile ("dsb 0xF":::"memory");
  40ac9c:	f3bf 8f4f 	dsb	sy

0040aca0 <.LBE52>:
     int32_t linesize = 32;                /* in Cortex-M7 size of cache line is fixed to 8 words (32 bytes) */

    __DSB();

    while (op_size > 0) {
      SCB->DCCMVAC = op_addr;
  40aca0:	4c30      	ldr	r4, [pc, #192]	; (40ad64 <.LCFI1+0x6>)
  40aca2:	f8c4 0268 	str.w	r0, [r4, #616]	; 0x268

0040aca6 <.LBB54>:
  40aca6:	f3bf 8f4f 	dsb	sy

0040acaa <.LBB56>:
  __ASM volatile ("isb 0xF":::"memory");
  40acaa:	f3bf 8f6f 	isb	sy

0040acae <.LBB58>:
  __ASM volatile ("dsb 0xF":::"memory");
  40acae:	f3bf 8f4f 	dsb	sy

0040acb2 <.LBE60>:
    while (op_size > 0) {
  40acb2:	2a00      	cmp	r2, #0
  40acb4:	dd0b      	ble.n	40acce <.LBB62>
  40acb6:	460b      	mov	r3, r1
  40acb8:	3a01      	subs	r2, #1

0040acba <.LVL4>:
  40acba:	f022 021f 	bic.w	r2, r2, #31

0040acbe <.LVL5>:
  40acbe:	3220      	adds	r2, #32
  40acc0:	4411      	add	r1, r2

0040acc2 <.LVL6>:
      SCB->DCCMVAC = op_addr;
  40acc2:	4622      	mov	r2, r4

0040acc4 <.LVL7>:
  40acc4:	f8c2 3268 	str.w	r3, [r2, #616]	; 0x268
      op_addr += (uint32_t)linesize;
  40acc8:	3320      	adds	r3, #32
    while (op_size > 0) {
  40acca:	4299      	cmp	r1, r3
  40accc:	d1fa      	bne.n	40acc4 <.LVL7>

0040acce <.LBB62>:
  40acce:	f3bf 8f4f 	dsb	sy

0040acd2 <.LBB64>:
  __ASM volatile ("isb 0xF":::"memory");
  40acd2:	f3bf 8f6f 	isb	sy

0040acd6 <.LBE58>:
    
    SCB_CleanDCache_by_Addr((uint32_t *)(&(sha256->icm_descriptor)), sizeof(struct icm_descriptor));
    SCB_CleanDCache_by_Addr((uint32_t *)input, length);
    SCB_CleanInvalidateDCache_by_Addr((uint32_t *)&(sha256->digest), SHA256_DIGEST_SIZE);
  40acd6:	f100 0180 	add.w	r1, r0, #128	; 0x80

0040acda <.LBB66>:
  __ASM volatile ("dsb 0xF":::"memory");
  40acda:	f3bf 8f4f 	dsb	sy

0040acde <.LBE68>:
     int32_t linesize = 32;                /* in Cortex-M7 size of cache line is fixed to 8 words (32 bytes) */

    __DSB();

    while (op_size > 0) {
      SCB->DCCIMVAC = op_addr;
  40acde:	4b21      	ldr	r3, [pc, #132]	; (40ad64 <.LCFI1+0x6>)
  40ace0:	f8c3 1270 	str.w	r1, [r3, #624]	; 0x270

0040ace4 <.LBB70>:
  40ace4:	f3bf 8f4f 	dsb	sy

0040ace8 <.LBB72>:
  __ASM volatile ("isb 0xF":::"memory");
  40ace8:	f3bf 8f6f 	isb	sy

0040acec <.LBE66>:


    /* ICM can set up FIPS default starting digest */
    ICM_REGS->ICM_DSCR = (uint32_t)&sha256->icm_descriptor;
  40acec:	4b1c      	ldr	r3, [pc, #112]	; (40ad60 <.LCFI1+0x2>)
  40acee:	6318      	str	r0, [r3, #48]	; 0x30
    ICM_REGS->ICM_CFG = ICM_CFG_SLBDIS(1) 
  40acf0:	f243 0204 	movw	r2, #12292	; 0x3004
  40acf4:	601a      	str	r2, [r3, #0]
                 | ICM_CFG_BBC(0)
                 | ICM_CFG_UALGO_SHA256
                 | ICM_CFG_UIHASH_Msk;

    /* MUST BE ALIGNED at 128! */
    ICM_REGS->ICM_HASH = (uint32_t)(&(sha256->digest));
  40acf6:	6359      	str	r1, [r3, #52]	; 0x34

    ICM_REGS->ICM_UIHVAL[0] = sha256->digest[0];
  40acf8:	f8d0 2080 	ldr.w	r2, [r0, #128]	; 0x80
  40acfc:	639a      	str	r2, [r3, #56]	; 0x38
    ICM_REGS->ICM_UIHVAL[1] = sha256->digest[1];
  40acfe:	f8d0 2084 	ldr.w	r2, [r0, #132]	; 0x84
  40ad02:	63da      	str	r2, [r3, #60]	; 0x3c
    ICM_REGS->ICM_UIHVAL[2] = sha256->digest[2];
  40ad04:	f8d0 2088 	ldr.w	r2, [r0, #136]	; 0x88
  40ad08:	641a      	str	r2, [r3, #64]	; 0x40
    ICM_REGS->ICM_UIHVAL[3] = sha256->digest[3];
  40ad0a:	f8d0 208c 	ldr.w	r2, [r0, #140]	; 0x8c
  40ad0e:	645a      	str	r2, [r3, #68]	; 0x44
    ICM_REGS->ICM_UIHVAL[4] = sha256->digest[4];
  40ad10:	f8d0 2090 	ldr.w	r2, [r0, #144]	; 0x90
  40ad14:	649a      	str	r2, [r3, #72]	; 0x48
    ICM_REGS->ICM_UIHVAL[5] = sha256->digest[5];
  40ad16:	f8d0 2094 	ldr.w	r2, [r0, #148]	; 0x94
  40ad1a:	64da      	str	r2, [r3, #76]	; 0x4c
    ICM_REGS->ICM_UIHVAL[6] = sha256->digest[6];
  40ad1c:	f8d0 2098 	ldr.w	r2, [r0, #152]	; 0x98
  40ad20:	651a      	str	r2, [r3, #80]	; 0x50
    ICM_REGS->ICM_UIHVAL[7] = sha256->digest[7];
  40ad22:	f8d0 209c 	ldr.w	r2, [r0, #156]	; 0x9c
  40ad26:	655a      	str	r2, [r3, #84]	; 0x54

0040ad28 <.LBB74>:
  \details Ensures the apparent order of the explicit memory operations before
           and after the instruction, without ensuring their completion.
 */
__STATIC_FORCEINLINE void __DMB(void)
{
  __ASM volatile ("dmb 0xF":::"memory");
  40ad28:	f3bf 8f5f 	dmb	sy

0040ad2c <.LBE74>:

    /* memory barrier - sync all before enable ICM */
    __DMB();

    ICM_REGS->ICM_IER = ICM_IER_RHC(1);
  40ad2c:	2201      	movs	r2, #1
  40ad2e:	611a      	str	r2, [r3, #16]
    
    /* enable the ICM and wait */
    ICM_REGS->ICM_CTRL = ICM_CTRL_ENABLE(1);
  40ad30:	605a      	str	r2, [r3, #4]
    while (!(ICM_REGS->ICM_ISR & ICM_ISR_RHC_Msk))
  40ad32:	461a      	mov	r2, r3
  40ad34:	69d3      	ldr	r3, [r2, #28]
  40ad36:	f013 0f0f 	tst.w	r3, #15
  40ad3a:	d0fb      	beq.n	40ad34 <.LBE74+0x8>
    {
        /* wait - when finished digest will be updated */
    }
    
    ICM_REGS->ICM_CTRL = ICM_CTRL_DISABLE(1);
  40ad3c:	4b08      	ldr	r3, [pc, #32]	; (40ad60 <.LCFI1+0x2>)
  40ad3e:	2202      	movs	r2, #2
  40ad40:	605a      	str	r2, [r3, #4]
    ICM_REGS->ICM_CTRL = ICM_CTRL_SWRST(1);
  40ad42:	2204      	movs	r2, #4
  40ad44:	605a      	str	r2, [r3, #4]

0040ad46 <.LBB76>:
  __ASM volatile ("dsb 0xF":::"memory");
  40ad46:	f3bf 8f4f 	dsb	sy

0040ad4a <.LBE78>:
  40ad4a:	4b06      	ldr	r3, [pc, #24]	; (40ad64 <.LCFI1+0x6>)
  40ad4c:	f8c3 1270 	str.w	r1, [r3, #624]	; 0x270

0040ad50 <.LBB80>:
  40ad50:	f3bf 8f4f 	dsb	sy

0040ad54 <.LBB82>:
  __ASM volatile ("isb 0xF":::"memory");
  40ad54:	f3bf 8f6f 	isb	sy

0040ad58 <.LBE76>:

    SCB_CleanInvalidateDCache_by_Addr((uint32_t *)&(sha256->digest), SHA256_DIGEST_SIZE);
    
    return 0;
}
  40ad58:	2000      	movs	r0, #0

0040ad5a <.LVL17>:
  40ad5a:	f85d 4b04 	ldr.w	r4, [sp], #4

0040ad5e <.LCFI1>:
  40ad5e:	4770      	bx	lr
  40ad60:	40048000 	.word	0x40048000
  40ad64:	e000ed00 	.word	0xe000ed00

Disassembly of section .text%66:

0040ad80 <strlen>:
  40ad80:	f890 f000 	pld	[r0]
  40ad84:	e96d 4502 	strd	r4, r5, [sp, #-8]!
  40ad88:	f020 0107 	bic.w	r1, r0, #7
  40ad8c:	f06f 0c00 	mvn.w	ip, #0
  40ad90:	f010 0407 	ands.w	r4, r0, #7
  40ad94:	f891 f020 	pld	[r1, #32]
  40ad98:	f040 8049 	bne.w	40ae2e <strlen+0xae>
  40ad9c:	f04f 0400 	mov.w	r4, #0
  40ada0:	f06f 0007 	mvn.w	r0, #7
  40ada4:	e9d1 2300 	ldrd	r2, r3, [r1]
  40ada8:	f891 f040 	pld	[r1, #64]	; 0x40
  40adac:	f100 0008 	add.w	r0, r0, #8
  40adb0:	fa82 f24c 	uadd8	r2, r2, ip
  40adb4:	faa4 f28c 	sel	r2, r4, ip
  40adb8:	fa83 f34c 	uadd8	r3, r3, ip
  40adbc:	faa2 f38c 	sel	r3, r2, ip
  40adc0:	bb4b      	cbnz	r3, 40ae16 <strlen+0x96>
  40adc2:	e9d1 2302 	ldrd	r2, r3, [r1, #8]
  40adc6:	fa82 f24c 	uadd8	r2, r2, ip
  40adca:	f100 0008 	add.w	r0, r0, #8
  40adce:	faa4 f28c 	sel	r2, r4, ip
  40add2:	fa83 f34c 	uadd8	r3, r3, ip
  40add6:	faa2 f38c 	sel	r3, r2, ip
  40adda:	b9e3      	cbnz	r3, 40ae16 <strlen+0x96>
  40addc:	e9d1 2304 	ldrd	r2, r3, [r1, #16]
  40ade0:	fa82 f24c 	uadd8	r2, r2, ip
  40ade4:	f100 0008 	add.w	r0, r0, #8
  40ade8:	faa4 f28c 	sel	r2, r4, ip
  40adec:	fa83 f34c 	uadd8	r3, r3, ip
  40adf0:	faa2 f38c 	sel	r3, r2, ip
  40adf4:	b97b      	cbnz	r3, 40ae16 <strlen+0x96>
  40adf6:	e9d1 2306 	ldrd	r2, r3, [r1, #24]
  40adfa:	f101 0120 	add.w	r1, r1, #32
  40adfe:	fa82 f24c 	uadd8	r2, r2, ip
  40ae02:	f100 0008 	add.w	r0, r0, #8
  40ae06:	faa4 f28c 	sel	r2, r4, ip
  40ae0a:	fa83 f34c 	uadd8	r3, r3, ip
  40ae0e:	faa2 f38c 	sel	r3, r2, ip
  40ae12:	2b00      	cmp	r3, #0
  40ae14:	d0c6      	beq.n	40ada4 <strlen+0x24>
  40ae16:	2a00      	cmp	r2, #0
  40ae18:	bf04      	itt	eq
  40ae1a:	3004      	addeq	r0, #4
  40ae1c:	461a      	moveq	r2, r3
  40ae1e:	ba12      	rev	r2, r2
  40ae20:	fab2 f282 	clz	r2, r2
  40ae24:	e8fd 4502 	ldrd	r4, r5, [sp], #8
  40ae28:	eb00 00d2 	add.w	r0, r0, r2, lsr #3
  40ae2c:	4770      	bx	lr
  40ae2e:	e9d1 2300 	ldrd	r2, r3, [r1]
  40ae32:	f004 0503 	and.w	r5, r4, #3
  40ae36:	f1c4 0000 	rsb	r0, r4, #0
  40ae3a:	ea4f 05c5 	mov.w	r5, r5, lsl #3
  40ae3e:	f014 0f04 	tst.w	r4, #4
  40ae42:	f891 f040 	pld	[r1, #64]	; 0x40
  40ae46:	fa0c f505 	lsl.w	r5, ip, r5
  40ae4a:	ea62 0205 	orn	r2, r2, r5
  40ae4e:	bf1c      	itt	ne
  40ae50:	ea63 0305 	ornne	r3, r3, r5
  40ae54:	4662      	movne	r2, ip
  40ae56:	f04f 0400 	mov.w	r4, #0
  40ae5a:	e7a9      	b.n	40adb0 <strlen+0x30>

Disassembly of section .text.Sha1Process%67:

0040ae5c <Sha1Process>:
}



static int32_t Sha1Process(Sha *sha, const uint8_t *input, word32 length)
{
  40ae5c:	b410      	push	{r4}

0040ae5e <.LCFI0>:
	ICM_REGS->ICM_CTRL = ICM_CTRL_SWRST(1);
  40ae5e:	2404      	movs	r4, #4
  40ae60:	4b2e      	ldr	r3, [pc, #184]	; (40af1c <.LCFI1+0x2>)
  40ae62:	605c      	str	r4, [r3, #4]
    sha->icm_descriptor.start_addr = (uint32_t)input;
  40ae64:	6001      	str	r1, [r0, #0]

    /* Transfer size = (tran_size + 1) * 512bits */
    sha->icm_descriptor.tran_size =  (length >> 6) - 1;
  40ae66:	0994      	lsrs	r4, r2, #6
  40ae68:	3c01      	subs	r4, #1
  40ae6a:	6084      	str	r4, [r0, #8]

0040ae6c <.LBB50>:
  __ASM volatile ("dsb 0xF":::"memory");
  40ae6c:	f3bf 8f4f 	dsb	sy

0040ae70 <.LBE52>:
      SCB->DCCMVAC = op_addr;
  40ae70:	4c2b      	ldr	r4, [pc, #172]	; (40af20 <.LCFI1+0x6>)
  40ae72:	f8c4 0268 	str.w	r0, [r4, #616]	; 0x268

0040ae76 <.LBB54>:
  40ae76:	f3bf 8f4f 	dsb	sy

0040ae7a <.LBB56>:
  __ASM volatile ("isb 0xF":::"memory");
  40ae7a:	f3bf 8f6f 	isb	sy

0040ae7e <.LBB58>:
  __ASM volatile ("dsb 0xF":::"memory");
  40ae7e:	f3bf 8f4f 	dsb	sy

0040ae82 <.LBE60>:
    while (op_size > 0) {
  40ae82:	2a00      	cmp	r2, #0
  40ae84:	dd0b      	ble.n	40ae9e <.LBB62>
  40ae86:	460b      	mov	r3, r1
  40ae88:	3a01      	subs	r2, #1

0040ae8a <.LVL4>:
  40ae8a:	f022 021f 	bic.w	r2, r2, #31

0040ae8e <.LVL5>:
  40ae8e:	3220      	adds	r2, #32
  40ae90:	4411      	add	r1, r2

0040ae92 <.LVL6>:
      SCB->DCCMVAC = op_addr;
  40ae92:	4622      	mov	r2, r4

0040ae94 <.LVL7>:
  40ae94:	f8c2 3268 	str.w	r3, [r2, #616]	; 0x268
      op_addr += (uint32_t)linesize;
  40ae98:	3320      	adds	r3, #32
    while (op_size > 0) {
  40ae9a:	4299      	cmp	r1, r3
  40ae9c:	d1fa      	bne.n	40ae94 <.LVL7>

0040ae9e <.LBB62>:
  40ae9e:	f3bf 8f4f 	dsb	sy

0040aea2 <.LBB64>:
  __ASM volatile ("isb 0xF":::"memory");
  40aea2:	f3bf 8f6f 	isb	sy

0040aea6 <.LBE58>:

    SCB_CleanDCache_by_Addr((uint32_t *)(&(sha->icm_descriptor)), sizeof(struct icm_descriptor));
    SCB_CleanDCache_by_Addr((uint32_t *)input, length);
    SCB_CleanInvalidateDCache_by_Addr((uint32_t *)&(sha->digest), SHA_DIGEST_SIZE);
  40aea6:	f100 0180 	add.w	r1, r0, #128	; 0x80

0040aeaa <.LBB66>:
  __ASM volatile ("dsb 0xF":::"memory");
  40aeaa:	f3bf 8f4f 	dsb	sy

0040aeae <.LBE68>:
      SCB->DCCIMVAC = op_addr;
  40aeae:	4b1c      	ldr	r3, [pc, #112]	; (40af20 <.LCFI1+0x6>)
  40aeb0:	f8c3 1270 	str.w	r1, [r3, #624]	; 0x270

0040aeb4 <.LBB70>:
  40aeb4:	f3bf 8f4f 	dsb	sy

0040aeb8 <.LBB72>:
  __ASM volatile ("isb 0xF":::"memory");
  40aeb8:	f3bf 8f6f 	isb	sy

0040aebc <.LBE66>:

    /* ICM can set up FIPS default starting digest */
    ICM_REGS->ICM_DSCR = (uint32_t)&sha->icm_descriptor;
  40aebc:	4b17      	ldr	r3, [pc, #92]	; (40af1c <.LCFI1+0x2>)
  40aebe:	6318      	str	r0, [r3, #48]	; 0x30


    /* configured so initial hash digest is auto-loaded */
    ICM_REGS->ICM_CFG = ICM_CFG_SLBDIS(1)
  40aec0:	f241 0204 	movw	r2, #4100	; 0x1004
  40aec4:	601a      	str	r2, [r3, #0]
                 | ICM_CFG_BBC(0)
                 | ICM_CFG_UALGO_SHA1
                 | ICM_CFG_UIHASH_Msk;

    /* digest must be 128 aligned */
	ICM_REGS->ICM_HASH = (uint32_t)(&(sha->digest));
  40aec6:	6359      	str	r1, [r3, #52]	; 0x34
    ICM_REGS->ICM_UIHVAL[0] = sha->digest[0];
  40aec8:	f8d0 2080 	ldr.w	r2, [r0, #128]	; 0x80
  40aecc:	639a      	str	r2, [r3, #56]	; 0x38
    ICM_REGS->ICM_UIHVAL[1] = sha->digest[1];
  40aece:	f8d0 2084 	ldr.w	r2, [r0, #132]	; 0x84
  40aed2:	63da      	str	r2, [r3, #60]	; 0x3c
    ICM_REGS->ICM_UIHVAL[2] = sha->digest[2];
  40aed4:	f8d0 2088 	ldr.w	r2, [r0, #136]	; 0x88
  40aed8:	641a      	str	r2, [r3, #64]	; 0x40
    ICM_REGS->ICM_UIHVAL[3] = sha->digest[3];
  40aeda:	f8d0 208c 	ldr.w	r2, [r0, #140]	; 0x8c
  40aede:	645a      	str	r2, [r3, #68]	; 0x44
    ICM_REGS->ICM_UIHVAL[4] = sha->digest[4];
  40aee0:	f8d0 2090 	ldr.w	r2, [r0, #144]	; 0x90
  40aee4:	649a      	str	r2, [r3, #72]	; 0x48

0040aee6 <.LBB74>:
  __ASM volatile ("dmb 0xF":::"memory");
  40aee6:	f3bf 8f5f 	dmb	sy

0040aeea <.LBE74>:

    /* memory barrier */
    __DMB();

    /* enable the ICM and wait ICM CTRL is write only - don't OR it */
    ICM_REGS->ICM_CTRL = ICM_CTRL_ENABLE(1);
  40aeea:	2201      	movs	r2, #1
  40aeec:	605a      	str	r2, [r3, #4]
    while (!(ICM_REGS->ICM_ISR & ICM_ISR_RHC_Msk))
  40aeee:	461a      	mov	r2, r3
  40aef0:	69d3      	ldr	r3, [r2, #28]
  40aef2:	f013 0f0f 	tst.w	r3, #15
  40aef6:	d0fb      	beq.n	40aef0 <.LBE74+0x6>
    {
        /* wait - when finished digest will be updated */
    }
    ICM_REGS->ICM_CTRL = ICM_CTRL_DISABLE(1);
  40aef8:	4b08      	ldr	r3, [pc, #32]	; (40af1c <.LCFI1+0x2>)
  40aefa:	2202      	movs	r2, #2
  40aefc:	605a      	str	r2, [r3, #4]
    ICM_REGS->ICM_CTRL = ICM_CTRL_SWRST(1);
  40aefe:	2204      	movs	r2, #4
  40af00:	605a      	str	r2, [r3, #4]

0040af02 <.LBB76>:
  __ASM volatile ("dsb 0xF":::"memory");
  40af02:	f3bf 8f4f 	dsb	sy

0040af06 <.LBE78>:
  40af06:	4b06      	ldr	r3, [pc, #24]	; (40af20 <.LCFI1+0x6>)
  40af08:	f8c3 1270 	str.w	r1, [r3, #624]	; 0x270

0040af0c <.LBB80>:
  40af0c:	f3bf 8f4f 	dsb	sy

0040af10 <.LBB82>:
  __ASM volatile ("isb 0xF":::"memory");
  40af10:	f3bf 8f6f 	isb	sy

0040af14 <.LBE76>:

    SCB_CleanInvalidateDCache_by_Addr((uint32_t *)&(sha->digest), SHA_DIGEST_SIZE);

    return 0;
}
  40af14:	2000      	movs	r0, #0

0040af16 <.LVL17>:
  40af16:	f85d 4b04 	ldr.w	r4, [sp], #4

0040af1a <.LCFI1>:
  40af1a:	4770      	bx	lr
  40af1c:	40048000 	.word	0x40048000
  40af20:	e000ed00 	.word	0xe000ed00

Disassembly of section .text.TIME_PLIB_Callback%68:

0040af24 <TIME_PLIB_Callback>:

    return;
}

static void TIME_PLIB_Callback(uintptr_t context)
{
  40af24:	b510      	push	{r4, lr}

0040af26 <.LBB12>:
    counterObj->interruptContext = true;
  40af26:	4a30      	ldr	r2, [pc, #192]	; (40afe8 <.LVL67+0x2>)
  40af28:	2301      	movs	r3, #1
  40af2a:	6293      	str	r3, [r2, #40]	; 0x28

0040af2c <.LBB14>:
    uint32_t counter32Low = counterObj->counter & HW_COUNTER_MAX;
  40af2c:	6993      	ldr	r3, [r2, #24]
  40af2e:	b29b      	uxth	r3, r3

0040af30 <.LVL47>:
    uint32_t counter32High = counterObj->counter >> HW_COUNTER_WIDTH;
  40af30:	6991      	ldr	r1, [r2, #24]
  40af32:	0c09      	lsrs	r1, r1, #16

0040af34 <.LVL48>:
    uint32_t periodDelta = counterObj->timePeriod;
  40af34:	6950      	ldr	r0, [r2, #20]

0040af36 <.LVL49>:
    if(counterObj->timePeriod != counterObj->timePeriodPrevious)
  40af36:	6912      	ldr	r2, [r2, #16]
  40af38:	4290      	cmp	r0, r2
  40af3a:	d003      	beq.n	40af44 <.LVL50+0x4>
        if(counterObj->timePeriod > counterObj->timePeriodPrevious)
  40af3c:	d927      	bls.n	40af8e <.LVL60>
            periodDelta = counterObj->timePeriod - counterObj->timePeriodPrevious;
  40af3e:	1a82      	subs	r2, r0, r2

0040af40 <.LVL50>:
        counterObj->timePeriodPrevious = counterObj->timePeriod;
  40af40:	4c29      	ldr	r4, [pc, #164]	; (40afe8 <.LVL67+0x2>)
  40af42:	6120      	str	r0, [r4, #16]
    if((counter32Low + periodDelta) > HW_COUNTER_MAX)
  40af44:	4413      	add	r3, r2

0040af46 <.LVL52>:
  40af46:	f5b3 3f80 	cmp.w	r3, #65536	; 0x10000
  40af4a:	d307      	bcc.n	40af5c <.LVL53+0xa>
        counter32Low = ((counter32Low + periodDelta) - HW_COUNTER_MAX);
  40af4c:	f5a3 437f 	sub.w	r3, r3, #65280	; 0xff00
  40af50:	3bff      	subs	r3, #255	; 0xff

0040af52 <.LVL53>:
        if(counter32High < HW_COUNTER_MAX)
  40af52:	f64f 74fe 	movw	r4, #65534	; 0xfffe
  40af56:	42a1      	cmp	r1, r4
  40af58:	d81e      	bhi.n	40af98 <.LVL62>
            counter32High++;
  40af5a:	3101      	adds	r1, #1
    counterObj->counter = ((counter32High << HW_COUNTER_WIDTH) | (counter32Low & HW_COUNTER_MAX));
  40af5c:	b29b      	uxth	r3, r3

0040af5e <.LVL55>:
  40af5e:	ea43 4301 	orr.w	r3, r3, r1, lsl #16
  40af62:	4921      	ldr	r1, [pc, #132]	; (40afe8 <.LVL67+0x2>)

0040af64 <.LVL56>:
  40af64:	618b      	str	r3, [r1, #24]
    if(counterObj->tmrActive != NULL)
  40af66:	6acb      	ldr	r3, [r1, #44]	; 0x2c
  40af68:	b16b      	cbz	r3, 40af86 <.LVL59>
        if(counterObj->tmrActive->timeRemaining > counterObj->timePeriod)
  40af6a:	6919      	ldr	r1, [r3, #16]
  40af6c:	4288      	cmp	r0, r1
            counterObj->tmrActive->timeRemaining -= periodDelta;
  40af6e:	bf34      	ite	cc
  40af70:	1a8a      	subcc	r2, r1, r2

0040af72 <.LVL57>:
            counterObj->tmrActive->timeRemaining = 0;
  40af72:	2200      	movcs	r2, #0
  40af74:	611a      	str	r2, [r3, #16]

0040af76 <.LBE14>:
    if((counterObj->tmrActive != NULL) && (counterObj->tmrActive->timeRemaining == 0))
  40af76:	4b1c      	ldr	r3, [pc, #112]	; (40afe8 <.LVL67+0x2>)
  40af78:	6adc      	ldr	r4, [r3, #44]	; 0x2c
  40af7a:	b124      	cbz	r4, 40af86 <.LVL59>
  40af7c:	6923      	ldr	r3, [r4, #16]
  40af7e:	b1d3      	cbz	r3, 40afb6 <.LBE17>
        timerHardwarePeriod_update(counterObj);
  40af80:	4819      	ldr	r0, [pc, #100]	; (40afe8 <.LVL67+0x2>)
  40af82:	f002 f823 	bl	40cfcc <.LFE0>

0040af86 <.LVL59>:
    counterObj->interruptContext = false;
  40af86:	2200      	movs	r2, #0
  40af88:	4b17      	ldr	r3, [pc, #92]	; (40afe8 <.LVL67+0x2>)
  40af8a:	629a      	str	r2, [r3, #40]	; 0x28
  40af8c:	bd10      	pop	{r4, pc}

0040af8e <.LVL60>:
  40af8e:	f64f 74ff 	movw	r4, #65535	; 0xffff
  40af92:	4404      	add	r4, r0

0040af94 <.LBB17>:
            periodDelta = (HW_COUNTER_MAX - counterObj->timePeriodPrevious) + counterObj->timePeriod;
  40af94:	1aa2      	subs	r2, r4, r2

0040af96 <.LVL61>:
  40af96:	e7d3      	b.n	40af40 <.LVL50>

0040af98 <.LVL62>:
            if(counterObj->highCounter < COUNTER_MAX)
  40af98:	4913      	ldr	r1, [pc, #76]	; (40afe8 <.LVL67+0x2>)
  40af9a:	69c9      	ldr	r1, [r1, #28]
  40af9c:	f1b1 3fff 	cmp.w	r1, #4294967295
  40afa0:	d005      	beq.n	40afae <.LVL62+0x16>
                counterObj->highCounter++;
  40afa2:	4c11      	ldr	r4, [pc, #68]	; (40afe8 <.LVL67+0x2>)
  40afa4:	69e1      	ldr	r1, [r4, #28]
  40afa6:	3101      	adds	r1, #1
  40afa8:	61e1      	str	r1, [r4, #28]
            counter32High = 0;
  40afaa:	2100      	movs	r1, #0
  40afac:	e7d6      	b.n	40af5c <.LVL53+0xa>
                counterObj->highCounter = 0;
  40afae:	2100      	movs	r1, #0
  40afb0:	4c0d      	ldr	r4, [pc, #52]	; (40afe8 <.LVL67+0x2>)
  40afb2:	61e1      	str	r1, [r4, #28]
  40afb4:	e7d2      	b.n	40af5c <.LVL53+0xa>

0040afb6 <.LBE17>:
        counterObj->tmrElapsed = true;
  40afb6:	2301      	movs	r3, #1
  40afb8:	4a0b      	ldr	r2, [pc, #44]	; (40afe8 <.LVL67+0x2>)
  40afba:	6253      	str	r3, [r2, #36]	; 0x24

0040afbc <.LBB18>:
    timerObj->tmrElapsed = true;
  40afbc:	61e3      	str	r3, [r4, #28]
    if(timerObj->callback != NULL)
  40afbe:	6963      	ldr	r3, [r4, #20]
  40afc0:	b10b      	cbz	r3, 40afc6 <.LBB18+0xa>
        timerObj->callback(timerObj->context);
  40afc2:	69a0      	ldr	r0, [r4, #24]
  40afc4:	4798      	blx	r3
    timer_removeFromList(timerObj);
  40afc6:	4620      	mov	r0, r4
  40afc8:	f001 f9de 	bl	40c388 <.LFE167>

0040afcc <.LVL66>:
    if(timerObj->type == SYS_TIME_PERIODIC)
  40afcc:	7a23      	ldrb	r3, [r4, #8]
  40afce:	2b01      	cmp	r3, #1
  40afd0:	d006      	beq.n	40afe0 <.LBB21>
        timerObj->active = false;
  40afd2:	2300      	movs	r3, #0
  40afd4:	6063      	str	r3, [r4, #4]

0040afd6 <.LBE18>:
    if(counterObj->tmrActive != NULL)
  40afd6:	4b04      	ldr	r3, [pc, #16]	; (40afe8 <.LVL67+0x2>)
  40afd8:	6adb      	ldr	r3, [r3, #44]	; 0x2c
  40afda:	2b00      	cmp	r3, #0
  40afdc:	d1d0      	bne.n	40af80 <.LBE14+0xa>
  40afde:	e7d2      	b.n	40af86 <.LVL59>

0040afe0 <.LBB21>:
        timer_addToList(timerObj);
  40afe0:	4620      	mov	r0, r4
  40afe2:	f000 ffe5 	bl	40bfb0 <timer_addToList>

0040afe6 <.LVL67>:
  40afe6:	e7f6      	b.n	40afd6 <.LBE18>
  40afe8:	2040dbec 	.word	0x2040dbec

Disassembly of section .text.memmove%69:

0040afec <memmove>:
  40afec:	4288      	cmp	r0, r1
  40afee:	b5f0      	push	{r4, r5, r6, r7, lr}

0040aff0 <.LCFI0>:
  40aff0:	d90d      	bls.n	40b00e <.LVL6>
  40aff2:	188b      	adds	r3, r1, r2
  40aff4:	4298      	cmp	r0, r3
  40aff6:	d20a      	bcs.n	40b00e <.LVL6>

0040aff8 <.LVL1>:
  40aff8:	1884      	adds	r4, r0, r2

0040affa <.LVL2>:
  40affa:	2a00      	cmp	r2, #0
  40affc:	d051      	beq.n	40b0a2 <.LVL26>
  40affe:	4622      	mov	r2, r4

0040b000 <.LVL3>:
  40b000:	f813 4d01 	ldrb.w	r4, [r3, #-1]!

0040b004 <.LVL4>:
  40b004:	f802 4d01 	strb.w	r4, [r2, #-1]!

0040b008 <.LVL5>:
  40b008:	4299      	cmp	r1, r3
  40b00a:	d1f9      	bne.n	40b000 <.LVL3>
  40b00c:	bdf0      	pop	{r4, r5, r6, r7, pc}

0040b00e <.LVL6>:
  40b00e:	2a0f      	cmp	r2, #15
  40b010:	d948      	bls.n	40b0a4 <.LVL27>
  40b012:	ea41 0300 	orr.w	r3, r1, r0
  40b016:	079b      	lsls	r3, r3, #30
  40b018:	d146      	bne.n	40b0a8 <.LVL27+0x4>
  40b01a:	f100 0410 	add.w	r4, r0, #16
  40b01e:	f101 0310 	add.w	r3, r1, #16
  40b022:	4615      	mov	r5, r2

0040b024 <.LVL7>:
  40b024:	f853 6c10 	ldr.w	r6, [r3, #-16]
  40b028:	f844 6c10 	str.w	r6, [r4, #-16]

0040b02c <.LVL8>:
  40b02c:	f853 6c0c 	ldr.w	r6, [r3, #-12]
  40b030:	f844 6c0c 	str.w	r6, [r4, #-12]

0040b034 <.LVL9>:
  40b034:	f853 6c08 	ldr.w	r6, [r3, #-8]
  40b038:	f844 6c08 	str.w	r6, [r4, #-8]

0040b03c <.LVL10>:
  40b03c:	3d10      	subs	r5, #16
  40b03e:	f853 6c04 	ldr.w	r6, [r3, #-4]
  40b042:	f844 6c04 	str.w	r6, [r4, #-4]
  40b046:	2d0f      	cmp	r5, #15
  40b048:	f103 0310 	add.w	r3, r3, #16

0040b04c <.LVL12>:
  40b04c:	f104 0410 	add.w	r4, r4, #16
  40b050:	d8e8      	bhi.n	40b024 <.LVL7>
  40b052:	f1a2 0310 	sub.w	r3, r2, #16

0040b056 <.LVL13>:
  40b056:	f023 030f 	bic.w	r3, r3, #15
  40b05a:	f002 0e0f 	and.w	lr, r2, #15
  40b05e:	3310      	adds	r3, #16
  40b060:	f1be 0f03 	cmp.w	lr, #3
  40b064:	4419      	add	r1, r3

0040b066 <.LVL14>:
  40b066:	4403      	add	r3, r0

0040b068 <.LVL15>:
  40b068:	d921      	bls.n	40b0ae <.LVL29>
  40b06a:	1f1e      	subs	r6, r3, #4
  40b06c:	460d      	mov	r5, r1
  40b06e:	4674      	mov	r4, lr

0040b070 <.LVL16>:
  40b070:	3c04      	subs	r4, #4

0040b072 <.LVL17>:
  40b072:	f855 7b04 	ldr.w	r7, [r5], #4

0040b076 <.LVL18>:
  40b076:	f846 7f04 	str.w	r7, [r6, #4]!
  40b07a:	2c03      	cmp	r4, #3
  40b07c:	d8f8      	bhi.n	40b070 <.LVL16>
  40b07e:	f1ae 0404 	sub.w	r4, lr, #4

0040b082 <.LVL19>:
  40b082:	f024 0403 	bic.w	r4, r4, #3
  40b086:	3404      	adds	r4, #4
  40b088:	4421      	add	r1, r4
  40b08a:	4423      	add	r3, r4
  40b08c:	f002 0203 	and.w	r2, r2, #3

0040b090 <.LVL20>:
  40b090:	b162      	cbz	r2, 40b0ac <.LVL28>

0040b092 <.LVL21>:
  40b092:	3b01      	subs	r3, #1

0040b094 <.LVL22>:
  40b094:	440a      	add	r2, r1

0040b096 <.LVL23>:
  40b096:	f811 4b01 	ldrb.w	r4, [r1], #1

0040b09a <.LVL24>:
  40b09a:	f803 4f01 	strb.w	r4, [r3, #1]!

0040b09e <.LVL25>:
  40b09e:	428a      	cmp	r2, r1
  40b0a0:	d1f9      	bne.n	40b096 <.LVL23>

0040b0a2 <.LVL26>:
  40b0a2:	bdf0      	pop	{r4, r5, r6, r7, pc}

0040b0a4 <.LVL27>:
  40b0a4:	4603      	mov	r3, r0
  40b0a6:	e7f3      	b.n	40b090 <.LVL20>
  40b0a8:	4603      	mov	r3, r0
  40b0aa:	e7f2      	b.n	40b092 <.LVL21>

0040b0ac <.LVL28>:
  40b0ac:	bdf0      	pop	{r4, r5, r6, r7, pc}

0040b0ae <.LVL29>:
  40b0ae:	4672      	mov	r2, lr
  40b0b0:	e7ee      	b.n	40b090 <.LVL20>

0040b0b2 <.LFE17>:
  40b0b2:	bf00      	nop

Disassembly of section .text.__swsetup_r%70:

0040b0b4 <__swsetup_r>:
  40b0b4:	b538      	push	{r3, r4, r5, lr}

0040b0b6 <.LBB2>:
  40b0b6:	4b30      	ldr	r3, [pc, #192]	; (40b178 <.LVL9>)
  40b0b8:	681b      	ldr	r3, [r3, #0]

0040b0ba <.LBE2>:
  40b0ba:	4605      	mov	r5, r0
  40b0bc:	460c      	mov	r4, r1

0040b0be <.LBB3>:
  40b0be:	b113      	cbz	r3, 40b0c6 <.LBE3>
  40b0c0:	6b9a      	ldr	r2, [r3, #56]	; 0x38
  40b0c2:	2a00      	cmp	r2, #0
  40b0c4:	d038      	beq.n	40b138 <.LBB4>

0040b0c6 <.LBE3>:
  40b0c6:	f9b4 200c 	ldrsh.w	r2, [r4, #12]
  40b0ca:	b293      	uxth	r3, r2
  40b0cc:	0718      	lsls	r0, r3, #28
  40b0ce:	d50c      	bpl.n	40b0ea <.LBE3+0x24>
  40b0d0:	6920      	ldr	r0, [r4, #16]
  40b0d2:	b1a8      	cbz	r0, 40b100 <.LBE3+0x3a>
  40b0d4:	f013 0201 	ands.w	r2, r3, #1
  40b0d8:	d01e      	beq.n	40b118 <.LVL4+0x6>
  40b0da:	6963      	ldr	r3, [r4, #20]
  40b0dc:	2200      	movs	r2, #0
  40b0de:	425b      	negs	r3, r3
  40b0e0:	61a3      	str	r3, [r4, #24]
  40b0e2:	60a2      	str	r2, [r4, #8]
  40b0e4:	b1f0      	cbz	r0, 40b124 <.LVL4+0x12>
  40b0e6:	2000      	movs	r0, #0
  40b0e8:	bd38      	pop	{r3, r4, r5, pc}
  40b0ea:	06d9      	lsls	r1, r3, #27
  40b0ec:	d53c      	bpl.n	40b168 <.LVL8+0x16>
  40b0ee:	0758      	lsls	r0, r3, #29
  40b0f0:	d426      	bmi.n	40b140 <.LBE4>
  40b0f2:	6920      	ldr	r0, [r4, #16]
  40b0f4:	f042 0308 	orr.w	r3, r2, #8
  40b0f8:	81a3      	strh	r3, [r4, #12]
  40b0fa:	b29b      	uxth	r3, r3
  40b0fc:	2800      	cmp	r0, #0
  40b0fe:	d1e9      	bne.n	40b0d4 <.LBE3+0xe>
  40b100:	f403 7220 	and.w	r2, r3, #640	; 0x280
  40b104:	f5b2 7f00 	cmp.w	r2, #512	; 0x200
  40b108:	d0e4      	beq.n	40b0d4 <.LBE3+0xe>
  40b10a:	4628      	mov	r0, r5
  40b10c:	4621      	mov	r1, r4
  40b10e:	f000 fe49 	bl	40bda4 <.LFE18>

0040b112 <.LVL4>:
  40b112:	89a3      	ldrh	r3, [r4, #12]
  40b114:	6920      	ldr	r0, [r4, #16]
  40b116:	e7dd      	b.n	40b0d4 <.LBE3+0xe>
  40b118:	0799      	lsls	r1, r3, #30
  40b11a:	bf58      	it	pl
  40b11c:	6962      	ldrpl	r2, [r4, #20]
  40b11e:	60a2      	str	r2, [r4, #8]
  40b120:	2800      	cmp	r0, #0
  40b122:	d1e0      	bne.n	40b0e6 <.LBE3+0x20>
  40b124:	f9b4 300c 	ldrsh.w	r3, [r4, #12]
  40b128:	061a      	lsls	r2, r3, #24
  40b12a:	d5dd      	bpl.n	40b0e8 <.LBE3+0x22>
  40b12c:	f043 0340 	orr.w	r3, r3, #64	; 0x40
  40b130:	81a3      	strh	r3, [r4, #12]
  40b132:	f04f 30ff 	mov.w	r0, #4294967295
  40b136:	bd38      	pop	{r3, r4, r5, pc}

0040b138 <.LBB4>:
  40b138:	4618      	mov	r0, r3

0040b13a <.LVL6>:
  40b13a:	f002 fc39 	bl	40d9b0 <.LFE4>

0040b13e <.LVL7>:
  40b13e:	e7c2      	b.n	40b0c6 <.LBE3>

0040b140 <.LBE4>:
  40b140:	6b21      	ldr	r1, [r4, #48]	; 0x30
  40b142:	b151      	cbz	r1, 40b15a <.LVL8+0x8>
  40b144:	f104 0340 	add.w	r3, r4, #64	; 0x40
  40b148:	4299      	cmp	r1, r3
  40b14a:	d004      	beq.n	40b156 <.LVL8+0x4>
  40b14c:	4628      	mov	r0, r5
  40b14e:	f7fe fa97 	bl	409680 <.LFE174>

0040b152 <.LVL8>:
  40b152:	f9b4 200c 	ldrsh.w	r2, [r4, #12]
  40b156:	2300      	movs	r3, #0
  40b158:	6323      	str	r3, [r4, #48]	; 0x30
  40b15a:	2300      	movs	r3, #0
  40b15c:	6920      	ldr	r0, [r4, #16]
  40b15e:	6063      	str	r3, [r4, #4]
  40b160:	f022 0224 	bic.w	r2, r2, #36	; 0x24
  40b164:	6020      	str	r0, [r4, #0]
  40b166:	e7c5      	b.n	40b0f4 <.LBE3+0x2e>
  40b168:	f042 0240 	orr.w	r2, r2, #64	; 0x40
  40b16c:	2309      	movs	r3, #9
  40b16e:	602b      	str	r3, [r5, #0]
  40b170:	f04f 30ff 	mov.w	r0, #4294967295
  40b174:	81a2      	strh	r2, [r4, #12]
  40b176:	bd38      	pop	{r3, r4, r5, pc}

0040b178 <.LVL9>:
  40b178:	2040dce8 	.word	0x2040dce8

Disassembly of section .rodata.__mprec_tens%71:

0040b180 <__mprec_tens>:
  40b180:	00000000 3ff00000 00000000 40240000     .......?......$@
  40b190:	00000000 40590000 00000000 408f4000     ......Y@.....@.@
  40b1a0:	00000000 40c38800 00000000 40f86a00     .......@.....j.@
  40b1b0:	00000000 412e8480 00000000 416312d0     .......A......cA
  40b1c0:	00000000 4197d784 00000000 41cdcd65     .......A....e..A
  40b1d0:	20000000 4202a05f e8000000 42374876     ... _..B....vH7B
  40b1e0:	a2000000 426d1a94 e5400000 42a2309c     ......mB..@..0.B
  40b1f0:	1e900000 42d6bcc4 26340000 430c6bf5     .......B..4&.k.C
  40b200:	37e08000 4341c379 85d8a000 43763457     ...7y.AC....W4vC
  40b210:	674ec800 43abc16d 60913d00 43e158e4     ..Ngm..C.=.`.X.C
  40b220:	78b58c40 4415af1d d6e2ef50 444b1ae4     @..x...DP.....KD
  40b230:	064dd592 4480f0cf c7e14af6 44b52d02     ..M....D.J...-.D
  40b240:	79d99db4 44ea7843                       ...yCx.D

Disassembly of section .text.wc_Md5Final%72:

0040b248 <wc_Md5Final>:

int wc_Md5Final(Md5* md5, byte* hash)
{
    byte* local;

    if (md5 == NULL || hash == NULL) {
  40b248:	2800      	cmp	r0, #0
  40b24a:	d059      	beq.n	40b300 <.LCFI7>
{
  40b24c:	b570      	push	{r4, r5, r6, lr}

0040b24e <.LCFI6>:
  40b24e:	4604      	mov	r4, r0
    if (md5 == NULL || hash == NULL) {
  40b250:	2900      	cmp	r1, #0
  40b252:	d052      	beq.n	40b2fa <.LVL364>
        return IntelQaSymMd5(&md5->asyncDev, hash, NULL, MD5_DIGEST_SIZE);
    #endif
    }
#endif /* WOLFSSL_ASYNC_CRYPT */

    local = (byte*)md5->buffer;
  40b254:	f100 060c 	add.w	r6, r0, #12

0040b258 <.LVL351>:

    AddMd5Length(md5, md5->buffLen);  /* before adding pads */
  40b258:	6803      	ldr	r3, [r0, #0]

0040b25a <.LBB151>:
    word32 tmp = md5->loLen;
  40b25a:	6840      	ldr	r0, [r0, #4]

0040b25c <.LVL353>:
    if ((md5->loLen += len) < tmp) {
  40b25c:	181a      	adds	r2, r3, r0
  40b25e:	6062      	str	r2, [r4, #4]
  40b260:	4290      	cmp	r0, r2
  40b262:	d902      	bls.n	40b26a <.LVL353+0xe>
        md5->hiLen++;                       /* carry low to high */
  40b264:	68a2      	ldr	r2, [r4, #8]
  40b266:	3201      	adds	r2, #1
  40b268:	60a2      	str	r2, [r4, #8]
  40b26a:	460d      	mov	r5, r1

0040b26c <.LBE151>:
    local[md5->buffLen++] = 0x80;  /* add 1 */
  40b26c:	1c5a      	adds	r2, r3, #1
  40b26e:	6022      	str	r2, [r4, #0]
  40b270:	2280      	movs	r2, #128	; 0x80
  40b272:	54f2      	strb	r2, [r6, r3]

    /* pad with zeros */
    if (md5->buffLen > MD5_PAD_SIZE) {
  40b274:	6820      	ldr	r0, [r4, #0]
  40b276:	2838      	cmp	r0, #56	; 0x38
  40b278:	d831      	bhi.n	40b2de <.LVL360>

0040b27a <.LVL355>:
        ByteReverseWords(md5->buffer, md5->buffer, MD5_BLOCK_SIZE);
    #endif
        XTRANSFORM(md5, local);
        md5->buffLen = 0;
    }
    XMEMSET(&local[md5->buffLen], 0, MD5_PAD_SIZE - md5->buffLen);
  40b27a:	6820      	ldr	r0, [r4, #0]
  40b27c:	f1c0 0238 	rsb	r2, r0, #56	; 0x38
  40b280:	2100      	movs	r1, #0
  40b282:	4430      	add	r0, r6
  40b284:	f000 fb92 	bl	40b9ac <.LFE166>

0040b288 <.LVL356>:
#if defined(BIG_ENDIAN_ORDER) && !defined(FREESCALE_MMCAU_SHA)
    ByteReverseWords(md5->buffer, md5->buffer, MD5_BLOCK_SIZE);
#endif

    /* put lengths in bits */
    md5->hiLen = (md5->loLen >> (8*sizeof(md5->loLen) - 3)) +
  40b288:	6863      	ldr	r3, [r4, #4]
                 (md5->hiLen << 3);
  40b28a:	68a1      	ldr	r1, [r4, #8]
    md5->hiLen = (md5->loLen >> (8*sizeof(md5->loLen) - 3)) +
  40b28c:	0f5a      	lsrs	r2, r3, #29
  40b28e:	eb02 02c1 	add.w	r2, r2, r1, lsl #3
  40b292:	60a2      	str	r2, [r4, #8]
    md5->loLen = md5->loLen << 3;
  40b294:	00db      	lsls	r3, r3, #3
  40b296:	6063      	str	r3, [r4, #4]

    /* store lengths */
    /* ! length ordering dependent on digest endian type ! */
    XMEMCPY(&local[MD5_PAD_SIZE], &md5->loLen, sizeof(word32));
  40b298:	6463      	str	r3, [r4, #68]	; 0x44
    XMEMCPY(&local[MD5_PAD_SIZE + sizeof(word32)], &md5->hiLen, sizeof(word32));
  40b29a:	64a2      	str	r2, [r4, #72]	; 0x48

    /* final transform and result to hash */
    XTRANSFORM(md5, local);
  40b29c:	4620      	mov	r0, r4
  40b29e:	f7fc f92d 	bl	4074fc <.LFE18>

0040b2a2 <.LVL357>:
#ifdef BIG_ENDIAN_ORDER
    ByteReverseWords(md5->digest, md5->digest, MD5_DIGEST_SIZE);
#endif
    XMEMCPY(hash, md5->digest, MD5_DIGEST_SIZE);
  40b2a2:	4623      	mov	r3, r4
  40b2a4:	f853 0f4c 	ldr.w	r0, [r3, #76]!
  40b2a8:	6859      	ldr	r1, [r3, #4]
  40b2aa:	689a      	ldr	r2, [r3, #8]
  40b2ac:	68db      	ldr	r3, [r3, #12]
  40b2ae:	6028      	str	r0, [r5, #0]
  40b2b0:	6069      	str	r1, [r5, #4]
  40b2b2:	60aa      	str	r2, [r5, #8]
  40b2b4:	60eb      	str	r3, [r5, #12]

0040b2b6 <.LBB153>:
    md5->digest[0] = 0x67452301L;
  40b2b6:	4b14      	ldr	r3, [pc, #80]	; (40b308 <.LVL367+0x4>)
  40b2b8:	64e3      	str	r3, [r4, #76]	; 0x4c
    md5->digest[1] = 0xefcdab89L;
  40b2ba:	f103 3388 	add.w	r3, r3, #2290649224	; 0x88888888
  40b2be:	6523      	str	r3, [r4, #80]	; 0x50
    md5->digest[2] = 0x98badcfeL;
  40b2c0:	f103 4329 	add.w	r3, r3, #2835349504	; 0xa9000000
  40b2c4:	f5a3 1396 	sub.w	r3, r3, #1228800	; 0x12c000
  40b2c8:	f6a3 638b 	subw	r3, r3, #3723	; 0xe8b
  40b2cc:	6563      	str	r3, [r4, #84]	; 0x54
    md5->digest[3] = 0x10325476L;
  40b2ce:	f1a3 3388 	sub.w	r3, r3, #2290649224	; 0x88888888
  40b2d2:	65a3      	str	r3, [r4, #88]	; 0x58
    md5->buffLen = 0;
  40b2d4:	2000      	movs	r0, #0
  40b2d6:	6020      	str	r0, [r4, #0]
    md5->loLen   = 0;
  40b2d8:	6060      	str	r0, [r4, #4]
    md5->hiLen   = 0;
  40b2da:	60a0      	str	r0, [r4, #8]

0040b2dc <.LBE153>:

    return _InitMd5(md5); /* reset state */
  40b2dc:	bd70      	pop	{r4, r5, r6, pc}

0040b2de <.LVL360>:
        XMEMSET(&local[md5->buffLen], 0, MD5_BLOCK_SIZE - md5->buffLen);
  40b2de:	f1c0 0240 	rsb	r2, r0, #64	; 0x40
  40b2e2:	2100      	movs	r1, #0

0040b2e4 <.LVL361>:
  40b2e4:	4430      	add	r0, r6
  40b2e6:	f000 fb61 	bl	40b9ac <.LFE166>

0040b2ea <.LVL362>:
        md5->buffLen += MD5_BLOCK_SIZE - md5->buffLen;
  40b2ea:	2340      	movs	r3, #64	; 0x40
  40b2ec:	6023      	str	r3, [r4, #0]
        XTRANSFORM(md5, local);
  40b2ee:	4620      	mov	r0, r4
  40b2f0:	f7fc f904 	bl	4074fc <.LFE18>

0040b2f4 <.LVL363>:
        md5->buffLen = 0;
  40b2f4:	2300      	movs	r3, #0
  40b2f6:	6023      	str	r3, [r4, #0]
  40b2f8:	e7bf      	b.n	40b27a <.LVL355>

0040b2fa <.LVL364>:
        return BAD_FUNC_ARG;
  40b2fa:	f06f 00ac 	mvn.w	r0, #172	; 0xac

0040b2fe <.LVL365>:
}
  40b2fe:	bd70      	pop	{r4, r5, r6, pc}

0040b300 <.LCFI7>:
        return BAD_FUNC_ARG;
  40b300:	f06f 00ac 	mvn.w	r0, #172	; 0xac

0040b304 <.LVL367>:
  40b304:	4770      	bx	lr
  40b306:	bf00      	nop
  40b308:	67452301 	.word	0x67452301

Disassembly of section .text.__d2b%73:

0040b30c <__d2b>:
  40b30c:	e92d 43f0 	stmdb	sp!, {r4, r5, r6, r7, r8, r9, lr}

0040b310 <.LCFI17>:
  40b310:	ec57 6b10 	vmov	r6, r7, d0
  40b314:	b083      	sub	sp, #12

0040b316 <.LCFI18>:
  40b316:	4688      	mov	r8, r1
  40b318:	2101      	movs	r1, #1

0040b31a <.LVL324>:
  40b31a:	463c      	mov	r4, r7
  40b31c:	f3c7 550a 	ubfx	r5, r7, #20, #11
  40b320:	4617      	mov	r7, r2
  40b322:	f001 fc41 	bl	40cba8 <.LFE2>

0040b326 <.LVL326>:
  40b326:	f3c4 0413 	ubfx	r4, r4, #0, #20
  40b32a:	4681      	mov	r9, r0

0040b32c <.LVL327>:
  40b32c:	b10d      	cbz	r5, 40b332 <.LVL327+0x6>
  40b32e:	f444 1480 	orr.w	r4, r4, #1048576	; 0x100000
  40b332:	9401      	str	r4, [sp, #4]
  40b334:	b31e      	cbz	r6, 40b37e <.LCFI20>
  40b336:	a802      	add	r0, sp, #8

0040b338 <.LVL328>:
  40b338:	f840 6d08 	str.w	r6, [r0, #-8]!
  40b33c:	f001 fa2c 	bl	40c798 <__lo0bits>

0040b340 <.LVL329>:
  40b340:	2800      	cmp	r0, #0
  40b342:	d134      	bne.n	40b3ae <.LCFI22>
  40b344:	e89d 000c 	ldmia.w	sp, {r2, r3}
  40b348:	f8c9 2014 	str.w	r2, [r9, #20]
  40b34c:	2b00      	cmp	r3, #0
  40b34e:	bf0c      	ite	eq
  40b350:	2101      	moveq	r1, #1
  40b352:	2102      	movne	r1, #2
  40b354:	f8c9 3018 	str.w	r3, [r9, #24]
  40b358:	f8c9 1010 	str.w	r1, [r9, #16]

0040b35c <.LVL330>:
  40b35c:	b9dd      	cbnz	r5, 40b396 <.LVL338+0x4>
  40b35e:	eb09 0381 	add.w	r3, r9, r1, lsl #2
  40b362:	f2a0 4032 	subw	r0, r0, #1074	; 0x432

0040b366 <.LVL331>:
  40b366:	f8c8 0000 	str.w	r0, [r8]
  40b36a:	6918      	ldr	r0, [r3, #16]

0040b36c <.LVL332>:
  40b36c:	f001 fd78 	bl	40ce60 <__hi0bits>

0040b370 <.LVL333>:
  40b370:	ebc0 1041 	rsb	r0, r0, r1, lsl #5
  40b374:	6038      	str	r0, [r7, #0]
  40b376:	4648      	mov	r0, r9
  40b378:	b003      	add	sp, #12

0040b37a <.LCFI19>:
  40b37a:	e8bd 83f0 	ldmia.w	sp!, {r4, r5, r6, r7, r8, r9, pc}

0040b37e <.LCFI20>:
  40b37e:	a801      	add	r0, sp, #4

0040b380 <.LVL335>:
  40b380:	f001 fa0a 	bl	40c798 <__lo0bits>

0040b384 <.LVL336>:
  40b384:	9b01      	ldr	r3, [sp, #4]
  40b386:	f8c9 3014 	str.w	r3, [r9, #20]
  40b38a:	2101      	movs	r1, #1
  40b38c:	3020      	adds	r0, #32

0040b38e <.LVL337>:
  40b38e:	f8c9 1010 	str.w	r1, [r9, #16]

0040b392 <.LVL338>:
  40b392:	2d00      	cmp	r5, #0
  40b394:	d0e3      	beq.n	40b35e <.LVL330+0x2>
  40b396:	f2a5 4533 	subw	r5, r5, #1075	; 0x433

0040b39a <.LVL339>:
  40b39a:	4405      	add	r5, r0

0040b39c <.LVL340>:
  40b39c:	f1c0 0035 	rsb	r0, r0, #53	; 0x35

0040b3a0 <.LVL341>:
  40b3a0:	f8c8 5000 	str.w	r5, [r8]
  40b3a4:	6038      	str	r0, [r7, #0]
  40b3a6:	4648      	mov	r0, r9
  40b3a8:	b003      	add	sp, #12

0040b3aa <.LCFI21>:
  40b3aa:	e8bd 83f0 	ldmia.w	sp!, {r4, r5, r6, r7, r8, r9, pc}

0040b3ae <.LCFI22>:
  40b3ae:	e89d 000a 	ldmia.w	sp, {r1, r3}
  40b3b2:	f1c0 0220 	rsb	r2, r0, #32
  40b3b6:	fa03 f202 	lsl.w	r2, r3, r2
  40b3ba:	430a      	orrs	r2, r1
  40b3bc:	40c3      	lsrs	r3, r0
  40b3be:	9301      	str	r3, [sp, #4]
  40b3c0:	f8c9 2014 	str.w	r2, [r9, #20]
  40b3c4:	e7c2      	b.n	40b34c <.LVL329+0xc>

0040b3c6 <.LFE31>:
  40b3c6:	bf00      	nop

Disassembly of section .text.wc_InitSha512_ex%74:

0040b3c8 <wc_InitSha512_ex>:
        if (sha512 == NULL)
  40b3c8:	2800      	cmp	r0, #0
  40b3ca:	d035      	beq.n	40b438 <.LVL21>
    {
  40b3cc:	b430      	push	{r4, r5}

0040b3ce <.LCFI4>:
  40b3ce:	4603      	mov	r3, r0
        sha512->heap = heap;
  40b3d0:	f8c0 10d8 	str.w	r1, [r0, #216]	; 0xd8

0040b3d4 <.LBB679>:
    sha512->digest[0] = W64LIT(0x6a09e667f3bcc908);
  40b3d4:	a11a      	add	r1, pc, #104	; (adr r1, 40b440 <.LVL22+0x4>)
  40b3d6:	e9d1 0100 	ldrd	r0, r1, [r1]

0040b3da <.LVL19>:
  40b3da:	e9c3 0106 	strd	r0, r1, [r3, #24]
    sha512->digest[1] = W64LIT(0xbb67ae8584caa73b);
  40b3de:	a11a      	add	r1, pc, #104	; (adr r1, 40b448 <.LVL22+0xc>)
  40b3e0:	e9d1 0100 	ldrd	r0, r1, [r1]
  40b3e4:	e9c3 0108 	strd	r0, r1, [r3, #32]
    sha512->digest[2] = W64LIT(0x3c6ef372fe94f82b);
  40b3e8:	a119      	add	r1, pc, #100	; (adr r1, 40b450 <.LVL22+0x14>)
  40b3ea:	e9d1 0100 	ldrd	r0, r1, [r1]
  40b3ee:	e9c3 010a 	strd	r0, r1, [r3, #40]	; 0x28
    sha512->digest[3] = W64LIT(0xa54ff53a5f1d36f1);
  40b3f2:	a119      	add	r1, pc, #100	; (adr r1, 40b458 <.LVL22+0x1c>)
  40b3f4:	e9d1 0100 	ldrd	r0, r1, [r1]
  40b3f8:	e9c3 010c 	strd	r0, r1, [r3, #48]	; 0x30
    sha512->digest[4] = W64LIT(0x510e527fade682d1);
  40b3fc:	a118      	add	r1, pc, #96	; (adr r1, 40b460 <.LVL22+0x24>)
  40b3fe:	e9d1 0100 	ldrd	r0, r1, [r1]
  40b402:	e9c3 010e 	strd	r0, r1, [r3, #56]	; 0x38
    sha512->digest[5] = W64LIT(0x9b05688c2b3e6c1f);
  40b406:	a118      	add	r1, pc, #96	; (adr r1, 40b468 <.LVL22+0x2c>)
  40b408:	e9d1 0100 	ldrd	r0, r1, [r1]
  40b40c:	e9c3 0110 	strd	r0, r1, [r3, #64]	; 0x40
    sha512->digest[6] = W64LIT(0x1f83d9abfb41bd6b);
  40b410:	a117      	add	r1, pc, #92	; (adr r1, 40b470 <.LVL22+0x34>)
  40b412:	e9d1 0100 	ldrd	r0, r1, [r1]
  40b416:	e9c3 0112 	strd	r0, r1, [r3, #72]	; 0x48
    sha512->digest[7] = W64LIT(0x5be0cd19137e2179);
  40b41a:	a117      	add	r1, pc, #92	; (adr r1, 40b478 <.LVL22+0x3c>)
  40b41c:	e9d1 0100 	ldrd	r0, r1, [r1]
  40b420:	e9c3 0114 	strd	r0, r1, [r3, #80]	; 0x50
    sha512->buffLen = 0;
  40b424:	2000      	movs	r0, #0
  40b426:	6018      	str	r0, [r3, #0]
    sha512->loLen   = 0;
  40b428:	2400      	movs	r4, #0
  40b42a:	2500      	movs	r5, #0
  40b42c:	e9c3 4502 	strd	r4, r5, [r3, #8]
    sha512->hiLen   = 0;
  40b430:	e9c3 4504 	strd	r4, r5, [r3, #16]

0040b434 <.LBE679>:
    }
  40b434:	bc30      	pop	{r4, r5}

0040b436 <.LCFI5>:
  40b436:	4770      	bx	lr

0040b438 <.LVL21>:
            return BAD_FUNC_ARG;
  40b438:	f06f 00ac 	mvn.w	r0, #172	; 0xac

0040b43c <.LVL22>:
  40b43c:	4770      	bx	lr
  40b43e:	bf00      	nop
  40b440:	f3bcc908 	.word	0xf3bcc908
  40b444:	6a09e667 	.word	0x6a09e667
  40b448:	84caa73b 	.word	0x84caa73b
  40b44c:	bb67ae85 	.word	0xbb67ae85
  40b450:	fe94f82b 	.word	0xfe94f82b
  40b454:	3c6ef372 	.word	0x3c6ef372
  40b458:	5f1d36f1 	.word	0x5f1d36f1
  40b45c:	a54ff53a 	.word	0xa54ff53a
  40b460:	ade682d1 	.word	0xade682d1
  40b464:	510e527f 	.word	0x510e527f
  40b468:	2b3e6c1f 	.word	0x2b3e6c1f
  40b46c:	9b05688c 	.word	0x9b05688c
  40b470:	fb41bd6b 	.word	0xfb41bd6b
  40b474:	1f83d9ab 	.word	0x1f83d9ab
  40b478:	137e2179 	.word	0x137e2179
  40b47c:	5be0cd19 	.word	0x5be0cd19

Disassembly of section .text.wc_InitSha384_ex%75:

0040b480 <wc_InitSha384_ex>:
#else
int wc_InitSha384_ex(Sha384* sha384, void* heap, int devId)
{
    int ret;

    if (sha384 == NULL) {
  40b480:	2800      	cmp	r0, #0
  40b482:	d035      	beq.n	40b4f0 <.LVL142>
{
  40b484:	b430      	push	{r4, r5}

0040b486 <.LCFI19>:
  40b486:	4603      	mov	r3, r0
        return BAD_FUNC_ARG;
    }

    sha384->heap = heap;
  40b488:	f8c0 10d8 	str.w	r1, [r0, #216]	; 0xd8

0040b48c <.LBB925>:
    sha384->digest[0] = W64LIT(0xcbbb9d5dc1059ed8);
  40b48c:	a11a      	add	r1, pc, #104	; (adr r1, 40b4f8 <.LVL143+0x4>)
  40b48e:	e9d1 0100 	ldrd	r0, r1, [r1]

0040b492 <.LVL140>:
  40b492:	e9c3 0106 	strd	r0, r1, [r3, #24]
    sha384->digest[1] = W64LIT(0x629a292a367cd507);
  40b496:	a11a      	add	r1, pc, #104	; (adr r1, 40b500 <.LVL143+0xc>)
  40b498:	e9d1 0100 	ldrd	r0, r1, [r1]
  40b49c:	e9c3 0108 	strd	r0, r1, [r3, #32]
    sha384->digest[2] = W64LIT(0x9159015a3070dd17);
  40b4a0:	a119      	add	r1, pc, #100	; (adr r1, 40b508 <.LVL143+0x14>)
  40b4a2:	e9d1 0100 	ldrd	r0, r1, [r1]
  40b4a6:	e9c3 010a 	strd	r0, r1, [r3, #40]	; 0x28
    sha384->digest[3] = W64LIT(0x152fecd8f70e5939);
  40b4aa:	a119      	add	r1, pc, #100	; (adr r1, 40b510 <.LVL143+0x1c>)
  40b4ac:	e9d1 0100 	ldrd	r0, r1, [r1]
  40b4b0:	e9c3 010c 	strd	r0, r1, [r3, #48]	; 0x30
    sha384->digest[4] = W64LIT(0x67332667ffc00b31);
  40b4b4:	a118      	add	r1, pc, #96	; (adr r1, 40b518 <.LVL143+0x24>)
  40b4b6:	e9d1 0100 	ldrd	r0, r1, [r1]
  40b4ba:	e9c3 010e 	strd	r0, r1, [r3, #56]	; 0x38
    sha384->digest[5] = W64LIT(0x8eb44a8768581511);
  40b4be:	a118      	add	r1, pc, #96	; (adr r1, 40b520 <.LVL143+0x2c>)
  40b4c0:	e9d1 0100 	ldrd	r0, r1, [r1]
  40b4c4:	e9c3 0110 	strd	r0, r1, [r3, #64]	; 0x40
    sha384->digest[6] = W64LIT(0xdb0c2e0d64f98fa7);
  40b4c8:	a117      	add	r1, pc, #92	; (adr r1, 40b528 <.LVL143+0x34>)
  40b4ca:	e9d1 0100 	ldrd	r0, r1, [r1]
  40b4ce:	e9c3 0112 	strd	r0, r1, [r3, #72]	; 0x48
    sha384->digest[7] = W64LIT(0x47b5481dbefa4fa4);
  40b4d2:	a117      	add	r1, pc, #92	; (adr r1, 40b530 <.LVL143+0x3c>)
  40b4d4:	e9d1 0100 	ldrd	r0, r1, [r1]
  40b4d8:	e9c3 0114 	strd	r0, r1, [r3, #80]	; 0x50
    sha384->buffLen = 0;
  40b4dc:	2000      	movs	r0, #0
  40b4de:	6018      	str	r0, [r3, #0]
    sha384->loLen   = 0;
  40b4e0:	2400      	movs	r4, #0
  40b4e2:	2500      	movs	r5, #0
  40b4e4:	e9c3 4502 	strd	r4, r5, [r3, #8]
    sha384->hiLen   = 0;
  40b4e8:	e9c3 4504 	strd	r4, r5, [r3, #16]

0040b4ec <.LBE925>:
#else
    (void)devId;
#endif /* WOLFSSL_ASYNC_CRYPT */

    return ret;
}
  40b4ec:	bc30      	pop	{r4, r5}

0040b4ee <.LCFI20>:
  40b4ee:	4770      	bx	lr

0040b4f0 <.LVL142>:
        return BAD_FUNC_ARG;
  40b4f0:	f06f 00ac 	mvn.w	r0, #172	; 0xac

0040b4f4 <.LVL143>:
  40b4f4:	4770      	bx	lr
  40b4f6:	bf00      	nop
  40b4f8:	c1059ed8 	.word	0xc1059ed8
  40b4fc:	cbbb9d5d 	.word	0xcbbb9d5d
  40b500:	367cd507 	.word	0x367cd507
  40b504:	629a292a 	.word	0x629a292a
  40b508:	3070dd17 	.word	0x3070dd17
  40b50c:	9159015a 	.word	0x9159015a
  40b510:	f70e5939 	.word	0xf70e5939
  40b514:	152fecd8 	.word	0x152fecd8
  40b518:	ffc00b31 	.word	0xffc00b31
  40b51c:	67332667 	.word	0x67332667
  40b520:	68581511 	.word	0x68581511
  40b524:	8eb44a87 	.word	0x8eb44a87
  40b528:	64f98fa7 	.word	0x64f98fa7
  40b52c:	db0c2e0d 	.word	0xdb0c2e0d
  40b530:	befa4fa4 	.word	0xbefa4fa4
  40b534:	47b5481d 	.word	0x47b5481d

Disassembly of section .text.__swbuf_r%76:

0040b538 <__swbuf_r>:
  40b538:	b5f8      	push	{r3, r4, r5, r6, r7, lr}

0040b53a <.LCFI0>:
  40b53a:	460d      	mov	r5, r1
  40b53c:	4614      	mov	r4, r2

0040b53e <.LBB2>:
  40b53e:	4606      	mov	r6, r0
  40b540:	b110      	cbz	r0, 40b548 <.LBE2>
  40b542:	6b83      	ldr	r3, [r0, #56]	; 0x38
  40b544:	2b00      	cmp	r3, #0
  40b546:	d04b      	beq.n	40b5e0 <.LBB3>

0040b548 <.LBE2>:
  40b548:	f9b4 200c 	ldrsh.w	r2, [r4, #12]
  40b54c:	69a3      	ldr	r3, [r4, #24]
  40b54e:	60a3      	str	r3, [r4, #8]
  40b550:	b291      	uxth	r1, r2
  40b552:	0708      	lsls	r0, r1, #28
  40b554:	d539      	bpl.n	40b5ca <.LVL9+0xa>
  40b556:	6923      	ldr	r3, [r4, #16]
  40b558:	2b00      	cmp	r3, #0
  40b55a:	d036      	beq.n	40b5ca <.LVL9+0xa>
  40b55c:	b2ed      	uxtb	r5, r5

0040b55e <.LVL2>:
  40b55e:	0489      	lsls	r1, r1, #18
  40b560:	462f      	mov	r7, r5

0040b562 <.LVL3>:
  40b562:	d515      	bpl.n	40b590 <.LVL5+0x20>
  40b564:	6822      	ldr	r2, [r4, #0]
  40b566:	6961      	ldr	r1, [r4, #20]
  40b568:	1ad3      	subs	r3, r2, r3

0040b56a <.LVL4>:
  40b56a:	428b      	cmp	r3, r1
  40b56c:	da1c      	bge.n	40b5a8 <.LVL7+0x4>
  40b56e:	3301      	adds	r3, #1

0040b570 <.LVL5>:
  40b570:	68a1      	ldr	r1, [r4, #8]
  40b572:	1c50      	adds	r0, r2, #1
  40b574:	3901      	subs	r1, #1
  40b576:	60a1      	str	r1, [r4, #8]
  40b578:	6020      	str	r0, [r4, #0]
  40b57a:	7015      	strb	r5, [r2, #0]
  40b57c:	6962      	ldr	r2, [r4, #20]
  40b57e:	429a      	cmp	r2, r3
  40b580:	d01a      	beq.n	40b5b8 <.LVL8+0x8>
  40b582:	89a3      	ldrh	r3, [r4, #12]
  40b584:	07db      	lsls	r3, r3, #31
  40b586:	d501      	bpl.n	40b58c <.LVL5+0x1c>
  40b588:	2d0a      	cmp	r5, #10
  40b58a:	d015      	beq.n	40b5b8 <.LVL8+0x8>
  40b58c:	4638      	mov	r0, r7
  40b58e:	bdf8      	pop	{r3, r4, r5, r6, r7, pc}
  40b590:	6e61      	ldr	r1, [r4, #100]	; 0x64
  40b592:	f442 5200 	orr.w	r2, r2, #8192	; 0x2000
  40b596:	f421 5100 	bic.w	r1, r1, #8192	; 0x2000
  40b59a:	81a2      	strh	r2, [r4, #12]
  40b59c:	6822      	ldr	r2, [r4, #0]
  40b59e:	6661      	str	r1, [r4, #100]	; 0x64
  40b5a0:	6961      	ldr	r1, [r4, #20]
  40b5a2:	1ad3      	subs	r3, r2, r3

0040b5a4 <.LVL7>:
  40b5a4:	428b      	cmp	r3, r1
  40b5a6:	dbe2      	blt.n	40b56e <.LVL4+0x4>
  40b5a8:	4621      	mov	r1, r4
  40b5aa:	4630      	mov	r0, r6
  40b5ac:	f001 fe0c 	bl	40d1c8 <_fflush_r>

0040b5b0 <.LVL8>:
  40b5b0:	b940      	cbnz	r0, 40b5c4 <.LVL9+0x4>
  40b5b2:	6822      	ldr	r2, [r4, #0]
  40b5b4:	2301      	movs	r3, #1
  40b5b6:	e7db      	b.n	40b570 <.LVL5>
  40b5b8:	4621      	mov	r1, r4
  40b5ba:	4630      	mov	r0, r6
  40b5bc:	f001 fe04 	bl	40d1c8 <_fflush_r>

0040b5c0 <.LVL9>:
  40b5c0:	2800      	cmp	r0, #0
  40b5c2:	d0e3      	beq.n	40b58c <.LVL5+0x1c>
  40b5c4:	f04f 37ff 	mov.w	r7, #4294967295
  40b5c8:	e7e0      	b.n	40b58c <.LVL5+0x1c>
  40b5ca:	4621      	mov	r1, r4
  40b5cc:	4630      	mov	r0, r6
  40b5ce:	f7ff fd71 	bl	40b0b4 <__swsetup_r>

0040b5d2 <.LVL10>:
  40b5d2:	2800      	cmp	r0, #0
  40b5d4:	d1f6      	bne.n	40b5c4 <.LVL9+0x4>
  40b5d6:	f9b4 200c 	ldrsh.w	r2, [r4, #12]
  40b5da:	6923      	ldr	r3, [r4, #16]
  40b5dc:	b291      	uxth	r1, r2
  40b5de:	e7bd      	b.n	40b55c <.LBE2+0x14>

0040b5e0 <.LBB3>:
  40b5e0:	f002 f9e6 	bl	40d9b0 <.LFE4>

0040b5e4 <.LVL12>:
  40b5e4:	e7b0      	b.n	40b548 <.LBE2>

0040b5e6 <.LBE3>:
  40b5e6:	bf00      	nop

Disassembly of section .text.__lshift%77:

0040b5e8 <__lshift>:
  40b5e8:	e92d 43f8 	stmdb	sp!, {r3, r4, r5, r6, r7, r8, r9, lr}

0040b5ec <.LCFI11>:
  40b5ec:	4691      	mov	r9, r2
  40b5ee:	690a      	ldr	r2, [r1, #16]

0040b5f0 <.LVL184>:
  40b5f0:	688b      	ldr	r3, [r1, #8]
  40b5f2:	ea4f 1469 	mov.w	r4, r9, asr #5

0040b5f6 <.LVL185>:
  40b5f6:	eb04 0802 	add.w	r8, r4, r2
  40b5fa:	f108 0501 	add.w	r5, r8, #1
  40b5fe:	429d      	cmp	r5, r3
  40b600:	460e      	mov	r6, r1
  40b602:	4607      	mov	r7, r0
  40b604:	6849      	ldr	r1, [r1, #4]

0040b606 <.LVL186>:
  40b606:	dd04      	ble.n	40b612 <.LVL188+0x2>
  40b608:	005b      	lsls	r3, r3, #1

0040b60a <.LVL187>:
  40b60a:	429d      	cmp	r5, r3
  40b60c:	f101 0101 	add.w	r1, r1, #1

0040b610 <.LVL188>:
  40b610:	dcfa      	bgt.n	40b608 <.LVL186+0x2>
  40b612:	4638      	mov	r0, r7

0040b614 <.LVL189>:
  40b614:	f001 fac8 	bl	40cba8 <.LFE2>

0040b618 <.LVL190>:
  40b618:	2c00      	cmp	r4, #0
  40b61a:	f100 0314 	add.w	r3, r0, #20

0040b61e <.LVL191>:
  40b61e:	dd06      	ble.n	40b62e <.LVL193+0x4>
  40b620:	eb03 0284 	add.w	r2, r3, r4, lsl #2
  40b624:	2100      	movs	r1, #0

0040b626 <.LVL192>:
  40b626:	f843 1b04 	str.w	r1, [r3], #4

0040b62a <.LVL193>:
  40b62a:	429a      	cmp	r2, r3
  40b62c:	d1fb      	bne.n	40b626 <.LVL192>
  40b62e:	6934      	ldr	r4, [r6, #16]

0040b630 <.LVL194>:
  40b630:	f106 0114 	add.w	r1, r6, #20

0040b634 <.LVL195>:
  40b634:	f019 091f 	ands.w	r9, r9, #31

0040b638 <.LVL196>:
  40b638:	eb01 0e84 	add.w	lr, r1, r4, lsl #2

0040b63c <.LVL197>:
  40b63c:	d01d      	beq.n	40b67a <.LVL208>
  40b63e:	f1c9 0c20 	rsb	ip, r9, #32

0040b642 <.LVL198>:
  40b642:	2200      	movs	r2, #0

0040b644 <.LVL199>:
  40b644:	680c      	ldr	r4, [r1, #0]
  40b646:	fa04 f409 	lsl.w	r4, r4, r9
  40b64a:	4314      	orrs	r4, r2
  40b64c:	f843 4b04 	str.w	r4, [r3], #4

0040b650 <.LVL200>:
  40b650:	f851 2b04 	ldr.w	r2, [r1], #4

0040b654 <.LVL201>:
  40b654:	458e      	cmp	lr, r1
  40b656:	fa22 f20c 	lsr.w	r2, r2, ip

0040b65a <.LVL202>:
  40b65a:	d8f3      	bhi.n	40b644 <.LVL199>
  40b65c:	601a      	str	r2, [r3, #0]
  40b65e:	b10a      	cbz	r2, 40b664 <.LBB24>

0040b660 <.LVL203>:
  40b660:	f108 0502 	add.w	r5, r8, #2

0040b664 <.LBB24>:
  40b664:	6cfb      	ldr	r3, [r7, #76]	; 0x4c
  40b666:	6872      	ldr	r2, [r6, #4]

0040b668 <.LBE24>:
  40b668:	3d01      	subs	r5, #1

0040b66a <.LBB28>:
  40b66a:	f853 1022 	ldr.w	r1, [r3, r2, lsl #2]

0040b66e <.LBE28>:
  40b66e:	6105      	str	r5, [r0, #16]

0040b670 <.LBB29>:
  40b670:	6031      	str	r1, [r6, #0]
  40b672:	f843 6022 	str.w	r6, [r3, r2, lsl #2]

0040b676 <.LBE29>:
  40b676:	e8bd 83f8 	ldmia.w	sp!, {r3, r4, r5, r6, r7, r8, r9, pc}

0040b67a <.LVL208>:
  40b67a:	3b04      	subs	r3, #4

0040b67c <.LVL209>:
  40b67c:	f851 2b04 	ldr.w	r2, [r1], #4

0040b680 <.LVL210>:
  40b680:	f843 2f04 	str.w	r2, [r3, #4]!
  40b684:	458e      	cmp	lr, r1
  40b686:	d8f9      	bhi.n	40b67c <.LVL209>
  40b688:	e7ec      	b.n	40b664 <.LBB24>

0040b68a <.LFE26>:
  40b68a:	bf00      	nop

Disassembly of section .text.__register_exitproc%78:

0040b68c <__register_exitproc>:
  40b68c:	e92d 47f0 	stmdb	sp!, {r4, r5, r6, r7, r8, r9, sl, lr}

0040b690 <.LCFI0>:
  40b690:	4c25      	ldr	r4, [pc, #148]	; (40b728 <.LVL14+0x2>)
  40b692:	6825      	ldr	r5, [r4, #0]
  40b694:	f8d5 4148 	ldr.w	r4, [r5, #328]	; 0x148

0040b698 <.LVL1>:
  40b698:	4606      	mov	r6, r0
  40b69a:	4688      	mov	r8, r1
  40b69c:	4692      	mov	sl, r2
  40b69e:	4699      	mov	r9, r3
  40b6a0:	b3c4      	cbz	r4, 40b714 <.LVL11>
  40b6a2:	6860      	ldr	r0, [r4, #4]

0040b6a4 <.LVL2>:
  40b6a4:	281f      	cmp	r0, #31
  40b6a6:	dc17      	bgt.n	40b6d8 <.LVL6>
  40b6a8:	1c43      	adds	r3, r0, #1

0040b6aa <.LVL3>:
  40b6aa:	b176      	cbz	r6, 40b6ca <.LVL5>

0040b6ac <.LVL4>:
  40b6ac:	eb04 0580 	add.w	r5, r4, r0, lsl #2
  40b6b0:	2201      	movs	r2, #1
  40b6b2:	f8c5 a088 	str.w	sl, [r5, #136]	; 0x88
  40b6b6:	f8d4 1188 	ldr.w	r1, [r4, #392]	; 0x188
  40b6ba:	4082      	lsls	r2, r0
  40b6bc:	4311      	orrs	r1, r2
  40b6be:	2e02      	cmp	r6, #2
  40b6c0:	f8c4 1188 	str.w	r1, [r4, #392]	; 0x188
  40b6c4:	f8c5 9108 	str.w	r9, [r5, #264]	; 0x108
  40b6c8:	d01e      	beq.n	40b708 <.LVL10>

0040b6ca <.LVL5>:
  40b6ca:	3002      	adds	r0, #2
  40b6cc:	6063      	str	r3, [r4, #4]
  40b6ce:	f844 8020 	str.w	r8, [r4, r0, lsl #2]
  40b6d2:	2000      	movs	r0, #0
  40b6d4:	e8bd 87f0 	ldmia.w	sp!, {r4, r5, r6, r7, r8, r9, sl, pc}

0040b6d8 <.LVL6>:
  40b6d8:	4b14      	ldr	r3, [pc, #80]	; (40b72c <.LVL14+0x6>)

0040b6da <.LVL7>:
  40b6da:	b303      	cbz	r3, 40b71e <.LVL13>
  40b6dc:	f44f 70c8 	mov.w	r0, #400	; 0x190
  40b6e0:	f002 f8d8 	bl	40d894 <.LFE151>

0040b6e4 <.LVL8>:
  40b6e4:	4604      	mov	r4, r0
  40b6e6:	b1d0      	cbz	r0, 40b71e <.LVL13>
  40b6e8:	f8d5 3148 	ldr.w	r3, [r5, #328]	; 0x148
  40b6ec:	2700      	movs	r7, #0
  40b6ee:	e880 0088 	stmia.w	r0, {r3, r7}
  40b6f2:	f8c5 4148 	str.w	r4, [r5, #328]	; 0x148
  40b6f6:	4638      	mov	r0, r7

0040b6f8 <.LVL9>:
  40b6f8:	2301      	movs	r3, #1
  40b6fa:	f8c4 7188 	str.w	r7, [r4, #392]	; 0x188
  40b6fe:	f8c4 718c 	str.w	r7, [r4, #396]	; 0x18c
  40b702:	2e00      	cmp	r6, #0
  40b704:	d0e1      	beq.n	40b6ca <.LVL5>
  40b706:	e7d1      	b.n	40b6ac <.LVL4>

0040b708 <.LVL10>:
  40b708:	f8d4 118c 	ldr.w	r1, [r4, #396]	; 0x18c
  40b70c:	430a      	orrs	r2, r1
  40b70e:	f8c4 218c 	str.w	r2, [r4, #396]	; 0x18c
  40b712:	e7da      	b.n	40b6ca <.LVL5>

0040b714 <.LVL11>:
  40b714:	f505 74a6 	add.w	r4, r5, #332	; 0x14c
  40b718:	f8c5 4148 	str.w	r4, [r5, #328]	; 0x148
  40b71c:	e7c1      	b.n	40b6a2 <.LVL1+0xa>

0040b71e <.LVL13>:
  40b71e:	f04f 30ff 	mov.w	r0, #4294967295
  40b722:	e8bd 87f0 	ldmia.w	sp!, {r4, r5, r6, r7, r8, r9, sl, pc}

0040b726 <.LVL14>:
  40b726:	bf00      	nop
  40b728:	0040d9e4 	.word	0x0040d9e4
  40b72c:	0040d895 	.word	0x0040d895

Disassembly of section .text%79:

0040b730 <memchr>:
  40b730:	f001 01ff 	and.w	r1, r1, #255	; 0xff
  40b734:	2a10      	cmp	r2, #16
  40b736:	db2b      	blt.n	40b790 <memchr+0x60>
  40b738:	f010 0f07 	tst.w	r0, #7
  40b73c:	d008      	beq.n	40b750 <memchr+0x20>
  40b73e:	f810 3b01 	ldrb.w	r3, [r0], #1
  40b742:	3a01      	subs	r2, #1
  40b744:	428b      	cmp	r3, r1
  40b746:	d02d      	beq.n	40b7a4 <memchr+0x74>
  40b748:	f010 0f07 	tst.w	r0, #7
  40b74c:	b342      	cbz	r2, 40b7a0 <memchr+0x70>
  40b74e:	d1f6      	bne.n	40b73e <memchr+0xe>
  40b750:	b4f0      	push	{r4, r5, r6, r7}
  40b752:	ea41 2101 	orr.w	r1, r1, r1, lsl #8
  40b756:	ea41 4101 	orr.w	r1, r1, r1, lsl #16
  40b75a:	f022 0407 	bic.w	r4, r2, #7
  40b75e:	f07f 0700 	mvns.w	r7, #0
  40b762:	2300      	movs	r3, #0
  40b764:	e8f0 5602 	ldrd	r5, r6, [r0], #8
  40b768:	3c08      	subs	r4, #8
  40b76a:	ea85 0501 	eor.w	r5, r5, r1
  40b76e:	ea86 0601 	eor.w	r6, r6, r1
  40b772:	fa85 f547 	uadd8	r5, r5, r7
  40b776:	faa3 f587 	sel	r5, r3, r7
  40b77a:	fa86 f647 	uadd8	r6, r6, r7
  40b77e:	faa5 f687 	sel	r6, r5, r7
  40b782:	b98e      	cbnz	r6, 40b7a8 <memchr+0x78>
  40b784:	d1ee      	bne.n	40b764 <memchr+0x34>
  40b786:	bcf0      	pop	{r4, r5, r6, r7}
  40b788:	f001 01ff 	and.w	r1, r1, #255	; 0xff
  40b78c:	f002 0207 	and.w	r2, r2, #7
  40b790:	b132      	cbz	r2, 40b7a0 <memchr+0x70>
  40b792:	f810 3b01 	ldrb.w	r3, [r0], #1
  40b796:	3a01      	subs	r2, #1
  40b798:	ea83 0301 	eor.w	r3, r3, r1
  40b79c:	b113      	cbz	r3, 40b7a4 <memchr+0x74>
  40b79e:	d1f8      	bne.n	40b792 <memchr+0x62>
  40b7a0:	2000      	movs	r0, #0
  40b7a2:	4770      	bx	lr
  40b7a4:	3801      	subs	r0, #1
  40b7a6:	4770      	bx	lr
  40b7a8:	2d00      	cmp	r5, #0
  40b7aa:	bf06      	itte	eq
  40b7ac:	4635      	moveq	r5, r6
  40b7ae:	3803      	subeq	r0, #3
  40b7b0:	3807      	subne	r0, #7
  40b7b2:	f015 0f01 	tst.w	r5, #1
  40b7b6:	d107      	bne.n	40b7c8 <memchr+0x98>
  40b7b8:	3001      	adds	r0, #1
  40b7ba:	f415 7f80 	tst.w	r5, #256	; 0x100
  40b7be:	bf02      	ittt	eq
  40b7c0:	3001      	addeq	r0, #1
  40b7c2:	f415 3fc0 	tsteq.w	r5, #98304	; 0x18000
  40b7c6:	3001      	addeq	r0, #1
  40b7c8:	bcf0      	pop	{r4, r5, r6, r7}
  40b7ca:	3801      	subs	r0, #1
  40b7cc:	4770      	bx	lr

0040b7ce <L0>:
  40b7ce:	bf00      	nop

Disassembly of section .text.__pow5mult%80:

0040b7d0 <__pow5mult>:
  40b7d0:	f012 0303 	ands.w	r3, r2, #3
  40b7d4:	e92d 41f0 	stmdb	sp!, {r4, r5, r6, r7, r8, lr}

0040b7d8 <.LCFI10>:
  40b7d8:	4614      	mov	r4, r2

0040b7da <.LVL152>:
  40b7da:	4607      	mov	r7, r0
  40b7dc:	d12e      	bne.n	40b83c <.LVL173>
  40b7de:	460d      	mov	r5, r1

0040b7e0 <.LVL153>:
  40b7e0:	10a4      	asrs	r4, r4, #2

0040b7e2 <.LVL154>:
  40b7e2:	d01c      	beq.n	40b81e <.LVL165>
  40b7e4:	6cbe      	ldr	r6, [r7, #72]	; 0x48

0040b7e6 <.LVL155>:
  40b7e6:	b396      	cbz	r6, 40b84e <.LBB20>
  40b7e8:	07e3      	lsls	r3, r4, #31
  40b7ea:	f04f 0800 	mov.w	r8, #0
  40b7ee:	d406      	bmi.n	40b7fe <.LVL161>

0040b7f0 <.LVL156>:
  40b7f0:	1064      	asrs	r4, r4, #1

0040b7f2 <.LVL157>:
  40b7f2:	d014      	beq.n	40b81e <.LVL165>

0040b7f4 <.LVL158>:
  40b7f4:	6830      	ldr	r0, [r6, #0]

0040b7f6 <.LVL159>:
  40b7f6:	b1a8      	cbz	r0, 40b824 <.LVL166>
  40b7f8:	4606      	mov	r6, r0

0040b7fa <.LVL160>:
  40b7fa:	07e3      	lsls	r3, r4, #31
  40b7fc:	d5f8      	bpl.n	40b7f0 <.LVL156>

0040b7fe <.LVL161>:
  40b7fe:	4632      	mov	r2, r6
  40b800:	4629      	mov	r1, r5
  40b802:	4638      	mov	r0, r7
  40b804:	f7fe fbc0 	bl	409f88 <.LBE11>

0040b808 <.LBB16>:
  40b808:	b1b5      	cbz	r5, 40b838 <.LVL171>
  40b80a:	686a      	ldr	r2, [r5, #4]
  40b80c:	6cfb      	ldr	r3, [r7, #76]	; 0x4c

0040b80e <.LBE16>:
  40b80e:	1064      	asrs	r4, r4, #1

0040b810 <.LBB19>:
  40b810:	f853 1022 	ldr.w	r1, [r3, r2, lsl #2]
  40b814:	6029      	str	r1, [r5, #0]
  40b816:	f843 5022 	str.w	r5, [r3, r2, lsl #2]

0040b81a <.LBE19>:
  40b81a:	4605      	mov	r5, r0

0040b81c <.LVL164>:
  40b81c:	d1ea      	bne.n	40b7f4 <.LVL158>

0040b81e <.LVL165>:
  40b81e:	4628      	mov	r0, r5
  40b820:	e8bd 81f0 	ldmia.w	sp!, {r4, r5, r6, r7, r8, pc}

0040b824 <.LVL166>:
  40b824:	4632      	mov	r2, r6
  40b826:	4631      	mov	r1, r6
  40b828:	4638      	mov	r0, r7

0040b82a <.LVL167>:
  40b82a:	f7fe fbad 	bl	409f88 <.LBE11>

0040b82e <.LVL168>:
  40b82e:	6030      	str	r0, [r6, #0]

0040b830 <.LVL169>:
  40b830:	f8c0 8000 	str.w	r8, [r0]
  40b834:	4606      	mov	r6, r0

0040b836 <.LVL170>:
  40b836:	e7e0      	b.n	40b7fa <.LVL160>

0040b838 <.LVL171>:
  40b838:	4605      	mov	r5, r0

0040b83a <.LVL172>:
  40b83a:	e7d9      	b.n	40b7f0 <.LVL156>

0040b83c <.LVL173>:
  40b83c:	1e5a      	subs	r2, r3, #1

0040b83e <.LVL174>:
  40b83e:	4d0b      	ldr	r5, [pc, #44]	; (40b86c <.LVL182+0x6>)
  40b840:	2300      	movs	r3, #0

0040b842 <.LVL175>:
  40b842:	f855 2022 	ldr.w	r2, [r5, r2, lsl #2]

0040b846 <.LVL176>:
  40b846:	f000 fbf3 	bl	40c030 <.LFE146>

0040b84a <.LVL177>:
  40b84a:	4605      	mov	r5, r0

0040b84c <.LVL178>:
  40b84c:	e7c8      	b.n	40b7e0 <.LVL153>

0040b84e <.LBB20>:
  40b84e:	2101      	movs	r1, #1
  40b850:	4638      	mov	r0, r7
  40b852:	f001 f9a9 	bl	40cba8 <.LFE2>

0040b856 <.LVL180>:
  40b856:	f240 2171 	movw	r1, #625	; 0x271
  40b85a:	2201      	movs	r2, #1

0040b85c <.LBE20>:
  40b85c:	2300      	movs	r3, #0

0040b85e <.LBB23>:
  40b85e:	6141      	str	r1, [r0, #20]
  40b860:	6102      	str	r2, [r0, #16]
  40b862:	4606      	mov	r6, r0

0040b864 <.LBE23>:
  40b864:	64b8      	str	r0, [r7, #72]	; 0x48

0040b866 <.LVL182>:
  40b866:	6003      	str	r3, [r0, #0]
  40b868:	e7be      	b.n	40b7e8 <.LVL155+0x2>
  40b86a:	bf00      	nop
  40b86c:	0040d9bc 	.word	0x0040d9bc

Disassembly of section .text.__fputwc%81:

0040b870 <__fputwc>:
  40b870:	e92d 47f0 	stmdb	sp!, {r4, r5, r6, r7, r8, r9, sl, lr}

0040b874 <.LCFI0>:
  40b874:	b082      	sub	sp, #8

0040b876 <.LCFI1>:
  40b876:	4680      	mov	r8, r0
  40b878:	4689      	mov	r9, r1
  40b87a:	4614      	mov	r4, r2
  40b87c:	f001 fe58 	bl	40d530 <.LFE164>

0040b880 <.LVL1>:
  40b880:	2801      	cmp	r0, #1
  40b882:	d036      	beq.n	40b8f2 <.LCFI5>
  40b884:	464a      	mov	r2, r9
  40b886:	f104 035c 	add.w	r3, r4, #92	; 0x5c
  40b88a:	a901      	add	r1, sp, #4
  40b88c:	4640      	mov	r0, r8
  40b88e:	f001 f8c5 	bl	40ca1c <_wcrtomb_r>

0040b892 <.LVL2>:
  40b892:	1c42      	adds	r2, r0, #1
  40b894:	4606      	mov	r6, r0

0040b896 <.LVL3>:
  40b896:	d025      	beq.n	40b8e4 <.LCFI3>

0040b898 <.LVL4>:
  40b898:	b3a8      	cbz	r0, 40b906 <.LVL15>
  40b89a:	f89d e004 	ldrb.w	lr, [sp, #4]

0040b89e <.LVL5>:
  40b89e:	2500      	movs	r5, #0
  40b8a0:	f10d 0a04 	add.w	sl, sp, #4
  40b8a4:	e009      	b.n	40b8ba <.LBB10>

0040b8a6 <.LBB7>:
  40b8a6:	6823      	ldr	r3, [r4, #0]
  40b8a8:	1c5a      	adds	r2, r3, #1
  40b8aa:	6022      	str	r2, [r4, #0]
  40b8ac:	f883 e000 	strb.w	lr, [r3]

0040b8b0 <.LBE7>:
  40b8b0:	3501      	adds	r5, #1
  40b8b2:	42b5      	cmp	r5, r6
  40b8b4:	d227      	bcs.n	40b906 <.LVL15>
  40b8b6:	f815 e00a 	ldrb.w	lr, [r5, sl]

0040b8ba <.LBB10>:
  40b8ba:	68a3      	ldr	r3, [r4, #8]
  40b8bc:	3b01      	subs	r3, #1
  40b8be:	2b00      	cmp	r3, #0
  40b8c0:	60a3      	str	r3, [r4, #8]
  40b8c2:	daf0      	bge.n	40b8a6 <.LBB7>
  40b8c4:	69a7      	ldr	r7, [r4, #24]
  40b8c6:	42bb      	cmp	r3, r7
  40b8c8:	4671      	mov	r1, lr
  40b8ca:	4622      	mov	r2, r4
  40b8cc:	4640      	mov	r0, r8
  40b8ce:	db02      	blt.n	40b8d6 <.LVL10+0x6>

0040b8d0 <.LVL10>:
  40b8d0:	f1be 0f0a 	cmp.w	lr, #10
  40b8d4:	d1e7      	bne.n	40b8a6 <.LBB7>
  40b8d6:	f7ff fe2f 	bl	40b538 <.LFE27>

0040b8da <.LBE10>:
  40b8da:	1c43      	adds	r3, r0, #1
  40b8dc:	d1e8      	bne.n	40b8b0 <.LBE7>
  40b8de:	b002      	add	sp, #8

0040b8e0 <.LCFI2>:
  40b8e0:	e8bd 87f0 	ldmia.w	sp!, {r4, r5, r6, r7, r8, r9, sl, pc}

0040b8e4 <.LCFI3>:
  40b8e4:	89a3      	ldrh	r3, [r4, #12]
  40b8e6:	f043 0340 	orr.w	r3, r3, #64	; 0x40
  40b8ea:	81a3      	strh	r3, [r4, #12]
  40b8ec:	b002      	add	sp, #8

0040b8ee <.LCFI4>:
  40b8ee:	e8bd 87f0 	ldmia.w	sp!, {r4, r5, r6, r7, r8, r9, sl, pc}

0040b8f2 <.LCFI5>:
  40b8f2:	f109 33ff 	add.w	r3, r9, #4294967295
  40b8f6:	2bfe      	cmp	r3, #254	; 0xfe
  40b8f8:	d8c4      	bhi.n	40b884 <.LVL1+0x4>
  40b8fa:	fa5f fe89 	uxtb.w	lr, r9
  40b8fe:	4606      	mov	r6, r0
  40b900:	f88d e004 	strb.w	lr, [sp, #4]

0040b904 <.LVL14>:
  40b904:	e7cb      	b.n	40b89e <.LVL5>

0040b906 <.LVL15>:
  40b906:	4648      	mov	r0, r9
  40b908:	b002      	add	sp, #8

0040b90a <.LCFI6>:
  40b90a:	e8bd 87f0 	ldmia.w	sp!, {r4, r5, r6, r7, r8, r9, sl, pc}

0040b90e <.LFE1>:
  40b90e:	bf00      	nop

Disassembly of section .text.wc_Sha256Final%82:

0040b910 <wc_Sha256Final>:
       0, 0, 0, 0, 0, 0, 0, 0, 0, 0, 0, 0, 0, 0, 0, 0,
       0, 0, 0, 0, 0, 0, 0, 0, 0, 0, 0, 0, 0, 0, 0, 0};


int wc_Sha256Final(Sha256* sha256, byte* hash)
{
  40b910:	b570      	push	{r4, r5, r6, lr}

0040b912 <.LCFI5>:
  40b912:	b082      	sub	sp, #8

0040b914 <.LCFI6>:
  40b914:	4605      	mov	r5, r0
  40b916:	460c      	mov	r4, r1
    uint8_t  padn;
    uint8_t  msg_len[8];

    /* Get the number of bits */
    /* create the message bit length block */
    uint64_t total_bits = sha256->total_len << 3;
  40b918:	f8d0 20a0 	ldr.w	r2, [r0, #160]	; 0xa0
  40b91c:	f8d0 30a4 	ldr.w	r3, [r0, #164]	; 0xa4
  40b920:	00db      	lsls	r3, r3, #3
  40b922:	ea43 7352 	orr.w	r3, r3, r2, lsr #29
  40b926:	00d1      	lsls	r1, r2, #3

0040b928 <.LVL43>:
    msg_len[0] = (uint8_t)(total_bits >> 56);
  40b928:	0e18      	lsrs	r0, r3, #24

0040b92a <.LVL44>:
  40b92a:	f88d 0000 	strb.w	r0, [sp]
    msg_len[1] = (uint8_t)(total_bits >> 48);
  40b92e:	0c18      	lsrs	r0, r3, #16
  40b930:	f88d 0001 	strb.w	r0, [sp, #1]
    msg_len[2] = (uint8_t)(total_bits >> 40);
  40b934:	0a18      	lsrs	r0, r3, #8
  40b936:	f88d 0002 	strb.w	r0, [sp, #2]
    msg_len[3] = (uint8_t)(total_bits >> 32);
  40b93a:	f88d 3003 	strb.w	r3, [sp, #3]
    msg_len[4] = (uint8_t)(total_bits >> 24);
  40b93e:	0e0b      	lsrs	r3, r1, #24

0040b940 <.LVL45>:
  40b940:	f88d 3004 	strb.w	r3, [sp, #4]
    msg_len[5] = (uint8_t)(total_bits >> 16);
  40b944:	0c0b      	lsrs	r3, r1, #16
  40b946:	f88d 3005 	strb.w	r3, [sp, #5]
    msg_len[6] = (uint8_t)(total_bits >>  8);
  40b94a:	0a0b      	lsrs	r3, r1, #8
  40b94c:	f88d 3006 	strb.w	r3, [sp, #6]
    msg_len[7] = (uint8_t)(total_bits);
  40b950:	f88d 1007 	strb.w	r1, [sp, #7]
    
    /* pad the last bits with bytes */
    last = sha256->total_len & 0x3F;
  40b954:	f002 023f 	and.w	r2, r2, #63	; 0x3f

0040b958 <.LVL46>:
    padn = (last < SHA256_PAD_SIZE) ? (SHA256_PAD_SIZE - last) : (120 - last);
  40b958:	2a37      	cmp	r2, #55	; 0x37
  40b95a:	bf94      	ite	ls
  40b95c:	f1c2 0238 	rsbls	r2, r2, #56	; 0x38

0040b960 <.LVL47>:
  40b960:	f1c2 0278 	rsbhi	r2, r2, #120	; 0x78
  40b964:	b2d2      	uxtb	r2, r2

0040b966 <.LVL48>:

    /* future note: Capella will have auto padding with MSGSIZE != 0 */
    wc_Sha256Update(sha256, sha_padding, padn);
  40b966:	4910      	ldr	r1, [pc, #64]	; (40b9a8 <.LVL53+0x2>)
  40b968:	4628      	mov	r0, r5
  40b96a:	f000 faa0 	bl	40beae <.LFE165>

0040b96e <.LVL50>:
    wc_Sha256Update(sha256, msg_len, 8);
  40b96e:	2208      	movs	r2, #8
  40b970:	4669      	mov	r1, sp
  40b972:	4628      	mov	r0, r5
  40b974:	f000 fa9b 	bl	40beae <.LFE165>

0040b978 <.LVL51>:

    memcpy(hash, (void *)sha256->digest, SHA256_DIGEST_SIZE);
  40b978:	462b      	mov	r3, r5
  40b97a:	f853 6f80 	ldr.w	r6, [r3, #128]!
  40b97e:	6858      	ldr	r0, [r3, #4]
  40b980:	6899      	ldr	r1, [r3, #8]
  40b982:	68da      	ldr	r2, [r3, #12]
  40b984:	6026      	str	r6, [r4, #0]
  40b986:	6060      	str	r0, [r4, #4]
  40b988:	60a1      	str	r1, [r4, #8]
  40b98a:	60e2      	str	r2, [r4, #12]
  40b98c:	691e      	ldr	r6, [r3, #16]
  40b98e:	6958      	ldr	r0, [r3, #20]
  40b990:	6999      	ldr	r1, [r3, #24]
  40b992:	69da      	ldr	r2, [r3, #28]
  40b994:	6126      	str	r6, [r4, #16]
  40b996:	6160      	str	r0, [r4, #20]
  40b998:	61a1      	str	r1, [r4, #24]
  40b99a:	61e2      	str	r2, [r4, #28]

    return wc_InitSha256(sha256);
  40b99c:	4628      	mov	r0, r5
  40b99e:	f000 f853 	bl	40ba48 <wc_InitSha256>

0040b9a2 <.LVL52>:
}
  40b9a2:	b002      	add	sp, #8

0040b9a4 <.LCFI7>:
  40b9a4:	bd70      	pop	{r4, r5, r6, pc}

0040b9a6 <.LVL53>:
  40b9a6:	bf00      	nop
  40b9a8:	0040bf30 	.word	0x0040bf30

Disassembly of section .text.memset%83:

0040b9ac <memset>:
  40b9ac:	b470      	push	{r4, r5, r6}

0040b9ae <.LCFI0>:
  40b9ae:	0786      	lsls	r6, r0, #30
  40b9b0:	d046      	beq.n	40ba40 <.LCFI2>
  40b9b2:	1e54      	subs	r4, r2, #1

0040b9b4 <.LVL1>:
  40b9b4:	2a00      	cmp	r2, #0
  40b9b6:	d041      	beq.n	40ba3c <.LVL25>
  40b9b8:	b2ca      	uxtb	r2, r1
  40b9ba:	4603      	mov	r3, r0
  40b9bc:	e002      	b.n	40b9c4 <.LVL4>

0040b9be <.LVL2>:
  40b9be:	f114 34ff 	adds.w	r4, r4, #4294967295

0040b9c2 <.LVL3>:
  40b9c2:	d33b      	bcc.n	40ba3c <.LVL25>

0040b9c4 <.LVL4>:
  40b9c4:	f803 2b01 	strb.w	r2, [r3], #1
  40b9c8:	079d      	lsls	r5, r3, #30
  40b9ca:	d1f8      	bne.n	40b9be <.LVL2>

0040b9cc <.LVL6>:
  40b9cc:	2c03      	cmp	r4, #3
  40b9ce:	d92e      	bls.n	40ba2e <.LVL22>
  40b9d0:	b2cd      	uxtb	r5, r1

0040b9d2 <.LVL7>:
  40b9d2:	ea45 2505 	orr.w	r5, r5, r5, lsl #8

0040b9d6 <.LVL8>:
  40b9d6:	2c0f      	cmp	r4, #15
  40b9d8:	ea45 4505 	orr.w	r5, r5, r5, lsl #16

0040b9dc <.LVL9>:
  40b9dc:	d919      	bls.n	40ba12 <.LVL17+0x2>
  40b9de:	f103 0210 	add.w	r2, r3, #16
  40b9e2:	4626      	mov	r6, r4

0040b9e4 <.LVL10>:
  40b9e4:	3e10      	subs	r6, #16

0040b9e6 <.LVL11>:
  40b9e6:	2e0f      	cmp	r6, #15
  40b9e8:	f842 5c10 	str.w	r5, [r2, #-16]

0040b9ec <.LVL12>:
  40b9ec:	f842 5c0c 	str.w	r5, [r2, #-12]

0040b9f0 <.LVL13>:
  40b9f0:	f842 5c08 	str.w	r5, [r2, #-8]

0040b9f4 <.LVL14>:
  40b9f4:	f842 5c04 	str.w	r5, [r2, #-4]
  40b9f8:	f102 0210 	add.w	r2, r2, #16

0040b9fc <.LVL15>:
  40b9fc:	d8f2      	bhi.n	40b9e4 <.LVL10>
  40b9fe:	f1a4 0210 	sub.w	r2, r4, #16

0040ba02 <.LVL16>:
  40ba02:	f022 020f 	bic.w	r2, r2, #15
  40ba06:	f004 040f 	and.w	r4, r4, #15
  40ba0a:	3210      	adds	r2, #16
  40ba0c:	2c03      	cmp	r4, #3
  40ba0e:	4413      	add	r3, r2

0040ba10 <.LVL17>:
  40ba10:	d90d      	bls.n	40ba2e <.LVL22>
  40ba12:	461e      	mov	r6, r3
  40ba14:	4622      	mov	r2, r4

0040ba16 <.LVL18>:
  40ba16:	3a04      	subs	r2, #4

0040ba18 <.LVL19>:
  40ba18:	2a03      	cmp	r2, #3
  40ba1a:	f846 5b04 	str.w	r5, [r6], #4

0040ba1e <.LVL20>:
  40ba1e:	d8fa      	bhi.n	40ba16 <.LVL18>
  40ba20:	1f22      	subs	r2, r4, #4

0040ba22 <.LVL21>:
  40ba22:	f022 0203 	bic.w	r2, r2, #3
  40ba26:	3204      	adds	r2, #4
  40ba28:	4413      	add	r3, r2
  40ba2a:	f004 0403 	and.w	r4, r4, #3

0040ba2e <.LVL22>:
  40ba2e:	b12c      	cbz	r4, 40ba3c <.LVL25>
  40ba30:	b2c9      	uxtb	r1, r1

0040ba32 <.LVL23>:
  40ba32:	441c      	add	r4, r3
  40ba34:	f803 1b01 	strb.w	r1, [r3], #1
  40ba38:	429c      	cmp	r4, r3
  40ba3a:	d1fb      	bne.n	40ba34 <.LVL23+0x2>

0040ba3c <.LVL25>:
  40ba3c:	bc70      	pop	{r4, r5, r6}

0040ba3e <.LCFI1>:
  40ba3e:	4770      	bx	lr

0040ba40 <.LCFI2>:
  40ba40:	4614      	mov	r4, r2
  40ba42:	4603      	mov	r3, r0
  40ba44:	e7c2      	b.n	40b9cc <.LVL6>

0040ba46 <.LFE17>:
  40ba46:	bf00      	nop

Disassembly of section .text.wc_InitSha256%84:

0040ba48 <wc_InitSha256>:
{
  40ba48:	b430      	push	{r4, r5}

0040ba4a <.LCFI2>:
  40ba4a:	4603      	mov	r3, r0
    if ((PMC_REGS->PMC_PCSR1 & PmcBit) != PmcBit)
  40ba4c:	4a1b      	ldr	r2, [pc, #108]	; (40babc <.LCFI3+0x4>)
  40ba4e:	f8d2 2108 	ldr.w	r2, [r2, #264]	; 0x108
  40ba52:	f012 0f01 	tst.w	r2, #1
  40ba56:	d103      	bne.n	40ba60 <.LCFI2+0x16>
        PMC_REGS->PMC_PCER1 = PmcBit;
  40ba58:	2101      	movs	r1, #1
  40ba5a:	4a18      	ldr	r2, [pc, #96]	; (40babc <.LCFI3+0x4>)
  40ba5c:	f8c2 1100 	str.w	r1, [r2, #256]	; 0x100
    sha256->icm_descriptor.cfg.reg = 0x0;
  40ba60:	2000      	movs	r0, #0

0040ba62 <.LVL20>:
  40ba62:	6058      	str	r0, [r3, #4]
    sha256->icm_descriptor.cfg.bit.is_end_mon = 1;
  40ba64:	2204      	movs	r2, #4
  40ba66:	711a      	strb	r2, [r3, #4]
    sha256->icm_descriptor.cfg.bit.algo = 1;
  40ba68:	f04f 0200 	mov.w	r2, #0
  40ba6c:	2101      	movs	r1, #1
  40ba6e:	f361 1206 	bfi	r2, r1, #4, #3
  40ba72:	715a      	strb	r2, [r3, #5]
    sha256->digest[0] = 0x67E6096A;
  40ba74:	4a12      	ldr	r2, [pc, #72]	; (40bac0 <.LCFI3+0x8>)
  40ba76:	f8c3 2080 	str.w	r2, [r3, #128]	; 0x80
    sha256->digest[1] = 0x85AE67BB;
  40ba7a:	f102 52ee 	add.w	r2, r2, #499122176	; 0x1dc00000
  40ba7e:	f502 2205 	add.w	r2, r2, #544768	; 0x85000
  40ba82:	f602 6251 	addw	r2, r2, #3665	; 0xe51
  40ba86:	f8c3 2084 	str.w	r2, [r3, #132]	; 0x84
    sha256->digest[2] = 0x72F36E3C;
  40ba8a:	4a0e      	ldr	r2, [pc, #56]	; (40bac4 <.LCFI3+0xc>)
  40ba8c:	f8c3 2088 	str.w	r2, [r3, #136]	; 0x88
    sha256->digest[3] = 0x3AF54FA5;
  40ba90:	4a0d      	ldr	r2, [pc, #52]	; (40bac8 <.LCFI3+0x10>)
  40ba92:	f8c3 208c 	str.w	r2, [r3, #140]	; 0x8c
    sha256->digest[4] = 0x7F520E51;
  40ba96:	4a0d      	ldr	r2, [pc, #52]	; (40bacc <.LCFI3+0x14>)
  40ba98:	f8c3 2090 	str.w	r2, [r3, #144]	; 0x90
    sha256->digest[5] = 0x8C68059B;
  40ba9c:	4a0c      	ldr	r2, [pc, #48]	; (40bad0 <.LCFI3+0x18>)
  40ba9e:	f8c3 2094 	str.w	r2, [r3, #148]	; 0x94
    sha256->digest[6] = 0xABD9831F;
  40baa2:	4a0c      	ldr	r2, [pc, #48]	; (40bad4 <.LCFI3+0x1c>)
  40baa4:	f8c3 2098 	str.w	r2, [r3, #152]	; 0x98
    sha256->digest[7] = 0x19CDE05B;
  40baa8:	4a0b      	ldr	r2, [pc, #44]	; (40bad8 <.LCFI3+0x20>)
  40baaa:	f8c3 209c 	str.w	r2, [r3, #156]	; 0x9c
    sha256->total_len = 0;
  40baae:	2400      	movs	r4, #0
  40bab0:	2500      	movs	r5, #0
  40bab2:	e9c3 4528 	strd	r4, r5, [r3, #160]	; 0xa0
}
  40bab6:	bc30      	pop	{r4, r5}

0040bab8 <.LCFI3>:
  40bab8:	4770      	bx	lr
  40baba:	bf00      	nop
  40babc:	400e0600 	.word	0x400e0600
  40bac0:	67e6096a 	.word	0x67e6096a
  40bac4:	72f36e3c 	.word	0x72f36e3c
  40bac8:	3af54fa5 	.word	0x3af54fa5
  40bacc:	7f520e51 	.word	0x7f520e51
  40bad0:	8c68059b 	.word	0x8c68059b
  40bad4:	abd9831f 	.word	0xabd9831f
  40bad8:	19cde05b 	.word	0x19cde05b

Disassembly of section .text.__pic32c_data_initialization%85:

0040badc <__pic32c_data_initialization>:
  40badc:	4921      	ldr	r1, [pc, #132]	; (40bb64 <.LFE163+0x88>)
  40bade:	680b      	ldr	r3, [r1, #0]
  40bae0:	b430      	push	{r4, r5}
  40bae2:	b113      	cbz	r3, 40baea <__pic32c_data_initialization+0xe>
  40bae4:	4b20      	ldr	r3, [pc, #128]	; (40bb68 <.LFE163+0x8c>)
  40bae6:	681a      	ldr	r2, [r3, #0]
  40bae8:	bb72      	cbnz	r2, 40bb48 <__pic32c_data_initialization+0x6c>
  40baea:	4820      	ldr	r0, [pc, #128]	; (40bb6c <.LFE163+0x90>)
  40baec:	2500      	movs	r5, #0
  40baee:	6801      	ldr	r1, [r0, #0]
  40baf0:	b9c1      	cbnz	r1, 40bb24 <__pic32c_data_initialization+0x48>
  40baf2:	6842      	ldr	r2, [r0, #4]
  40baf4:	b332      	cbz	r2, 40bb44 <__pic32c_data_initialization+0x68>
  40baf6:	6883      	ldr	r3, [r0, #8]
  40baf8:	300c      	adds	r0, #12
  40bafa:	b1d3      	cbz	r3, 40bb32 <__pic32c_data_initialization+0x56>
  40bafc:	3901      	subs	r1, #1
  40bafe:	4603      	mov	r3, r0
  40bb00:	f813 4b01 	ldrb.w	r4, [r3], #1
  40bb04:	f801 4f01 	strb.w	r4, [r1, #1]!
  40bb08:	1a1c      	subs	r4, r3, r0
  40bb0a:	4294      	cmp	r4, r2
  40bb0c:	d3f8      	bcc.n	40bb00 <__pic32c_data_initialization+0x24>
  40bb0e:	f012 0303 	ands.w	r3, r2, #3
  40bb12:	bf18      	it	ne
  40bb14:	2301      	movne	r3, #1
  40bb16:	eb03 0292 	add.w	r2, r3, r2, lsr #2
  40bb1a:	eb00 0082 	add.w	r0, r0, r2, lsl #2
  40bb1e:	6801      	ldr	r1, [r0, #0]
  40bb20:	2900      	cmp	r1, #0
  40bb22:	d0e6      	beq.n	40baf2 <__pic32c_data_initialization+0x16>
  40bb24:	6884      	ldr	r4, [r0, #8]
  40bb26:	6842      	ldr	r2, [r0, #4]
  40bb28:	460b      	mov	r3, r1
  40bb2a:	300c      	adds	r0, #12
  40bb2c:	b93c      	cbnz	r4, 40bb3e <__pic32c_data_initialization+0x62>
  40bb2e:	2a00      	cmp	r2, #0
  40bb30:	d0dd      	beq.n	40baee <__pic32c_data_initialization+0x12>
  40bb32:	441a      	add	r2, r3
  40bb34:	f803 5b01 	strb.w	r5, [r3], #1
  40bb38:	4293      	cmp	r3, r2
  40bb3a:	d1fb      	bne.n	40bb34 <__pic32c_data_initialization+0x58>
  40bb3c:	e7d7      	b.n	40baee <__pic32c_data_initialization+0x12>
  40bb3e:	2a00      	cmp	r2, #0
  40bb40:	d1dc      	bne.n	40bafc <__pic32c_data_initialization+0x20>
  40bb42:	e7e4      	b.n	40bb0e <__pic32c_data_initialization+0x32>
  40bb44:	bc30      	pop	{r4, r5}
  40bb46:	4770      	bx	lr
  40bb48:	428b      	cmp	r3, r1
  40bb4a:	d2ce      	bcs.n	40baea <__pic32c_data_initialization+0xe>
  40bb4c:	43da      	mvns	r2, r3
  40bb4e:	440a      	add	r2, r1
  40bb50:	f022 0203 	bic.w	r2, r2, #3
  40bb54:	3204      	adds	r2, #4
  40bb56:	441a      	add	r2, r3
  40bb58:	2100      	movs	r1, #0
  40bb5a:	f843 1b04 	str.w	r1, [r3], #4
  40bb5e:	4293      	cmp	r3, r2
  40bb60:	d1fb      	bne.n	40bb5a <__pic32c_data_initialization+0x7e>
  40bb62:	e7c2      	b.n	40baea <__pic32c_data_initialization+0xe>
  40bb64:	20400488 	.word	0x20400488
  40bb68:	20400000 	.word	0x20400000
  40bb6c:	00405b00 	.word	0x00405b00

Disassembly of section .text._malloc_trim_r%86:

0040bb70 <_malloc_trim_r>:
  40bb70:	b5f8      	push	{r3, r4, r5, r6, r7, lr}

0040bb72 <.LCFI0>:
  40bb72:	4f21      	ldr	r7, [pc, #132]	; (40bbf8 <.LVL22+0x6>)
  40bb74:	460c      	mov	r4, r1
  40bb76:	4606      	mov	r6, r0
  40bb78:	f001 ff36 	bl	40d9e8 <__malloc_lock>

0040bb7c <.LVL1>:
  40bb7c:	68bb      	ldr	r3, [r7, #8]
  40bb7e:	685d      	ldr	r5, [r3, #4]
  40bb80:	f1c4 046f 	rsb	r4, r4, #111	; 0x6f

0040bb84 <.LVL2>:
  40bb84:	f025 0503 	bic.w	r5, r5, #3

0040bb88 <.LVL3>:
  40bb88:	442c      	add	r4, r5
  40bb8a:	f024 047f 	bic.w	r4, r4, #127	; 0x7f
  40bb8e:	3c80      	subs	r4, #128	; 0x80

0040bb90 <.LVL4>:
  40bb90:	2c7f      	cmp	r4, #127	; 0x7f
  40bb92:	dd07      	ble.n	40bba4 <.LVL6>
  40bb94:	2100      	movs	r1, #0
  40bb96:	4630      	mov	r0, r6
  40bb98:	f001 fc36 	bl	40d408 <.LFE149>

0040bb9c <.LVL5>:
  40bb9c:	68bb      	ldr	r3, [r7, #8]
  40bb9e:	442b      	add	r3, r5
  40bba0:	4298      	cmp	r0, r3
  40bba2:	d004      	beq.n	40bbae <.LVL8>

0040bba4 <.LVL6>:
  40bba4:	4630      	mov	r0, r6
  40bba6:	f001 ff21 	bl	40d9ec <__malloc_unlock>

0040bbaa <.LVL7>:
  40bbaa:	2000      	movs	r0, #0
  40bbac:	bdf8      	pop	{r3, r4, r5, r6, r7, pc}

0040bbae <.LVL8>:
  40bbae:	4261      	negs	r1, r4
  40bbb0:	4630      	mov	r0, r6

0040bbb2 <.LVL9>:
  40bbb2:	f001 fc29 	bl	40d408 <.LFE149>

0040bbb6 <.LVL10>:
  40bbb6:	3001      	adds	r0, #1

0040bbb8 <.LVL11>:
  40bbb8:	d00d      	beq.n	40bbd6 <.LVL16>
  40bbba:	4a10      	ldr	r2, [pc, #64]	; (40bbfc <.LVL22+0xa>)
  40bbbc:	68b9      	ldr	r1, [r7, #8]
  40bbbe:	6813      	ldr	r3, [r2, #0]
  40bbc0:	1b2d      	subs	r5, r5, r4

0040bbc2 <.LVL12>:
  40bbc2:	f045 0501 	orr.w	r5, r5, #1
  40bbc6:	4630      	mov	r0, r6

0040bbc8 <.LVL13>:
  40bbc8:	1b1c      	subs	r4, r3, r4

0040bbca <.LVL14>:
  40bbca:	604d      	str	r5, [r1, #4]
  40bbcc:	6014      	str	r4, [r2, #0]
  40bbce:	f001 ff0d 	bl	40d9ec <__malloc_unlock>

0040bbd2 <.LVL15>:
  40bbd2:	2001      	movs	r0, #1
  40bbd4:	bdf8      	pop	{r3, r4, r5, r6, r7, pc}

0040bbd6 <.LVL16>:
  40bbd6:	2100      	movs	r1, #0
  40bbd8:	4630      	mov	r0, r6

0040bbda <.LVL17>:
  40bbda:	f001 fc15 	bl	40d408 <.LFE149>

0040bbde <.LVL18>:
  40bbde:	68ba      	ldr	r2, [r7, #8]
  40bbe0:	1a83      	subs	r3, r0, r2

0040bbe2 <.LVL19>:
  40bbe2:	2b0f      	cmp	r3, #15
  40bbe4:	ddde      	ble.n	40bba4 <.LVL6>
  40bbe6:	4c06      	ldr	r4, [pc, #24]	; (40bc00 <.LVL22+0xe>)

0040bbe8 <.LVL20>:
  40bbe8:	4904      	ldr	r1, [pc, #16]	; (40bbfc <.LVL22+0xa>)
  40bbea:	6824      	ldr	r4, [r4, #0]
  40bbec:	f043 0301 	orr.w	r3, r3, #1

0040bbf0 <.LVL21>:
  40bbf0:	1b00      	subs	r0, r0, r4

0040bbf2 <.LVL22>:
  40bbf2:	6053      	str	r3, [r2, #4]
  40bbf4:	6008      	str	r0, [r1, #0]
  40bbf6:	e7d5      	b.n	40bba4 <.LVL6>
  40bbf8:	2040d0b0 	.word	0x2040d0b0
  40bbfc:	2040dc1c 	.word	0x2040dc1c
  40bc00:	2040dcf8 	.word	0x2040dcf8

Disassembly of section .text.wc_ShaFinal%87:

0040bc04 <wc_ShaFinal>:
       0, 0, 0, 0, 0, 0, 0, 0, 0, 0, 0, 0, 0, 0, 0, 0 };



int wc_ShaFinal(Sha* sha, byte* hash)
{
  40bc04:	b570      	push	{r4, r5, r6, lr}

0040bc06 <.LCFI5>:
  40bc06:	b082      	sub	sp, #8

0040bc08 <.LCFI6>:
  40bc08:	4604      	mov	r4, r0
  40bc0a:	460d      	mov	r5, r1
    uint8_t  padn;
    uint8_t  msg_len[8];

    /* Get the number of bits */
    /* create the message bit length block */
    uint64_t total_bits = sha->total_len << 3;
  40bc0c:	f8d0 2098 	ldr.w	r2, [r0, #152]	; 0x98
  40bc10:	f8d0 309c 	ldr.w	r3, [r0, #156]	; 0x9c
  40bc14:	00db      	lsls	r3, r3, #3
  40bc16:	ea43 7352 	orr.w	r3, r3, r2, lsr #29
  40bc1a:	00d1      	lsls	r1, r2, #3

0040bc1c <.LVL43>:
    msg_len[0] = (uint8_t)(total_bits >> 56);
  40bc1c:	0e18      	lsrs	r0, r3, #24

0040bc1e <.LVL44>:
  40bc1e:	f88d 0000 	strb.w	r0, [sp]
    msg_len[1] = (uint8_t)(total_bits >> 48);
  40bc22:	0c18      	lsrs	r0, r3, #16
  40bc24:	f88d 0001 	strb.w	r0, [sp, #1]
    msg_len[2] = (uint8_t)(total_bits >> 40);
  40bc28:	0a18      	lsrs	r0, r3, #8
  40bc2a:	f88d 0002 	strb.w	r0, [sp, #2]
    msg_len[3] = (uint8_t)(total_bits >> 32);
  40bc2e:	f88d 3003 	strb.w	r3, [sp, #3]
    msg_len[4] = (uint8_t)(total_bits >> 24);
  40bc32:	0e0b      	lsrs	r3, r1, #24

0040bc34 <.LVL45>:
  40bc34:	f88d 3004 	strb.w	r3, [sp, #4]
    msg_len[5] = (uint8_t)(total_bits >> 16);
  40bc38:	0c0b      	lsrs	r3, r1, #16
  40bc3a:	f88d 3005 	strb.w	r3, [sp, #5]
    msg_len[6] = (uint8_t)(total_bits >>  8);
  40bc3e:	0a0b      	lsrs	r3, r1, #8
  40bc40:	f88d 3006 	strb.w	r3, [sp, #6]
    msg_len[7] = (uint8_t)(total_bits);
  40bc44:	f88d 1007 	strb.w	r1, [sp, #7]

    last = sha->total_len & 0x3F;
  40bc48:	f002 023f 	and.w	r2, r2, #63	; 0x3f

0040bc4c <.LVL46>:
    padn = (last < SHA_PAD_SIZE) ? (SHA_PAD_SIZE - last) : (120 - last);
  40bc4c:	2a37      	cmp	r2, #55	; 0x37
  40bc4e:	bf94      	ite	ls
  40bc50:	f1c2 0238 	rsbls	r2, r2, #56	; 0x38

0040bc54 <.LVL47>:
  40bc54:	f1c2 0278 	rsbhi	r2, r2, #120	; 0x78
  40bc58:	b2d2      	uxtb	r2, r2

0040bc5a <.LVL48>:

    wc_ShaUpdate(sha, sha_padding, padn);
  40bc5a:	490d      	ldr	r1, [pc, #52]	; (40bc90 <.LVL53+0x2>)
  40bc5c:	4620      	mov	r0, r4
  40bc5e:	f000 f8e5 	bl	40be2c <.LFE1>

0040bc62 <.LVL50>:

    wc_ShaUpdate(sha, msg_len, 8);
  40bc62:	2208      	movs	r2, #8
  40bc64:	4669      	mov	r1, sp
  40bc66:	4620      	mov	r0, r4
  40bc68:	f000 f8e0 	bl	40be2c <.LFE1>

0040bc6c <.LVL51>:

    memcpy(hash, sha->digest, SHA_DIGEST_SIZE);
  40bc6c:	4623      	mov	r3, r4
  40bc6e:	f853 2f80 	ldr.w	r2, [r3, #128]!
  40bc72:	685e      	ldr	r6, [r3, #4]
  40bc74:	6898      	ldr	r0, [r3, #8]
  40bc76:	68d9      	ldr	r1, [r3, #12]
  40bc78:	602a      	str	r2, [r5, #0]
  40bc7a:	606e      	str	r6, [r5, #4]
  40bc7c:	60a8      	str	r0, [r5, #8]
  40bc7e:	60e9      	str	r1, [r5, #12]
  40bc80:	691a      	ldr	r2, [r3, #16]
  40bc82:	612a      	str	r2, [r5, #16]

    return wc_InitSha(sha);
  40bc84:	4620      	mov	r0, r4
  40bc86:	f000 fd27 	bl	40c6d8 <.LFE163>

0040bc8a <.LVL52>:
}
  40bc8a:	b002      	add	sp, #8

0040bc8c <.LCFI7>:
  40bc8c:	bd70      	pop	{r4, r5, r6, pc}

0040bc8e <.LVL53>:
  40bc8e:	bf00      	nop
  40bc90:	0040ce20 	.word	0x0040ce20

Disassembly of section .text.PIO_Initialize%88:

0040bc94 <PIO_Initialize>:
    See plib_pio.h for more details.
*/
void PIO_Initialize ( void )
{
    /* Selected System IO pins are configured as GPIO */
    MATRIX_REGS->CCFG_SYSIO|= 0x00000010;
  40bc94:	4a20      	ldr	r2, [pc, #128]	; (40bd18 <.LFE166+0x84>)
  40bc96:	f8d2 3114 	ldr.w	r3, [r2, #276]	; 0x114
  40bc9a:	f043 0310 	orr.w	r3, r3, #16
  40bc9e:	f8c2 3114 	str.w	r3, [r2, #276]	; 0x114
    /************************ PIO A Initialization ************************/
    /* PORTA PIO Disable and Peripheral Enable*/
    ((pio_registers_t*)PIO_PORT_A)->PIO_PDR = ~0xFFDFFFFF;
  40bca2:	f502 22b1 	add.w	r2, r2, #362496	; 0x58800
  40bca6:	f502 62c0 	add.w	r2, r2, #1536	; 0x600
  40bcaa:	f44f 1300 	mov.w	r3, #2097152	; 0x200000
  40bcae:	6053      	str	r3, [r2, #4]


    /* PORTA Pull Up Enable/Disable as per MHC selection */
    ((pio_registers_t*)PIO_PORT_A)->PIO_PUDR = ~0x00000800;
  40bcb0:	f46f 6300 	mvn.w	r3, #2048	; 0x800
  40bcb4:	6613      	str	r3, [r2, #96]	; 0x60
    ((pio_registers_t*)PIO_PORT_A)->PIO_PPDDR = 0x00000800;
  40bcb6:	f44f 6300 	mov.w	r3, #2048	; 0x800
  40bcba:	f8c2 3090 	str.w	r3, [r2, #144]	; 0x90
    ((pio_registers_t*)PIO_PORT_A)->PIO_PUER = 0x00000800;
  40bcbe:	6653      	str	r3, [r2, #100]	; 0x64

    /* PORTA Pull Down Enable/Disable as per MHC selection */
    ((pio_registers_t*)PIO_PORT_A)->PIO_PPDDR = ~0x00000000;
  40bcc0:	f04f 33ff 	mov.w	r3, #4294967295
  40bcc4:	f8c2 3090 	str.w	r3, [r2, #144]	; 0x90

    /* PORTA Output Write Enable */
    ((pio_registers_t*)PIO_PORT_A)->PIO_OWER = PIO_OWER_Msk;
  40bcc8:	f8c2 30a0 	str.w	r3, [r2, #160]	; 0xa0



    /************************ PIO B Initialization ************************/
    /* PORTB Peripheral Function Selection */
    ((pio_registers_t*)PIO_PORT_B)->PIO_ABCDSR[0]= 0x00000010;
  40bccc:	f502 7200 	add.w	r2, r2, #512	; 0x200
  40bcd0:	2110      	movs	r1, #16
  40bcd2:	6711      	str	r1, [r2, #112]	; 0x70
    ((pio_registers_t*)PIO_PORT_B)->PIO_ABCDSR[1]= 0x00000010;
  40bcd4:	6751      	str	r1, [r2, #116]	; 0x74
    /* PORTB PIO Disable and Peripheral Enable*/
    ((pio_registers_t*)PIO_PORT_B)->PIO_PDR = ~0xFFFFFFEF;
  40bcd6:	6051      	str	r1, [r2, #4]


    /* PORTB Pull Up Enable/Disable as per MHC selection */
    ((pio_registers_t*)PIO_PORT_B)->PIO_PUDR = ~0x00000000;
  40bcd8:	6613      	str	r3, [r2, #96]	; 0x60

    /* PORTB Pull Down Enable/Disable as per MHC selection */
    ((pio_registers_t*)PIO_PORT_B)->PIO_PPDDR = ~0x00000000;
  40bcda:	f8c2 3090 	str.w	r3, [r2, #144]	; 0x90

    /* PORTB Output Write Enable */
    ((pio_registers_t*)PIO_PORT_B)->PIO_OWER = PIO_OWER_Msk;
  40bcde:	f8c2 30a0 	str.w	r3, [r2, #160]	; 0xa0

    /************************ PIO C Initialization ************************/


    /* PORTC Pull Up Enable/Disable as per MHC selection */
    ((pio_registers_t*)PIO_PORT_C)->PIO_PUDR = ~0x00000000;
  40bce2:	f502 7200 	add.w	r2, r2, #512	; 0x200
  40bce6:	6613      	str	r3, [r2, #96]	; 0x60

    /* PORTC Pull Down Enable/Disable as per MHC selection */
    ((pio_registers_t*)PIO_PORT_C)->PIO_PPDDR = ~0x00000000;
  40bce8:	f8c2 3090 	str.w	r3, [r2, #144]	; 0x90

    /* PORTC Output Write Enable */
    ((pio_registers_t*)PIO_PORT_C)->PIO_OWER = PIO_OWER_Msk;
  40bcec:	f8c2 30a0 	str.w	r3, [r2, #160]	; 0xa0

    /* PORTC Initial state Low */
    ((pio_registers_t*)PIO_PORT_C)->PIO_CODR = 0x100;
  40bcf0:	f44f 7180 	mov.w	r1, #256	; 0x100
  40bcf4:	6351      	str	r1, [r2, #52]	; 0x34

    /* PORTC Output Direction Enable */
    ((pio_registers_t*)PIO_PORT_C)->PIO_OER = 0x00000100;
  40bcf6:	6111      	str	r1, [r2, #16]

    /************************ PIO D Initialization ************************/


    /* PORTD Pull Up Enable/Disable as per MHC selection */
    ((pio_registers_t*)PIO_PORT_D)->PIO_PUDR = ~0x00000000;
  40bcf8:	f502 7200 	add.w	r2, r2, #512	; 0x200
  40bcfc:	6613      	str	r3, [r2, #96]	; 0x60

    /* PORTD Pull Down Enable/Disable as per MHC selection */
    ((pio_registers_t*)PIO_PORT_D)->PIO_PPDDR = ~0x00000000;
  40bcfe:	f8c2 3090 	str.w	r3, [r2, #144]	; 0x90

    /* PORTD Output Write Enable */
    ((pio_registers_t*)PIO_PORT_D)->PIO_OWER = PIO_OWER_Msk;
  40bd02:	f8c2 30a0 	str.w	r3, [r2, #160]	; 0xa0

    /************************ PIO E Initialization ************************/


    /* PORTE Pull Up Enable/Disable as per MHC selection */
    ((pio_registers_t*)PIO_PORT_E)->PIO_PUDR = ~0x00000000;
  40bd06:	f502 7200 	add.w	r2, r2, #512	; 0x200
  40bd0a:	6613      	str	r3, [r2, #96]	; 0x60

    /* PORTE Pull Down Enable/Disable as per MHC selection */
    ((pio_registers_t*)PIO_PORT_E)->PIO_PPDDR = ~0x00000000;
  40bd0c:	f8c2 3090 	str.w	r3, [r2, #144]	; 0x90

    /* PORTE Output Write Enable */
    ((pio_registers_t*)PIO_PORT_E)->PIO_OWER = PIO_OWER_Msk;
  40bd10:	f8c2 30a0 	str.w	r3, [r2, #160]	; 0xa0
  40bd14:	4770      	bx	lr
  40bd16:	bf00      	nop
  40bd18:	40088000 	.word	0x40088000

Disassembly of section .text.wc_Md5Update%89:

0040bd1c <wc_Md5Update>:
    if (md5 == NULL || (data == NULL && len > 0)) {
  40bd1c:	b3a0      	cbz	r0, 40bd88 <.LCFI4>
{
  40bd1e:	e92d 43f8 	stmdb	sp!, {r3, r4, r5, r6, r7, r8, r9, lr}

0040bd22 <.LCFI3>:
  40bd22:	460f      	mov	r7, r1
  40bd24:	4615      	mov	r5, r2
  40bd26:	4606      	mov	r6, r0
    if (md5 == NULL || (data == NULL && len > 0)) {
  40bd28:	b901      	cbnz	r1, 40bd2c <.LCFI3+0xa>
  40bd2a:	bb82      	cbnz	r2, 40bd8e <.LCFI5>
    local = (byte*)md5->buffer;
  40bd2c:	f106 080c 	add.w	r8, r6, #12

0040bd30 <.LVL331>:
    if (md5->buffLen >= MD5_BLOCK_SIZE)
  40bd30:	6833      	ldr	r3, [r6, #0]
  40bd32:	2b3f      	cmp	r3, #63	; 0x3f
  40bd34:	d82f      	bhi.n	40bd96 <.LVL346>
    while (len) {
  40bd36:	b395      	cbz	r5, 40bd9e <.LVL348>

0040bd38 <.LBB141>:
            md5->buffLen = 0;
  40bd38:	f04f 0900 	mov.w	r9, #0
  40bd3c:	e002      	b.n	40bd44 <.LBB146>

0040bd3e <.LVL332>:
  40bd3e:	f8c6 9000 	str.w	r9, [r6]

0040bd42 <.LBE141>:
    while (len) {
  40bd42:	b1f5      	cbz	r5, 40bd82 <.LBE144>

0040bd44 <.LBB146>:
        word32 add = min(len, MD5_BLOCK_SIZE - md5->buffLen);
  40bd44:	6830      	ldr	r0, [r6, #0]

0040bd46 <.LVL333>:
  40bd46:	f1c0 0440 	rsb	r4, r0, #64	; 0x40

0040bd4a <.LBB142>:
        return a > b ? b : a;
  40bd4a:	42ac      	cmp	r4, r5
  40bd4c:	bf28      	it	cs
  40bd4e:	462c      	movcs	r4, r5

0040bd50 <.LBE142>:
        XMEMCPY(&local[md5->buffLen], data, add);
  40bd50:	4622      	mov	r2, r4
  40bd52:	4639      	mov	r1, r7
  40bd54:	4440      	add	r0, r8
  40bd56:	f7fd fec3 	bl	409ae0 <.LBE4>

0040bd5a <.LVL336>:
        md5->buffLen += add;
  40bd5a:	6833      	ldr	r3, [r6, #0]
  40bd5c:	4423      	add	r3, r4
  40bd5e:	6033      	str	r3, [r6, #0]
        data         += add;
  40bd60:	4427      	add	r7, r4
        len          -= add;
  40bd62:	1b2d      	subs	r5, r5, r4
        if (md5->buffLen == MD5_BLOCK_SIZE) {
  40bd64:	2b40      	cmp	r3, #64	; 0x40
  40bd66:	d1ec      	bne.n	40bd42 <.LBE141>
            XTRANSFORM(md5, local);
  40bd68:	4630      	mov	r0, r6
  40bd6a:	f7fb fbc7 	bl	4074fc <.LFE18>

0040bd6e <.LBB144>:
    word32 tmp = md5->loLen;
  40bd6e:	6872      	ldr	r2, [r6, #4]

0040bd70 <.LVL340>:
    if ((md5->loLen += len) < tmp) {
  40bd70:	f102 0340 	add.w	r3, r2, #64	; 0x40
  40bd74:	6073      	str	r3, [r6, #4]
  40bd76:	429a      	cmp	r2, r3
  40bd78:	d9e1      	bls.n	40bd3e <.LVL332>
        md5->hiLen++;                       /* carry low to high */
  40bd7a:	68b3      	ldr	r3, [r6, #8]
  40bd7c:	3301      	adds	r3, #1
  40bd7e:	60b3      	str	r3, [r6, #8]
  40bd80:	e7dd      	b.n	40bd3e <.LVL332>

0040bd82 <.LBE144>:
    return ret;
  40bd82:	2000      	movs	r0, #0
  40bd84:	e8bd 83f8 	ldmia.w	sp!, {r3, r4, r5, r6, r7, r8, r9, pc}

0040bd88 <.LCFI4>:
        return BAD_FUNC_ARG;
  40bd88:	f06f 00ac 	mvn.w	r0, #172	; 0xac

0040bd8c <.LVL343>:
  40bd8c:	4770      	bx	lr

0040bd8e <.LCFI5>:
  40bd8e:	f06f 00ac 	mvn.w	r0, #172	; 0xac

0040bd92 <.LVL345>:
  40bd92:	e8bd 83f8 	ldmia.w	sp!, {r3, r4, r5, r6, r7, r8, r9, pc}

0040bd96 <.LVL346>:
        return BUFFER_E;
  40bd96:	f06f 0083 	mvn.w	r0, #131	; 0x83

0040bd9a <.LVL347>:
  40bd9a:	e8bd 83f8 	ldmia.w	sp!, {r3, r4, r5, r6, r7, r8, r9, pc}

0040bd9e <.LVL348>:
    return ret;
  40bd9e:	2000      	movs	r0, #0

0040bda0 <.LVL349>:
}
  40bda0:	e8bd 83f8 	ldmia.w	sp!, {r3, r4, r5, r6, r7, r8, r9, pc}

Disassembly of section .text.__smakebuf_r%90:

0040bda4 <__smakebuf_r>:
  40bda4:	898a      	ldrh	r2, [r1, #12]
  40bda6:	0792      	lsls	r2, r2, #30
  40bda8:	460b      	mov	r3, r1
  40bdaa:	d506      	bpl.n	40bdba <.LVL8>
  40bdac:	f101 0243 	add.w	r2, r1, #67	; 0x43
  40bdb0:	2101      	movs	r1, #1

0040bdb2 <.LVL7>:
  40bdb2:	601a      	str	r2, [r3, #0]
  40bdb4:	611a      	str	r2, [r3, #16]
  40bdb6:	6159      	str	r1, [r3, #20]
  40bdb8:	4770      	bx	lr

0040bdba <.LVL8>:
  40bdba:	b5f0      	push	{r4, r5, r6, r7, lr}

0040bdbc <.LCFI7>:
  40bdbc:	b083      	sub	sp, #12

0040bdbe <.LCFI8>:
  40bdbe:	ab01      	add	r3, sp, #4
  40bdc0:	466a      	mov	r2, sp
  40bdc2:	460c      	mov	r4, r1
  40bdc4:	4605      	mov	r5, r0
  40bdc6:	f000 fdd1 	bl	40c96c <.LFE167>

0040bdca <.LVL9>:
  40bdca:	9900      	ldr	r1, [sp, #0]
  40bdcc:	4606      	mov	r6, r0

0040bdce <.LVL10>:
  40bdce:	4628      	mov	r0, r5

0040bdd0 <.LVL11>:
  40bdd0:	f7fb ff04 	bl	407bdc <.LFE14>

0040bdd4 <.LVL12>:
  40bdd4:	f9b4 300c 	ldrsh.w	r3, [r4, #12]
  40bdd8:	b1d0      	cbz	r0, 40be10 <.LVL17>
  40bdda:	9a01      	ldr	r2, [sp, #4]
  40bddc:	4f12      	ldr	r7, [pc, #72]	; (40be28 <.LVL17+0x18>)
  40bdde:	9900      	ldr	r1, [sp, #0]
  40bde0:	63ef      	str	r7, [r5, #60]	; 0x3c
  40bde2:	f043 0380 	orr.w	r3, r3, #128	; 0x80
  40bde6:	81a3      	strh	r3, [r4, #12]
  40bde8:	6020      	str	r0, [r4, #0]
  40bdea:	6120      	str	r0, [r4, #16]
  40bdec:	6161      	str	r1, [r4, #20]
  40bdee:	b91a      	cbnz	r2, 40bdf8 <.LCFI10>

0040bdf0 <.LVL13>:
  40bdf0:	4333      	orrs	r3, r6
  40bdf2:	81a3      	strh	r3, [r4, #12]
  40bdf4:	b003      	add	sp, #12

0040bdf6 <.LCFI9>:
  40bdf6:	bdf0      	pop	{r4, r5, r6, r7, pc}

0040bdf8 <.LCFI10>:
  40bdf8:	4628      	mov	r0, r5

0040bdfa <.LVL15>:
  40bdfa:	f9b4 100e 	ldrsh.w	r1, [r4, #14]
  40bdfe:	f001 fb39 	bl	40d474 <.LFE0>

0040be02 <.LVL16>:
  40be02:	f9b4 300c 	ldrsh.w	r3, [r4, #12]
  40be06:	2800      	cmp	r0, #0
  40be08:	d0f2      	beq.n	40bdf0 <.LVL13>
  40be0a:	f043 0301 	orr.w	r3, r3, #1
  40be0e:	e7ef      	b.n	40bdf0 <.LVL13>

0040be10 <.LVL17>:
  40be10:	059a      	lsls	r2, r3, #22
  40be12:	d4ef      	bmi.n	40bdf4 <.LVL13+0x4>
  40be14:	f104 0243 	add.w	r2, r4, #67	; 0x43
  40be18:	f043 0302 	orr.w	r3, r3, #2
  40be1c:	2101      	movs	r1, #1
  40be1e:	81a3      	strh	r3, [r4, #12]
  40be20:	6022      	str	r2, [r4, #0]
  40be22:	6122      	str	r2, [r4, #16]
  40be24:	6161      	str	r1, [r4, #20]
  40be26:	e7e5      	b.n	40bdf4 <.LVL13+0x4>
  40be28:	0040d9a5 	.word	0x0040d9a5

Disassembly of section .text.wc_ShaUpdate%91:

0040be2c <wc_ShaUpdate>:
{
  40be2c:	e92d 43f8 	stmdb	sp!, {r3, r4, r5, r6, r7, r8, r9, lr}

0040be30 <.LCFI4>:
  40be30:	4605      	mov	r5, r0
  40be32:	460f      	mov	r7, r1
  40be34:	4614      	mov	r4, r2

0040be36 <.LVL22>:
    left = sha->total_len & 0x3F;
  40be36:	e9d0 2326 	ldrd	r2, r3, [r0, #152]	; 0x98

0040be3a <.LVL23>:
  40be3a:	f002 063f 	and.w	r6, r2, #63	; 0x3f

0040be3e <.LVL24>:
    sha->total_len += len;
  40be3e:	1912      	adds	r2, r2, r4
  40be40:	f143 0300 	adc.w	r3, r3, #0
  40be44:	e9c0 2326 	strd	r2, r3, [r0, #152]	; 0x98
    if (left && len >= fill)
  40be48:	b11e      	cbz	r6, 40be52 <.LVL26>
  40be4a:	f1c6 0840 	rsb	r8, r6, #64	; 0x40

0040be4e <.LVL25>:
  40be4e:	45a0      	cmp	r8, r4
  40be50:	d907      	bls.n	40be62 <.LVL28>

0040be52 <.LVL26>:
    uint32_t result = 0;
  40be52:	f04f 0900 	mov.w	r9, #0

0040be56 <.LVL27>:
    if (len >= SHA_BLOCK_SIZE)
  40be56:	2c3f      	cmp	r4, #63	; 0x3f
  40be58:	d815      	bhi.n	40be86 <.LVL35>
    if( len > 0 )
  40be5a:	bb04      	cbnz	r4, 40be9e <.LVL40>
}
  40be5c:	4648      	mov	r0, r9
  40be5e:	e8bd 83f8 	ldmia.w	sp!, {r3, r4, r5, r6, r7, r8, r9, pc}

0040be62 <.LVL28>:
        memcpy((void *)(sha->buffer + left), data, fill);
  40be62:	f100 0940 	add.w	r9, r0, #64	; 0x40
  40be66:	4642      	mov	r2, r8
  40be68:	eb09 0006 	add.w	r0, r9, r6

0040be6c <.LVL29>:
  40be6c:	f7fd fe38 	bl	409ae0 <.LBE4>

0040be70 <.LVL30>:
        result = Sha1Process(sha, sha->buffer, SHA_BLOCK_SIZE);
  40be70:	2240      	movs	r2, #64	; 0x40
  40be72:	4649      	mov	r1, r9
  40be74:	4628      	mov	r0, r5
  40be76:	f7fe fff1 	bl	40ae5c <L0>

0040be7a <.LVL31>:
  40be7a:	4681      	mov	r9, r0

0040be7c <.LVL32>:
        data += fill;
  40be7c:	4447      	add	r7, r8
        len -= fill;
  40be7e:	eba4 0408 	sub.w	r4, r4, r8

0040be82 <.LVL34>:
        left = 0;
  40be82:	2600      	movs	r6, #0
  40be84:	e7e7      	b.n	40be56 <.LVL27>

0040be86 <.LVL35>:
        result = Sha1Process(sha, data, len & 0xFFFFFFC0);
  40be86:	f024 083f 	bic.w	r8, r4, #63	; 0x3f
  40be8a:	4642      	mov	r2, r8
  40be8c:	4639      	mov	r1, r7
  40be8e:	4628      	mov	r0, r5
  40be90:	f7fe ffe4 	bl	40ae5c <L0>

0040be94 <.LVL36>:
  40be94:	4681      	mov	r9, r0

0040be96 <.LVL37>:
        data += (len & 0xFFFFFFC0);
  40be96:	4447      	add	r7, r8
        len &= 0x3F;
  40be98:	f004 043f 	and.w	r4, r4, #63	; 0x3f
  40be9c:	e7dd      	b.n	40be5a <.LVL27+0x4>

0040be9e <.LVL40>:
        memcpy((void *)(sha->buffer + left), data, len);
  40be9e:	f105 0040 	add.w	r0, r5, #64	; 0x40
  40bea2:	4622      	mov	r2, r4
  40bea4:	4639      	mov	r1, r7
  40bea6:	4430      	add	r0, r6
  40bea8:	f7fd fe1a 	bl	409ae0 <.LBE4>

0040beac <.LVL41>:
  40beac:	e7d6      	b.n	40be5c <.LVL27+0x6>

Disassembly of section .text.wc_Sha256Update%92:

0040beae <wc_Sha256Update>:
{
  40beae:	e92d 43f8 	stmdb	sp!, {r3, r4, r5, r6, r7, r8, r9, lr}

0040beb2 <.LCFI4>:
  40beb2:	4605      	mov	r5, r0
  40beb4:	460f      	mov	r7, r1
  40beb6:	4614      	mov	r4, r2

0040beb8 <.LVL22>:
    left = sha256->total_len & 0x3F;
  40beb8:	e9d0 2328 	ldrd	r2, r3, [r0, #160]	; 0xa0

0040bebc <.LVL23>:
  40bebc:	f002 063f 	and.w	r6, r2, #63	; 0x3f

0040bec0 <.LVL24>:
    sha256->total_len += len;
  40bec0:	1912      	adds	r2, r2, r4
  40bec2:	f143 0300 	adc.w	r3, r3, #0
  40bec6:	e9c0 2328 	strd	r2, r3, [r0, #160]	; 0xa0
    if (left && len >= fill)
  40beca:	b11e      	cbz	r6, 40bed4 <.LVL26>
  40becc:	f1c6 0840 	rsb	r8, r6, #64	; 0x40

0040bed0 <.LVL25>:
  40bed0:	45a0      	cmp	r8, r4
  40bed2:	d907      	bls.n	40bee4 <.LVL28>

0040bed4 <.LVL26>:
    int result = 0;
  40bed4:	f04f 0900 	mov.w	r9, #0

0040bed8 <.LVL27>:
    if (len >= SHA256_BLOCK_SIZE)
  40bed8:	2c3f      	cmp	r4, #63	; 0x3f
  40beda:	d815      	bhi.n	40bf08 <.LVL35>
    if (len > 0)
  40bedc:	bb04      	cbnz	r4, 40bf20 <.LVL40>
}
  40bede:	4648      	mov	r0, r9
  40bee0:	e8bd 83f8 	ldmia.w	sp!, {r3, r4, r5, r6, r7, r8, r9, pc}

0040bee4 <.LVL28>:
        memcpy((void *)(sha256->buffer + left), data, fill);
  40bee4:	f100 0940 	add.w	r9, r0, #64	; 0x40
  40bee8:	4642      	mov	r2, r8
  40beea:	eb09 0006 	add.w	r0, r9, r6

0040beee <.LVL29>:
  40beee:	f7fd fdf7 	bl	409ae0 <.LBE4>

0040bef2 <.LVL30>:
        result = Sha256Process(sha256, sha256->buffer, SHA256_BLOCK_SIZE);
  40bef2:	2240      	movs	r2, #64	; 0x40
  40bef4:	4649      	mov	r1, r9
  40bef6:	4628      	mov	r0, r5
  40bef8:	f7fe fec8 	bl	40ac8c <.LFE167>

0040befc <.LVL31>:
  40befc:	4681      	mov	r9, r0

0040befe <.LVL32>:
        data += fill;
  40befe:	4447      	add	r7, r8
        len -= fill;
  40bf00:	eba4 0408 	sub.w	r4, r4, r8

0040bf04 <.LVL34>:
        left = 0;
  40bf04:	2600      	movs	r6, #0
  40bf06:	e7e7      	b.n	40bed8 <.LVL27>

0040bf08 <.LVL35>:
        result = Sha256Process(sha256, data, len & 0xFFFFFFC0);
  40bf08:	f024 083f 	bic.w	r8, r4, #63	; 0x3f
  40bf0c:	4642      	mov	r2, r8
  40bf0e:	4639      	mov	r1, r7
  40bf10:	4628      	mov	r0, r5
  40bf12:	f7fe febb 	bl	40ac8c <.LFE167>

0040bf16 <.LVL36>:
  40bf16:	4681      	mov	r9, r0

0040bf18 <.LVL37>:
        data += (len & 0xFFFFFFC0);
  40bf18:	4447      	add	r7, r8
        len &= 0x3F;
  40bf1a:	f004 043f 	and.w	r4, r4, #63	; 0x3f
  40bf1e:	e7dd      	b.n	40bedc <.LVL27+0x4>

0040bf20 <.LVL40>:
        memcpy((void *)(sha256->buffer + left), data, len);
  40bf20:	f105 0040 	add.w	r0, r5, #64	; 0x40
  40bf24:	4622      	mov	r2, r4
  40bf26:	4639      	mov	r1, r7
  40bf28:	4430      	add	r0, r6
  40bf2a:	f7fd fdd9 	bl	409ae0 <.LBE4>

0040bf2e <.LVL41>:
    return result;
  40bf2e:	e7d6      	b.n	40bede <.LVL27+0x6>

Disassembly of section .rodata.sha_padding%93:

0040bf30 <sha_padding>:
  40bf30:	0080 0000 0000 0000 0000 0000 0000 0000     ................
	...

Disassembly of section .text.timer_addToList%94:

0040bfb0 <timer_addToList>:
{
  40bfb0:	b538      	push	{r3, r4, r5, lr}

0040bfb2 <.LCFI3>:
  40bfb2:	4605      	mov	r5, r0
    SYS_TIME_TIMER_OBJ *tmr = counter->tmrActive;
  40bfb4:	4b1d      	ldr	r3, [pc, #116]	; (40c02c <.LVL43+0x4>)
  40bfb6:	6adc      	ldr	r4, [r3, #44]	; 0x2c

0040bfb8 <.LVL27>:
    time_resourceLock();
  40bfb8:	f001 fbca 	bl	40d750 <.LFE163>

0040bfbc <.LVL28>:
    while(tmr != NULL)
  40bfbc:	b324      	cbz	r4, 40c008 <.LVL40>
        timeTotal += tmr->timeRemaining;
  40bfbe:	6922      	ldr	r2, [r4, #16]

0040bfc0 <.LVL29>:
        if(timeTotal > timer->timeRemaining)
  40bfc0:	6928      	ldr	r0, [r5, #16]
  40bfc2:	4282      	cmp	r2, r0
  40bfc4:	d80c      	bhi.n	40bfe0 <.LVL35>
        tmr = tmr->tmrNext;
  40bfc6:	6a23      	ldr	r3, [r4, #32]

0040bfc8 <.LVL31>:
    while(tmr != NULL)
  40bfc8:	b1fb      	cbz	r3, 40c00a <.LVL41>
        timeTotal += tmr->timeRemaining;
  40bfca:	6919      	ldr	r1, [r3, #16]
  40bfcc:	440a      	add	r2, r1
        if(timeTotal > timer->timeRemaining)
  40bfce:	4282      	cmp	r2, r0
  40bfd0:	d807      	bhi.n	40bfe2 <.LVL36>
        tmr = tmr->tmrNext;
  40bfd2:	461c      	mov	r4, r3

0040bfd4 <.LVL33>:
  40bfd4:	e7f7      	b.n	40bfc6 <.LVL29+0x6>

0040bfd6 <.LVL34>:
            timer->timeRemaining -= timeTotal;
  40bfd6:	692b      	ldr	r3, [r5, #16]
  40bfd8:	1a9b      	subs	r3, r3, r2
  40bfda:	612b      	str	r3, [r5, #16]
  40bfdc:	2300      	movs	r3, #0
  40bfde:	e008      	b.n	40bff2 <.LVL38>

0040bfe0 <.LVL35>:
    SYS_TIME_TIMER_OBJ *tmr = counter->tmrActive;
  40bfe0:	4623      	mov	r3, r4

0040bfe2 <.LVL36>:
    if(tmr == counter->tmrActive)
  40bfe2:	4912      	ldr	r1, [pc, #72]	; (40c02c <.LVL43+0x4>)
  40bfe4:	6ac9      	ldr	r1, [r1, #44]	; 0x2c
  40bfe6:	4299      	cmp	r1, r3
  40bfe8:	d013      	beq.n	40c012 <.LVL41+0x8>
            timer->timeRemaining -= (timeTotal - tmr->timeRemaining);
  40bfea:	6919      	ldr	r1, [r3, #16]
  40bfec:	1a8a      	subs	r2, r1, r2

0040bfee <.LVL37>:
  40bfee:	4410      	add	r0, r2
  40bff0:	6128      	str	r0, [r5, #16]

0040bff2 <.LVL38>:
        timer->tmrNext = tmr;
  40bff2:	622b      	str	r3, [r5, #32]
        prevTmr->tmrNext = timer;
  40bff4:	6225      	str	r5, [r4, #32]
    if(timer->tmrNext != NULL)
  40bff6:	6a2b      	ldr	r3, [r5, #32]
  40bff8:	b11b      	cbz	r3, 40c002 <.LVL38+0x10>
        timer->tmrNext->timeRemaining -= timer->timeRemaining;
  40bffa:	691a      	ldr	r2, [r3, #16]
  40bffc:	6929      	ldr	r1, [r5, #16]
  40bffe:	1a52      	subs	r2, r2, r1
  40c000:	611a      	str	r2, [r3, #16]
    time_resourceUnlock();
  40c002:	f001 f94f 	bl	40d2a4 <.LFE1>

0040c006 <.LVL39>:
    return;
  40c006:	bd38      	pop	{r3, r4, r5, pc}

0040c008 <.LVL40>:
    uint32_t timeTotal = 0;
  40c008:	2200      	movs	r2, #0

0040c00a <.LVL41>:
    if(tmr == counter->tmrActive)
  40c00a:	4b08      	ldr	r3, [pc, #32]	; (40c02c <.LVL43+0x4>)
  40c00c:	6adb      	ldr	r3, [r3, #44]	; 0x2c
  40c00e:	2b00      	cmp	r3, #0
  40c010:	d1e1      	bne.n	40bfd6 <.LVL34>
        timer->tmrNext = prevTmr;
  40c012:	622c      	str	r4, [r5, #32]
        counter->tmrActive = timer;
  40c014:	4b05      	ldr	r3, [pc, #20]	; (40c02c <.LVL43+0x4>)
  40c016:	62dd      	str	r5, [r3, #44]	; 0x2c
        counter->tmrElapsed = false;
  40c018:	2200      	movs	r2, #0

0040c01a <.LVL42>:
  40c01a:	625a      	str	r2, [r3, #36]	; 0x24
        if(counter->interruptContext == false)
  40c01c:	6a9b      	ldr	r3, [r3, #40]	; 0x28
  40c01e:	2b00      	cmp	r3, #0
  40c020:	d1e9      	bne.n	40bff6 <.LVL38+0x4>
            timerHardwarePeriod_update(counter);
  40c022:	4802      	ldr	r0, [pc, #8]	; (40c02c <.LVL43+0x4>)
  40c024:	f000 ffd2 	bl	40cfcc <.LFE0>

0040c028 <.LVL43>:
  40c028:	e7e5      	b.n	40bff6 <.LVL38+0x4>
  40c02a:	bf00      	nop
  40c02c:	2040dbec 	.word	0x2040dbec

Disassembly of section .text.__multadd%95:

0040c030 <__multadd>:
  40c030:	b5f0      	push	{r4, r5, r6, r7, lr}

0040c032 <.LCFI1>:
  40c032:	690c      	ldr	r4, [r1, #16]
  40c034:	b083      	sub	sp, #12

0040c036 <.LCFI2>:
  40c036:	460d      	mov	r5, r1
  40c038:	4606      	mov	r6, r0

0040c03a <.LVL13>:
  40c03a:	f101 0e14 	add.w	lr, r1, #20

0040c03e <.LVL14>:
  40c03e:	2700      	movs	r7, #0

0040c040 <.LVL15>:
  40c040:	f8de 0000 	ldr.w	r0, [lr]

0040c044 <.LVL16>:
  40c044:	b281      	uxth	r1, r0
  40c046:	fb02 3301 	mla	r3, r2, r1, r3

0040c04a <.LVL17>:
  40c04a:	0c01      	lsrs	r1, r0, #16
  40c04c:	0c18      	lsrs	r0, r3, #16

0040c04e <.LVL18>:
  40c04e:	fb02 0101 	mla	r1, r2, r1, r0

0040c052 <.LVL19>:
  40c052:	b29b      	uxth	r3, r3

0040c054 <.LVL20>:
  40c054:	3701      	adds	r7, #1

0040c056 <.LVL21>:
  40c056:	eb03 4301 	add.w	r3, r3, r1, lsl #16
  40c05a:	42bc      	cmp	r4, r7
  40c05c:	f84e 3b04 	str.w	r3, [lr], #4

0040c060 <.LVL22>:
  40c060:	ea4f 4311 	mov.w	r3, r1, lsr #16

0040c064 <.LVL23>:
  40c064:	dcec      	bgt.n	40c040 <.LVL15>
  40c066:	b13b      	cbz	r3, 40c078 <.LVL26+0x4>
  40c068:	68aa      	ldr	r2, [r5, #8]

0040c06a <.LVL24>:
  40c06a:	4294      	cmp	r4, r2
  40c06c:	da07      	bge.n	40c07e <.LCFI4>

0040c06e <.LVL25>:
  40c06e:	eb05 0284 	add.w	r2, r5, r4, lsl #2
  40c072:	3401      	adds	r4, #1

0040c074 <.LVL26>:
  40c074:	6153      	str	r3, [r2, #20]
  40c076:	612c      	str	r4, [r5, #16]
  40c078:	4628      	mov	r0, r5
  40c07a:	b003      	add	sp, #12

0040c07c <.LCFI3>:
  40c07c:	bdf0      	pop	{r4, r5, r6, r7, pc}

0040c07e <.LCFI4>:
  40c07e:	6869      	ldr	r1, [r5, #4]

0040c080 <.LVL28>:
  40c080:	9301      	str	r3, [sp, #4]
  40c082:	3101      	adds	r1, #1
  40c084:	4630      	mov	r0, r6
  40c086:	f000 fd8f 	bl	40cba8 <.LFE2>

0040c08a <.LVL29>:
  40c08a:	692a      	ldr	r2, [r5, #16]
  40c08c:	3202      	adds	r2, #2
  40c08e:	f105 010c 	add.w	r1, r5, #12
  40c092:	4607      	mov	r7, r0

0040c094 <.LVL30>:
  40c094:	0092      	lsls	r2, r2, #2
  40c096:	300c      	adds	r0, #12

0040c098 <.LVL31>:
  40c098:	f7fd fd22 	bl	409ae0 <.LBE4>

0040c09c <.LBB12>:
  40c09c:	6cf2      	ldr	r2, [r6, #76]	; 0x4c
  40c09e:	6869      	ldr	r1, [r5, #4]

0040c0a0 <.LBE12>:
  40c0a0:	9b01      	ldr	r3, [sp, #4]

0040c0a2 <.LBB15>:
  40c0a2:	f852 0021 	ldr.w	r0, [r2, r1, lsl #2]
  40c0a6:	6028      	str	r0, [r5, #0]
  40c0a8:	f842 5021 	str.w	r5, [r2, r1, lsl #2]

0040c0ac <.LBE15>:
  40c0ac:	463d      	mov	r5, r7

0040c0ae <.LVL34>:
  40c0ae:	e7de      	b.n	40c06e <.LVL25>

Disassembly of section .text.__sprint_r.part.0%96:

0040c0b0 <__sprint_r.part.0>:
  40c0b0:	e92d 4ff8 	stmdb	sp!, {r3, r4, r5, r6, r7, r8, r9, sl, fp, lr}

0040c0b4 <.LCFI0>:
  40c0b4:	6e4b      	ldr	r3, [r1, #100]	; 0x64
  40c0b6:	049c      	lsls	r4, r3, #18
  40c0b8:	4693      	mov	fp, r2
  40c0ba:	d52f      	bpl.n	40c11c <.LVL16>

0040c0bc <.LBB33>:
  40c0bc:	6893      	ldr	r3, [r2, #8]
  40c0be:	6812      	ldr	r2, [r2, #0]

0040c0c0 <.LVL1>:
  40c0c0:	b353      	cbz	r3, 40c118 <.LBE34>
  40c0c2:	460e      	mov	r6, r1
  40c0c4:	4607      	mov	r7, r0
  40c0c6:	f102 0908 	add.w	r9, r2, #8

0040c0ca <.LVL2>:
  40c0ca:	e919 0420 	ldmdb	r9, {r5, sl}

0040c0ce <.LVL3>:
  40c0ce:	ea5f 089a 	movs.w	r8, sl, lsr #2

0040c0d2 <.LVL4>:
  40c0d2:	d017      	beq.n	40c104 <.LBB34>
  40c0d4:	3d04      	subs	r5, #4

0040c0d6 <.LVL5>:
  40c0d6:	2400      	movs	r4, #0
  40c0d8:	e001      	b.n	40c0de <.LVL6+0x4>

0040c0da <.LVL6>:
  40c0da:	45a0      	cmp	r8, r4
  40c0dc:	d010      	beq.n	40c100 <.LVL11>
  40c0de:	4632      	mov	r2, r6
  40c0e0:	f855 1f04 	ldr.w	r1, [r5, #4]!
  40c0e4:	4638      	mov	r0, r7
  40c0e6:	f001 f92f 	bl	40d348 <_fputwc_r>

0040c0ea <.LVL8>:
  40c0ea:	1c43      	adds	r3, r0, #1
  40c0ec:	f104 0401 	add.w	r4, r4, #1
  40c0f0:	d1f3      	bne.n	40c0da <.LVL6>

0040c0f2 <.L4>:
  40c0f2:	2300      	movs	r3, #0
  40c0f4:	f8cb 3008 	str.w	r3, [fp, #8]
  40c0f8:	f8cb 3004 	str.w	r3, [fp, #4]
  40c0fc:	e8bd 8ff8 	ldmia.w	sp!, {r3, r4, r5, r6, r7, r8, r9, sl, fp, pc}

0040c100 <.LVL11>:
  40c100:	f8db 3008 	ldr.w	r3, [fp, #8]

0040c104 <.LBB34>:
  40c104:	f02a 0a03 	bic.w	sl, sl, #3
  40c108:	eba3 030a 	sub.w	r3, r3, sl
  40c10c:	f8cb 3008 	str.w	r3, [fp, #8]

0040c110 <.LVL13>:
  40c110:	f109 0908 	add.w	r9, r9, #8

0040c114 <.LVL14>:
  40c114:	2b00      	cmp	r3, #0
  40c116:	d1d8      	bne.n	40c0ca <.LVL2>

0040c118 <.LBE34>:
  40c118:	2000      	movs	r0, #0
  40c11a:	e7ea      	b.n	40c0f2 <.L4>

0040c11c <.LVL16>:
  40c11c:	f7fc f9ac 	bl	408478 <.LBE16>

0040c120 <.LVL17>:
  40c120:	2300      	movs	r3, #0
  40c122:	f8cb 3008 	str.w	r3, [fp, #8]
  40c126:	f8cb 3004 	str.w	r3, [fp, #4]
  40c12a:	e8bd 8ff8 	ldmia.w	sp!, {r3, r4, r5, r6, r7, r8, r9, sl, fp, pc}

0040c12e <.LFE22>:
  40c12e:	bf00      	nop

Disassembly of section .text._fclose_r%97:

0040c130 <_fclose_r>:
  40c130:	b570      	push	{r4, r5, r6, lr}

0040c132 <.LCFI0>:
  40c132:	b139      	cbz	r1, 40c144 <.LVL3>

0040c134 <.LVL1>:
  40c134:	4605      	mov	r5, r0
  40c136:	460c      	mov	r4, r1

0040c138 <.LBB7>:
  40c138:	b108      	cbz	r0, 40c13e <.LBE7>
  40c13a:	6b83      	ldr	r3, [r0, #56]	; 0x38
  40c13c:	b383      	cbz	r3, 40c1a0 <.LBB11>

0040c13e <.LBE7>:
  40c13e:	f9b4 300c 	ldrsh.w	r3, [r4, #12]
  40c142:	b913      	cbnz	r3, 40c14a <.LBB8>

0040c144 <.LVL3>:
  40c144:	2600      	movs	r6, #0
  40c146:	4630      	mov	r0, r6
  40c148:	bd70      	pop	{r4, r5, r6, pc}

0040c14a <.LBB8>:
  40c14a:	4621      	mov	r1, r4
  40c14c:	4628      	mov	r0, r5
  40c14e:	f7fd fc27 	bl	4099a0 <.LFE173>

0040c152 <.LVL5>:
  40c152:	6ae3      	ldr	r3, [r4, #44]	; 0x2c
  40c154:	4606      	mov	r6, r0

0040c156 <.LVL6>:
  40c156:	b133      	cbz	r3, 40c166 <.LVL8+0x8>
  40c158:	69e1      	ldr	r1, [r4, #28]
  40c15a:	4628      	mov	r0, r5

0040c15c <.LVL7>:
  40c15c:	4798      	blx	r3

0040c15e <.LVL8>:
  40c15e:	2800      	cmp	r0, #0
  40c160:	bfb8      	it	lt
  40c162:	f04f 36ff 	movlt.w	r6, #4294967295
  40c166:	89a3      	ldrh	r3, [r4, #12]
  40c168:	061b      	lsls	r3, r3, #24
  40c16a:	d41c      	bmi.n	40c1a6 <.LBB12>
  40c16c:	6b21      	ldr	r1, [r4, #48]	; 0x30
  40c16e:	b141      	cbz	r1, 40c182 <.LVL10+0x4>
  40c170:	f104 0340 	add.w	r3, r4, #64	; 0x40
  40c174:	4299      	cmp	r1, r3
  40c176:	d002      	beq.n	40c17e <.LVL10>
  40c178:	4628      	mov	r0, r5
  40c17a:	f7fd fa81 	bl	409680 <.LFE174>

0040c17e <.LVL10>:
  40c17e:	2300      	movs	r3, #0
  40c180:	6323      	str	r3, [r4, #48]	; 0x30
  40c182:	6c61      	ldr	r1, [r4, #68]	; 0x44
  40c184:	b121      	cbz	r1, 40c190 <.LVL11+0x4>
  40c186:	4628      	mov	r0, r5
  40c188:	f7fd fa7a 	bl	409680 <.LFE174>

0040c18c <.LVL11>:
  40c18c:	2300      	movs	r3, #0
  40c18e:	6463      	str	r3, [r4, #68]	; 0x44
  40c190:	f001 fc30 	bl	40d9f4 <__sfp_lock_acquire>

0040c194 <.LVL12>:
  40c194:	2300      	movs	r3, #0
  40c196:	81a3      	strh	r3, [r4, #12]
  40c198:	f001 fc2e 	bl	40d9f8 <__sfp_lock_release>

0040c19c <.LBE8>:
  40c19c:	4630      	mov	r0, r6
  40c19e:	bd70      	pop	{r4, r5, r6, pc}

0040c1a0 <.LBB11>:
  40c1a0:	f001 fc06 	bl	40d9b0 <.LFE4>

0040c1a4 <.LVL15>:
  40c1a4:	e7cb      	b.n	40c13e <.LBE7>

0040c1a6 <.LBB12>:
  40c1a6:	6921      	ldr	r1, [r4, #16]
  40c1a8:	4628      	mov	r0, r5
  40c1aa:	f7fd fa69 	bl	409680 <.LFE174>

0040c1ae <.LVL17>:
  40c1ae:	e7dd      	b.n	40c16c <.LVL8+0xe>

Disassembly of section .text.frexp%98:

0040c1b0 <frexp>:
  40c1b0:	b430      	push	{r4, r5}

0040c1b2 <.LCFI0>:
  40c1b2:	b082      	sub	sp, #8

0040c1b4 <.LCFI1>:
  40c1b4:	ed8d 0b00 	vstr	d0, [sp]

0040c1b8 <.LBB2>:
  40c1b8:	9b01      	ldr	r3, [sp, #4]

0040c1ba <.LBE2>:
  40c1ba:	4c1b      	ldr	r4, [pc, #108]	; (40c228 <.LVL14+0x12>)

0040c1bc <.LBB3>:
  40c1bc:	9d00      	ldr	r5, [sp, #0]

0040c1be <.LBE3>:
  40c1be:	f023 4100 	bic.w	r1, r3, #2147483648	; 0x80000000

0040c1c2 <.LVL3>:
  40c1c2:	2200      	movs	r2, #0
  40c1c4:	42a1      	cmp	r1, r4
  40c1c6:	6002      	str	r2, [r0, #0]
  40c1c8:	dc17      	bgt.n	40c1fa <.LBE6+0x4>
  40c1ca:	ea55 0401 	orrs.w	r4, r5, r1
  40c1ce:	d014      	beq.n	40c1fa <.LBE6+0x4>
  40c1d0:	f5b1 1f80 	cmp.w	r1, #1048576	; 0x100000
  40c1d4:	db16      	blt.n	40c204 <.LCFI4>
  40c1d6:	4615      	mov	r5, r2

0040c1d8 <.LVL4>:
  40c1d8:	f023 44ff 	bic.w	r4, r3, #2139095040	; 0x7f800000
  40c1dc:	f424 04e0 	bic.w	r4, r4, #7340032	; 0x700000

0040c1e0 <.LBB4>:
  40c1e0:	e9dd 2300 	ldrd	r2, r3, [sp]
  40c1e4:	f044 537f 	orr.w	r3, r4, #1069547520	; 0x3fc00000

0040c1e8 <.LBE4>:
  40c1e8:	1509      	asrs	r1, r1, #20

0040c1ea <.LBB5>:
  40c1ea:	f443 1300 	orr.w	r3, r3, #2097152	; 0x200000

0040c1ee <.LBE5>:
  40c1ee:	f2a1 31fe 	subw	r1, r1, #1022	; 0x3fe

0040c1f2 <.LBB6>:
  40c1f2:	e9cd 2300 	strd	r2, r3, [sp]

0040c1f6 <.LBE6>:
  40c1f6:	4429      	add	r1, r5
  40c1f8:	6001      	str	r1, [r0, #0]
  40c1fa:	ed9d 0b00 	vldr	d0, [sp]
  40c1fe:	b002      	add	sp, #8

0040c200 <.LCFI2>:
  40c200:	bc30      	pop	{r4, r5}

0040c202 <.LCFI3>:
  40c202:	4770      	bx	lr

0040c204 <.LCFI4>:
  40c204:	ed9f 7b06 	vldr	d7, [pc, #24]	; 40c220 <.LVL14+0xa>
  40c208:	ee20 7b07 	vmul.f64	d7, d0, d7
  40c20c:	ed8d 7b00 	vstr	d7, [sp]

0040c210 <.LBB7>:
  40c210:	9b01      	ldr	r3, [sp, #4]

0040c212 <.LBE7>:
  40c212:	f06f 0535 	mvn.w	r5, #53	; 0x35

0040c216 <.LVL14>:
  40c216:	f023 4100 	bic.w	r1, r3, #2147483648	; 0x80000000
  40c21a:	e7dd      	b.n	40c1d8 <.LVL4>
  40c21c:	f3af 8000 	nop.w
  40c220:	00000000 	.word	0x00000000
  40c224:	43500000 	.word	0x43500000
  40c228:	7fefffff 	.word	0x7fefffff

Disassembly of section .text.CLK_Initialize%99:

0040c22c <CLK_Initialize>:
Clock Initialize
*********************************************************************************/
void CLK_Initialize( void )
{
    /* Set Flash Wait States and  Enable Code Loop Optimization */
    EFC_REGS->EEFC_FMR = EEFC_FMR_FWS(6) | EEFC_FMR_CLOE_Msk;
  40c22c:	4a17      	ldr	r2, [pc, #92]	; (40c28c <.LBE8+0xa>)
  40c22e:	4b18      	ldr	r3, [pc, #96]	; (40c290 <.LBE8+0xe>)
  40c230:	601a      	str	r2, [r3, #0]

0040c232 <.LBB6>:
    PMC_REGS->CKGR_PLLAR = CKGR_PLLAR_ONE_Msk | CKGR_PLLAR_PLLACOUNT(0x3f) |
  40c232:	4a18      	ldr	r2, [pc, #96]	; (40c294 <.LBE8+0x12>)
  40c234:	f5a3 63c0 	sub.w	r3, r3, #1536	; 0x600
  40c238:	629a      	str	r2, [r3, #40]	; 0x28
    while ( (PMC_REGS->PMC_SR & PMC_SR_LOCKA_Msk) != PMC_SR_LOCKA_Msk);
  40c23a:	461a      	mov	r2, r3
  40c23c:	6e93      	ldr	r3, [r2, #104]	; 0x68
  40c23e:	f013 0f02 	tst.w	r3, #2
  40c242:	d0fb      	beq.n	40c23c <.LBB6+0xa>

0040c244 <.LBB8>:
    PMC_REGS->PMC_MCKR = (PMC_REGS->PMC_MCKR & ~PMC_MCKR_PRES_Msk) | PMC_MCKR_PRES_CLK_1;
  40c244:	4a14      	ldr	r2, [pc, #80]	; (40c298 <.LBE8+0x16>)
  40c246:	6b13      	ldr	r3, [r2, #48]	; 0x30
  40c248:	f023 0370 	bic.w	r3, r3, #112	; 0x70
  40c24c:	6313      	str	r3, [r2, #48]	; 0x30
    while ((PMC_REGS->PMC_SR & PMC_SR_MCKRDY_Msk) != PMC_SR_MCKRDY_Msk);
  40c24e:	6e93      	ldr	r3, [r2, #104]	; 0x68
  40c250:	f013 0f08 	tst.w	r3, #8
  40c254:	d0fb      	beq.n	40c24e <.LBB8+0xa>
    PMC_REGS->PMC_MCKR = (PMC_REGS->PMC_MCKR & ~PMC_MCKR_MDIV_Msk) | PMC_MCKR_MDIV_PCK_DIV2;
  40c256:	4a10      	ldr	r2, [pc, #64]	; (40c298 <.LBE8+0x16>)
  40c258:	6b13      	ldr	r3, [r2, #48]	; 0x30
  40c25a:	f423 7340 	bic.w	r3, r3, #768	; 0x300
  40c25e:	f443 7380 	orr.w	r3, r3, #256	; 0x100
  40c262:	6313      	str	r3, [r2, #48]	; 0x30
    while ((PMC_REGS->PMC_SR & PMC_SR_MCKRDY_Msk) != PMC_SR_MCKRDY_Msk);
  40c264:	6e93      	ldr	r3, [r2, #104]	; 0x68
  40c266:	f013 0f08 	tst.w	r3, #8
  40c26a:	d0fb      	beq.n	40c264 <.LBB8+0x20>
    PMC_REGS->PMC_MCKR = (PMC_REGS->PMC_MCKR & ~PMC_MCKR_CSS_Msk) | PMC_MCKR_CSS_PLLA_CLK;
  40c26c:	4a0a      	ldr	r2, [pc, #40]	; (40c298 <.LBE8+0x16>)
  40c26e:	6b13      	ldr	r3, [r2, #48]	; 0x30
  40c270:	f023 0303 	bic.w	r3, r3, #3
  40c274:	f043 0302 	orr.w	r3, r3, #2
  40c278:	6313      	str	r3, [r2, #48]	; 0x30
    while ((PMC_REGS->PMC_SR & PMC_SR_MCKRDY_Msk) != PMC_SR_MCKRDY_Msk);
  40c27a:	6e93      	ldr	r3, [r2, #104]	; 0x68
  40c27c:	f013 0f08 	tst.w	r3, #8
  40c280:	d0fb      	beq.n	40c27a <.LBB8+0x36>

0040c282 <.LBE8>:




    /* Enable Peripheral Clock */
    PMC_REGS->PMC_PCER0=0x4035c00;
  40c282:	4a06      	ldr	r2, [pc, #24]	; (40c29c <.LBE8+0x1a>)
  40c284:	4b04      	ldr	r3, [pc, #16]	; (40c298 <.LBE8+0x16>)
  40c286:	611a      	str	r2, [r3, #16]
  40c288:	4770      	bx	lr
  40c28a:	bf00      	nop
  40c28c:	04000600 	.word	0x04000600
  40c290:	400e0c00 	.word	0x400e0c00
  40c294:	20183f01 	.word	0x20183f01
  40c298:	400e0600 	.word	0x400e0600
  40c29c:	04035c00 	.word	0x04035c00

Disassembly of section .text.APP_ShaRun_Feed%100:

0040c2a0 <APP_ShaRun_Feed>:
void APP_ShaRun_Feed(void) {
  40c2a0:	e92d 43f8 	stmdb	sp!, {r3, r4, r5, r6, r7, r8, r9, lr}

0040c2a4 <.LCFI6>:
  40c2a4:	af00      	add	r7, sp, #0

0040c2a6 <.LCFI7>:
  40c2a6:	f5ad 7d20 	sub.w	sp, sp, #640	; 0x280
  40c2aa:	f10d 057f 	add.w	r5, sp, #127	; 0x7f
  40c2ae:	f025 057f 	bic.w	r5, r5, #127	; 0x7f
    CRYPT_SHA_Initialize(&sha);
  40c2b2:	4628      	mov	r0, r5
  40c2b4:	f001 fab6 	bl	40d824 <.LFE142>

0040c2b8 <.LVL17>:
    memset(myBuf, 'a', sizeof (myBuf));
  40c2b8:	f44f 6280 	mov.w	r2, #1024	; 0x400
  40c2bc:	2161      	movs	r1, #97	; 0x61
  40c2be:	4813      	ldr	r0, [pc, #76]	; (40c30c <.LCFI8+0x4>)
  40c2c0:	f7ff fb74 	bl	40b9ac <.LFE166>

0040c2c4 <.LVL18>:
    CRYPT_SHA_DataSizeSet(&sha, 512 * 1024);
  40c2c4:	f44f 2100 	mov.w	r1, #524288	; 0x80000
  40c2c8:	4628      	mov	r0, r5
  40c2ca:	f001 fb35 	bl	40d938 <.LFE164>

0040c2ce <.LBB14>:
    return SYS_TIME_CounterGet();
  40c2ce:	f000 ff1f 	bl	40d110 <.LFE6>

0040c2d2 <.LVL20>:
  40c2d2:	4681      	mov	r9, r0

0040c2d4 <.LVL21>:
  40c2d4:	f44f 7400 	mov.w	r4, #512	; 0x200

0040c2d8 <.LBE14>:
        CRYPT_SHA_DataAdd(&sha, myBuf, sizeof (myBuf));
  40c2d8:	f8df 8030 	ldr.w	r8, [pc, #48]	; 40c30c <.LCFI8+0x4>
  40c2dc:	f44f 6680 	mov.w	r6, #1024	; 0x400

0040c2e0 <.LVL22>:
  40c2e0:	4632      	mov	r2, r6
  40c2e2:	4641      	mov	r1, r8
  40c2e4:	4628      	mov	r0, r5
  40c2e6:	f001 f965 	bl	40d5b4 <.LFE166>

0040c2ea <.LVL23>:
    for (i = 0; i < 512; i++)
  40c2ea:	3c01      	subs	r4, #1

0040c2ec <.LVL24>:
  40c2ec:	d1f8      	bne.n	40c2e0 <.LVL22>
    CRYPT_SHA_Finalize(&sha, appData.sha1_feed_result);
  40c2ee:	4c08      	ldr	r4, [pc, #32]	; (40c310 <.LCFI8+0x8>)

0040c2f0 <.LVL25>:
  40c2f0:	f104 01e0 	add.w	r1, r4, #224	; 0xe0
  40c2f4:	4628      	mov	r0, r5
  40c2f6:	f001 f969 	bl	40d5cc <.LFE169>

0040c2fa <.LBB16>:
    return SYS_TIME_CounterGet();
  40c2fa:	f000 ff09 	bl	40d110 <.LFE6>

0040c2fe <.LBE16>:
    appData.sha1_feed_timing = hashStop - hashStart;
  40c2fe:	eba0 0009 	sub.w	r0, r0, r9
  40c302:	f8c4 00f4 	str.w	r0, [r4, #244]	; 0xf4
}
  40c306:	46bd      	mov	sp, r7

0040c308 <.LCFI8>:
  40c308:	e8bd 83f8 	ldmia.w	sp!, {r3, r4, r5, r6, r7, r8, r9, pc}
  40c30c:	20400040 	.word	0x20400040
  40c310:	2040d6b8 	.word	0x2040d6b8

Disassembly of section .text.APP_Sha256Run_Feed%101:

0040c314 <APP_Sha256Run_Feed>:
void APP_Sha256Run_Feed(void) {
  40c314:	e92d 43f8 	stmdb	sp!, {r3, r4, r5, r6, r7, r8, r9, lr}

0040c318 <.LCFI9>:
  40c318:	af00      	add	r7, sp, #0

0040c31a <.LCFI10>:
  40c31a:	f5ad 7d20 	sub.w	sp, sp, #640	; 0x280
  40c31e:	f10d 057f 	add.w	r5, sp, #127	; 0x7f
  40c322:	f025 057f 	bic.w	r5, r5, #127	; 0x7f
    CRYPT_SHA256_Initialize(&sha256);
  40c326:	4628      	mov	r0, r5
  40c328:	f001 fa84 	bl	40d834 <.LFE167>

0040c32c <.LVL28>:
    memset(myBuf, 'a', sizeof (myBuf));
  40c32c:	f44f 6280 	mov.w	r2, #1024	; 0x400
  40c330:	2161      	movs	r1, #97	; 0x61
  40c332:	4813      	ldr	r0, [pc, #76]	; (40c380 <.LCFI11+0x4>)
  40c334:	f7ff fb3a 	bl	40b9ac <.LFE166>

0040c338 <.LVL29>:
    CRYPT_SHA256_DataSizeSet(&sha256, 512 * 1024);
  40c338:	f44f 2100 	mov.w	r1, #524288	; 0x80000
  40c33c:	4628      	mov	r0, r5
  40c33e:	f001 fb01 	bl	40d944 <.LFE168>

0040c342 <.LBB22>:
    return SYS_TIME_CounterGet();
  40c342:	f000 fee5 	bl	40d110 <.LFE6>

0040c346 <.LVL31>:
  40c346:	4681      	mov	r9, r0

0040c348 <.LVL32>:
  40c348:	f44f 7400 	mov.w	r4, #512	; 0x200

0040c34c <.LBE22>:
        CRYPT_SHA256_DataAdd(&sha256, myBuf, sizeof (myBuf));
  40c34c:	f8df 8030 	ldr.w	r8, [pc, #48]	; 40c380 <.LCFI11+0x4>
  40c350:	f44f 6680 	mov.w	r6, #1024	; 0x400

0040c354 <.LVL33>:
  40c354:	4632      	mov	r2, r6
  40c356:	4641      	mov	r1, r8
  40c358:	4628      	mov	r0, r5
  40c35a:	f001 f943 	bl	40d5e4 <.LFE170>

0040c35e <.LVL34>:
    for (i = 0; i < 512; i++) {
  40c35e:	3c01      	subs	r4, #1

0040c360 <.LVL35>:
  40c360:	d1f8      	bne.n	40c354 <.LVL33>
    CRYPT_SHA256_Finalize(&sha256, appData.sha256_feed_result);
  40c362:	4c08      	ldr	r4, [pc, #32]	; (40c384 <.LCFI11+0x8>)

0040c364 <.LVL36>:
  40c364:	f104 01f8 	add.w	r1, r4, #248	; 0xf8
  40c368:	4628      	mov	r0, r5
  40c36a:	f001 f947 	bl	40d5fc <.LFE173>

0040c36e <.LBB24>:
    return SYS_TIME_CounterGet();
  40c36e:	f000 fecf 	bl	40d110 <.LFE6>

0040c372 <.LBE24>:
    appData.sha256_feed_timing = hashStop - hashStart;
  40c372:	eba0 0009 	sub.w	r0, r0, r9
  40c376:	f8c4 0118 	str.w	r0, [r4, #280]	; 0x118
}
  40c37a:	46bd      	mov	sp, r7

0040c37c <.LCFI11>:
  40c37c:	e8bd 83f8 	ldmia.w	sp!, {r3, r4, r5, r6, r7, r8, r9, pc}
  40c380:	20400040 	.word	0x20400040
  40c384:	2040d6b8 	.word	0x2040d6b8

Disassembly of section .text.timer_removeFromList%102:

0040c388 <timer_removeFromList>:
{
  40c388:	b538      	push	{r3, r4, r5, lr}

0040c38a <.LCFI2>:
  40c38a:	4604      	mov	r4, r0
    SYS_TIME_TIMER_OBJ *tmr = counter->tmrActive;
  40c38c:	4b1a      	ldr	r3, [pc, #104]	; (40c3f8 <.LVL24+0x12>)
  40c38e:	6add      	ldr	r5, [r3, #44]	; 0x2c

0040c390 <.LVL14>:
    time_resourceLock();
  40c390:	f001 f9de 	bl	40d750 <.LFE163>

0040c394 <.LVL15>:
        if(tmr == timer)
  40c394:	42a5      	cmp	r5, r4
  40c396:	d010      	beq.n	40c3ba <.LVL19>
        else if(tmr->tmrNext == timer)
  40c398:	6a2a      	ldr	r2, [r5, #32]
  40c39a:	4294      	cmp	r4, r2
  40c39c:	d01f      	beq.n	40c3de <.LVL22>

0040c39e <.LVL16>:
        tmr->timeRemaining = tmr->time;
  40c39e:	68d3      	ldr	r3, [r2, #12]
  40c3a0:	6113      	str	r3, [r2, #16]
    }while(tmr->tmrNext != NULL);
  40c3a2:	6a13      	ldr	r3, [r2, #32]
  40c3a4:	b1c3      	cbz	r3, 40c3d8 <.LVL20>
        else if(tmr->tmrNext == timer)
  40c3a6:	6a13      	ldr	r3, [r2, #32]
  40c3a8:	429c      	cmp	r4, r3
  40c3aa:	d019      	beq.n	40c3e0 <.LVL23>

0040c3ac <.LVL17>:
        tmr->timeRemaining = tmr->time;
  40c3ac:	68da      	ldr	r2, [r3, #12]
  40c3ae:	611a      	str	r2, [r3, #16]
        else if(tmr->tmrNext == timer)
  40c3b0:	461a      	mov	r2, r3
    }while(tmr->tmrNext != NULL);
  40c3b2:	6a1b      	ldr	r3, [r3, #32]

0040c3b4 <.LVL18>:
  40c3b4:	2b00      	cmp	r3, #0
  40c3b6:	d1f6      	bne.n	40c3a6 <.LVL16+0x8>
  40c3b8:	e00e      	b.n	40c3d8 <.LVL20>

0040c3ba <.LVL19>:
            if(counter->tmrElapsed == false)
  40c3ba:	4b0f      	ldr	r3, [pc, #60]	; (40c3f8 <.LVL24+0x12>)
  40c3bc:	6a5b      	ldr	r3, [r3, #36]	; 0x24
  40c3be:	b923      	cbnz	r3, 40c3ca <.LVL19+0x10>
                tmr->tmrNext->timeRemaining += tmr->timeRemaining;;
  40c3c0:	6a2a      	ldr	r2, [r5, #32]
  40c3c2:	6913      	ldr	r3, [r2, #16]
  40c3c4:	6929      	ldr	r1, [r5, #16]
  40c3c6:	440b      	add	r3, r1
  40c3c8:	6113      	str	r3, [r2, #16]
            counter->tmrActive = tmr->tmrNext;
  40c3ca:	6a2a      	ldr	r2, [r5, #32]
  40c3cc:	4b0a      	ldr	r3, [pc, #40]	; (40c3f8 <.LVL24+0x12>)
  40c3ce:	62da      	str	r2, [r3, #44]	; 0x2c
            timer->timeRemaining = timer->time;
  40c3d0:	68eb      	ldr	r3, [r5, #12]
  40c3d2:	612b      	str	r3, [r5, #16]
            timer->tmrNext = NULL;
  40c3d4:	2300      	movs	r3, #0
  40c3d6:	622b      	str	r3, [r5, #32]

0040c3d8 <.LVL20>:
    time_resourceUnlock();
  40c3d8:	f000 ff64 	bl	40d2a4 <.LFE1>

0040c3dc <.LVL21>:
  40c3dc:	bd38      	pop	{r3, r4, r5, pc}

0040c3de <.LVL22>:
    SYS_TIME_TIMER_OBJ *tmr = counter->tmrActive;
  40c3de:	462a      	mov	r2, r5

0040c3e0 <.LVL23>:
            tmr->tmrNext = timer->tmrNext;
  40c3e0:	6a23      	ldr	r3, [r4, #32]
  40c3e2:	6213      	str	r3, [r2, #32]
            tmr->tmrNext->timeRemaining += timer->timeRemaining;
  40c3e4:	691a      	ldr	r2, [r3, #16]

0040c3e6 <.LVL24>:
  40c3e6:	6921      	ldr	r1, [r4, #16]
  40c3e8:	440a      	add	r2, r1
  40c3ea:	611a      	str	r2, [r3, #16]
            timer->timeRemaining = timer->time;
  40c3ec:	68e3      	ldr	r3, [r4, #12]
  40c3ee:	6123      	str	r3, [r4, #16]
            timer->tmrNext = NULL;
  40c3f0:	2300      	movs	r3, #0
  40c3f2:	6223      	str	r3, [r4, #32]
            break;
  40c3f4:	e7f0      	b.n	40c3d8 <.LVL20>
  40c3f6:	bf00      	nop
  40c3f8:	2040dbec 	.word	0x2040dbec

Disassembly of section .text.SYS_TIME_Initialize%103:

0040c3fc <SYS_TIME_Initialize>:
// Section: System Interface Functions
// *****************************************************************************
// *****************************************************************************
SYS_MODULE_OBJ SYS_TIME_Initialize( const SYS_MODULE_INDEX index, const SYS_MODULE_INIT * const init )
{
    if(init == 0 || index != SYS_TIME_INDEX_0)
  40c3fc:	2900      	cmp	r1, #0
  40c3fe:	d02b      	beq.n	40c458 <.LCFI6>
{
  40c400:	b538      	push	{r3, r4, r5, lr}

0040c402 <.LCFI5>:
  40c402:	460b      	mov	r3, r1
    if(init == 0 || index != SYS_TIME_INDEX_0)
  40c404:	b110      	cbz	r0, 40c40c <.LBB24>
    {
        return SYS_MODULE_OBJ_INVALID;
  40c406:	f04f 30ff 	mov.w	r0, #4294967295

0040c40a <.LVL69>:
    memset(timers, 0, sizeof(timers));

    gSystemCounterObj.status = SYS_STATUS_READY;

    return (SYS_MODULE_OBJ)&gSystemCounterObj;
}
  40c40a:	bd38      	pop	{r3, r4, r5, pc}

0040c40c <.LBB24>:
    counterObj->timePlib = initData->timePlib;
  40c40c:	680a      	ldr	r2, [r1, #0]
  40c40e:	4c14      	ldr	r4, [pc, #80]	; (40c460 <.LVL79+0x4>)
  40c410:	6062      	str	r2, [r4, #4]
    counterObj->timeFrequency = initData->timeFrequency;
  40c412:	6889      	ldr	r1, [r1, #8]

0040c414 <.LVL71>:
  40c414:	60e1      	str	r1, [r4, #12]
    counterObj->timeInterrupt = initData->timeInterrupt;
  40c416:	f993 3004 	ldrsb.w	r3, [r3, #4]

0040c41a <.LVL72>:
  40c41a:	7223      	strb	r3, [r4, #8]
    counterObj->timePeriodPrevious = HW_COUNTER_MAX;
  40c41c:	f64f 73ff 	movw	r3, #65535	; 0xffff
  40c420:	6123      	str	r3, [r4, #16]
    counterObj->timePeriod = HW_COUNTER_MAX;
  40c422:	6163      	str	r3, [r4, #20]
    counterObj->counter = 0;
  40c424:	2500      	movs	r5, #0
  40c426:	61a5      	str	r5, [r4, #24]
    counterObj->tmrActive = NULL;
  40c428:	62e5      	str	r5, [r4, #44]	; 0x2c
    counterObj->tmrElapsed = false;
  40c42a:	6265      	str	r5, [r4, #36]	; 0x24
    counterObj->interruptContext = false;
  40c42c:	62a5      	str	r5, [r4, #40]	; 0x28
    counterObj->timePlib->timerCallbackSet(TIME_PLIB_Callback, 0);
  40c42e:	6813      	ldr	r3, [r2, #0]
  40c430:	4629      	mov	r1, r5
  40c432:	480c      	ldr	r0, [pc, #48]	; (40c464 <.LVL79+0x8>)

0040c434 <.LVL73>:
  40c434:	4798      	blx	r3

0040c436 <.LVL74>:
    counterObj->timePlib->timerPeriodSet(counterObj->timePeriod);
  40c436:	6863      	ldr	r3, [r4, #4]
  40c438:	685b      	ldr	r3, [r3, #4]
  40c43a:	6960      	ldr	r0, [r4, #20]
  40c43c:	4798      	blx	r3
    counterObj->timePlib->timerStart();
  40c43e:	6863      	ldr	r3, [r4, #4]
  40c440:	689b      	ldr	r3, [r3, #8]
  40c442:	4798      	blx	r3

0040c444 <.LBE24>:
    memset(timers, 0, sizeof(timers));
  40c444:	f44f 72c8 	mov.w	r2, #400	; 0x190
  40c448:	4629      	mov	r1, r5
  40c44a:	4807      	ldr	r0, [pc, #28]	; (40c468 <.LVL79+0xc>)
  40c44c:	f7ff faae 	bl	40b9ac <.LFE166>

0040c450 <.LVL77>:
    gSystemCounterObj.status = SYS_STATUS_READY;
  40c450:	2302      	movs	r3, #2
  40c452:	7023      	strb	r3, [r4, #0]
    return (SYS_MODULE_OBJ)&gSystemCounterObj;
  40c454:	4620      	mov	r0, r4
  40c456:	bd38      	pop	{r3, r4, r5, pc}

0040c458 <.LCFI6>:
        return SYS_MODULE_OBJ_INVALID;
  40c458:	f04f 30ff 	mov.w	r0, #4294967295

0040c45c <.LVL79>:
  40c45c:	4770      	bx	lr
  40c45e:	bf00      	nop
  40c460:	2040dbec 	.word	0x2040dbec
  40c464:	0040af25 	.word	0x0040af25
  40c468:	2040d850 	.word	0x2040d850

Disassembly of section .text%104:

0040c46c <__do_global_dtors_aux>:
  40c46c:	b510      	push	{r4, lr}
  40c46e:	4c05      	ldr	r4, [pc, #20]	; (40c484 <.LFE152+0x18>)
  40c470:	7823      	ldrb	r3, [r4, #0]
  40c472:	b933      	cbnz	r3, 40c482 <__do_global_dtors_aux+0x16>
  40c474:	4b04      	ldr	r3, [pc, #16]	; (40c488 <.LFE152+0x1c>)
  40c476:	b113      	cbz	r3, 40c47e <__do_global_dtors_aux+0x12>
  40c478:	4804      	ldr	r0, [pc, #16]	; (40c48c <.LFE152+0x20>)
  40c47a:	f3af 8000 	nop.w
  40c47e:	2301      	movs	r3, #1
  40c480:	7023      	strb	r3, [r4, #0]
  40c482:	bd10      	pop	{r4, pc}
  40c484:	2040dc64 	.word	0x2040dc64
	...

0040c490 <frame_dummy>:
  40c490:	4b0c      	ldr	r3, [pc, #48]	; (40c4c4 <frame_dummy+0x34>)
  40c492:	b143      	cbz	r3, 40c4a6 <frame_dummy+0x16>
  40c494:	480c      	ldr	r0, [pc, #48]	; (40c4c8 <frame_dummy+0x38>)
  40c496:	490d      	ldr	r1, [pc, #52]	; (40c4cc <frame_dummy+0x3c>)
  40c498:	b510      	push	{r4, lr}
  40c49a:	f3af 8000 	nop.w
  40c49e:	480c      	ldr	r0, [pc, #48]	; (40c4d0 <frame_dummy+0x40>)
  40c4a0:	6803      	ldr	r3, [r0, #0]
  40c4a2:	b923      	cbnz	r3, 40c4ae <frame_dummy+0x1e>
  40c4a4:	bd10      	pop	{r4, pc}
  40c4a6:	480a      	ldr	r0, [pc, #40]	; (40c4d0 <frame_dummy+0x40>)
  40c4a8:	6803      	ldr	r3, [r0, #0]
  40c4aa:	b933      	cbnz	r3, 40c4ba <frame_dummy+0x2a>
  40c4ac:	4770      	bx	lr
  40c4ae:	4b09      	ldr	r3, [pc, #36]	; (40c4d4 <frame_dummy+0x44>)
  40c4b0:	2b00      	cmp	r3, #0
  40c4b2:	d0f7      	beq.n	40c4a4 <frame_dummy+0x14>
  40c4b4:	e8bd 4010 	ldmia.w	sp!, {r4, lr}
  40c4b8:	4718      	bx	r3
  40c4ba:	4b06      	ldr	r3, [pc, #24]	; (40c4d4 <frame_dummy+0x44>)
  40c4bc:	2b00      	cmp	r3, #0
  40c4be:	d0f5      	beq.n	40c4ac <frame_dummy+0x1c>
  40c4c0:	4718      	bx	r3
  40c4c2:	bf00      	nop
	...
  40c4cc:	2040dc68 	.word	0x2040dc68
	...

Disassembly of section .text.__sbprintf%105:

0040c4d8 <__sbprintf>:
  40c4d8:	b5f0      	push	{r4, r5, r6, r7, lr}

0040c4da <.LCFI11>:
  40c4da:	460c      	mov	r4, r1
  40c4dc:	f2ad 4d6c 	subw	sp, sp, #1132	; 0x46c

0040c4e0 <.LCFI12>:
  40c4e0:	8989      	ldrh	r1, [r1, #12]

0040c4e2 <.LVL704>:
  40c4e2:	6e66      	ldr	r6, [r4, #100]	; 0x64
  40c4e4:	89e5      	ldrh	r5, [r4, #14]
  40c4e6:	9619      	str	r6, [sp, #100]	; 0x64
  40c4e8:	f021 0102 	bic.w	r1, r1, #2
  40c4ec:	6a66      	ldr	r6, [r4, #36]	; 0x24
  40c4ee:	f8ad 500e 	strh.w	r5, [sp, #14]
  40c4f2:	2500      	movs	r5, #0
  40c4f4:	69e7      	ldr	r7, [r4, #28]
  40c4f6:	f8ad 100c 	strh.w	r1, [sp, #12]
  40c4fa:	9609      	str	r6, [sp, #36]	; 0x24
  40c4fc:	9506      	str	r5, [sp, #24]
  40c4fe:	ae1a      	add	r6, sp, #104	; 0x68
  40c500:	f44f 6580 	mov.w	r5, #1024	; 0x400
  40c504:	4669      	mov	r1, sp
  40c506:	9600      	str	r6, [sp, #0]
  40c508:	9604      	str	r6, [sp, #16]
  40c50a:	9502      	str	r5, [sp, #8]
  40c50c:	9505      	str	r5, [sp, #20]
  40c50e:	9707      	str	r7, [sp, #28]
  40c510:	4606      	mov	r6, r0
  40c512:	f7f6 f9e9 	bl	4028e8 <_vfprintf_r>

0040c516 <.LVL705>:
  40c516:	1e05      	subs	r5, r0, #0
  40c518:	db07      	blt.n	40c52a <.LVL707+0x8>
  40c51a:	4630      	mov	r0, r6

0040c51c <.LVL706>:
  40c51c:	4669      	mov	r1, sp
  40c51e:	f000 fe53 	bl	40d1c8 <_fflush_r>

0040c522 <.LVL707>:
  40c522:	2800      	cmp	r0, #0
  40c524:	bf18      	it	ne
  40c526:	f04f 35ff 	movne.w	r5, #4294967295
  40c52a:	f8bd 300c 	ldrh.w	r3, [sp, #12]
  40c52e:	065b      	lsls	r3, r3, #25
  40c530:	d503      	bpl.n	40c53a <.LVL707+0x18>
  40c532:	89a3      	ldrh	r3, [r4, #12]
  40c534:	f043 0340 	orr.w	r3, r3, #64	; 0x40
  40c538:	81a3      	strh	r3, [r4, #12]
  40c53a:	4628      	mov	r0, r5
  40c53c:	f20d 4d6c 	addw	sp, sp, #1132	; 0x46c

0040c540 <.LCFI13>:
  40c540:	bdf0      	pop	{r4, r5, r6, r7, pc}

0040c542 <.LFE18>:
  40c542:	bf00      	nop

Disassembly of section .text.APP_Md5Run_Feed%106:

0040c544 <APP_Md5Run_Feed>:
void APP_Md5Run_Feed(void) {
  40c544:	b570      	push	{r4, r5, r6, lr}

0040c546 <.LCFI3>:
  40c546:	f5ad 6db7 	sub.w	sp, sp, #1464	; 0x5b8

0040c54a <.LCFI4>:
    CRYPT_MD5_Initialize(&md5);
  40c54a:	f50d 6080 	add.w	r0, sp, #1024	; 0x400
  40c54e:	f001 f957 	bl	40d800 <.LBE48>

0040c552 <.LVL6>:
    memset(myBuf, 'a', 1024);
  40c552:	f44f 6280 	mov.w	r2, #1024	; 0x400
  40c556:	2161      	movs	r1, #97	; 0x61
  40c558:	4668      	mov	r0, sp
  40c55a:	f7ff fa27 	bl	40b9ac <.LFE166>

0040c55e <.LVL7>:
    CRYPT_MD5_DataSizeSet(&md5, 512 * 1024);
  40c55e:	f44f 2100 	mov.w	r1, #524288	; 0x80000
  40c562:	f50d 6080 	add.w	r0, sp, #1024	; 0x400
  40c566:	f001 f9e1 	bl	40d92c <.LFE173>

0040c56a <.LBB6>:
    return SYS_TIME_CounterGet();
  40c56a:	f000 fdd1 	bl	40d110 <.LFE6>

0040c56e <.LVL9>:
  40c56e:	4606      	mov	r6, r0

0040c570 <.LVL10>:
  40c570:	f44f 7400 	mov.w	r4, #512	; 0x200

0040c574 <.LBE6>:
        CRYPT_MD5_DataAdd(&md5, myBuf, sizeof (myBuf));
  40c574:	f44f 6580 	mov.w	r5, #1024	; 0x400

0040c578 <.LVL11>:
  40c578:	462a      	mov	r2, r5
  40c57a:	4669      	mov	r1, sp
  40c57c:	f50d 6080 	add.w	r0, sp, #1024	; 0x400
  40c580:	f001 f800 	bl	40d584 <.LFE18>

0040c584 <.LVL12>:
    for (i = 0; i < 512; i++)
  40c584:	3c01      	subs	r4, #1

0040c586 <.LVL13>:
  40c586:	d1f7      	bne.n	40c578 <.LVL11>
    CRYPT_MD5_Finalize(&md5, appData.md5_feed_result);
  40c588:	4c07      	ldr	r4, [pc, #28]	; (40c5a8 <.LCFI5+0x4>)

0040c58a <.LVL14>:
  40c58a:	f104 01cc 	add.w	r1, r4, #204	; 0xcc
  40c58e:	f50d 6080 	add.w	r0, sp, #1024	; 0x400
  40c592:	f001 f803 	bl	40d59c <.LFE165>

0040c596 <.LBB8>:
    return SYS_TIME_CounterGet();
  40c596:	f000 fdbb 	bl	40d110 <.LFE6>

0040c59a <.LBE8>:
    appData.md5_feed_timing = hashStop - hashStart;
  40c59a:	1b80      	subs	r0, r0, r6
  40c59c:	f8c4 00dc 	str.w	r0, [r4, #220]	; 0xdc
}
  40c5a0:	f50d 6db7 	add.w	sp, sp, #1464	; 0x5b8

0040c5a4 <.LCFI5>:
  40c5a4:	bd70      	pop	{r4, r5, r6, pc}
  40c5a6:	bf00      	nop
  40c5a8:	2040d6b8 	.word	0x2040d6b8

Disassembly of section .text._puts_r%107:

0040c5ac <_puts_r>:
  40c5ac:	b5f0      	push	{r4, r5, r6, r7, lr}

0040c5ae <.LCFI0>:
  40c5ae:	4605      	mov	r5, r0
  40c5b0:	b089      	sub	sp, #36	; 0x24

0040c5b2 <.LCFI1>:
  40c5b2:	4608      	mov	r0, r1

0040c5b4 <.LVL1>:
  40c5b4:	460c      	mov	r4, r1
  40c5b6:	f7fe fbe3 	bl	40ad80 <strlen>

0040c5ba <.LBB2>:
  40c5ba:	6bab      	ldr	r3, [r5, #56]	; 0x38

0040c5bc <.LBE2>:
  40c5bc:	4f14      	ldr	r7, [pc, #80]	; (40c610 <.LVL10+0x4>)
  40c5be:	9404      	str	r4, [sp, #16]
  40c5c0:	2601      	movs	r6, #1
  40c5c2:	1c44      	adds	r4, r0, #1

0040c5c4 <.LVL3>:
  40c5c4:	a904      	add	r1, sp, #16

0040c5c6 <.LVL4>:
  40c5c6:	2202      	movs	r2, #2
  40c5c8:	9403      	str	r4, [sp, #12]
  40c5ca:	9005      	str	r0, [sp, #20]
  40c5cc:	68ac      	ldr	r4, [r5, #8]
  40c5ce:	9706      	str	r7, [sp, #24]
  40c5d0:	9607      	str	r6, [sp, #28]
  40c5d2:	9101      	str	r1, [sp, #4]
  40c5d4:	9202      	str	r2, [sp, #8]

0040c5d6 <.LBB3>:
  40c5d6:	b1b3      	cbz	r3, 40c606 <.LBB4>

0040c5d8 <.LBE3>:
  40c5d8:	f9b4 300c 	ldrsh.w	r3, [r4, #12]
  40c5dc:	049a      	lsls	r2, r3, #18
  40c5de:	d406      	bmi.n	40c5ee <.LBE3+0x16>
  40c5e0:	6e62      	ldr	r2, [r4, #100]	; 0x64
  40c5e2:	f443 5300 	orr.w	r3, r3, #8192	; 0x2000
  40c5e6:	f422 5200 	bic.w	r2, r2, #8192	; 0x2000
  40c5ea:	81a3      	strh	r3, [r4, #12]
  40c5ec:	6662      	str	r2, [r4, #100]	; 0x64
  40c5ee:	4621      	mov	r1, r4
  40c5f0:	4628      	mov	r0, r5
  40c5f2:	aa01      	add	r2, sp, #4
  40c5f4:	f7fb ff40 	bl	408478 <.LBE16>

0040c5f8 <.LVL7>:
  40c5f8:	2800      	cmp	r0, #0
  40c5fa:	bf14      	ite	ne
  40c5fc:	f04f 30ff 	movne.w	r0, #4294967295
  40c600:	200a      	moveq	r0, #10
  40c602:	b009      	add	sp, #36	; 0x24

0040c604 <.LCFI2>:
  40c604:	bdf0      	pop	{r4, r5, r6, r7, pc}

0040c606 <.LBB4>:
  40c606:	4628      	mov	r0, r5

0040c608 <.LVL9>:
  40c608:	f001 f9d2 	bl	40d9b0 <.LFE4>

0040c60c <.LVL10>:
  40c60c:	e7e4      	b.n	40c5d8 <.LBE3>
  40c60e:	bf00      	nop
  40c610:	0040d9f0 	.word	0x0040d9f0

Disassembly of section .text.strncpy%108:

0040c614 <strncpy>:
  40c614:	ea40 0301 	orr.w	r3, r0, r1
  40c618:	f013 0f03 	tst.w	r3, #3
  40c61c:	b470      	push	{r4, r5, r6}

0040c61e <.LCFI0>:
  40c61e:	4603      	mov	r3, r0
  40c620:	d024      	beq.n	40c66c <.LVL16>

0040c622 <.LVL1>:
  40c622:	b1a2      	cbz	r2, 40c64e <.LVL11+0xa>
  40c624:	780c      	ldrb	r4, [r1, #0]
  40c626:	701c      	strb	r4, [r3, #0]
  40c628:	3a01      	subs	r2, #1

0040c62a <.LVL3>:
  40c62a:	3301      	adds	r3, #1
  40c62c:	3101      	adds	r1, #1
  40c62e:	b13c      	cbz	r4, 40c640 <.LVL10>

0040c630 <.LVL6>:
  40c630:	b16a      	cbz	r2, 40c64e <.LVL11+0xa>
  40c632:	f811 4b01 	ldrb.w	r4, [r1], #1

0040c636 <.LVL7>:
  40c636:	f803 4b01 	strb.w	r4, [r3], #1

0040c63a <.LVL8>:
  40c63a:	3a01      	subs	r2, #1

0040c63c <.LVL9>:
  40c63c:	2c00      	cmp	r4, #0
  40c63e:	d1f7      	bne.n	40c630 <.LVL6>

0040c640 <.LVL10>:
  40c640:	b12a      	cbz	r2, 40c64e <.LVL11+0xa>
  40c642:	441a      	add	r2, r3

0040c644 <.LVL11>:
  40c644:	2100      	movs	r1, #0
  40c646:	f803 1b01 	strb.w	r1, [r3], #1
  40c64a:	429a      	cmp	r2, r3
  40c64c:	d1fb      	bne.n	40c646 <.LVL11+0x2>
  40c64e:	bc70      	pop	{r4, r5, r6}

0040c650 <.LCFI1>:
  40c650:	4770      	bx	lr

0040c652 <.LCFI2>:
  40c652:	460e      	mov	r6, r1

0040c654 <.LVL14>:
  40c654:	f851 5b04 	ldr.w	r5, [r1], #4
  40c658:	f1a5 3401 	sub.w	r4, r5, #16843009	; 0x1010101
  40c65c:	ea24 0405 	bic.w	r4, r4, r5
  40c660:	f014 3f80 	tst.w	r4, #2155905152	; 0x80808080
  40c664:	d105      	bne.n	40c672 <.LVL17>
  40c666:	f843 5b04 	str.w	r5, [r3], #4

0040c66a <.LVL15>:
  40c66a:	3a04      	subs	r2, #4

0040c66c <.LVL16>:
  40c66c:	2a03      	cmp	r2, #3
  40c66e:	d8f0      	bhi.n	40c652 <.LCFI2>
  40c670:	e7d7      	b.n	40c622 <.LVL1>

0040c672 <.LVL17>:
  40c672:	4631      	mov	r1, r6
  40c674:	e7d6      	b.n	40c624 <.LVL1+0x2>

0040c676 <.LFE0>:
  40c676:	bf00      	nop

Disassembly of section .text.SYS_Initialize%109:

0040c678 <SYS_Initialize>:

  Remarks:
 */

void SYS_Initialize ( void* data )
{
  40c678:	b510      	push	{r4, lr}

0040c67a <.LCFI0>:
    CLK_Initialize();
  40c67a:	f7ff fdd7 	bl	40c22c <.LFE0>

0040c67e <.LVL1>:
	PIO_Initialize();
  40c67e:	f7ff fb09 	bl	40bc94 <.LFE166>

0040c682 <.LVL2>:

    NVIC_Initialize();
  40c682:	f000 f9f5 	bl	40ca70 <.LFE18>

0040c686 <.LVL3>:
	RSWDT_REGS->RSWDT_MR = RSWDT_MR_WDDIS_Msk;	// Disable RSWDT 
  40c686:	f44f 4300 	mov.w	r3, #32768	; 0x8000
  40c68a:	4a0e      	ldr	r2, [pc, #56]	; (40c6c4 <.LVL10+0x2>)
  40c68c:	6053      	str	r3, [r2, #4]
	WDT_REGS->WDT_MR = WDT_MR_WDDIS_Msk; 		// Disable WDT 
  40c68e:	3ab0      	subs	r2, #176	; 0xb0
  40c690:	6053      	str	r3, [r2, #4]
	BSP_Initialize();
  40c692:	f001 f8bf 	bl	40d814 <BSP_Initialize>

0040c696 <.LVL4>:
 
    TC1_CH0_TimerInitialize(); 
  40c696:	f000 fe19 	bl	40d2cc <.LBE4>

0040c69a <.LVL5>:
     
    
	USART1_Initialize();
  40c69a:	f000 fc1f 	bl	40cedc <.LFE170>

0040c69e <.LVL6>:


    sysObj.sysConsole0 = SYS_CONSOLE_Initialize(SYS_CONSOLE_INDEX_0, (SYS_MODULE_INIT *)&consUsartInit0);
  40c69e:	490a      	ldr	r1, [pc, #40]	; (40c6c8 <.LVL10+0x6>)
  40c6a0:	2000      	movs	r0, #0
  40c6a2:	f000 faa7 	bl	40cbf4 <.LFE17>

0040c6a6 <.LVL7>:
  40c6a6:	4c09      	ldr	r4, [pc, #36]	; (40c6cc <.LVL10+0xa>)
  40c6a8:	6020      	str	r0, [r4, #0]
    sysObj.sysDebug = SYS_DEBUG_Initialize(SYS_DEBUG_INDEX_0, (SYS_MODULE_INIT*)&debugInit);
  40c6aa:	4909      	ldr	r1, [pc, #36]	; (40c6d0 <.LVL10+0xe>)
  40c6ac:	2000      	movs	r0, #0
  40c6ae:	f000 ff03 	bl	40d4b8 <.LFE168>

0040c6b2 <.LVL8>:
  40c6b2:	6060      	str	r0, [r4, #4]

    sysObj.sysTime = SYS_TIME_Initialize(SYS_TIME_INDEX_0, (SYS_MODULE_INIT *)&sysTimeInitData);
  40c6b4:	4907      	ldr	r1, [pc, #28]	; (40c6d4 <.LVL10+0x12>)
  40c6b6:	2000      	movs	r0, #0
  40c6b8:	f7ff fea0 	bl	40c3fc <.LFE145>

0040c6bc <.LVL9>:
  40c6bc:	60a0      	str	r0, [r4, #8]


    APP_Initialize();
  40c6be:	f001 f92f 	bl	40d920 <APP_Initialize>

0040c6c2 <.LVL10>:
  40c6c2:	bd10      	pop	{r4, pc}
  40c6c4:	400e1900 	.word	0x400e1900
  40c6c8:	2040dcd4 	.word	0x2040dcd4
  40c6cc:	20400000 	.word	0x20400000
  40c6d0:	2040dcdc 	.word	0x2040dcdc
  40c6d4:	2040dcbc 	.word	0x2040dcbc

Disassembly of section .text.wc_InitSha%110:

0040c6d8 <wc_InitSha>:
{
  40c6d8:	b430      	push	{r4, r5}

0040c6da <.LCFI2>:
  40c6da:	4603      	mov	r3, r0
    if ((PMC_REGS->PMC_PCSR1 & PmcBit) != PmcBit)
  40c6dc:	4a12      	ldr	r2, [pc, #72]	; (40c728 <.LCFI3+0x4>)
  40c6de:	f8d2 2108 	ldr.w	r2, [r2, #264]	; 0x108
  40c6e2:	f012 0f01 	tst.w	r2, #1
  40c6e6:	d103      	bne.n	40c6f0 <.LCFI2+0x16>
        PMC_REGS->PMC_PCER1 = PmcBit;
  40c6e8:	2101      	movs	r1, #1
  40c6ea:	4a0f      	ldr	r2, [pc, #60]	; (40c728 <.LCFI3+0x4>)
  40c6ec:	f8c2 1100 	str.w	r1, [r2, #256]	; 0x100
    sha->icm_descriptor.cfg.reg = 0x0;
  40c6f0:	2000      	movs	r0, #0

0040c6f2 <.LVL20>:
  40c6f2:	6058      	str	r0, [r3, #4]
    sha->icm_descriptor.cfg.bit.is_end_mon = 1;
  40c6f4:	2204      	movs	r2, #4
  40c6f6:	711a      	strb	r2, [r3, #4]
    sha->digest[0] = 0x01234567;
  40c6f8:	4a0c      	ldr	r2, [pc, #48]	; (40c72c <.LCFI3+0x8>)
  40c6fa:	f8c3 2080 	str.w	r2, [r3, #128]	; 0x80
    sha->digest[1] = 0x89ABCDEF;
  40c6fe:	f102 3288 	add.w	r2, r2, #2290649224	; 0x88888888
  40c702:	f8c3 2084 	str.w	r2, [r3, #132]	; 0x84
    sha->digest[2] = 0xFEDCBA98;
  40c706:	4a0a      	ldr	r2, [pc, #40]	; (40c730 <.LCFI3+0xc>)
  40c708:	f8c3 2088 	str.w	r2, [r3, #136]	; 0x88
    sha->digest[3] = 0x76543210;
  40c70c:	f1a2 3288 	sub.w	r2, r2, #2290649224	; 0x88888888
  40c710:	f8c3 208c 	str.w	r2, [r3, #140]	; 0x8c
    sha->digest[4] = 0xF0E1D2C3;
  40c714:	4a07      	ldr	r2, [pc, #28]	; (40c734 <.LCFI3+0x10>)
  40c716:	f8c3 2090 	str.w	r2, [r3, #144]	; 0x90
    sha->total_len = 0;
  40c71a:	2400      	movs	r4, #0
  40c71c:	2500      	movs	r5, #0
  40c71e:	e9c3 4526 	strd	r4, r5, [r3, #152]	; 0x98
}
  40c722:	bc30      	pop	{r4, r5}

0040c724 <.LCFI3>:
  40c724:	4770      	bx	lr
  40c726:	bf00      	nop
  40c728:	400e0600 	.word	0x400e0600
  40c72c:	01234567 	.word	0x01234567
  40c730:	fedcba98 	.word	0xfedcba98
  40c734:	f0e1d2c3 	.word	0xf0e1d2c3

Disassembly of section .text.memcmp%111:

0040c738 <memcmp>:
  40c738:	2a03      	cmp	r2, #3
  40c73a:	b470      	push	{r4, r5, r6}

0040c73c <.LCFI0>:
  40c73c:	d922      	bls.n	40c784 <.LVL11>
  40c73e:	ea40 0301 	orr.w	r3, r0, r1
  40c742:	079b      	lsls	r3, r3, #30
  40c744:	d011      	beq.n	40c76a <.LCFI2>

0040c746 <.LVL1>:
  40c746:	7803      	ldrb	r3, [r0, #0]
  40c748:	780c      	ldrb	r4, [r1, #0]
  40c74a:	42a3      	cmp	r3, r4
  40c74c:	d11d      	bne.n	40c78a <.LVL11+0x6>
  40c74e:	440a      	add	r2, r1
  40c750:	3101      	adds	r1, #1
  40c752:	e005      	b.n	40c760 <.LVL4>

0040c754 <.LVL2>:
  40c754:	f810 3f01 	ldrb.w	r3, [r0, #1]!
  40c758:	f811 4b01 	ldrb.w	r4, [r1], #1

0040c75c <.LVL3>:
  40c75c:	42a3      	cmp	r3, r4
  40c75e:	d114      	bne.n	40c78a <.LVL11+0x6>

0040c760 <.LVL4>:
  40c760:	4291      	cmp	r1, r2
  40c762:	d1f7      	bne.n	40c754 <.LVL2>

0040c764 <.LVL5>:
  40c764:	2000      	movs	r0, #0
  40c766:	bc70      	pop	{r4, r5, r6}

0040c768 <.LCFI1>:
  40c768:	4770      	bx	lr

0040c76a <.LCFI2>:
  40c76a:	680d      	ldr	r5, [r1, #0]
  40c76c:	6806      	ldr	r6, [r0, #0]
  40c76e:	42ae      	cmp	r6, r5
  40c770:	460c      	mov	r4, r1
  40c772:	4603      	mov	r3, r0

0040c774 <.LVL7>:
  40c774:	f101 0104 	add.w	r1, r1, #4

0040c778 <.LVL8>:
  40c778:	f100 0004 	add.w	r0, r0, #4

0040c77c <.LVL9>:
  40c77c:	d108      	bne.n	40c790 <.LCFI4>
  40c77e:	3a04      	subs	r2, #4

0040c780 <.LVL10>:
  40c780:	2a03      	cmp	r2, #3
  40c782:	d8f2      	bhi.n	40c76a <.LCFI2>

0040c784 <.LVL11>:
  40c784:	2a00      	cmp	r2, #0
  40c786:	d1de      	bne.n	40c746 <.LVL1>
  40c788:	e7ec      	b.n	40c764 <.LVL5>
  40c78a:	1b18      	subs	r0, r3, r4
  40c78c:	bc70      	pop	{r4, r5, r6}

0040c78e <.LCFI3>:
  40c78e:	4770      	bx	lr

0040c790 <.LCFI4>:
  40c790:	4621      	mov	r1, r4

0040c792 <.LVL13>:
  40c792:	4618      	mov	r0, r3

0040c794 <.LVL14>:
  40c794:	e7d7      	b.n	40c746 <.LVL1>

0040c796 <.LFE0>:
  40c796:	bf00      	nop

Disassembly of section .text.__lo0bits%112:

0040c798 <__lo0bits>:
  40c798:	6803      	ldr	r3, [r0, #0]

0040c79a <.LVL80>:
  40c79a:	f013 0207 	ands.w	r2, r3, #7
  40c79e:	4601      	mov	r1, r0
  40c7a0:	d007      	beq.n	40c7b2 <.LVL84>
  40c7a2:	07da      	lsls	r2, r3, #31
  40c7a4:	d421      	bmi.n	40c7ea <.LVL100>
  40c7a6:	0798      	lsls	r0, r3, #30

0040c7a8 <.LVL81>:
  40c7a8:	d421      	bmi.n	40c7ee <.LVL101+0x2>
  40c7aa:	089b      	lsrs	r3, r3, #2

0040c7ac <.LVL82>:
  40c7ac:	600b      	str	r3, [r1, #0]

0040c7ae <.LVL83>:
  40c7ae:	2002      	movs	r0, #2
  40c7b0:	4770      	bx	lr

0040c7b2 <.LVL84>:
  40c7b2:	b298      	uxth	r0, r3

0040c7b4 <.LVL85>:
  40c7b4:	b198      	cbz	r0, 40c7de <.LVL96>
  40c7b6:	4610      	mov	r0, r2

0040c7b8 <.LVL86>:
  40c7b8:	f013 0fff 	tst.w	r3, #255	; 0xff
  40c7bc:	bf04      	itt	eq
  40c7be:	0a1b      	lsreq	r3, r3, #8

0040c7c0 <.LVL87>:
  40c7c0:	3008      	addeq	r0, #8

0040c7c2 <.LVL88>:
  40c7c2:	071a      	lsls	r2, r3, #28
  40c7c4:	bf04      	itt	eq
  40c7c6:	091b      	lsreq	r3, r3, #4

0040c7c8 <.LVL89>:
  40c7c8:	3004      	addeq	r0, #4

0040c7ca <.LVL90>:
  40c7ca:	079a      	lsls	r2, r3, #30
  40c7cc:	bf04      	itt	eq
  40c7ce:	089b      	lsreq	r3, r3, #2

0040c7d0 <.LVL91>:
  40c7d0:	3002      	addeq	r0, #2

0040c7d2 <.LVL92>:
  40c7d2:	07da      	lsls	r2, r3, #31
  40c7d4:	d407      	bmi.n	40c7e6 <.LVL99>

0040c7d6 <.LVL93>:
  40c7d6:	085b      	lsrs	r3, r3, #1

0040c7d8 <.LVL94>:
  40c7d8:	d104      	bne.n	40c7e4 <.LVL98>
  40c7da:	2020      	movs	r0, #32

0040c7dc <.LVL95>:
  40c7dc:	4770      	bx	lr

0040c7de <.LVL96>:
  40c7de:	0c1b      	lsrs	r3, r3, #16
  40c7e0:	2010      	movs	r0, #16
  40c7e2:	e7e9      	b.n	40c7b8 <.LVL86>

0040c7e4 <.LVL98>:
  40c7e4:	3001      	adds	r0, #1

0040c7e6 <.LVL99>:
  40c7e6:	600b      	str	r3, [r1, #0]
  40c7e8:	4770      	bx	lr

0040c7ea <.LVL100>:
  40c7ea:	2000      	movs	r0, #0

0040c7ec <.LVL101>:
  40c7ec:	4770      	bx	lr
  40c7ee:	085b      	lsrs	r3, r3, #1

0040c7f0 <.LVL102>:
  40c7f0:	600b      	str	r3, [r1, #0]

0040c7f2 <.LVL103>:
  40c7f2:	2001      	movs	r0, #1
  40c7f4:	4770      	bx	lr

0040c7f6 <.LFE22>:
  40c7f6:	bf00      	nop

Disassembly of section .text._calloc_r%113:

0040c7f8 <_calloc_r>:
  40c7f8:	b510      	push	{r4, lr}

0040c7fa <.LCFI0>:
  40c7fa:	fb02 f101 	mul.w	r1, r2, r1

0040c7fe <.LVL1>:
  40c7fe:	f7fb f9ed 	bl	407bdc <.LFE14>

0040c802 <.LVL2>:
  40c802:	4604      	mov	r4, r0
  40c804:	b1d8      	cbz	r0, 40c83e <.LBE2>

0040c806 <.LVL3>:
  40c806:	f850 2c04 	ldr.w	r2, [r0, #-4]
  40c80a:	f022 0203 	bic.w	r2, r2, #3

0040c80e <.LBB2>:
  40c80e:	3a04      	subs	r2, #4

0040c810 <.LVL5>:
  40c810:	2a24      	cmp	r2, #36	; 0x24
  40c812:	d818      	bhi.n	40c846 <.LBE4>

0040c814 <.LBB3>:
  40c814:	2a13      	cmp	r2, #19
  40c816:	d914      	bls.n	40c842 <.LBB4>

0040c818 <.LVL7>:
  40c818:	2300      	movs	r3, #0
  40c81a:	2a1b      	cmp	r2, #27
  40c81c:	6003      	str	r3, [r0, #0]

0040c81e <.LVL8>:
  40c81e:	6043      	str	r3, [r0, #4]
  40c820:	d916      	bls.n	40c850 <.LBB5>

0040c822 <.LVL9>:
  40c822:	2a24      	cmp	r2, #36	; 0x24
  40c824:	6083      	str	r3, [r0, #8]

0040c826 <.LVL10>:
  40c826:	60c3      	str	r3, [r0, #12]
  40c828:	bf11      	iteee	ne
  40c82a:	f100 0210 	addne.w	r2, r0, #16

0040c82e <.LVL11>:
  40c82e:	6103      	streq	r3, [r0, #16]
  40c830:	6143      	streq	r3, [r0, #20]
  40c832:	f100 0218 	addeq.w	r2, r0, #24

0040c836 <.LVL12>:
  40c836:	2300      	movs	r3, #0
  40c838:	6013      	str	r3, [r2, #0]

0040c83a <.LVL13>:
  40c83a:	6053      	str	r3, [r2, #4]
  40c83c:	6093      	str	r3, [r2, #8]

0040c83e <.LBE2>:
  40c83e:	4620      	mov	r0, r4

0040c840 <.LVL15>:
  40c840:	bd10      	pop	{r4, pc}

0040c842 <.LBB4>:
  40c842:	4602      	mov	r2, r0

0040c844 <.LVL17>:
  40c844:	e7f7      	b.n	40c836 <.LVL12>

0040c846 <.LBE4>:
  40c846:	2100      	movs	r1, #0
  40c848:	f7ff f8b0 	bl	40b9ac <.LFE166>

0040c84c <.LBE6>:
  40c84c:	4620      	mov	r0, r4
  40c84e:	bd10      	pop	{r4, pc}

0040c850 <.LBB5>:
  40c850:	f100 0208 	add.w	r2, r0, #8

0040c854 <.LVL21>:
  40c854:	e7ef      	b.n	40c836 <.LVL12>

0040c856 <.LBE5>:
  40c856:	bf00      	nop

Disassembly of section .text.APP_Sha384Run_Feed%114:

0040c858 <APP_Sha384Run_Feed>:
void APP_Sha384Run_Feed(void) {
  40c858:	b570      	push	{r4, r5, r6, lr}

0040c85a <.LCFI12>:
  40c85a:	f5ad 6da0 	sub.w	sp, sp, #1280	; 0x500

0040c85e <.LCFI13>:
    CRYPT_SHA384_Initialize(&sha384);
  40c85e:	f50d 6080 	add.w	r0, sp, #1024	; 0x400
  40c862:	f000 ffef 	bl	40d844 <.LFE171>

0040c866 <.LVL39>:
    memset(myBuf, 'a', 1024);
  40c866:	f44f 6280 	mov.w	r2, #1024	; 0x400
  40c86a:	2161      	movs	r1, #97	; 0x61
  40c86c:	4668      	mov	r0, sp
  40c86e:	f7ff f89d 	bl	40b9ac <.LFE166>

0040c872 <.LBB30>:
    return SYS_TIME_CounterGet();
  40c872:	f000 fc4d 	bl	40d110 <.LFE6>

0040c876 <.LVL41>:
  40c876:	4606      	mov	r6, r0

0040c878 <.LVL42>:
  40c878:	f44f 7400 	mov.w	r4, #512	; 0x200

0040c87c <.LBE30>:
        CRYPT_SHA384_DataAdd(&sha384, myBuf, sizeof (myBuf));
  40c87c:	f44f 6580 	mov.w	r5, #1024	; 0x400

0040c880 <.LVL43>:
  40c880:	462a      	mov	r2, r5
  40c882:	4669      	mov	r1, sp
  40c884:	f50d 6080 	add.w	r0, sp, #1024	; 0x400
  40c888:	f000 fec4 	bl	40d614 <.LFE174>

0040c88c <.LVL44>:
    for (i = 0; i < 512; i++)
  40c88c:	3c01      	subs	r4, #1

0040c88e <.LVL45>:
  40c88e:	d1f7      	bne.n	40c880 <.LVL43>
    CRYPT_SHA384_Finalize(&sha384, appData.sha384_feed_result);
  40c890:	4c07      	ldr	r4, [pc, #28]	; (40c8b0 <.LCFI14+0x4>)

0040c892 <.LVL46>:
  40c892:	f504 718e 	add.w	r1, r4, #284	; 0x11c
  40c896:	f50d 6080 	add.w	r0, sp, #1024	; 0x400
  40c89a:	f000 fec7 	bl	40d62c <.LFE176>

0040c89e <.LBB32>:
    return SYS_TIME_CounterGet();
  40c89e:	f000 fc37 	bl	40d110 <.LFE6>

0040c8a2 <.LBE32>:
    appData.sha384_feed_timing = hashStop - hashStart;
  40c8a2:	1b80      	subs	r0, r0, r6
  40c8a4:	f8c4 014c 	str.w	r0, [r4, #332]	; 0x14c
}
  40c8a8:	f50d 6da0 	add.w	sp, sp, #1280	; 0x500

0040c8ac <.LCFI14>:
  40c8ac:	bd70      	pop	{r4, r5, r6, pc}
  40c8ae:	bf00      	nop
  40c8b0:	2040d6b8 	.word	0x2040d6b8

Disassembly of section .text.APP_Sha512Run_Feed%115:

0040c8b4 <APP_Sha512Run_Feed>:
void APP_Sha512Run_Feed(void) {
  40c8b4:	b570      	push	{r4, r5, r6, lr}

0040c8b6 <.LCFI15>:
  40c8b6:	f5ad 6da4 	sub.w	sp, sp, #1312	; 0x520

0040c8ba <.LCFI16>:
    CRYPT_SHA512_Initialize(&sha512);
  40c8ba:	f50d 6080 	add.w	r0, sp, #1024	; 0x400
  40c8be:	f000 ffc9 	bl	40d854 <.LFE175>

0040c8c2 <.LVL49>:
    memset(myBuf, 'a', 1024);
  40c8c2:	f44f 6280 	mov.w	r2, #1024	; 0x400
  40c8c6:	2161      	movs	r1, #97	; 0x61
  40c8c8:	4668      	mov	r0, sp
  40c8ca:	f7ff f86f 	bl	40b9ac <.LFE166>

0040c8ce <.LBB38>:
    return SYS_TIME_CounterGet();
  40c8ce:	f000 fc1f 	bl	40d110 <.LFE6>

0040c8d2 <.LVL51>:
  40c8d2:	4606      	mov	r6, r0

0040c8d4 <.LVL52>:
  40c8d4:	f44f 7400 	mov.w	r4, #512	; 0x200

0040c8d8 <.LBE38>:
        CRYPT_SHA512_DataAdd(&sha512, myBuf, sizeof (myBuf));
  40c8d8:	f44f 6580 	mov.w	r5, #1024	; 0x400

0040c8dc <.LVL53>:
  40c8dc:	462a      	mov	r2, r5
  40c8de:	4669      	mov	r1, sp
  40c8e0:	f50d 6080 	add.w	r0, sp, #1024	; 0x400
  40c8e4:	f000 feae 	bl	40d644 <.LFE177>

0040c8e8 <.LVL54>:
    for (i = 0; i < 512; i++)
  40c8e8:	3c01      	subs	r4, #1

0040c8ea <.LVL55>:
  40c8ea:	d1f7      	bne.n	40c8dc <.LVL53>
    CRYPT_SHA512_Finalize(&sha512, appData.sha512_feed_result);
  40c8ec:	4c07      	ldr	r4, [pc, #28]	; (40c90c <.LCFI17+0x4>)

0040c8ee <.LVL56>:
  40c8ee:	f504 71a8 	add.w	r1, r4, #336	; 0x150
  40c8f2:	f50d 6080 	add.w	r0, sp, #1024	; 0x400
  40c8f6:	f000 feb1 	bl	40d65c <.LFE179>

0040c8fa <.LBB40>:
    return SYS_TIME_CounterGet();
  40c8fa:	f000 fc09 	bl	40d110 <.LFE6>

0040c8fe <.LBE40>:
    appData.sha512_feed_timing = hashStop - hashStart;
  40c8fe:	1b80      	subs	r0, r0, r6
  40c900:	f8c4 0190 	str.w	r0, [r4, #400]	; 0x190
}
  40c904:	f50d 6da4 	add.w	sp, sp, #1312	; 0x520

0040c908 <.LCFI17>:
  40c908:	bd70      	pop	{r4, r5, r6, pc}
  40c90a:	bf00      	nop
  40c90c:	2040d6b8 	.word	0x2040d6b8

Disassembly of section .text.Console_UART_Read%116:

0040c910 <Console_UART_Read>:
    while ((readQueue.numElem < readQueue.elemArrSz) && (rdBytes < count))
  40c910:	4b15      	ldr	r3, [pc, #84]	; (40c968 <.LCFI8+0x4>)
  40c912:	6898      	ldr	r0, [r3, #8]

0040c914 <.LVL47>:
  40c914:	691b      	ldr	r3, [r3, #16]
  40c916:	4298      	cmp	r0, r3
  40c918:	d222      	bcs.n	40c960 <.LBE13>
  40c91a:	b30a      	cbz	r2, 40c960 <.LBE13>
{
  40c91c:	b5f0      	push	{r4, r5, r6, r7, lr}

0040c91e <.LCFI6>:
    while ((readQueue.numElem < readQueue.elemArrSz) && (rdBytes < count))
  40c91e:	2000      	movs	r0, #0

0040c920 <.LBB10>:
    q->qPkts[q->nextPos] = pkt;
  40c920:	4b11      	ldr	r3, [pc, #68]	; (40c968 <.LCFI8+0x4>)
  40c922:	2701      	movs	r7, #1
    (q->nextPos < (q->elemArrSz - 1)) ? q->nextPos++ : (q->nextPos = 0);
  40c924:	4686      	mov	lr, r0
  40c926:	e009      	b.n	40c93c <.LBB13>

0040c928 <.LVL48>:
  40c928:	3401      	adds	r4, #1
  40c92a:	605c      	str	r4, [r3, #4]
    q->numElem++;
  40c92c:	689c      	ldr	r4, [r3, #8]
  40c92e:	3401      	adds	r4, #1
  40c930:	609c      	str	r4, [r3, #8]

0040c932 <.LBE10>:
        rdBytes++;
  40c932:	3001      	adds	r0, #1
    while ((readQueue.numElem < readQueue.elemArrSz) && (rdBytes < count))
  40c934:	4282      	cmp	r2, r0
  40c936:	d915      	bls.n	40c964 <.LCFI8>
  40c938:	42a5      	cmp	r5, r4
  40c93a:	d910      	bls.n	40c95e <.LVL53>

0040c93c <.LBB13>:
    q->qPkts[q->nextPos] = pkt;
  40c93c:	685d      	ldr	r5, [r3, #4]
  40c93e:	68dc      	ldr	r4, [r3, #12]
  40c940:	eb04 06c5 	add.w	r6, r4, r5, lsl #3
  40c944:	eb01 0c00 	add.w	ip, r1, r0

0040c948 <.LVL52>:
  40c948:	f844 c035 	str.w	ip, [r4, r5, lsl #3]
  40c94c:	6077      	str	r7, [r6, #4]
    (q->nextPos < (q->elemArrSz - 1)) ? q->nextPos++ : (q->nextPos = 0);
  40c94e:	685c      	ldr	r4, [r3, #4]
  40c950:	691d      	ldr	r5, [r3, #16]
  40c952:	1e6e      	subs	r6, r5, #1
  40c954:	42b4      	cmp	r4, r6
  40c956:	d3e7      	bcc.n	40c928 <.LVL48>
  40c958:	f8c3 e004 	str.w	lr, [r3, #4]
  40c95c:	e7e6      	b.n	40c92c <.LVL48+0x4>

0040c95e <.LVL53>:
  40c95e:	bdf0      	pop	{r4, r5, r6, r7, pc}

0040c960 <.LBE13>:
    size_t rdBytes = 0;
  40c960:	2000      	movs	r0, #0
  40c962:	4770      	bx	lr

0040c964 <.LCFI8>:
}
  40c964:	bdf0      	pop	{r4, r5, r6, r7, pc}
  40c966:	bf00      	nop
  40c968:	2040dc94 	.word	0x2040dc94

Disassembly of section .text.__swhatbuf_r%117:

0040c96c <__swhatbuf_r>:
  40c96c:	b570      	push	{r4, r5, r6, lr}

0040c96e <.LCFI0>:
  40c96e:	460c      	mov	r4, r1
  40c970:	f9b1 100e 	ldrsh.w	r1, [r1, #14]

0040c974 <.LVL1>:
  40c974:	2900      	cmp	r1, #0
  40c976:	b090      	sub	sp, #64	; 0x40

0040c978 <.LCFI1>:
  40c978:	4615      	mov	r5, r2
  40c97a:	461e      	mov	r6, r3
  40c97c:	db14      	blt.n	40c9a8 <.LBB4>
  40c97e:	aa01      	add	r2, sp, #4

0040c980 <.LVL2>:
  40c980:	f000 fcf6 	bl	40d370 <_fstat_r>

0040c984 <.LVL3>:
  40c984:	2800      	cmp	r0, #0
  40c986:	db0f      	blt.n	40c9a8 <.LBB4>
  40c988:	9a02      	ldr	r2, [sp, #8]
  40c98a:	f402 4270 	and.w	r2, r2, #61440	; 0xf000
  40c98e:	f5a2 5200 	sub.w	r2, r2, #8192	; 0x2000
  40c992:	fab2 f282 	clz	r2, r2
  40c996:	0952      	lsrs	r2, r2, #5
  40c998:	f44f 6380 	mov.w	r3, #1024	; 0x400
  40c99c:	f44f 6000 	mov.w	r0, #2048	; 0x800
  40c9a0:	6032      	str	r2, [r6, #0]
  40c9a2:	602b      	str	r3, [r5, #0]
  40c9a4:	b010      	add	sp, #64	; 0x40

0040c9a6 <.LCFI2>:
  40c9a6:	bd70      	pop	{r4, r5, r6, pc}

0040c9a8 <.LBB4>:
  40c9a8:	89a2      	ldrh	r2, [r4, #12]
  40c9aa:	2300      	movs	r3, #0
  40c9ac:	f012 0080 	ands.w	r0, r2, #128	; 0x80
  40c9b0:	6033      	str	r3, [r6, #0]
  40c9b2:	d004      	beq.n	40c9be <.LBB7>
  40c9b4:	2240      	movs	r2, #64	; 0x40
  40c9b6:	4618      	mov	r0, r3
  40c9b8:	602a      	str	r2, [r5, #0]

0040c9ba <.LBE4>:
  40c9ba:	b010      	add	sp, #64	; 0x40

0040c9bc <.LCFI4>:
  40c9bc:	bd70      	pop	{r4, r5, r6, pc}

0040c9be <.LBB7>:
  40c9be:	f44f 6380 	mov.w	r3, #1024	; 0x400
  40c9c2:	602b      	str	r3, [r5, #0]

0040c9c4 <.LBE7>:
  40c9c4:	b010      	add	sp, #64	; 0x40

0040c9c6 <.LCFI6>:
  40c9c6:	bd70      	pop	{r4, r5, r6, pc}

Disassembly of section .text._fwalk_reent%118:

0040c9c8 <_fwalk_reent>:
  40c9c8:	e92d 43f8 	stmdb	sp!, {r3, r4, r5, r6, r7, r8, r9, lr}

0040c9cc <.LCFI1>:
  40c9cc:	f510 7738 	adds.w	r7, r0, #736	; 0x2e0

0040c9d0 <.LVL13>:
  40c9d0:	d01f      	beq.n	40ca12 <.LVL23>
  40c9d2:	4688      	mov	r8, r1
  40c9d4:	4606      	mov	r6, r0
  40c9d6:	f04f 0900 	mov.w	r9, #0

0040c9da <.LVL14>:
  40c9da:	687d      	ldr	r5, [r7, #4]
  40c9dc:	68bc      	ldr	r4, [r7, #8]

0040c9de <.LVL15>:
  40c9de:	3d01      	subs	r5, #1

0040c9e0 <.LVL16>:
  40c9e0:	d411      	bmi.n	40ca06 <.LVL21+0x2>
  40c9e2:	89a3      	ldrh	r3, [r4, #12]
  40c9e4:	2b01      	cmp	r3, #1
  40c9e6:	f105 35ff 	add.w	r5, r5, #4294967295

0040c9ea <.LVL17>:
  40c9ea:	d908      	bls.n	40c9fe <.LVL19+0x4>
  40c9ec:	f9b4 300e 	ldrsh.w	r3, [r4, #14]
  40c9f0:	3301      	adds	r3, #1
  40c9f2:	4621      	mov	r1, r4
  40c9f4:	4630      	mov	r0, r6
  40c9f6:	d002      	beq.n	40c9fe <.LVL19+0x4>

0040c9f8 <.LVL18>:
  40c9f8:	47c0      	blx	r8

0040c9fa <.LVL19>:
  40c9fa:	ea49 0900 	orr.w	r9, r9, r0
  40c9fe:	1c6b      	adds	r3, r5, #1
  40ca00:	f104 0468 	add.w	r4, r4, #104	; 0x68

0040ca04 <.LVL21>:
  40ca04:	d1ed      	bne.n	40c9e2 <.LVL16+0x2>
  40ca06:	683f      	ldr	r7, [r7, #0]
  40ca08:	2f00      	cmp	r7, #0
  40ca0a:	d1e6      	bne.n	40c9da <.LVL14>
  40ca0c:	4648      	mov	r0, r9
  40ca0e:	e8bd 83f8 	ldmia.w	sp!, {r3, r4, r5, r6, r7, r8, r9, pc}

0040ca12 <.LVL23>:
  40ca12:	46b9      	mov	r9, r7
  40ca14:	4648      	mov	r0, r9

0040ca16 <.LVL24>:
  40ca16:	e8bd 83f8 	ldmia.w	sp!, {r3, r4, r5, r6, r7, r8, r9, pc}

0040ca1a <.LFE2>:
  40ca1a:	bf00      	nop

Disassembly of section .text._wcrtomb_r%119:

0040ca1c <_wcrtomb_r>:
  40ca1c:	b5f0      	push	{r4, r5, r6, r7, lr}

0040ca1e <.LCFI0>:
  40ca1e:	4606      	mov	r6, r0
  40ca20:	b085      	sub	sp, #20

0040ca22 <.LCFI1>:
  40ca22:	461f      	mov	r7, r3
  40ca24:	b189      	cbz	r1, 40ca4a <.LCFI3>

0040ca26 <.LBB16>:
  40ca26:	4c10      	ldr	r4, [pc, #64]	; (40ca68 <.LVL6+0x4>)
  40ca28:	4d10      	ldr	r5, [pc, #64]	; (40ca6c <.LVL6+0x8>)
  40ca2a:	6824      	ldr	r4, [r4, #0]
  40ca2c:	6b64      	ldr	r4, [r4, #52]	; 0x34
  40ca2e:	2c00      	cmp	r4, #0
  40ca30:	bf08      	it	eq
  40ca32:	462c      	moveq	r4, r5

0040ca34 <.LBE16>:
  40ca34:	f8d4 40e0 	ldr.w	r4, [r4, #224]	; 0xe0
  40ca38:	47a0      	blx	r4

0040ca3a <.LVL1>:
  40ca3a:	1c43      	adds	r3, r0, #1
  40ca3c:	d103      	bne.n	40ca46 <.LVL1+0xc>
  40ca3e:	2200      	movs	r2, #0
  40ca40:	238a      	movs	r3, #138	; 0x8a
  40ca42:	603a      	str	r2, [r7, #0]
  40ca44:	6033      	str	r3, [r6, #0]
  40ca46:	b005      	add	sp, #20

0040ca48 <.LCFI2>:
  40ca48:	bdf0      	pop	{r4, r5, r6, r7, pc}

0040ca4a <.LCFI3>:
  40ca4a:	460c      	mov	r4, r1

0040ca4c <.LBB18>:
  40ca4c:	4906      	ldr	r1, [pc, #24]	; (40ca68 <.LVL6+0x4>)

0040ca4e <.LVL3>:
  40ca4e:	4a07      	ldr	r2, [pc, #28]	; (40ca6c <.LVL6+0x8>)

0040ca50 <.LVL4>:
  40ca50:	6809      	ldr	r1, [r1, #0]
  40ca52:	6b49      	ldr	r1, [r1, #52]	; 0x34
  40ca54:	2900      	cmp	r1, #0
  40ca56:	bf08      	it	eq
  40ca58:	4611      	moveq	r1, r2

0040ca5a <.LBE18>:
  40ca5a:	4622      	mov	r2, r4
  40ca5c:	f8d1 40e0 	ldr.w	r4, [r1, #224]	; 0xe0

0040ca60 <.LVL5>:
  40ca60:	a901      	add	r1, sp, #4
  40ca62:	47a0      	blx	r4

0040ca64 <.LVL6>:
  40ca64:	e7e9      	b.n	40ca3a <.LVL1>
  40ca66:	bf00      	nop
  40ca68:	2040dce8 	.word	0x2040dce8
  40ca6c:	2040d9e0 	.word	0x2040d9e0

Disassembly of section .text.NVIC_Initialize%120:

0040ca70 <NVIC_Initialize>:
  reg_value  =  SCB->AIRCR;                                                   /* read old register configuration    */
  40ca70:	4b10      	ldr	r3, [pc, #64]	; (40cab4 <.LBE32+0x14>)
  40ca72:	68d9      	ldr	r1, [r3, #12]

0040ca74 <.LVL1>:
  reg_value &= ~((uint32_t)(SCB_AIRCR_VECTKEY_Msk | SCB_AIRCR_PRIGROUP_Msk)); /* clear bits to change               */
  40ca74:	f421 61e0 	bic.w	r1, r1, #1792	; 0x700

0040ca78 <.LVL2>:
  40ca78:	0409      	lsls	r1, r1, #16
  40ca7a:	0c09      	lsrs	r1, r1, #16

0040ca7c <.LVL3>:
  reg_value  =  (reg_value                                   |
  40ca7c:	4a0e      	ldr	r2, [pc, #56]	; (40cab8 <.LBE32+0x18>)
  40ca7e:	430a      	orrs	r2, r1

0040ca80 <.LVL4>:
  SCB->AIRCR =  reg_value;
  40ca80:	60da      	str	r2, [r3, #12]

0040ca82 <.LBB22>:
  __ASM volatile ("dmb 0xF":::"memory");
  40ca82:	f3bf 8f5f 	dmb	sy

0040ca86 <.LBB24>:
  __ASM volatile ("cpsie i" : : : "memory");
  40ca86:	b662      	cpsie	i

0040ca88 <.LBB26>:
    NVIC->IP[((uint32_t)(int32_t)IRQn)]                = (uint8_t)((priority << (8U - __NVIC_PRIO_BITS)) & (uint32_t)0xFFUL);
  40ca88:	4a0c      	ldr	r2, [pc, #48]	; (40cabc <.LBE32+0x1c>)
  40ca8a:	21e0      	movs	r1, #224	; 0xe0
  40ca8c:	f882 130e 	strb.w	r1, [r2, #782]	; 0x30e

0040ca90 <.LBB28>:
    NVIC->ISER[(((uint32_t)(int32_t)IRQn) >> 5UL)] = (uint32_t)(1UL << (((uint32_t)(int32_t)IRQn) & 0x1FUL));
  40ca90:	f44f 4080 	mov.w	r0, #16384	; 0x4000
  40ca94:	6010      	str	r0, [r2, #0]

0040ca96 <.LBB30>:
    NVIC->IP[((uint32_t)(int32_t)IRQn)]                = (uint8_t)((priority << (8U - __NVIC_PRIO_BITS)) & (uint32_t)0xFFUL);
  40ca96:	f882 131a 	strb.w	r1, [r2, #794]	; 0x31a

0040ca9a <.LBB32>:
    NVIC->ISER[(((uint32_t)(int32_t)IRQn) >> 5UL)] = (uint32_t)(1UL << (((uint32_t)(int32_t)IRQn) & 0x1FUL));
  40ca9a:	f04f 6180 	mov.w	r1, #67108864	; 0x4000000
  40ca9e:	6011      	str	r1, [r2, #0]

0040caa0 <.LBE32>:
    NVIC_EnableIRQ(USART1_IRQn);
    NVIC_SetPriority(TC1_CH0_IRQn, 7);
    NVIC_EnableIRQ(TC1_CH0_IRQn);

    /* Enable Usage fault */
    SCB->SHCSR |= (SCB_SHCSR_USGFAULTENA_Msk);
  40caa0:	6a5a      	ldr	r2, [r3, #36]	; 0x24
  40caa2:	f442 2280 	orr.w	r2, r2, #262144	; 0x40000
  40caa6:	625a      	str	r2, [r3, #36]	; 0x24
    /* Trap divide by zero */
    SCB->CCR   |= SCB_CCR_DIV_0_TRP_Msk;
  40caa8:	695a      	ldr	r2, [r3, #20]
  40caaa:	f042 0210 	orr.w	r2, r2, #16
  40caae:	615a      	str	r2, [r3, #20]
  40cab0:	4770      	bx	lr
  40cab2:	bf00      	nop
  40cab4:	e000ed00 	.word	0xe000ed00
  40cab8:	05fa0400 	.word	0x05fa0400
  40cabc:	e000e100 	.word	0xe000e100

Disassembly of section .text.__libc_init_array%121:

0040cac0 <__libc_init_array>:
  40cac0:	b570      	push	{r4, r5, r6, lr}

0040cac2 <.LCFI0>:
  40cac2:	4e0f      	ldr	r6, [pc, #60]	; (40cb00 <.LVL13+0x2>)
  40cac4:	4d0f      	ldr	r5, [pc, #60]	; (40cb04 <.LVL13+0x6>)
  40cac6:	1b76      	subs	r6, r6, r5

0040cac8 <.LVL0>:
  40cac8:	10b6      	asrs	r6, r6, #2

0040caca <.LVL1>:
  40caca:	bf18      	it	ne
  40cacc:	2400      	movne	r4, #0
  40cace:	d005      	beq.n	40cadc <.LVL5>

0040cad0 <.LVL2>:
  40cad0:	3401      	adds	r4, #1

0040cad2 <.LVL3>:
  40cad2:	f855 3b04 	ldr.w	r3, [r5], #4
  40cad6:	4798      	blx	r3

0040cad8 <.LVL4>:
  40cad8:	42a6      	cmp	r6, r4
  40cada:	d1f9      	bne.n	40cad0 <.LVL2>

0040cadc <.LVL5>:
  40cadc:	4e0a      	ldr	r6, [pc, #40]	; (40cb08 <.LVL13+0xa>)

0040cade <.LVL6>:
  40cade:	4d0b      	ldr	r5, [pc, #44]	; (40cb0c <.LVL13+0xe>)
  40cae0:	1b76      	subs	r6, r6, r5
  40cae2:	f7f3 fb41 	bl	400168 <_init>

0040cae6 <.LVL7>:
  40cae6:	10b6      	asrs	r6, r6, #2

0040cae8 <.LVL8>:
  40cae8:	bf18      	it	ne
  40caea:	2400      	movne	r4, #0
  40caec:	d006      	beq.n	40cafc <.LVL12>

0040caee <.LVL9>:
  40caee:	3401      	adds	r4, #1

0040caf0 <.LVL10>:
  40caf0:	f855 3b04 	ldr.w	r3, [r5], #4
  40caf4:	4798      	blx	r3

0040caf6 <.LVL11>:
  40caf6:	42a6      	cmp	r6, r4
  40caf8:	d1f9      	bne.n	40caee <.LVL9>
  40cafa:	bd70      	pop	{r4, r5, r6, pc}

0040cafc <.LVL12>:
  40cafc:	bd70      	pop	{r4, r5, r6, pc}

0040cafe <.LVL13>:
  40cafe:	bf00      	nop
  40cb00:	00400174 	.word	0x00400174
  40cb04:	00400174 	.word	0x00400174
  40cb08:	0040017c 	.word	0x0040017c
  40cb0c:	00400174 	.word	0x00400174

Disassembly of section .text.Console_UART_Write%122:

0040cb10 <Console_UART_Write>:
{
  40cb10:	b538      	push	{r3, r4, r5, lr}

0040cb12 <.LCFI0>:
  40cb12:	460d      	mov	r5, r1
  40cb14:	4614      	mov	r4, r2

0040cb16 <.LVL3>:
    if (writeQueue.numElem >= writeQueue.elemArrSz)
  40cb16:	4b10      	ldr	r3, [pc, #64]	; (40cb58 <.LVL9+0x4>)
  40cb18:	689a      	ldr	r2, [r3, #8]

0040cb1a <.LVL4>:
  40cb1a:	691b      	ldr	r3, [r3, #16]
  40cb1c:	429a      	cmp	r2, r3
  40cb1e:	d216      	bcs.n	40cb4e <.LVL7>

0040cb20 <.LBB4>:
    q->qPkts[q->nextPos] = pkt;
  40cb20:	4b0d      	ldr	r3, [pc, #52]	; (40cb58 <.LVL9+0x4>)
  40cb22:	6859      	ldr	r1, [r3, #4]
  40cb24:	68da      	ldr	r2, [r3, #12]
  40cb26:	eb02 00c1 	add.w	r0, r2, r1, lsl #3
  40cb2a:	f842 5031 	str.w	r5, [r2, r1, lsl #3]
  40cb2e:	6044      	str	r4, [r0, #4]
    (q->nextPos < (q->elemArrSz - 1)) ? q->nextPos++ : (q->nextPos = 0);
  40cb30:	685a      	ldr	r2, [r3, #4]
  40cb32:	691b      	ldr	r3, [r3, #16]
  40cb34:	3b01      	subs	r3, #1
  40cb36:	429a      	cmp	r2, r3
  40cb38:	bf34      	ite	cc
  40cb3a:	3201      	addcc	r2, #1
  40cb3c:	2200      	movcs	r2, #0
  40cb3e:	4b06      	ldr	r3, [pc, #24]	; (40cb58 <.LVL9+0x4>)
  40cb40:	605a      	str	r2, [r3, #4]
    q->numElem++;
  40cb42:	4a05      	ldr	r2, [pc, #20]	; (40cb58 <.LVL9+0x4>)
  40cb44:	6893      	ldr	r3, [r2, #8]
  40cb46:	3301      	adds	r3, #1
  40cb48:	6093      	str	r3, [r2, #8]

0040cb4a <.LBE4>:
}
  40cb4a:	4620      	mov	r0, r4
  40cb4c:	bd38      	pop	{r3, r4, r5, pc}

0040cb4e <.LVL7>:
        popQueue(&writeQueue);
  40cb4e:	4802      	ldr	r0, [pc, #8]	; (40cb58 <.LVL9+0x4>)

0040cb50 <.LVL8>:
  40cb50:	f000 fce0 	bl	40d514 <.LFE4>

0040cb54 <.LVL9>:
  40cb54:	e7e4      	b.n	40cb20 <.LBB4>
  40cb56:	bf00      	nop
  40cb58:	2040dca8 	.word	0x2040dca8

Disassembly of section .text.sprintf%123:

0040cb5c <sprintf>:
  40cb5c:	b40e      	push	{r1, r2, r3}

0040cb5e <.LCFI6>:
  40cb5e:	b5f0      	push	{r4, r5, r6, r7, lr}

0040cb60 <.LCFI7>:
  40cb60:	b09c      	sub	sp, #112	; 0x70

0040cb62 <.LCFI8>:
  40cb62:	ab21      	add	r3, sp, #132	; 0x84
  40cb64:	490f      	ldr	r1, [pc, #60]	; (40cba4 <.LCFI11+0x4>)
  40cb66:	f853 2b04 	ldr.w	r2, [r3], #4
  40cb6a:	9301      	str	r3, [sp, #4]
  40cb6c:	4605      	mov	r5, r0
  40cb6e:	f06f 4400 	mvn.w	r4, #2147483648	; 0x80000000
  40cb72:	6808      	ldr	r0, [r1, #0]

0040cb74 <.LVL4>:
  40cb74:	9502      	str	r5, [sp, #8]
  40cb76:	f44f 7702 	mov.w	r7, #520	; 0x208
  40cb7a:	f64f 76ff 	movw	r6, #65535	; 0xffff
  40cb7e:	a902      	add	r1, sp, #8
  40cb80:	9506      	str	r5, [sp, #24]
  40cb82:	f8ad 7014 	strh.w	r7, [sp, #20]
  40cb86:	9404      	str	r4, [sp, #16]
  40cb88:	9407      	str	r4, [sp, #28]
  40cb8a:	f8ad 6016 	strh.w	r6, [sp, #22]
  40cb8e:	f7f7 fb3f 	bl	404210 <_svfprintf_r>

0040cb92 <.LVL5>:
  40cb92:	9b02      	ldr	r3, [sp, #8]
  40cb94:	2200      	movs	r2, #0
  40cb96:	701a      	strb	r2, [r3, #0]
  40cb98:	b01c      	add	sp, #112	; 0x70

0040cb9a <.LCFI9>:
  40cb9a:	e8bd 40f0 	ldmia.w	sp!, {r4, r5, r6, r7, lr}

0040cb9e <.LCFI10>:
  40cb9e:	b003      	add	sp, #12

0040cba0 <.LCFI11>:
  40cba0:	4770      	bx	lr
  40cba2:	bf00      	nop
  40cba4:	2040dce8 	.word	0x2040dce8

Disassembly of section .text._Balloc%124:

0040cba8 <_Balloc>:
  40cba8:	6cc3      	ldr	r3, [r0, #76]	; 0x4c
  40cbaa:	b570      	push	{r4, r5, r6, lr}

0040cbac <.LCFI0>:
  40cbac:	4605      	mov	r5, r0
  40cbae:	460c      	mov	r4, r1
  40cbb0:	b14b      	cbz	r3, 40cbc6 <.LVL3>

0040cbb2 <.LVL1>:
  40cbb2:	f853 0024 	ldr.w	r0, [r3, r4, lsl #2]

0040cbb6 <.LVL2>:
  40cbb6:	b180      	cbz	r0, 40cbda <.LVL6>
  40cbb8:	6802      	ldr	r2, [r0, #0]
  40cbba:	f843 2024 	str.w	r2, [r3, r4, lsl #2]
  40cbbe:	2300      	movs	r3, #0
  40cbc0:	6103      	str	r3, [r0, #16]
  40cbc2:	60c3      	str	r3, [r0, #12]
  40cbc4:	bd70      	pop	{r4, r5, r6, pc}

0040cbc6 <.LVL3>:
  40cbc6:	2221      	movs	r2, #33	; 0x21
  40cbc8:	2104      	movs	r1, #4

0040cbca <.LVL4>:
  40cbca:	f7ff fe15 	bl	40c7f8 <_calloc_r>

0040cbce <.LVL5>:
  40cbce:	64e8      	str	r0, [r5, #76]	; 0x4c
  40cbd0:	4603      	mov	r3, r0
  40cbd2:	2800      	cmp	r0, #0
  40cbd4:	d1ed      	bne.n	40cbb2 <.LVL1>
  40cbd6:	2000      	movs	r0, #0
  40cbd8:	bd70      	pop	{r4, r5, r6, pc}

0040cbda <.LVL6>:
  40cbda:	2101      	movs	r1, #1
  40cbdc:	fa01 f604 	lsl.w	r6, r1, r4
  40cbe0:	1d72      	adds	r2, r6, #5
  40cbe2:	4628      	mov	r0, r5

0040cbe4 <.LVL8>:
  40cbe4:	0092      	lsls	r2, r2, #2
  40cbe6:	f7ff fe07 	bl	40c7f8 <_calloc_r>

0040cbea <.LVL9>:
  40cbea:	2800      	cmp	r0, #0
  40cbec:	d0f3      	beq.n	40cbd6 <.LVL5+0x8>
  40cbee:	6044      	str	r4, [r0, #4]
  40cbf0:	6086      	str	r6, [r0, #8]
  40cbf2:	e7e4      	b.n	40cbbe <.LVL2+0x8>

Disassembly of section .text.SYS_CONSOLE_Initialize%125:

0040cbf4 <SYS_CONSOLE_Initialize>:
SYS_MODULE_OBJ SYS_CONSOLE_Initialize( const SYS_MODULE_INDEX index, const SYS_MODULE_INIT * const init )
{
    SYS_CONSOLE_INIT *initConfig = (SYS_CONSOLE_INIT*)init;

    /* Confirm valid arguments */
    if (index >= SYS_CONSOLE_DEVICE_MAX_INSTANCES || init == NULL)
  40cbf4:	b908      	cbnz	r0, 40cbfa <SYS_CONSOLE_Initialize+0x6>
  40cbf6:	4603      	mov	r3, r0
  40cbf8:	b911      	cbnz	r1, 40cc00 <.LVL2>
        return SYS_MODULE_OBJ_INVALID;
  40cbfa:	f04f 30ff 	mov.w	r0, #4294967295

0040cbfe <.LVL1>:
  40cbfe:	4770      	bx	lr

0040cc00 <.LVL2>:

    if ((consoleDeviceInstance[index].consoleDeviceInstanceStatus == SYS_STATUS_UNINITIALIZED) && initConfig)
  40cc00:	eb00 0240 	add.w	r2, r0, r0, lsl #1
  40cc04:	480c      	ldr	r0, [pc, #48]	; (40cc38 <.LVL5+0x6>)

0040cc06 <.LVL3>:
  40cc06:	f910 2022 	ldrsb.w	r2, [r0, r2, lsl #2]
  40cc0a:	b992      	cbnz	r2, 40cc32 <.LVL5>
  40cc0c:	b189      	cbz	r1, 40cc32 <.LVL5>
{
  40cc0e:	b430      	push	{r4, r5}

0040cc10 <.LCFI0>:
    {
        consoleDeviceInstance[index].consoleDevHandle = CONSOLE_DEVICE_HANDLE_INVALID;
  40cc10:	4604      	mov	r4, r0
  40cc12:	005a      	lsls	r2, r3, #1
  40cc14:	18d0      	adds	r0, r2, r3
  40cc16:	eb04 0080 	add.w	r0, r4, r0, lsl #2
  40cc1a:	f04f 35ff 	mov.w	r5, #4294967295
  40cc1e:	6085      	str	r5, [r0, #8]

        consoleDeviceInstance[index].consoleInstanceDevDesc = initConfig->consDevDesc;
  40cc20:	6849      	ldr	r1, [r1, #4]

0040cc22 <.LVL4>:
  40cc22:	6041      	str	r1, [r0, #4]
        consoleDeviceInstance[index].consoleDeviceInstanceStatus = SYS_STATUS_READY;
  40cc24:	441a      	add	r2, r3
  40cc26:	2102      	movs	r1, #2
  40cc28:	f804 1022 	strb.w	r1, [r4, r2, lsl #2]

        return index;
  40cc2c:	4618      	mov	r0, r3
    }

    return SYS_MODULE_OBJ_INVALID;
}
  40cc2e:	bc30      	pop	{r4, r5}

0040cc30 <.LCFI1>:
  40cc30:	4770      	bx	lr

0040cc32 <.LVL5>:
    return SYS_MODULE_OBJ_INVALID;
  40cc32:	f04f 30ff 	mov.w	r0, #4294967295
  40cc36:	4770      	bx	lr
  40cc38:	2040dcc8 	.word	0x2040dcc8

Disassembly of section .text.Console_UART_Status%126:

0040cc3c <Console_UART_Status>:
    if (consUartData.state == CONSOLE_UART_STATE_INIT)
  40cc3c:	4b0e      	ldr	r3, [pc, #56]	; (40cc78 <.LFE0+0x3c>)
  40cc3e:	781b      	ldrb	r3, [r3, #0]
  40cc40:	b1ab      	cbz	r3, 40cc6e <Console_UART_Status+0x32>
    if (consUartData.state == CONSOLE_UART_STATE_CRITICAL_ERROR || consUartData.state == CONSOLE_UART_STATE_OPERATIONAL_ERROR || consUartData.overflowFlag)
  40cc42:	3b07      	subs	r3, #7
  40cc44:	b2db      	uxtb	r3, r3
  40cc46:	2b01      	cmp	r3, #1
  40cc48:	d913      	bls.n	40cc72 <Console_UART_Status+0x36>
  40cc4a:	4b0b      	ldr	r3, [pc, #44]	; (40cc78 <.LFE0+0x3c>)
  40cc4c:	f893 3046 	ldrb.w	r3, [r3, #70]	; 0x46
  40cc50:	b10b      	cbz	r3, 40cc56 <Console_UART_Status+0x1a>
        status = SYS_CONSOLE_STATUS_ERROR;
  40cc52:	2003      	movs	r0, #3
  40cc54:	4770      	bx	lr
        status = (writeQueue.numElem || readQueue.numElem) ? SYS_CONSOLE_STATUS_BUSY : SYS_CONSOLE_STATUS_CONFIGURED;
  40cc56:	4b09      	ldr	r3, [pc, #36]	; (40cc7c <.LFE0+0x40>)
  40cc58:	689b      	ldr	r3, [r3, #8]
  40cc5a:	b10b      	cbz	r3, 40cc60 <Console_UART_Status+0x24>
  40cc5c:	2002      	movs	r0, #2
}
  40cc5e:	4770      	bx	lr
        status = (writeQueue.numElem || readQueue.numElem) ? SYS_CONSOLE_STATUS_BUSY : SYS_CONSOLE_STATUS_CONFIGURED;
  40cc60:	4b07      	ldr	r3, [pc, #28]	; (40cc80 <.LFE0+0x44>)
  40cc62:	689b      	ldr	r3, [r3, #8]
  40cc64:	2b00      	cmp	r3, #0
  40cc66:	bf14      	ite	ne
  40cc68:	2002      	movne	r0, #2
  40cc6a:	2001      	moveq	r0, #1
  40cc6c:	4770      	bx	lr
        return status;
  40cc6e:	2000      	movs	r0, #0
  40cc70:	4770      	bx	lr
        status = SYS_CONSOLE_STATUS_ERROR;
  40cc72:	2003      	movs	r0, #3
  40cc74:	4770      	bx	lr
  40cc76:	bf00      	nop
  40cc78:	2040db9c 	.word	0x2040db9c
  40cc7c:	2040dca8 	.word	0x2040dca8
  40cc80:	2040dc94 	.word	0x2040dc94

Disassembly of section .text.USART1_Write%127:

0040cc84 <USART1_Write>:
bool USART1_Write( void *buffer, const size_t size )
{
    bool status = false;
    uint8_t * lBuffer = (uint8_t *)buffer;

    if(NULL != lBuffer)
  40cc84:	b1c8      	cbz	r0, 40ccba <.LVL58>
    {
        /* Check if transmit request is in progress */
        if(usart1Obj.txBusyStatus == false)
  40cc86:	4b0f      	ldr	r3, [pc, #60]	; (40ccc4 <.LVL61+0x4>)
  40cc88:	7d1b      	ldrb	r3, [r3, #20]
  40cc8a:	b9c3      	cbnz	r3, 40ccbe <.LVL60>
        {
            usart1Obj.txBuffer = lBuffer;
  40cc8c:	4b0d      	ldr	r3, [pc, #52]	; (40ccc4 <.LVL61+0x4>)
  40cc8e:	6018      	str	r0, [r3, #0]
            usart1Obj.txSize = size;
  40cc90:	6059      	str	r1, [r3, #4]
            usart1Obj.txProcessedSize = 0;
  40cc92:	2100      	movs	r1, #0

0040cc94 <.LVL55>:
  40cc94:	6099      	str	r1, [r3, #8]
            usart1Obj.txBusyStatus = true;
  40cc96:	2101      	movs	r1, #1
  40cc98:	7519      	strb	r1, [r3, #20]

0040cc9a <.LVL56>:
            status = true;

            /* Initiate the transfer by sending first byte */
            if(US_CSR_TXEMPTY_Msk == (USART1_REGS->US_CSR& US_CSR_TXEMPTY_Msk))
  40cc9a:	4b0b      	ldr	r3, [pc, #44]	; (40ccc8 <.LVL61+0x8>)
  40cc9c:	695b      	ldr	r3, [r3, #20]
  40cc9e:	f413 7f00 	tst.w	r3, #512	; 0x200
  40cca2:	d004      	beq.n	40ccae <.LVL56+0x14>
            {
                USART1_REGS->US_THR = (US_THR_TXCHR(*lBuffer) & US_THR_TXCHR_Msk);
  40cca4:	7802      	ldrb	r2, [r0, #0]
  40cca6:	4b08      	ldr	r3, [pc, #32]	; (40ccc8 <.LVL61+0x8>)
  40cca8:	61da      	str	r2, [r3, #28]
                usart1Obj.txProcessedSize++;
  40ccaa:	4b06      	ldr	r3, [pc, #24]	; (40ccc4 <.LVL61+0x4>)
  40ccac:	6099      	str	r1, [r3, #8]
            }

            USART1_REGS->US_IER = US_IER_TXEMPTY_Msk;
  40ccae:	f44f 7200 	mov.w	r2, #512	; 0x200
  40ccb2:	4b05      	ldr	r3, [pc, #20]	; (40ccc8 <.LVL61+0x8>)
  40ccb4:	609a      	str	r2, [r3, #8]
            status = true;
  40ccb6:	2001      	movs	r0, #1

0040ccb8 <.LVL57>:
  40ccb8:	4770      	bx	lr

0040ccba <.LVL58>:
    bool status = false;
  40ccba:	2000      	movs	r0, #0

0040ccbc <.LVL59>:
  40ccbc:	4770      	bx	lr

0040ccbe <.LVL60>:
  40ccbe:	2000      	movs	r0, #0

0040ccc0 <.LVL61>:
        }
    }

    return status;
}
  40ccc0:	4770      	bx	lr
  40ccc2:	bf00      	nop
  40ccc4:	20400454 	.word	0x20400454
  40ccc8:	40028000 	.word	0x40028000

Disassembly of section .text.SYS_INT_SourceDisable%128:

0040cccc <SYS_INT_SourceDisable>:

    return;
}

bool SYS_INT_SourceDisable( INT_SOURCE source )
{
  40cccc:	b538      	push	{r3, r4, r5, lr}

0040ccce <.LCFI0>:
  40ccce:	4604      	mov	r4, r0
    INT_CONTROLLER_STATUS processorStatus;
    bool intSrcStatus;

    processorStatus = SYS_INT_Disable();
  40ccd0:	f000 fd84 	bl	40d7dc <.LFE18>

0040ccd4 <.LBB50>:
  if ((int32_t)(IRQn) >= 0)
  40ccd4:	2c00      	cmp	r4, #0
  40ccd6:	db16      	blt.n	40cd06 <.LVL9>
    return((uint32_t)(((NVIC->ISER[(((uint32_t)(int32_t)IRQn) >> 5UL)] & (1UL << (((uint32_t)(int32_t)IRQn) & 0x1FUL))) != 0UL) ? 1UL : 0UL));
  40ccd8:	0963      	lsrs	r3, r4, #5
  40ccda:	490c      	ldr	r1, [pc, #48]	; (40cd0c <.LVL9+0x6>)
  40ccdc:	f851 5023 	ldr.w	r5, [r1, r3, lsl #2]
  40cce0:	f004 041f 	and.w	r4, r4, #31

0040cce4 <.LVL5>:
  40cce4:	40e5      	lsrs	r5, r4

0040cce6 <.LBE50>:

    intSrcStatus = NVIC_GetEnableIRQ(source);
  40cce6:	f005 0501 	and.w	r5, r5, #1

0040ccea <.LBB52>:
    NVIC->ICER[(((uint32_t)(int32_t)IRQn) >> 5UL)] = (uint32_t)(1UL << (((uint32_t)(int32_t)IRQn) & 0x1FUL));
  40ccea:	2201      	movs	r2, #1
  40ccec:	fa02 f404 	lsl.w	r4, r2, r4
  40ccf0:	3320      	adds	r3, #32
  40ccf2:	f841 4023 	str.w	r4, [r1, r3, lsl #2]

0040ccf6 <.LBB54>:
  __ASM volatile ("dsb 0xF":::"memory");
  40ccf6:	f3bf 8f4f 	dsb	sy

0040ccfa <.LBB56>:
  __ASM volatile ("isb 0xF":::"memory");
  40ccfa:	f3bf 8f6f 	isb	sy

0040ccfe <.LBE52>:

    NVIC_DisableIRQ( source );

    SYS_INT_Restore( processorStatus );
  40ccfe:	f000 fd76 	bl	40d7ee <.LFE142>

0040cd02 <.LVL8>:

    /* return the source status */
    return intSrcStatus;
  40cd02:	4628      	mov	r0, r5
  40cd04:	bd38      	pop	{r3, r4, r5, pc}

0040cd06 <.LVL9>:
    intSrcStatus = NVIC_GetEnableIRQ(source);
  40cd06:	2500      	movs	r5, #0
  40cd08:	e7f9      	b.n	40ccfe <.LBE52>
  40cd0a:	bf00      	nop
  40cd0c:	e000e100 	.word	0xe000e100

Disassembly of section .rodata.SHA512Expected%129:

0040cd10 <SHA512Expected>:
  40cd10:	7f15497f 9eb359b3 4d93daa6 0907a1c9     .I...Y.....M....
  40cd20:	4688dffe e6d039d1 fcc0a337 426f3b83     ...F.9..7....;oB
  40cd30:	db583870 f428eeac 955e9b48 65e5b5fa     p8X...(.H.^....e
  40cd40:	38f8255a f37bdcb0 c07c4cc8 4f6a4f26     Z%.8..{..L|.&OjO
  40cd50:	bf000000                                ....

Disassembly of section .text.USART1_ErrorGet%130:

0040cd54 <USART1_ErrorGet>:
    uint32_t status = USART1_REGS->US_CSR;
  40cd54:	4b0f      	ldr	r3, [pc, #60]	; (40cd94 <.LVL13+0xc>)
  40cd56:	695b      	ldr	r3, [r3, #20]

0040cd58 <.LVL6>:
    USART_ERROR errors = USART_ERROR_NONE;
  40cd58:	f3c3 1040 	ubfx	r0, r3, #5, #1

0040cd5c <.LVL7>:
    if(status & US_CSR_PARE_Msk)
  40cd5c:	f013 0f80 	tst.w	r3, #128	; 0x80
        errors |= USART_ERROR_PARITY;
  40cd60:	bf18      	it	ne
  40cd62:	f040 0002 	orrne.w	r0, r0, #2
    if(status & US_CSR_FRAME_Msk)
  40cd66:	f013 0f40 	tst.w	r3, #64	; 0x40
        errors |= USART_ERROR_FRAMING;
  40cd6a:	bf18      	it	ne
  40cd6c:	f040 0004 	orrne.w	r0, r0, #4
    if(errors != USART_ERROR_NONE)
  40cd70:	b900      	cbnz	r0, 40cd74 <.LBB14>

0040cd72 <.LVL10>:
}
  40cd72:	4770      	bx	lr

0040cd74 <.LBB14>:
    USART1_REGS->US_CR|= US_CR_RSTSTA_Msk;
  40cd74:	4b07      	ldr	r3, [pc, #28]	; (40cd94 <.LVL13+0xc>)

0040cd76 <.LVL12>:
  40cd76:	681a      	ldr	r2, [r3, #0]
  40cd78:	f442 7280 	orr.w	r2, r2, #256	; 0x100
  40cd7c:	601a      	str	r2, [r3, #0]
    while( US_CSR_RXRDY_Msk == (USART1_REGS->US_CSR& US_CSR_RXRDY_Msk) )
  40cd7e:	695b      	ldr	r3, [r3, #20]
  40cd80:	f013 0f01 	tst.w	r3, #1
  40cd84:	d0f5      	beq.n	40cd72 <.LVL10>
        dummyData = (USART1_REGS->US_RHR& US_RHR_RXCHR_Msk);
  40cd86:	4b03      	ldr	r3, [pc, #12]	; (40cd94 <.LVL13+0xc>)

0040cd88 <.LVL13>:
  40cd88:	699a      	ldr	r2, [r3, #24]
    while( US_CSR_RXRDY_Msk == (USART1_REGS->US_CSR& US_CSR_RXRDY_Msk) )
  40cd8a:	695a      	ldr	r2, [r3, #20]
  40cd8c:	f012 0f01 	tst.w	r2, #1
  40cd90:	d1fa      	bne.n	40cd88 <.LVL13>
  40cd92:	e7ee      	b.n	40cd72 <.LVL10>
  40cd94:	40028000 	.word	0x40028000

Disassembly of section .rodata%131:

0040cd98 <.LC5-0x24>:
  40cd98:	00464e49 	.word	0x00464e49
  40cd9c:	00666e69 	.word	0x00666e69
  40cda0:	004e414e 	.word	0x004e414e
  40cda4:	006e616e 	.word	0x006e616e
  40cda8:	33323130 	.word	0x33323130
  40cdac:	37363534 	.word	0x37363534
  40cdb0:	42413938 	.word	0x42413938
  40cdb4:	46454443 	.word	0x46454443
  40cdb8:	00000000 	.word	0x00000000

0040cdbc <.LC5>:
  40cdbc:	33323130 	.word	0x33323130
  40cdc0:	37363534 	.word	0x37363534
  40cdc4:	62613938 	.word	0x62613938
  40cdc8:	66656463 	.word	0x66656463
  40cdcc:	00000000 	.word	0x00000000

0040cdd0 <.LC6>:
  40cdd0:	6c756e28 	.word	0x6c756e28
  40cdd4:	0000296c 	.word	0x0000296c
  40cdd8:	0030      	.short	0x0030
  40cdda:	bf00      	nop
  40cddc:	00464e49 	.word	0x00464e49
  40cde0:	00666e69 	.word	0x00666e69
  40cde4:	004e414e 	.word	0x004e414e
  40cde8:	006e616e 	.word	0x006e616e
  40cdec:	33323130 	.word	0x33323130
  40cdf0:	37363534 	.word	0x37363534
  40cdf4:	42413938 	.word	0x42413938
  40cdf8:	46454443 	.word	0x46454443
  40cdfc:	00000000 	.word	0x00000000

0040ce00 <.LC5>:
  40ce00:	33323130 	.word	0x33323130
  40ce04:	37363534 	.word	0x37363534
  40ce08:	62613938 	.word	0x62613938
  40ce0c:	66656463 	.word	0x66656463
  40ce10:	00000000 	.word	0x00000000

0040ce14 <.LC6>:
  40ce14:	6c756e28 	.word	0x6c756e28
  40ce18:	0000296c 	.word	0x0000296c
  40ce1c:	0030      	.short	0x0030
  40ce1e:	bf00      	nop

Disassembly of section .rodata.sha_padding%133:

0040ce20 <sha_padding>:
  40ce20:	0080 0000 0000 0000 0000 0000 0000 0000     ................
	...

Disassembly of section .text.__hi0bits%134:

0040ce60 <__hi0bits>:
  40ce60:	0c02      	lsrs	r2, r0, #16
  40ce62:	0412      	lsls	r2, r2, #16
  40ce64:	4603      	mov	r3, r0
  40ce66:	b9b2      	cbnz	r2, 40ce96 <.LVL75>

0040ce68 <.LVL63>:
  40ce68:	0403      	lsls	r3, r0, #16

0040ce6a <.LVL64>:
  40ce6a:	2010      	movs	r0, #16

0040ce6c <.LVL65>:
  40ce6c:	f013 4f7f 	tst.w	r3, #4278190080	; 0xff000000
  40ce70:	bf04      	itt	eq
  40ce72:	021b      	lsleq	r3, r3, #8

0040ce74 <.LVL66>:
  40ce74:	3008      	addeq	r0, #8

0040ce76 <.LVL67>:
  40ce76:	f013 4f70 	tst.w	r3, #4026531840	; 0xf0000000
  40ce7a:	bf04      	itt	eq
  40ce7c:	011b      	lsleq	r3, r3, #4

0040ce7e <.LVL68>:
  40ce7e:	3004      	addeq	r0, #4

0040ce80 <.LVL69>:
  40ce80:	f013 4f40 	tst.w	r3, #3221225472	; 0xc0000000
  40ce84:	bf04      	itt	eq
  40ce86:	009b      	lsleq	r3, r3, #2

0040ce88 <.LVL70>:
  40ce88:	3002      	addeq	r0, #2

0040ce8a <.LVL71>:
  40ce8a:	2b00      	cmp	r3, #0
  40ce8c:	db02      	blt.n	40ce94 <.LVL74>

0040ce8e <.LVL72>:
  40ce8e:	005b      	lsls	r3, r3, #1

0040ce90 <.LVL73>:
  40ce90:	d403      	bmi.n	40ce9a <.LVL77>
  40ce92:	2020      	movs	r0, #32

0040ce94 <.LVL74>:
  40ce94:	4770      	bx	lr

0040ce96 <.LVL75>:
  40ce96:	2000      	movs	r0, #0

0040ce98 <.LVL76>:
  40ce98:	e7e8      	b.n	40ce6c <.LVL65>

0040ce9a <.LVL77>:
  40ce9a:	3001      	adds	r0, #1

0040ce9c <.LVL78>:
  40ce9c:	4770      	bx	lr

0040ce9e <.LFE21>:
  40ce9e:	bf00      	nop

Disassembly of section .text.Console_UART_Flush%135:

0040cea0 <Console_UART_Flush>:
    if (consUartData.state != CONSOLE_UART_STATE_INIT)
  40cea0:	4b0b      	ldr	r3, [pc, #44]	; (40ced0 <Console_UART_Flush+0x30>)
  40cea2:	781b      	ldrb	r3, [r3, #0]
  40cea4:	b113      	cbz	r3, 40ceac <Console_UART_Flush+0xc>
        consUartData.state = CONSOLE_UART_STATE_READY;
  40cea6:	2202      	movs	r2, #2
  40cea8:	4b09      	ldr	r3, [pc, #36]	; (40ced0 <Console_UART_Flush+0x30>)
  40ceaa:	701a      	strb	r2, [r3, #0]
    consUartData.overflowFlag = false;
  40ceac:	4a08      	ldr	r2, [pc, #32]	; (40ced0 <Console_UART_Flush+0x30>)
  40ceae:	2300      	movs	r3, #0
  40ceb0:	f882 3046 	strb.w	r3, [r2, #70]	; 0x46
    consUartData.isWriteComplete = true;
  40ceb4:	2001      	movs	r0, #1
  40ceb6:	f882 0045 	strb.w	r0, [r2, #69]	; 0x45
    writeQueue.nextPos = 0;
  40ceba:	4906      	ldr	r1, [pc, #24]	; (40ced4 <Console_UART_Flush+0x34>)
  40cebc:	604b      	str	r3, [r1, #4]
    writeQueue.tailPos = 0;
  40cebe:	600b      	str	r3, [r1, #0]
    writeQueue.numElem = 0;
  40cec0:	608b      	str	r3, [r1, #8]
    consUartData.isReadComplete = true;
  40cec2:	f882 0044 	strb.w	r0, [r2, #68]	; 0x44
    readQueue.nextPos = 0;
  40cec6:	4a04      	ldr	r2, [pc, #16]	; (40ced8 <Console_UART_Flush+0x38>)
  40cec8:	6053      	str	r3, [r2, #4]
    readQueue.tailPos = 0;
  40ceca:	6013      	str	r3, [r2, #0]
    readQueue.numElem = 0;
  40cecc:	6093      	str	r3, [r2, #8]
  40cece:	4770      	bx	lr
  40ced0:	2040db9c 	.word	0x2040db9c
  40ced4:	2040dca8 	.word	0x2040dca8
  40ced8:	2040dc94 	.word	0x2040dc94

Disassembly of section .text.USART1_Initialize%136:

0040cedc <USART1_Initialize>:
    USART1_REGS->US_CR = (US_CR_RSTRX_Msk | US_CR_RSTTX_Msk | US_CR_RSTSTA_Msk);
  40cedc:	4b0c      	ldr	r3, [pc, #48]	; (40cf10 <.LFE170+0x34>)
  40cede:	f44f 7286 	mov.w	r2, #268	; 0x10c
  40cee2:	601a      	str	r2, [r3, #0]
    USART1_REGS->US_CR = (US_CR_TXEN_Msk | US_CR_RXEN_Msk);
  40cee4:	2250      	movs	r2, #80	; 0x50
  40cee6:	601a      	str	r2, [r3, #0]
    USART1_REGS->US_MR = ((US_MR_USCLKS_MCK) | (0 << US_MR_MODE9_Pos) | US_MR_CHRL_8_BIT | US_MR_PAR_NO | US_MR_NBSTOP_1_BIT | (0 << US_MR_SYNC_Pos) | (0 << US_MR_OVER_Pos));
  40cee8:	f44f 620c 	mov.w	r2, #2240	; 0x8c0
  40ceec:	605a      	str	r2, [r3, #4]
    USART1_REGS->US_BRGR = US_BRGR_CD(81);
  40ceee:	2251      	movs	r2, #81	; 0x51
  40cef0:	621a      	str	r2, [r3, #32]
    usart1Obj.rxBuffer = NULL;
  40cef2:	4b08      	ldr	r3, [pc, #32]	; (40cf14 <.LFE170+0x38>)
  40cef4:	2200      	movs	r2, #0
  40cef6:	619a      	str	r2, [r3, #24]
    usart1Obj.rxSize = 0;
  40cef8:	61da      	str	r2, [r3, #28]
    usart1Obj.rxProcessedSize = 0;
  40cefa:	621a      	str	r2, [r3, #32]
    usart1Obj.rxBusyStatus = false;
  40cefc:	f883 202c 	strb.w	r2, [r3, #44]	; 0x2c
    usart1Obj.rxCallback = NULL;
  40cf00:	625a      	str	r2, [r3, #36]	; 0x24
    usart1Obj.txBuffer = NULL;
  40cf02:	601a      	str	r2, [r3, #0]
    usart1Obj.txSize = 0;
  40cf04:	605a      	str	r2, [r3, #4]
    usart1Obj.txProcessedSize = 0;
  40cf06:	609a      	str	r2, [r3, #8]
    usart1Obj.txBusyStatus = false;
  40cf08:	751a      	strb	r2, [r3, #20]
    usart1Obj.txCallback = NULL;
  40cf0a:	60da      	str	r2, [r3, #12]
  40cf0c:	4770      	bx	lr
  40cf0e:	bf00      	nop
  40cf10:	40028000 	.word	0x40028000
  40cf14:	20400454 	.word	0x20400454

Disassembly of section .text.USART1_Read%137:

0040cf18 <USART1_Read>:
    if(NULL != lBuffer)
  40cf18:	b1a0      	cbz	r0, 40cf44 <.LCFI5>
{
  40cf1a:	b538      	push	{r3, r4, r5, lr}

0040cf1c <.LCFI4>:
  40cf1c:	4605      	mov	r5, r0
  40cf1e:	460c      	mov	r4, r1
        USART1_ErrorGet();
  40cf20:	f7ff ff18 	bl	40cd54 <USART1_ErrorGet>

0040cf24 <.LVL47>:
        if(usart1Obj.rxBusyStatus == false)
  40cf24:	4b09      	ldr	r3, [pc, #36]	; (40cf4c <.LVL53>)
  40cf26:	f893 302c 	ldrb.w	r3, [r3, #44]	; 0x2c
  40cf2a:	b96b      	cbnz	r3, 40cf48 <.LCFI6>
            usart1Obj.rxBuffer = lBuffer;
  40cf2c:	4b07      	ldr	r3, [pc, #28]	; (40cf4c <.LVL53>)
  40cf2e:	619d      	str	r5, [r3, #24]
            usart1Obj.rxSize = size;
  40cf30:	61dc      	str	r4, [r3, #28]
            usart1Obj.rxProcessedSize = 0;
  40cf32:	2200      	movs	r2, #0
  40cf34:	621a      	str	r2, [r3, #32]
            usart1Obj.rxBusyStatus = true;
  40cf36:	2001      	movs	r0, #1
  40cf38:	f883 002c 	strb.w	r0, [r3, #44]	; 0x2c

0040cf3c <.LVL48>:
            USART1_REGS->US_IER = (US_IER_RXRDY_Msk | US_IER_FRAME_Msk | US_IER_PARE_Msk | US_IER_OVRE_Msk);
  40cf3c:	22e1      	movs	r2, #225	; 0xe1
  40cf3e:	4b04      	ldr	r3, [pc, #16]	; (40cf50 <.LVL53+0x4>)
  40cf40:	609a      	str	r2, [r3, #8]
  40cf42:	bd38      	pop	{r3, r4, r5, pc}

0040cf44 <.LCFI5>:
    bool status = false;
  40cf44:	2000      	movs	r0, #0

0040cf46 <.LVL50>:
  40cf46:	4770      	bx	lr

0040cf48 <.LCFI6>:
  40cf48:	2000      	movs	r0, #0

0040cf4a <.LVL52>:
}
  40cf4a:	bd38      	pop	{r3, r4, r5, pc}

0040cf4c <.LVL53>:
  40cf4c:	20400454 	.word	0x20400454
  40cf50:	40028000 	.word	0x40028000

Disassembly of section .text.__swrite%138:

0040cf54 <__swrite>:
  40cf54:	e92d 41f0 	stmdb	sp!, {r4, r5, r6, r7, r8, lr}

0040cf58 <.LCFI1>:
  40cf58:	4616      	mov	r6, r2
  40cf5a:	f9b1 200c 	ldrsh.w	r2, [r1, #12]

0040cf5e <.LVL8>:
  40cf5e:	461f      	mov	r7, r3
  40cf60:	05d3      	lsls	r3, r2, #23

0040cf62 <.LVL9>:
  40cf62:	460c      	mov	r4, r1

0040cf64 <.LVL10>:
  40cf64:	4605      	mov	r5, r0
  40cf66:	d507      	bpl.n	40cf78 <.LVL12+0x4>
  40cf68:	2200      	movs	r2, #0
  40cf6a:	2302      	movs	r3, #2
  40cf6c:	f9b1 100e 	ldrsh.w	r1, [r1, #14]

0040cf70 <.LVL11>:
  40cf70:	f000 f956 	bl	40d220 <.LFE0>

0040cf74 <.LVL12>:
  40cf74:	f9b4 200c 	ldrsh.w	r2, [r4, #12]
  40cf78:	f9b4 100e 	ldrsh.w	r1, [r4, #14]
  40cf7c:	f422 5280 	bic.w	r2, r2, #4096	; 0x1000
  40cf80:	81a2      	strh	r2, [r4, #12]
  40cf82:	463b      	mov	r3, r7
  40cf84:	4632      	mov	r2, r6
  40cf86:	4628      	mov	r0, r5
  40cf88:	e8bd 41f0 	ldmia.w	sp!, {r4, r5, r6, r7, r8, lr}

0040cf8c <.LCFI2>:
  40cf8c:	f000 b932 	b.w	40d1f4 <.LBE10>

Disassembly of section .text._write%139:

0040cf90 <_write>:
  40cf90:	b570      	push	{r4, r5, r6, lr}
  40cf92:	460d      	mov	r5, r1
  40cf94:	b1a9      	cbz	r1, 40cfc2 <_write+0x32>
  40cf96:	4614      	mov	r4, r2
  40cf98:	b10a      	cbz	r2, 40cf9e <_write+0xe>
  40cf9a:	2802      	cmp	r0, #2
  40cf9c:	d901      	bls.n	40cfa2 <_write+0x12>
  40cf9e:	4620      	mov	r0, r4
  40cfa0:	bd70      	pop	{r4, r5, r6, pc}
  40cfa2:	4b09      	ldr	r3, [pc, #36]	; (40cfc8 <.LFE3+0x38>)
  40cfa4:	b12b      	cbz	r3, 40cfb2 <_write+0x22>
  40cfa6:	4608      	mov	r0, r1
  40cfa8:	4611      	mov	r1, r2
  40cfaa:	f3af 8000 	nop.w
  40cfae:	4620      	mov	r0, r4
  40cfb0:	bd70      	pop	{r4, r5, r6, pc}
  40cfb2:	4616      	mov	r6, r2
  40cfb4:	f815 0b01 	ldrb.w	r0, [r5], #1
  40cfb8:	f000 f825 	bl	40d006 <.LFE144>
  40cfbc:	3e01      	subs	r6, #1
  40cfbe:	d1f9      	bne.n	40cfb4 <_write+0x24>
  40cfc0:	e7ed      	b.n	40cf9e <_write+0xe>
  40cfc2:	460c      	mov	r4, r1
  40cfc4:	4620      	mov	r0, r4
  40cfc6:	bd70      	pop	{r4, r5, r6, pc}
  40cfc8:	00000000 	.word	0x00000000

Disassembly of section .text.timerHardwarePeriod_update%140:

0040cfcc <timerHardwarePeriod_update>:
{
  40cfcc:	b510      	push	{r4, lr}

0040cfce <.LCFI0>:
  40cfce:	4604      	mov	r4, r0
    uint32_t hardwareCounter = counterObj->timePlib->timerCounterGet();
  40cfd0:	6843      	ldr	r3, [r0, #4]
  40cfd2:	691b      	ldr	r3, [r3, #16]
  40cfd4:	4798      	blx	r3

0040cfd6 <.LVL4>:
    if(counterObj->tmrActive->timeRemaining > HW_COUNTER_MAX)
  40cfd6:	6ae3      	ldr	r3, [r4, #44]	; 0x2c
  40cfd8:	691b      	ldr	r3, [r3, #16]
  40cfda:	f5b3 3f80 	cmp.w	r3, #65536	; 0x10000
  40cfde:	d207      	bcs.n	40cff0 <.LVL8>
        countNeeded = (counterObj->tmrActive->timeRemaining + hardwareCounter);
  40cfe0:	4418      	add	r0, r3

0040cfe2 <.LVL5>:
        if(countNeeded > HW_COUNTER_MAX)
  40cfe2:	f5b0 3f80 	cmp.w	r0, #65536	; 0x10000
  40cfe6:	d305      	bcc.n	40cff4 <.LVL9>
            hardwarePeriod = (countNeeded - HW_COUNTER_MAX);
  40cfe8:	f5a0 407f 	sub.w	r0, r0, #65280	; 0xff00

0040cfec <.LVL6>:
  40cfec:	38ff      	subs	r0, #255	; 0xff

0040cfee <.LVL7>:
  40cfee:	e001      	b.n	40cff4 <.LVL9>

0040cff0 <.LVL8>:
        hardwarePeriod = HW_COUNTER_MAX;
  40cff0:	f64f 70ff 	movw	r0, #65535	; 0xffff

0040cff4 <.LVL9>:
    if(hardwarePeriod != counterObj->timePeriod)
  40cff4:	6963      	ldr	r3, [r4, #20]
  40cff6:	4298      	cmp	r0, r3
  40cff8:	d004      	beq.n	40d004 <.LVL10>
        counterObj->timePeriodPrevious = counterObj->timePeriod;
  40cffa:	6123      	str	r3, [r4, #16]
        counterObj->timePeriod = hardwarePeriod;
  40cffc:	6160      	str	r0, [r4, #20]
        counterObj->timePlib->timerPeriodSet(counterObj->timePeriod);
  40cffe:	6863      	ldr	r3, [r4, #4]
  40d000:	685b      	ldr	r3, [r3, #4]
  40d002:	4798      	blx	r3

0040d004 <.LVL10>:
  40d004:	bd10      	pop	{r4, pc}

Disassembly of section .text.wc_InitMd5_ex%141:

0040d008 <wc_InitMd5_ex>:
    if (md5 == NULL)
  40d008:	4603      	mov	r3, r0
  40d00a:	b1a0      	cbz	r0, 40d036 <.LVL328>
    md5->heap = heap;
  40d00c:	65c1      	str	r1, [r0, #92]	; 0x5c

0040d00e <.LBB139>:
    md5->digest[0] = 0x67452301L;
  40d00e:	4a0b      	ldr	r2, [pc, #44]	; (40d03c <.LVL329+0x2>)

0040d010 <.LVL325>:
  40d010:	64c2      	str	r2, [r0, #76]	; 0x4c
    md5->digest[1] = 0xefcdab89L;
  40d012:	f102 3288 	add.w	r2, r2, #2290649224	; 0x88888888
  40d016:	6502      	str	r2, [r0, #80]	; 0x50
    md5->digest[2] = 0x98badcfeL;
  40d018:	f102 4229 	add.w	r2, r2, #2835349504	; 0xa9000000
  40d01c:	f5a2 1296 	sub.w	r2, r2, #1228800	; 0x12c000
  40d020:	f6a2 628b 	subw	r2, r2, #3723	; 0xe8b
  40d024:	6542      	str	r2, [r0, #84]	; 0x54
    md5->digest[3] = 0x10325476L;
  40d026:	f1a2 3288 	sub.w	r2, r2, #2290649224	; 0x88888888
  40d02a:	6582      	str	r2, [r0, #88]	; 0x58
    md5->buffLen = 0;
  40d02c:	2000      	movs	r0, #0

0040d02e <.LVL326>:
  40d02e:	6018      	str	r0, [r3, #0]
    md5->loLen   = 0;
  40d030:	6058      	str	r0, [r3, #4]
    md5->hiLen   = 0;
  40d032:	6098      	str	r0, [r3, #8]

0040d034 <.LBE139>:
  40d034:	4770      	bx	lr

0040d036 <.LVL328>:
        return BAD_FUNC_ARG;
  40d036:	f06f 00ac 	mvn.w	r0, #172	; 0xac

0040d03a <.LVL329>:
}
  40d03a:	4770      	bx	lr
  40d03c:	67452301 	.word	0x67452301

Disassembly of section .text.__mcmp%142:

0040d040 <__mcmp>:
  40d040:	b430      	push	{r4, r5}

0040d042 <.LCFI12>:
  40d042:	690b      	ldr	r3, [r1, #16]
  40d044:	4605      	mov	r5, r0
  40d046:	6900      	ldr	r0, [r0, #16]

0040d048 <.LVL212>:
  40d048:	1ac0      	subs	r0, r0, r3

0040d04a <.LVL213>:
  40d04a:	d10f      	bne.n	40d06c <.LVL223>
  40d04c:	009b      	lsls	r3, r3, #2

0040d04e <.LVL214>:
  40d04e:	3514      	adds	r5, #20

0040d050 <.LVL215>:
  40d050:	3114      	adds	r1, #20

0040d052 <.LVL216>:
  40d052:	4419      	add	r1, r3

0040d054 <.LVL217>:
  40d054:	442b      	add	r3, r5

0040d056 <.LVL218>:
  40d056:	e001      	b.n	40d05c <.LVL220>

0040d058 <.LVL219>:
  40d058:	429d      	cmp	r5, r3
  40d05a:	d207      	bcs.n	40d06c <.LVL223>

0040d05c <.LVL220>:
  40d05c:	f853 4d04 	ldr.w	r4, [r3, #-4]!

0040d060 <.LVL221>:
  40d060:	f851 2d04 	ldr.w	r2, [r1, #-4]!

0040d064 <.LVL222>:
  40d064:	4294      	cmp	r4, r2
  40d066:	d0f7      	beq.n	40d058 <.LVL219>
  40d068:	d302      	bcc.n	40d070 <.LCFI14>
  40d06a:	2001      	movs	r0, #1

0040d06c <.LVL223>:
  40d06c:	bc30      	pop	{r4, r5}

0040d06e <.LCFI13>:
  40d06e:	4770      	bx	lr

0040d070 <.LCFI14>:
  40d070:	f04f 30ff 	mov.w	r0, #4294967295

0040d074 <.LVL225>:
  40d074:	e7fa      	b.n	40d06c <.LVL223>

0040d076 <.LFE27>:
  40d076:	bf00      	nop

Disassembly of section .rodata.SHA384Expected%143:

0040d078 <SHA384Expected>:
  40d078:	50a5 1a56 3063 8e04 82fe 976a fee5 43d8     .PV.c0....j....C
  40d088:	1cfa 46e6 bfa9 6c54 43cb 2f3c 0ecb 8254     ...F..Tl.C</..T.
  40d098:	4c1c 5e94 9aed 2b59 f45b 5731 12e2 77f2     .L.^..Y+[.1W...w
  40d0a8:	0000 bf00                                   ....

Disassembly of section .text.__libc_fini_array%144:

0040d0ac <__libc_fini_array>:
  40d0ac:	b538      	push	{r3, r4, r5, lr}

0040d0ae <.LCFI0>:
  40d0ae:	4c0a      	ldr	r4, [pc, #40]	; (40d0d8 <.LVL6+0x2>)
  40d0b0:	4d0a      	ldr	r5, [pc, #40]	; (40d0dc <.LVL6+0x6>)
  40d0b2:	1b64      	subs	r4, r4, r5

0040d0b4 <.LVL0>:
  40d0b4:	10a4      	asrs	r4, r4, #2

0040d0b6 <.LVL1>:
  40d0b6:	d00a      	beq.n	40d0ce <.LVL4+0x4>
  40d0b8:	f104 4380 	add.w	r3, r4, #1073741824	; 0x40000000
  40d0bc:	3b01      	subs	r3, #1
  40d0be:	eb05 0583 	add.w	r5, r5, r3, lsl #2

0040d0c2 <.LVL2>:
  40d0c2:	3c01      	subs	r4, #1

0040d0c4 <.LVL3>:
  40d0c4:	f855 3904 	ldr.w	r3, [r5], #-4
  40d0c8:	4798      	blx	r3

0040d0ca <.LVL4>:
  40d0ca:	2c00      	cmp	r4, #0
  40d0cc:	d1f9      	bne.n	40d0c2 <.LVL2>
  40d0ce:	e8bd 4038 	ldmia.w	sp!, {r3, r4, r5, lr}

0040d0d2 <.LCFI1>:
  40d0d2:	f7f3 b853 	b.w	40017c <_fini>

0040d0d6 <.LVL6>:
  40d0d6:	bf00      	nop
  40d0d8:	0040018c 	.word	0x0040018c
  40d0dc:	00400188 	.word	0x00400188

Disassembly of section .text.SYS_CONSOLE_Write%145:

0040d0e0 <SYS_CONSOLE_Write>:
    None.
*/

ssize_t SYS_CONSOLE_Write(const SYS_MODULE_INDEX index, int fd, const char *buf, size_t count )
{
    if (index >= SYS_CONSOLE_DEVICE_MAX_INSTANCES)
  40d0e0:	b970      	cbnz	r0, 40d100 <.LCFI9>
        return 0;

    if (consoleDeviceInstance[index].consoleDeviceInstanceStatus == SYS_STATUS_UNINITIALIZED
  40d0e2:	480a      	ldr	r0, [pc, #40]	; (40d10c <.LVL48>)

0040d0e4 <.LVL42>:
  40d0e4:	f990 0000 	ldrsb.w	r0, [r0]
  40d0e8:	b160      	cbz	r0, 40d104 <.LVL47+0x2>
{
  40d0ea:	b538      	push	{r3, r4, r5, lr}

0040d0ec <.LCFI8>:
            || consoleDeviceInstance[index].consoleInstanceDevDesc == NULL)
  40d0ec:	4807      	ldr	r0, [pc, #28]	; (40d10c <.LVL48>)
  40d0ee:	6845      	ldr	r5, [r0, #4]
  40d0f0:	b155      	cbz	r5, 40d108 <.LCFI10>
  40d0f2:	4614      	mov	r4, r2
  40d0f4:	4608      	mov	r0, r1
    {
        return 0;
    }

    return consoleDeviceInstance[index].consoleInstanceDevDesc->sysConsoleWrite(fd, buf, count);
  40d0f6:	68ed      	ldr	r5, [r5, #12]
  40d0f8:	461a      	mov	r2, r3

0040d0fa <.LVL43>:
  40d0fa:	4621      	mov	r1, r4

0040d0fc <.LVL44>:
  40d0fc:	47a8      	blx	r5

0040d0fe <.LVL45>:
  40d0fe:	bd38      	pop	{r3, r4, r5, pc}

0040d100 <.LCFI9>:
        return 0;
  40d100:	2000      	movs	r0, #0

0040d102 <.LVL47>:
  40d102:	4770      	bx	lr
        return 0;
  40d104:	2000      	movs	r0, #0
  40d106:	4770      	bx	lr

0040d108 <.LCFI10>:
  40d108:	2000      	movs	r0, #0
}
  40d10a:	bd38      	pop	{r3, r4, r5, pc}

0040d10c <.LVL48>:
  40d10c:	2040dcc8 	.word	0x2040dcc8

Disassembly of section .text.SYS_TIME_CounterGet%146:

0040d110 <SYS_TIME_CounterGet>:
{
    return gSystemCounterObj.timeFrequency;
}

uint32_t SYS_TIME_CounterGet ( void )
{
  40d110:	b510      	push	{r4, lr}

0040d112 <.LCFI8>:
    SYS_TIME_COUNTER_OBJ * counterObj = (SYS_TIME_COUNTER_OBJ *)&gSystemCounterObj;
    uint32_t counterDelta = 0;
    uint32_t hardwareCounter = counterObj->timePlib->timerCounterGet();
  40d112:	4c0a      	ldr	r4, [pc, #40]	; (40d13c <.LVL92+0x4>)
  40d114:	6863      	ldr	r3, [r4, #4]
  40d116:	691b      	ldr	r3, [r3, #16]
  40d118:	4798      	blx	r3

0040d11a <.LVL88>:

    if((counterObj->timePeriod > counterObj->timePeriodPrevious) || (hardwareCounter > counterObj->timePeriod))
  40d11a:	6963      	ldr	r3, [r4, #20]
  40d11c:	6922      	ldr	r2, [r4, #16]
  40d11e:	4298      	cmp	r0, r3
  40d120:	d806      	bhi.n	40d130 <.LVL90>
  40d122:	4293      	cmp	r3, r2
  40d124:	d804      	bhi.n	40d130 <.LVL90>
    {
        counterDelta = (hardwareCounter - counterObj->timePeriodPrevious);
    }
    else
    {
        counterDelta = (HW_COUNTER_MAX - counterObj->timePeriodPrevious) + hardwareCounter;
  40d126:	f64f 73ff 	movw	r3, #65535	; 0xffff
  40d12a:	1a9b      	subs	r3, r3, r2
  40d12c:	4418      	add	r0, r3

0040d12e <.LVL89>:
  40d12e:	e000      	b.n	40d132 <.LVL91>

0040d130 <.LVL90>:
        counterDelta = (hardwareCounter - counterObj->timePeriodPrevious);
  40d130:	1a80      	subs	r0, r0, r2

0040d132 <.LVL91>:
    }

    return (counterObj->counter + counterDelta);
  40d132:	4b02      	ldr	r3, [pc, #8]	; (40d13c <.LVL92+0x4>)
  40d134:	699b      	ldr	r3, [r3, #24]
}
  40d136:	4418      	add	r0, r3

0040d138 <.LVL92>:
  40d138:	bd10      	pop	{r4, pc}
  40d13a:	bf00      	nop
  40d13c:	2040dbec 	.word	0x2040dbec

Disassembly of section .text%147:

0040d140 <__aeabi_uldivmod>:
  40d140:	b953      	cbnz	r3, 40d158 <__aeabi_uldivmod+0x18>
  40d142:	b94a      	cbnz	r2, 40d158 <__aeabi_uldivmod+0x18>
  40d144:	2900      	cmp	r1, #0
  40d146:	bf08      	it	eq
  40d148:	2800      	cmpeq	r0, #0
  40d14a:	bf1c      	itt	ne
  40d14c:	f04f 31ff 	movne.w	r1, #4294967295
  40d150:	f04f 30ff 	movne.w	r0, #4294967295
  40d154:	f000 b8e2 	b.w	40d31c <.LFE2>
  40d158:	f1ad 0c08 	sub.w	ip, sp, #8
  40d15c:	e96d ce04 	strd	ip, lr, [sp, #-16]!
  40d160:	f7fb fb02 	bl	408768 <.LBE4>
  40d164:	f8dd e004 	ldr.w	lr, [sp, #4]
  40d168:	e9dd 2302 	ldrd	r2, r3, [sp, #8]
  40d16c:	b004      	add	sp, #16
  40d16e:	4770      	bx	lr

Disassembly of section .text.APP_DisplayHash%148:

0040d170 <APP_DisplayHash>:
    while (hashSz--) {
  40d170:	b179      	cbz	r1, 40d192 <.LCFI2>
void APP_DisplayHash(uint8_t *hash, uint32_t hashSz) {
  40d172:	b5f8      	push	{r3, r4, r5, r6, r7, lr}

0040d174 <.LCFI1>:
  40d174:	4604      	mov	r4, r0
  40d176:	460e      	mov	r6, r1
  40d178:	4406      	add	r6, r0
        sprintf(printBuffer, "%s%02X", printBuffer, *hash++);
  40d17a:	4d06      	ldr	r5, [pc, #24]	; (40d194 <.LCFI2+0x2>)
  40d17c:	4f06      	ldr	r7, [pc, #24]	; (40d198 <.LCFI2+0x6>)

0040d17e <.LVL2>:
  40d17e:	f814 3b01 	ldrb.w	r3, [r4], #1

0040d182 <.LVL3>:
  40d182:	462a      	mov	r2, r5
  40d184:	4639      	mov	r1, r7
  40d186:	4628      	mov	r0, r5
  40d188:	f7ff fce8 	bl	40cb5c <.LFE166>

0040d18c <.LVL4>:
    while (hashSz--) {
  40d18c:	42a6      	cmp	r6, r4
  40d18e:	d1f6      	bne.n	40d17e <.LVL2>
  40d190:	bdf8      	pop	{r3, r4, r5, r6, r7, pc}

0040d192 <.LCFI2>:
  40d192:	4770      	bx	lr
  40d194:	20400488 	.word	0x20400488
  40d198:	0040a4ec 	.word	0x0040a4ec

Disassembly of section .text.__ascii_mbtowc%149:

0040d19c <__ascii_mbtowc>:
  40d19c:	b082      	sub	sp, #8

0040d19e <.LCFI2>:
  40d19e:	b149      	cbz	r1, 40d1b4 <.LCFI4>
  40d1a0:	b15a      	cbz	r2, 40d1ba <.LVL9+0x4>
  40d1a2:	b16b      	cbz	r3, 40d1c0 <.LCFI6>
  40d1a4:	7813      	ldrb	r3, [r2, #0]

0040d1a6 <.LVL4>:
  40d1a6:	600b      	str	r3, [r1, #0]
  40d1a8:	7812      	ldrb	r2, [r2, #0]

0040d1aa <.LVL5>:
  40d1aa:	1c10      	adds	r0, r2, #0

0040d1ac <.LVL6>:
  40d1ac:	bf18      	it	ne
  40d1ae:	2001      	movne	r0, #1
  40d1b0:	b002      	add	sp, #8

0040d1b2 <.LCFI3>:
  40d1b2:	4770      	bx	lr

0040d1b4 <.LCFI4>:
  40d1b4:	a901      	add	r1, sp, #4

0040d1b6 <.LVL9>:
  40d1b6:	2a00      	cmp	r2, #0
  40d1b8:	d1f3      	bne.n	40d1a2 <.LCFI2+0x4>
  40d1ba:	4610      	mov	r0, r2

0040d1bc <.LVL10>:
  40d1bc:	b002      	add	sp, #8

0040d1be <.LCFI5>:
  40d1be:	4770      	bx	lr

0040d1c0 <.LCFI6>:
  40d1c0:	f06f 0001 	mvn.w	r0, #1

0040d1c4 <.LVL13>:
  40d1c4:	e7f4      	b.n	40d1b0 <.LVL6+0x4>

0040d1c6 <.LFE18>:
  40d1c6:	bf00      	nop

Disassembly of section .text._fflush_r%150:

0040d1c8 <_fflush_r>:
  40d1c8:	b510      	push	{r4, lr}

0040d1ca <.LBB8>:
  40d1ca:	4604      	mov	r4, r0

0040d1cc <.LBE8>:
  40d1cc:	b082      	sub	sp, #8

0040d1ce <.LBB9>:
  40d1ce:	b108      	cbz	r0, 40d1d4 <.LBE9>
  40d1d0:	6b83      	ldr	r3, [r0, #56]	; 0x38
  40d1d2:	b153      	cbz	r3, 40d1ea <.LCFI7>

0040d1d4 <.LBE9>:
  40d1d4:	f9b1 000c 	ldrsh.w	r0, [r1, #12]
  40d1d8:	b908      	cbnz	r0, 40d1de <.LCFI4>
  40d1da:	b002      	add	sp, #8

0040d1dc <.LCFI3>:
  40d1dc:	bd10      	pop	{r4, pc}

0040d1de <.LCFI4>:
  40d1de:	4620      	mov	r0, r4
  40d1e0:	b002      	add	sp, #8

0040d1e2 <.LCFI5>:
  40d1e2:	e8bd 4010 	ldmia.w	sp!, {r4, lr}

0040d1e6 <.LCFI6>:
  40d1e6:	f7fc bbdb 	b.w	4099a0 <.LFE173>

0040d1ea <.LCFI7>:
  40d1ea:	9101      	str	r1, [sp, #4]

0040d1ec <.LBB10>:
  40d1ec:	f000 fbe0 	bl	40d9b0 <.LFE4>

0040d1f0 <.LVL38>:
  40d1f0:	9901      	ldr	r1, [sp, #4]
  40d1f2:	e7ef      	b.n	40d1d4 <.LBE9>

Disassembly of section .text._write_r%151:

0040d1f4 <_write_r>:
  40d1f4:	b570      	push	{r4, r5, r6, lr}

0040d1f6 <.LCFI0>:
  40d1f6:	460d      	mov	r5, r1
  40d1f8:	4c08      	ldr	r4, [pc, #32]	; (40d21c <.LVL7+0x2>)

0040d1fa <.LBB2>:
  40d1fa:	4611      	mov	r1, r2

0040d1fc <.LBE2>:
  40d1fc:	4606      	mov	r6, r0

0040d1fe <.LBB3>:
  40d1fe:	461a      	mov	r2, r3

0040d200 <.LVL2>:
  40d200:	4628      	mov	r0, r5

0040d202 <.LBE3>:
  40d202:	2300      	movs	r3, #0

0040d204 <.LVL4>:
  40d204:	6023      	str	r3, [r4, #0]

0040d206 <.LBB4>:
  40d206:	f7ff fec3 	bl	40cf90 <.LFE3>

0040d20a <.LVL5>:
  40d20a:	1c43      	adds	r3, r0, #1
  40d20c:	d000      	beq.n	40d210 <.LBB5>

0040d20e <.LBE4>:
  40d20e:	bd70      	pop	{r4, r5, r6, pc}

0040d210 <.LBB5>:
  40d210:	6823      	ldr	r3, [r4, #0]
  40d212:	2b00      	cmp	r3, #0
  40d214:	d0fb      	beq.n	40d20e <.LBE4>
  40d216:	6033      	str	r3, [r6, #0]

0040d218 <.LBE5>:
  40d218:	bd70      	pop	{r4, r5, r6, pc}

0040d21a <.LVL7>:
  40d21a:	bf00      	nop
  40d21c:	20400484 	.word	0x20400484

Disassembly of section .text._lseek_r%152:

0040d220 <_lseek_r>:
  40d220:	b570      	push	{r4, r5, r6, lr}

0040d222 <.LCFI0>:
  40d222:	460d      	mov	r5, r1
  40d224:	4c08      	ldr	r4, [pc, #32]	; (40d248 <.LVL7+0x2>)

0040d226 <.LBB2>:
  40d226:	4611      	mov	r1, r2

0040d228 <.LBE2>:
  40d228:	4606      	mov	r6, r0

0040d22a <.LBB3>:
  40d22a:	461a      	mov	r2, r3

0040d22c <.LVL2>:
  40d22c:	4628      	mov	r0, r5

0040d22e <.LBE3>:
  40d22e:	2300      	movs	r3, #0

0040d230 <.LVL4>:
  40d230:	6023      	str	r3, [r4, #0]

0040d232 <.LBB4>:
  40d232:	f000 fbe5 	bl	40da00 <.LFE0>

0040d236 <.LVL5>:
  40d236:	1c43      	adds	r3, r0, #1
  40d238:	d000      	beq.n	40d23c <.LBB5>

0040d23a <.LBE4>:
  40d23a:	bd70      	pop	{r4, r5, r6, pc}

0040d23c <.LBB5>:
  40d23c:	6823      	ldr	r3, [r4, #0]
  40d23e:	2b00      	cmp	r3, #0
  40d240:	d0fb      	beq.n	40d23a <.LBE4>
  40d242:	6033      	str	r3, [r6, #0]

0040d244 <.LBE5>:
  40d244:	bd70      	pop	{r4, r5, r6, pc}

0040d246 <.LVL7>:
  40d246:	bf00      	nop
  40d248:	20400484 	.word	0x20400484

Disassembly of section .text._read_r%153:

0040d24c <_read_r>:
  40d24c:	b570      	push	{r4, r5, r6, lr}

0040d24e <.LCFI0>:
  40d24e:	460d      	mov	r5, r1
  40d250:	4c08      	ldr	r4, [pc, #32]	; (40d274 <.LVL7+0x2>)

0040d252 <.LBB2>:
  40d252:	4611      	mov	r1, r2

0040d254 <.LBE2>:
  40d254:	4606      	mov	r6, r0

0040d256 <.LBB3>:
  40d256:	461a      	mov	r2, r3

0040d258 <.LVL2>:
  40d258:	4628      	mov	r0, r5

0040d25a <.LBE3>:
  40d25a:	2300      	movs	r3, #0

0040d25c <.LVL4>:
  40d25c:	6023      	str	r3, [r4, #0]

0040d25e <.LBB4>:
  40d25e:	f000 f89b 	bl	40d398 <.LFE0>

0040d262 <.LVL5>:
  40d262:	1c43      	adds	r3, r0, #1
  40d264:	d000      	beq.n	40d268 <.LBB5>

0040d266 <.LBE4>:
  40d266:	bd70      	pop	{r4, r5, r6, pc}

0040d268 <.LBB5>:
  40d268:	6823      	ldr	r3, [r4, #0]
  40d26a:	2b00      	cmp	r3, #0
  40d26c:	d0fb      	beq.n	40d266 <.LBE4>
  40d26e:	6033      	str	r3, [r6, #0]

0040d270 <.LBE5>:
  40d270:	bd70      	pop	{r4, r5, r6, pc}

0040d272 <.LVL7>:
  40d272:	bf00      	nop
  40d274:	20400484 	.word	0x20400484

Disassembly of section .text._sbrk%154:

0040d278 <_sbrk>:
  40d278:	4a07      	ldr	r2, [pc, #28]	; (40d298 <.LFE0+0x20>)
  40d27a:	6813      	ldr	r3, [r2, #0]
  40d27c:	b143      	cbz	r3, 40d290 <_sbrk+0x18>
  40d27e:	4907      	ldr	r1, [pc, #28]	; (40d29c <.LFE0+0x24>)
  40d280:	4418      	add	r0, r3
  40d282:	4288      	cmp	r0, r1
  40d284:	bf9a      	itte	ls
  40d286:	6010      	strls	r0, [r2, #0]
  40d288:	4618      	movls	r0, r3
  40d28a:	f04f 30ff 	movhi.w	r0, #4294967295
  40d28e:	4770      	bx	lr
  40d290:	4b03      	ldr	r3, [pc, #12]	; (40d2a0 <.LFE0+0x28>)
  40d292:	6013      	str	r3, [r2, #0]
  40d294:	e7f3      	b.n	40d27e <_sbrk+0x6>
  40d296:	bf00      	nop
  40d298:	2040dd00 	.word	0x2040dd00
  40d29c:	2040ed08 	.word	0x2040ed08
  40d2a0:	2040dd08 	.word	0x2040dd08

Disassembly of section .text.time_resourceUnlock%155:

0040d2a4 <time_resourceUnlock>:
    SYS_INT_SourceEnable(gSystemCounterObj.timeInterrupt);
  40d2a4:	4b07      	ldr	r3, [pc, #28]	; (40d2c4 <.LVL2+0x4>)
  40d2a6:	f993 3008 	ldrsb.w	r3, [r3, #8]

0040d2aa <.LBB4>:
  if ((int32_t)(IRQn) >= 0)
  40d2aa:	2b00      	cmp	r3, #0
  40d2ac:	db08      	blt.n	40d2c0 <.LVL2>
    NVIC->ISER[(((uint32_t)(int32_t)IRQn) >> 5UL)] = (uint32_t)(1UL << (((uint32_t)(int32_t)IRQn) & 0x1FUL));
  40d2ae:	0959      	lsrs	r1, r3, #5
  40d2b0:	f003 031f 	and.w	r3, r3, #31

0040d2b4 <.LVL1>:
  40d2b4:	2201      	movs	r2, #1
  40d2b6:	fa02 f303 	lsl.w	r3, r2, r3
  40d2ba:	4a03      	ldr	r2, [pc, #12]	; (40d2c8 <.LVL2+0x8>)
  40d2bc:	f842 3021 	str.w	r3, [r2, r1, lsl #2]

0040d2c0 <.LVL2>:
  40d2c0:	4770      	bx	lr
  40d2c2:	bf00      	nop
  40d2c4:	2040dbec 	.word	0x2040dbec
  40d2c8:	e000e100 	.word	0xe000e100

Disassembly of section .text.TC1_CH0_TimerInitialize%156:

0040d2cc <TC1_CH0_TimerInitialize>:

/* Initialize channel in timer mode */
void TC1_CH0_TimerInitialize (void)
{
    /* Use peripheral clock */
    TC1_REGS->TC_CHANNEL[0].TC_EMR = TC_EMR_NODIVCLK_Msk;
  40d2cc:	4b07      	ldr	r3, [pc, #28]	; (40d2ec <.LBE4+0x20>)
  40d2ce:	f44f 7280 	mov.w	r2, #256	; 0x100
  40d2d2:	631a      	str	r2, [r3, #48]	; 0x30
    /* clock selection and waveform selection */
    TC1_REGS->TC_CHANNEL[0].TC_CMR =  TC_CMR_WAVSEL_UP_RC | TC_CMR_WAVE_Msk ;
  40d2d4:	f44f 4240 	mov.w	r2, #49152	; 0xc000
  40d2d8:	605a      	str	r2, [r3, #4]

    /* write period */
    TC1_REGS->TC_CHANNEL[0].TC_RC = 60060U;
  40d2da:	f64e 229c 	movw	r2, #60060	; 0xea9c
  40d2de:	61da      	str	r2, [r3, #28]

    /* enable interrupt */
    TC1_REGS->TC_CHANNEL[0].TC_IER = TC_IER_CPCS_Msk;
  40d2e0:	2210      	movs	r2, #16
  40d2e2:	625a      	str	r2, [r3, #36]	; 0x24
    TC1_CH0_CallbackObj.callback_fn = NULL;
  40d2e4:	2200      	movs	r2, #0
  40d2e6:	4b02      	ldr	r3, [pc, #8]	; (40d2f0 <.LBE4+0x24>)
  40d2e8:	601a      	str	r2, [r3, #0]
  40d2ea:	4770      	bx	lr
  40d2ec:	40010000 	.word	0x40010000
  40d2f0:	2040044c 	.word	0x2040044c

Disassembly of section .text.printf%157:

0040d2f4 <printf>:
  40d2f4:	b40f      	push	{r0, r1, r2, r3}

0040d2f6 <.LCFI6>:
  40d2f6:	b500      	push	{lr}

0040d2f8 <.LCFI7>:
  40d2f8:	4907      	ldr	r1, [pc, #28]	; (40d318 <.LCFI11+0x4>)
  40d2fa:	b083      	sub	sp, #12

0040d2fc <.LCFI8>:
  40d2fc:	ab04      	add	r3, sp, #16
  40d2fe:	6808      	ldr	r0, [r1, #0]

0040d300 <.LVL3>:
  40d300:	f853 2b04 	ldr.w	r2, [r3], #4
  40d304:	6881      	ldr	r1, [r0, #8]
  40d306:	9301      	str	r3, [sp, #4]
  40d308:	f7f5 faee 	bl	4028e8 <_vfprintf_r>

0040d30c <.LVL4>:
  40d30c:	b003      	add	sp, #12

0040d30e <.LCFI9>:
  40d30e:	f85d eb04 	ldr.w	lr, [sp], #4

0040d312 <.LCFI10>:
  40d312:	b004      	add	sp, #16

0040d314 <.LCFI11>:
  40d314:	4770      	bx	lr
  40d316:	bf00      	nop
  40d318:	2040dce8 	.word	0x2040dce8

Disassembly of section .rodata.__mprec_bigtens%158:

0040d320 <__mprec_bigtens>:
  40d320:	37e08000 4341c379 b5056e17 4693b8b5     ...7y.AC.n.....F
  40d330:	e93ff9f5 4d384f03 f9301d32 5a827748     ..?..O8M2.0.Hw.Z
  40d340:	7f73bf3c 75154fdd                       <.s..O.u

Disassembly of section .text._fputwc_r%159:

0040d348 <_fputwc_r>:
  40d348:	f9b2 300c 	ldrsh.w	r3, [r2, #12]
  40d34c:	f413 5f00 	tst.w	r3, #8192	; 0x2000
  40d350:	d10b      	bne.n	40d36a <.LVL17>
  40d352:	b410      	push	{r4}

0040d354 <.LCFI7>:
  40d354:	6e54      	ldr	r4, [r2, #100]	; 0x64
  40d356:	f443 5300 	orr.w	r3, r3, #8192	; 0x2000
  40d35a:	f444 5400 	orr.w	r4, r4, #8192	; 0x2000
  40d35e:	6654      	str	r4, [r2, #100]	; 0x64
  40d360:	8193      	strh	r3, [r2, #12]
  40d362:	f85d 4b04 	ldr.w	r4, [sp], #4

0040d366 <.LCFI8>:
  40d366:	f7fe ba83 	b.w	40b870 <.LFE25>

0040d36a <.LVL17>:
  40d36a:	f7fe ba81 	b.w	40b870 <.LFE25>

0040d36e <.LFE2>:
  40d36e:	bf00      	nop

Disassembly of section .text._fstat_r%160:

0040d370 <_fstat_r>:
  40d370:	b538      	push	{r3, r4, r5, lr}

0040d372 <.LCFI0>:
  40d372:	460b      	mov	r3, r1
  40d374:	4c07      	ldr	r4, [pc, #28]	; (40d394 <.LVL6>)
  40d376:	4605      	mov	r5, r0

0040d378 <.LBB2>:
  40d378:	4611      	mov	r1, r2

0040d37a <.LVL1>:
  40d37a:	4618      	mov	r0, r3

0040d37c <.LBE2>:
  40d37c:	2300      	movs	r3, #0

0040d37e <.LVL3>:
  40d37e:	6023      	str	r3, [r4, #0]

0040d380 <.LBB3>:
  40d380:	f000 fb22 	bl	40d9c8 <_fstat>

0040d384 <.LVL4>:
  40d384:	1c43      	adds	r3, r0, #1
  40d386:	d000      	beq.n	40d38a <.LBB4>

0040d388 <.LBE3>:
  40d388:	bd38      	pop	{r3, r4, r5, pc}

0040d38a <.LBB4>:
  40d38a:	6823      	ldr	r3, [r4, #0]
  40d38c:	2b00      	cmp	r3, #0
  40d38e:	d0fb      	beq.n	40d388 <.LBE3>
  40d390:	602b      	str	r3, [r5, #0]

0040d392 <.LBE4>:
  40d392:	bd38      	pop	{r3, r4, r5, pc}

0040d394 <.LVL6>:
  40d394:	20400484 	.word	0x20400484

Disassembly of section .text._read%161:

0040d398 <_read>:
  40d398:	b570      	push	{r4, r5, r6, lr}
  40d39a:	460d      	mov	r5, r1
  40d39c:	b161      	cbz	r1, 40d3b8 <_read+0x20>
  40d39e:	4616      	mov	r6, r2
  40d3a0:	b142      	cbz	r2, 40d3b4 <_read+0x1c>
  40d3a2:	b938      	cbnz	r0, 40d3b4 <_read+0x1c>
  40d3a4:	4614      	mov	r4, r2
  40d3a6:	2001      	movs	r0, #1
  40d3a8:	f7fd fee8 	bl	40b17c <.LFE1>
  40d3ac:	3c01      	subs	r4, #1
  40d3ae:	f805 0b01 	strb.w	r0, [r5], #1
  40d3b2:	d1f8      	bne.n	40d3a6 <_read+0xe>
  40d3b4:	4630      	mov	r0, r6
  40d3b6:	bd70      	pop	{r4, r5, r6, pc}
  40d3b8:	460e      	mov	r6, r1
  40d3ba:	4630      	mov	r0, r6
  40d3bc:	bd70      	pop	{r4, r5, r6, pc}

0040d3be <.LFE1>:
  40d3be:	bf00      	nop

Disassembly of section .rodata.SHA256Expected%162:

0040d3c0 <SHA256Expected>:
  40d3c0:	a885 754a 6e88 528a be6d e1c4 336e fa75     ..Ju.n.Rm...n3u.
  40d3d0:	07a3 aeb4 79ad edc9 6432 47c0 6f7a ba6e     .....y..2d.Gzon.
  40d3e0:	0000 bf00                                   ....

Disassembly of section .text.TC1_CH0_InterruptHandler%163:

0040d3e4 <TC1_CH0_InterruptHandler>:
    TC1_CH0_CallbackObj.callback_fn = callback;
    TC1_CH0_CallbackObj.context = context;
}

void TC1_CH0_InterruptHandler(void)
{
  40d3e4:	b508      	push	{r3, lr}

0040d3e6 <.LCFI2>:
    TC1_CH0_TimerStatus = TC1_REGS->TC_CHANNEL[0].TC_SR;
  40d3e6:	4b05      	ldr	r3, [pc, #20]	; (40d3fc <.LCFI2+0x16>)
  40d3e8:	6a1a      	ldr	r2, [r3, #32]
  40d3ea:	4b05      	ldr	r3, [pc, #20]	; (40d400 <.LCFI2+0x1a>)
  40d3ec:	601a      	str	r2, [r3, #0]
    /* Call registered callback function */
    if (TC1_CH0_CallbackObj.callback_fn != NULL)
  40d3ee:	4b05      	ldr	r3, [pc, #20]	; (40d404 <.LCFI2+0x1e>)
  40d3f0:	681b      	ldr	r3, [r3, #0]
  40d3f2:	b113      	cbz	r3, 40d3fa <.LCFI2+0x14>
    {
        TC1_CH0_CallbackObj.callback_fn(TC1_CH0_CallbackObj.context);
  40d3f4:	4a03      	ldr	r2, [pc, #12]	; (40d404 <.LCFI2+0x1e>)
  40d3f6:	6850      	ldr	r0, [r2, #4]
  40d3f8:	4798      	blx	r3
  40d3fa:	bd08      	pop	{r3, pc}
  40d3fc:	40010000 	.word	0x40010000
  40d400:	2040dce4 	.word	0x2040dce4
  40d404:	2040044c 	.word	0x2040044c

Disassembly of section .text._sbrk_r%164:

0040d408 <_sbrk_r>:
  40d408:	b538      	push	{r3, r4, r5, lr}

0040d40a <.LCFI0>:
  40d40a:	4c07      	ldr	r4, [pc, #28]	; (40d428 <.LVL4>)
  40d40c:	2300      	movs	r3, #0
  40d40e:	4605      	mov	r5, r0
  40d410:	4608      	mov	r0, r1

0040d412 <.LVL1>:
  40d412:	6023      	str	r3, [r4, #0]
  40d414:	f7ff ff30 	bl	40d278 <.LFE0>

0040d418 <.LVL2>:
  40d418:	1c43      	adds	r3, r0, #1
  40d41a:	d000      	beq.n	40d41e <.LVL2+0x6>
  40d41c:	bd38      	pop	{r3, r4, r5, pc}
  40d41e:	6823      	ldr	r3, [r4, #0]
  40d420:	2b00      	cmp	r3, #0
  40d422:	d0fb      	beq.n	40d41c <.LVL2+0x4>
  40d424:	602b      	str	r3, [r5, #0]
  40d426:	bd38      	pop	{r3, r4, r5, pc}

0040d428 <.LVL4>:
  40d428:	20400484 	.word	0x20400484

Disassembly of section .text.__sread%165:

0040d42c <__sread>:
  40d42c:	b510      	push	{r4, lr}

0040d42e <.LCFI0>:
  40d42e:	460c      	mov	r4, r1

0040d430 <.LVL1>:
  40d430:	f9b1 100e 	ldrsh.w	r1, [r1, #14]

0040d434 <.LVL2>:
  40d434:	f7ff ff0a 	bl	40d24c <.LFE0>

0040d438 <.LVL3>:
  40d438:	2800      	cmp	r0, #0
  40d43a:	db03      	blt.n	40d444 <.LVL3+0xc>
  40d43c:	6d23      	ldr	r3, [r4, #80]	; 0x50
  40d43e:	4403      	add	r3, r0
  40d440:	6523      	str	r3, [r4, #80]	; 0x50
  40d442:	bd10      	pop	{r4, pc}
  40d444:	89a3      	ldrh	r3, [r4, #12]
  40d446:	f423 5380 	bic.w	r3, r3, #4096	; 0x1000
  40d44a:	81a3      	strh	r3, [r4, #12]
  40d44c:	bd10      	pop	{r4, pc}

0040d44e <.LFE1>:
  40d44e:	bf00      	nop

Disassembly of section .text._close_r%166:

0040d450 <_close_r>:
  40d450:	b538      	push	{r3, r4, r5, lr}

0040d452 <.LCFI0>:
  40d452:	4c07      	ldr	r4, [pc, #28]	; (40d470 <.LVL4>)
  40d454:	2300      	movs	r3, #0
  40d456:	4605      	mov	r5, r0

0040d458 <.LBB2>:
  40d458:	4608      	mov	r0, r1

0040d45a <.LBE2>:
  40d45a:	6023      	str	r3, [r4, #0]

0040d45c <.LBB3>:
  40d45c:	f000 fabe 	bl	40d9dc <.LFE5>

0040d460 <.LVL2>:
  40d460:	1c43      	adds	r3, r0, #1
  40d462:	d000      	beq.n	40d466 <.LBB4>

0040d464 <.LBE3>:
  40d464:	bd38      	pop	{r3, r4, r5, pc}

0040d466 <.LBB4>:
  40d466:	6823      	ldr	r3, [r4, #0]
  40d468:	2b00      	cmp	r3, #0
  40d46a:	d0fb      	beq.n	40d464 <.LBE3>
  40d46c:	602b      	str	r3, [r5, #0]

0040d46e <.LBE4>:
  40d46e:	bd38      	pop	{r3, r4, r5, pc}

0040d470 <.LVL4>:
  40d470:	20400484 	.word	0x20400484

Disassembly of section .text._isatty_r%167:

0040d474 <_isatty_r>:
  40d474:	b538      	push	{r3, r4, r5, lr}

0040d476 <.LCFI0>:
  40d476:	4c07      	ldr	r4, [pc, #28]	; (40d494 <.LVL4>)
  40d478:	2300      	movs	r3, #0
  40d47a:	4605      	mov	r5, r0

0040d47c <.LBB2>:
  40d47c:	4608      	mov	r0, r1

0040d47e <.LBE2>:
  40d47e:	6023      	str	r3, [r4, #0]

0040d480 <.LBB3>:
  40d480:	f000 fabc 	bl	40d9fc <_isatty>

0040d484 <.LVL2>:
  40d484:	1c43      	adds	r3, r0, #1
  40d486:	d000      	beq.n	40d48a <.LBB4>

0040d488 <.LBE3>:
  40d488:	bd38      	pop	{r3, r4, r5, pc}

0040d48a <.LBB4>:
  40d48a:	6823      	ldr	r3, [r4, #0]
  40d48c:	2b00      	cmp	r3, #0
  40d48e:	d0fb      	beq.n	40d488 <.LBE3>
  40d490:	602b      	str	r3, [r5, #0]

0040d492 <.LBE4>:
  40d492:	bd38      	pop	{r3, r4, r5, pc}

0040d494 <.LVL4>:
  40d494:	20400484 	.word	0x20400484

Disassembly of section .text.Console_UART_ReadC%168:

0040d498 <Console_UART_ReadC>:
{
  40d498:	b500      	push	{lr}

0040d49a <.LCFI1>:
  40d49a:	b083      	sub	sp, #12

0040d49c <.LCFI2>:
    USART1_Read(&readBuffer, 1);
  40d49c:	2101      	movs	r1, #1
  40d49e:	f10d 0007 	add.w	r0, sp, #7

0040d4a2 <.LVL13>:
  40d4a2:	f7ff fd39 	bl	40cf18 <.LFE145>

0040d4a6 <.LVL14>:
    while (USART1_ReadCountGet() == 0);
  40d4a6:	f000 fa71 	bl	40d98c <.LFE148>

0040d4aa <.LVL15>:
  40d4aa:	2800      	cmp	r0, #0
  40d4ac:	d0fb      	beq.n	40d4a6 <.LVL14>
}
  40d4ae:	f89d 0007 	ldrb.w	r0, [sp, #7]
  40d4b2:	b003      	add	sp, #12

0040d4b4 <.LCFI3>:
  40d4b4:	f85d fb04 	ldr.w	pc, [sp], #4

Disassembly of section .text.SYS_DEBUG_Initialize%169:

0040d4b8 <SYS_DEBUG_Initialize>:

SYS_MODULE_OBJ SYS_DEBUG_Initialize(const SYS_MODULE_INDEX index, const SYS_MODULE_INIT * const init )
{
    SYS_DEBUG_INIT *initConfig = (SYS_DEBUG_INIT*)init;

    gblErrLvl = initConfig->errorLevel;
  40d4b8:	784a      	ldrb	r2, [r1, #1]
  40d4ba:	4b05      	ldr	r3, [pc, #20]	; (40d4d0 <.LVL1+0xa>)
  40d4bc:	701a      	strb	r2, [r3, #0]

    sysDebugInstance.debugConsole = initConfig->consoleIndex;
  40d4be:	884a      	ldrh	r2, [r1, #2]
  40d4c0:	4b04      	ldr	r3, [pc, #16]	; (40d4d4 <.LVL1+0xe>)
  40d4c2:	805a      	strh	r2, [r3, #2]
    sysDebugInstance.state = SYS_DEBUG_STATE_IDLE;
  40d4c4:	2000      	movs	r0, #0

0040d4c6 <.LVL1>:
  40d4c6:	7058      	strb	r0, [r3, #1]
    sysDebugInstance.status = SYS_STATUS_READY;
  40d4c8:	2202      	movs	r2, #2
  40d4ca:	701a      	strb	r2, [r3, #0]
    sysDebugInstance.prtBufPtr = 0;
  40d4cc:	6058      	str	r0, [r3, #4]

    return SYS_MODULE_OBJ_STATIC;
}
  40d4ce:	4770      	bx	lr
  40d4d0:	20400448 	.word	0x20400448
  40d4d4:	20400440 	.word	0x20400440

Disassembly of section .text.__sseek%170:

0040d4d8 <__sseek>:
  40d4d8:	b510      	push	{r4, lr}

0040d4da <.LCFI3>:
  40d4da:	460c      	mov	r4, r1

0040d4dc <.LVL16>:
  40d4dc:	f9b1 100e 	ldrsh.w	r1, [r1, #14]

0040d4e0 <.LVL17>:
  40d4e0:	f7ff fe9e 	bl	40d220 <.LFE0>

0040d4e4 <.LVL18>:
  40d4e4:	89a3      	ldrh	r3, [r4, #12]
  40d4e6:	1c42      	adds	r2, r0, #1
  40d4e8:	bf0e      	itee	eq
  40d4ea:	f423 5380 	biceq.w	r3, r3, #4096	; 0x1000
  40d4ee:	f443 5380 	orrne.w	r3, r3, #4096	; 0x1000
  40d4f2:	6520      	strne	r0, [r4, #80]	; 0x50
  40d4f4:	81a3      	strh	r3, [r4, #12]
  40d4f6:	bd10      	pop	{r4, pc}

Disassembly of section .text.SYS_CONSOLE_Tasks%171:

0040d4f8 <SYS_CONSOLE_Tasks>:
{
  40d4f8:	b508      	push	{r3, lr}

0040d4fa <.LCFI6>:
    if (consoleDeviceInstance[(SYS_MODULE_INDEX)object].consoleInstanceDevDesc == NULL)
  40d4fa:	b283      	uxth	r3, r0
  40d4fc:	eb03 0343 	add.w	r3, r3, r3, lsl #1
  40d500:	4a03      	ldr	r2, [pc, #12]	; (40d510 <.LVL31+0x2>)
  40d502:	eb02 0383 	add.w	r3, r2, r3, lsl #2
  40d506:	685b      	ldr	r3, [r3, #4]
  40d508:	b10b      	cbz	r3, 40d50e <.LVL31>
    consoleDeviceInstance[(SYS_MODULE_INDEX)object].consoleInstanceDevDesc->sysConsoleTasks(object);
  40d50a:	695b      	ldr	r3, [r3, #20]
  40d50c:	4798      	blx	r3

0040d50e <.LVL31>:
  40d50e:	bd08      	pop	{r3, pc}
  40d510:	2040dcc8 	.word	0x2040dcc8

Disassembly of section .text.popQueue%172:

0040d514 <popQueue>:
    (q->tailPos < (q->elemArrSz - 1)) ? q->tailPos++ : (q->tailPos = 0);
  40d514:	6802      	ldr	r2, [r0, #0]
  40d516:	6903      	ldr	r3, [r0, #16]
  40d518:	3b01      	subs	r3, #1
  40d51a:	429a      	cmp	r2, r3
  40d51c:	d305      	bcc.n	40d52a <popQueue+0x16>
  40d51e:	2300      	movs	r3, #0
  40d520:	6003      	str	r3, [r0, #0]
    q->numElem--;
  40d522:	6883      	ldr	r3, [r0, #8]
  40d524:	3b01      	subs	r3, #1
  40d526:	6083      	str	r3, [r0, #8]
  40d528:	4770      	bx	lr
    (q->tailPos < (q->elemArrSz - 1)) ? q->tailPos++ : (q->tailPos = 0);
  40d52a:	3201      	adds	r2, #1
  40d52c:	6002      	str	r2, [r0, #0]
  40d52e:	e7f8      	b.n	40d522 <popQueue+0xe>

Disassembly of section .text.__locale_mb_cur_max%173:

0040d530 <__locale_mb_cur_max>:
  40d530:	4b04      	ldr	r3, [pc, #16]	; (40d544 <.LBE18+0x6>)
  40d532:	4a05      	ldr	r2, [pc, #20]	; (40d548 <.LBE18+0xa>)
  40d534:	681b      	ldr	r3, [r3, #0]
  40d536:	6b5b      	ldr	r3, [r3, #52]	; 0x34
  40d538:	2b00      	cmp	r3, #0
  40d53a:	bf08      	it	eq
  40d53c:	4613      	moveq	r3, r2

0040d53e <.LBE18>:
  40d53e:	f893 0128 	ldrb.w	r0, [r3, #296]	; 0x128
  40d542:	4770      	bx	lr
  40d544:	2040dce8 	.word	0x2040dce8
  40d548:	2040d9e0 	.word	0x2040d9e0

Disassembly of section .text.__ascii_wctomb%174:

0040d54c <__ascii_wctomb>:
  40d54c:	b121      	cbz	r1, 40d558 <.LVL4>
  40d54e:	2aff      	cmp	r2, #255	; 0xff
  40d550:	d804      	bhi.n	40d55c <.LVL6>
  40d552:	700a      	strb	r2, [r1, #0]
  40d554:	2001      	movs	r0, #1

0040d556 <.LVL3>:
  40d556:	4770      	bx	lr

0040d558 <.LVL4>:
  40d558:	4608      	mov	r0, r1

0040d55a <.LVL5>:
  40d55a:	4770      	bx	lr

0040d55c <.LVL6>:
  40d55c:	238a      	movs	r3, #138	; 0x8a

0040d55e <.LVL7>:
  40d55e:	6003      	str	r3, [r0, #0]
  40d560:	f04f 30ff 	mov.w	r0, #4294967295

0040d564 <.LVL8>:
  40d564:	4770      	bx	lr

0040d566 <.LFE18>:
  40d566:	bf00      	nop

Disassembly of section .text._localeconv_r%175:

0040d568 <_localeconv_r>:
  40d568:	4a04      	ldr	r2, [pc, #16]	; (40d57c <.LBE19+0x6>)
  40d56a:	4b05      	ldr	r3, [pc, #20]	; (40d580 <.LBE19+0xa>)
  40d56c:	6812      	ldr	r2, [r2, #0]
  40d56e:	6b50      	ldr	r0, [r2, #52]	; 0x34

0040d570 <.LVL3>:
  40d570:	2800      	cmp	r0, #0
  40d572:	bf08      	it	eq
  40d574:	4618      	moveq	r0, r3

0040d576 <.LBE19>:
  40d576:	30f0      	adds	r0, #240	; 0xf0
  40d578:	4770      	bx	lr
  40d57a:	bf00      	nop
  40d57c:	2040dce8 	.word	0x2040dce8
  40d580:	2040d9e0 	.word	0x2040d9e0

Disassembly of section .rodata.SHAExpected%176:

0040ad68 <SHAExpected>:
  40ad68:	28c1fef7 92d5fcd7 3637ba22 10723b8d     ...(....".76.;r.
  40ad78:	efb6c7d4 bf000000                       ........

Disassembly of section .text.CRYPT_MD5_DataAdd%177:

0040d584 <CRYPT_MD5_DataAdd>:

/* Add data to MD5 */
int CRYPT_MD5_DataAdd(CRYPT_MD5_CTX* md5, const unsigned char* input,
                      unsigned int sz)
{
    if (md5 == NULL || input == NULL)
  40d584:	b138      	cbz	r0, 40d596 <.LCFI3>
{
  40d586:	b508      	push	{r3, lr}

0040d588 <.LCFI2>:
    if (md5 == NULL || input == NULL)
  40d588:	b111      	cbz	r1, 40d590 <.LVL8>
        return BAD_FUNC_ARG;

    return wc_Md5Update((Md5*)md5, input, sz);
  40d58a:	f7fe fbc7 	bl	40bd1c <.LFE149>

0040d58e <.LVL7>:
  40d58e:	bd08      	pop	{r3, pc}

0040d590 <.LVL8>:
        return BAD_FUNC_ARG;
  40d590:	f06f 00ac 	mvn.w	r0, #172	; 0xac

0040d594 <.LVL9>:
}
  40d594:	bd08      	pop	{r3, pc}

0040d596 <.LCFI3>:
        return BAD_FUNC_ARG;
  40d596:	f06f 00ac 	mvn.w	r0, #172	; 0xac

0040d59a <.LVL11>:
  40d59a:	4770      	bx	lr

Disassembly of section .text.CRYPT_MD5_Finalize%178:

0040d59c <CRYPT_MD5_Finalize>:


/* Get MD5 Final into digest */
int CRYPT_MD5_Finalize(CRYPT_MD5_CTX* md5, unsigned char* digest)
{
    if (md5 == NULL || digest == NULL)
  40d59c:	b138      	cbz	r0, 40d5ae <.LCFI5>
{
  40d59e:	b508      	push	{r3, lr}

0040d5a0 <.LCFI4>:
    if (md5 == NULL || digest == NULL)
  40d5a0:	b111      	cbz	r1, 40d5a8 <.LVL14>
        return BAD_FUNC_ARG;

    return wc_Md5Final((Md5*)md5, digest);
  40d5a2:	f7fd fe51 	bl	40b248 <wc_Md5Final>

0040d5a6 <.LVL13>:
  40d5a6:	bd08      	pop	{r3, pc}

0040d5a8 <.LVL14>:
        return BAD_FUNC_ARG;
  40d5a8:	f06f 00ac 	mvn.w	r0, #172	; 0xac

0040d5ac <.LVL15>:
}
  40d5ac:	bd08      	pop	{r3, pc}

0040d5ae <.LCFI5>:
        return BAD_FUNC_ARG;
  40d5ae:	f06f 00ac 	mvn.w	r0, #172	; 0xac

0040d5b2 <.LVL17>:
  40d5b2:	4770      	bx	lr

Disassembly of section .text.CRYPT_SHA_DataAdd%179:

0040d5b4 <CRYPT_SHA_DataAdd>:

/* Add data to SHA */
int CRYPT_SHA_DataAdd(CRYPT_SHA_CTX* sha, const unsigned char* input,
                       unsigned int sz)
{
    if (sha == NULL || input == NULL)
  40d5b4:	b138      	cbz	r0, 40d5c6 <.LCFI9>
{
  40d5b6:	b508      	push	{r3, lr}

0040d5b8 <.LCFI8>:
    if (sha == NULL || input == NULL)
  40d5b8:	b111      	cbz	r1, 40d5c0 <.LVL26>
        return BAD_FUNC_ARG;

    return wc_ShaUpdate((Sha*)sha, input, sz);
  40d5ba:	f7fe fc37 	bl	40be2c <.LFE1>

0040d5be <.LVL25>:
  40d5be:	bd08      	pop	{r3, pc}

0040d5c0 <.LVL26>:
        return BAD_FUNC_ARG;
  40d5c0:	f06f 00ac 	mvn.w	r0, #172	; 0xac

0040d5c4 <.LVL27>:
}
  40d5c4:	bd08      	pop	{r3, pc}

0040d5c6 <.LCFI9>:
        return BAD_FUNC_ARG;
  40d5c6:	f06f 00ac 	mvn.w	r0, #172	; 0xac

0040d5ca <.LVL29>:
  40d5ca:	4770      	bx	lr

Disassembly of section .text.CRYPT_SHA_Finalize%180:

0040d5cc <CRYPT_SHA_Finalize>:


/* Get SHA Final into digest */
int CRYPT_SHA_Finalize(CRYPT_SHA_CTX* sha, unsigned char* digest)
{
    if (sha == NULL || digest == NULL)
  40d5cc:	b138      	cbz	r0, 40d5de <.LCFI11>
{
  40d5ce:	b508      	push	{r3, lr}

0040d5d0 <.LCFI10>:
    if (sha == NULL || digest == NULL)
  40d5d0:	b111      	cbz	r1, 40d5d8 <.LVL32>
        return BAD_FUNC_ARG;

    return wc_ShaFinal((Sha*)sha, digest);
  40d5d2:	f7fe fb17 	bl	40bc04 <.LFE2>

0040d5d6 <.LVL31>:
  40d5d6:	bd08      	pop	{r3, pc}

0040d5d8 <.LVL32>:
        return BAD_FUNC_ARG;
  40d5d8:	f06f 00ac 	mvn.w	r0, #172	; 0xac

0040d5dc <.LVL33>:
}
  40d5dc:	bd08      	pop	{r3, pc}

0040d5de <.LCFI11>:
        return BAD_FUNC_ARG;
  40d5de:	f06f 00ac 	mvn.w	r0, #172	; 0xac

0040d5e2 <.LVL35>:
  40d5e2:	4770      	bx	lr

Disassembly of section .text.CRYPT_SHA256_DataAdd%181:

0040d5e4 <CRYPT_SHA256_DataAdd>:

/* Add data to SHA-256 */
int CRYPT_SHA256_DataAdd(CRYPT_SHA256_CTX* sha256, const unsigned char* input,
                         unsigned int sz)
{
    if (sha256 == NULL || input == NULL)
  40d5e4:	b138      	cbz	r0, 40d5f6 <.LCFI15>
{
  40d5e6:	b508      	push	{r3, lr}

0040d5e8 <.LCFI14>:
    if (sha256 == NULL || input == NULL)
  40d5e8:	b111      	cbz	r1, 40d5f0 <.LVL44>
        return BAD_FUNC_ARG;

    return wc_Sha256Update((Sha256*)sha256, input, sz);
  40d5ea:	f7fe fc60 	bl	40beae <.LFE165>

0040d5ee <.LVL43>:
  40d5ee:	bd08      	pop	{r3, pc}

0040d5f0 <.LVL44>:
        return BAD_FUNC_ARG;
  40d5f0:	f06f 00ac 	mvn.w	r0, #172	; 0xac

0040d5f4 <.LVL45>:
}
  40d5f4:	bd08      	pop	{r3, pc}

0040d5f6 <.LCFI15>:
        return BAD_FUNC_ARG;
  40d5f6:	f06f 00ac 	mvn.w	r0, #172	; 0xac

0040d5fa <.LVL47>:
  40d5fa:	4770      	bx	lr

Disassembly of section .text.CRYPT_SHA256_Finalize%182:

0040d5fc <CRYPT_SHA256_Finalize>:


/* Get SHA-256 Final into digest */
int CRYPT_SHA256_Finalize(CRYPT_SHA256_CTX* sha256, unsigned char* digest)
{
    if (sha256 == NULL || digest == NULL)
  40d5fc:	b138      	cbz	r0, 40d60e <.LCFI17>
{
  40d5fe:	b508      	push	{r3, lr}

0040d600 <.LCFI16>:
    if (sha256 == NULL || digest == NULL)
  40d600:	b111      	cbz	r1, 40d608 <.LVL50>
        return BAD_FUNC_ARG;

    return wc_Sha256Final((Sha256*)sha256, digest);
  40d602:	f7fe f985 	bl	40b910 <wc_Sha256Final>

0040d606 <.LVL49>:
  40d606:	bd08      	pop	{r3, pc}

0040d608 <.LVL50>:
        return BAD_FUNC_ARG;
  40d608:	f06f 00ac 	mvn.w	r0, #172	; 0xac

0040d60c <.LVL51>:
}
  40d60c:	bd08      	pop	{r3, pc}

0040d60e <.LCFI17>:
        return BAD_FUNC_ARG;
  40d60e:	f06f 00ac 	mvn.w	r0, #172	; 0xac

0040d612 <.LVL53>:
  40d612:	4770      	bx	lr

Disassembly of section .text.CRYPT_SHA384_DataAdd%183:

0040d614 <CRYPT_SHA384_DataAdd>:

/* Add data to SHA-384 */
int CRYPT_SHA384_DataAdd(CRYPT_SHA384_CTX* sha384, const unsigned char* input,
                         unsigned int sz)
{
    if (sha384 == NULL || input == NULL)
  40d614:	b138      	cbz	r0, 40d626 <.LCFI21>
{
  40d616:	b508      	push	{r3, lr}

0040d618 <.LCFI20>:
    if (sha384 == NULL || input == NULL)
  40d618:	b111      	cbz	r1, 40d620 <.LVL60>
        return BAD_FUNC_ARG;

    return wc_Sha384Update((Sha384*)sha384, input, sz);
  40d61a:	f7fd fa4e 	bl	40aaba <.LBE719>

0040d61e <.LVL59>:
  40d61e:	bd08      	pop	{r3, pc}

0040d620 <.LVL60>:
        return BAD_FUNC_ARG;
  40d620:	f06f 00ac 	mvn.w	r0, #172	; 0xac

0040d624 <.LVL61>:
}
  40d624:	bd08      	pop	{r3, pc}

0040d626 <.LCFI21>:
        return BAD_FUNC_ARG;
  40d626:	f06f 00ac 	mvn.w	r0, #172	; 0xac

0040d62a <.LVL63>:
  40d62a:	4770      	bx	lr

Disassembly of section .text.CRYPT_SHA384_Finalize%184:

0040d62c <CRYPT_SHA384_Finalize>:


/* Get SHA-384 Final into digest */
int CRYPT_SHA384_Finalize(CRYPT_SHA384_CTX* sha384, unsigned char* digest)
{
    if (sha384 == NULL || digest == NULL)
  40d62c:	b138      	cbz	r0, 40d63e <.LCFI23>
{
  40d62e:	b508      	push	{r3, lr}

0040d630 <.LCFI22>:
    if (sha384 == NULL || digest == NULL)
  40d630:	b111      	cbz	r1, 40d638 <.LVL66>
        return BAD_FUNC_ARG;

    return wc_Sha384Final((Sha384*)sha384, digest);
  40d632:	f7fb fb51 	bl	408cd8 <.LFE21>

0040d636 <.LVL65>:
  40d636:	bd08      	pop	{r3, pc}

0040d638 <.LVL66>:
        return BAD_FUNC_ARG;
  40d638:	f06f 00ac 	mvn.w	r0, #172	; 0xac

0040d63c <.LVL67>:
}
  40d63c:	bd08      	pop	{r3, pc}

0040d63e <.LCFI23>:
        return BAD_FUNC_ARG;
  40d63e:	f06f 00ac 	mvn.w	r0, #172	; 0xac

0040d642 <.LVL69>:
  40d642:	4770      	bx	lr

Disassembly of section .text.CRYPT_SHA512_DataAdd%185:

0040d644 <CRYPT_SHA512_DataAdd>:

/* Add data to SHA-512 */
int CRYPT_SHA512_DataAdd(CRYPT_SHA512_CTX* sha512, const unsigned char* input,
                         unsigned int sz)
{
    if (sha512 == NULL || input == NULL)
  40d644:	b138      	cbz	r0, 40d656 <.LCFI27>
{
  40d646:	b508      	push	{r3, lr}

0040d648 <.LCFI26>:
    if (sha512 == NULL || input == NULL)
  40d648:	b111      	cbz	r1, 40d650 <.LVL76>
        return BAD_FUNC_ARG;

    return wc_Sha512Update((Sha512*)sha512, input, sz);
  40d64a:	f7fd f9c1 	bl	40a9d0 <.LFE16>

0040d64e <.LVL75>:
  40d64e:	bd08      	pop	{r3, pc}

0040d650 <.LVL76>:
        return BAD_FUNC_ARG;
  40d650:	f06f 00ac 	mvn.w	r0, #172	; 0xac

0040d654 <.LVL77>:
}
  40d654:	bd08      	pop	{r3, pc}

0040d656 <.LCFI27>:
        return BAD_FUNC_ARG;
  40d656:	f06f 00ac 	mvn.w	r0, #172	; 0xac

0040d65a <.LVL79>:
  40d65a:	4770      	bx	lr

Disassembly of section .text.CRYPT_SHA512_Finalize%186:

0040d65c <CRYPT_SHA512_Finalize>:


/* Get SHA-512 Final into digest */
int CRYPT_SHA512_Finalize(CRYPT_SHA512_CTX* sha512, unsigned char* digest)
{
    if (sha512 == NULL || digest == NULL)
  40d65c:	b138      	cbz	r0, 40d66e <.LCFI29>
{
  40d65e:	b508      	push	{r3, lr}

0040d660 <.LCFI28>:
    if (sha512 == NULL || digest == NULL)
  40d660:	b111      	cbz	r1, 40d668 <.LVL82>
        return BAD_FUNC_ARG;

    return wc_Sha512Final((Sha512*)sha512, digest);
  40d662:	f7fb f9f1 	bl	408a48 <wc_Sha512Final>

0040d666 <.LVL81>:
  40d666:	bd08      	pop	{r3, pc}

0040d668 <.LVL82>:
        return BAD_FUNC_ARG;
  40d668:	f06f 00ac 	mvn.w	r0, #172	; 0xac

0040d66c <.LVL83>:
}
  40d66c:	bd08      	pop	{r3, pc}

0040d66e <.LCFI29>:
        return BAD_FUNC_ARG;
  40d66e:	f06f 00ac 	mvn.w	r0, #172	; 0xac

0040d672 <.LVL85>:
  40d672:	4770      	bx	lr

Disassembly of section .text.Console_UART_RegisterCallback%187:

0040d674 <Console_UART_RegisterCallback>:
    switch (event)
  40d674:	b121      	cbz	r1, 40d680 <Console_UART_RegisterCallback+0xc>
  40d676:	2901      	cmp	r1, #1
  40d678:	d104      	bne.n	40d684 <Console_UART_RegisterCallback+0x10>
            consUartData.rdCallback = consCallback;
  40d67a:	4b03      	ldr	r3, [pc, #12]	; (40d688 <.LFE180+0x14>)
  40d67c:	6498      	str	r0, [r3, #72]	; 0x48
            break;
  40d67e:	4770      	bx	lr
            consUartData.wrCallback = consCallback;
  40d680:	4b01      	ldr	r3, [pc, #4]	; (40d688 <.LFE180+0x14>)
  40d682:	64d8      	str	r0, [r3, #76]	; 0x4c
  40d684:	4770      	bx	lr
  40d686:	bf00      	nop
  40d688:	2040db9c 	.word	0x2040db9c

Disassembly of section .text.UARTDeviceReadCallback%188:

0040d68c <UARTDeviceReadCallback>:
{
  40d68c:	b508      	push	{r3, lr}

0040d68e <.LCFI4>:
    if (USART1_ErrorGet() == 0)
  40d68e:	f7ff fb61 	bl	40cd54 <USART1_ErrorGet>

0040d692 <.LVL17>:
  40d692:	b918      	cbnz	r0, 40d69c <.LVL17+0xa>
        consUartData.isReadComplete = true;
  40d694:	2201      	movs	r2, #1
  40d696:	4b02      	ldr	r3, [pc, #8]	; (40d6a0 <.LVL17+0xe>)
  40d698:	f883 2044 	strb.w	r2, [r3, #68]	; 0x44
  40d69c:	bd08      	pop	{r3, pc}
  40d69e:	bf00      	nop
  40d6a0:	2040db9c 	.word	0x2040db9c

Disassembly of section .text.HardFault_Handler%189:

0040d6a4 <HardFault_Handler>:
    asm("TST    LR, #4");
  40d6a4:	f01e 0f04 	tst.w	lr, #4
    asm("ITE    EQ");
  40d6a8:	bf0c      	ite	eq
    asm("MRSEQ  R0, MSP");
  40d6aa:	f3ef 8008 	mrseq	r0, MSP
    asm("MRSNE  R0, PSP");
  40d6ae:	f3ef 8009 	mrsne	r0, PSP
    asm("MOV    R1, LR");
  40d6b2:	4671      	mov	r1, lr
    asm("B      HardFault_Handler_C");
  40d6b4:	f7fc bd88 	b.w	40a1c8 <.LFE169>
  40d6b8:	4770      	bx	lr

Disassembly of section .text.DebugMonitor_Handler%190:

0040d6ba <DebugMonitor_Handler>:
    asm("TST    LR, #4");
  40d6ba:	f01e 0f04 	tst.w	lr, #4
    asm("ITE    EQ");
  40d6be:	bf0c      	ite	eq
    asm("MRSEQ  R0, MSP");
  40d6c0:	f3ef 8008 	mrseq	r0, MSP
    asm("MRSNE  R0, PSP");
  40d6c4:	f3ef 8009 	mrsne	r0, PSP
    asm("MOV    R1, LR");
  40d6c8:	4671      	mov	r1, lr
    asm("B      DebugMonitor_Handler_C");
  40d6ca:	f7fd ba6b 	b.w	40aba4 <.LBE840>
  40d6ce:	4770      	bx	lr

Disassembly of section .text.MemoryManagement_Handler%191:

0040d6d0 <MemoryManagement_Handler>:
    asm("TST    LR, #4");
  40d6d0:	f01e 0f04 	tst.w	lr, #4
    asm("ITE    EQ");
  40d6d4:	bf0c      	ite	eq
    asm("MRSEQ  R0, MSP");
  40d6d6:	f3ef 8008 	mrseq	r0, MSP
    asm("MRSNE  R0, PSP");
  40d6da:	f3ef 8009 	mrsne	r0, PSP
    asm("MOV    R1, LR");
  40d6de:	4671      	mov	r1, lr
    asm("B      MemoryManagement_Handler_C");
  40d6e0:	f7fc bdfc 	b.w	40a2dc <.LFE165>
  40d6e4:	4770      	bx	lr

Disassembly of section .text.BusFault_Handler%192:

0040d6e6 <BusFault_Handler>:
    asm("TST    LR, #4");
  40d6e6:	f01e 0f04 	tst.w	lr, #4
    asm("ITE    EQ");
  40d6ea:	bf0c      	ite	eq
    asm("MRSEQ  R0, MSP");
  40d6ec:	f3ef 8008 	mrseq	r0, MSP
    asm("MRSNE  R0, PSP");
  40d6f0:	f3ef 8009 	mrsne	r0, PSP
    asm("MOV    R1, LR");
  40d6f4:	4671      	mov	r1, lr
    asm("B      BusFault_Handler_C");
  40d6f6:	f7fc ba8d 	b.w	409c14 <L0>
  40d6fa:	4770      	bx	lr

Disassembly of section .text.UsageFault_Handler%193:

0040d6fc <UsageFault_Handler>:
    asm("TST    LR, #4");
  40d6fc:	f01e 0f04 	tst.w	lr, #4
    asm("ITE    EQ");
  40d700:	bf0c      	ite	eq
    asm("MRSEQ  R0, MSP");
  40d702:	f3ef 8008 	mrseq	r0, MSP
    asm("MRSNE  R0, PSP");
  40d706:	f3ef 8009 	mrsne	r0, PSP
    asm("MOV    R1, LR");
  40d70a:	4671      	mov	r1, lr
    asm("B      UsageFault_Handler_C");
  40d70c:	f7fd b870 	b.w	40a7f0 <.LFE18>
  40d710:	4770      	bx	lr

Disassembly of section .text.wc_InitMd5%194:

0040d712 <wc_InitMd5>:
#endif /* !HAVE_MD5_CUST_API */


int wc_InitMd5(Md5* md5)
{
    if (md5 == NULL) {
  40d712:	b130      	cbz	r0, 40d722 <.LCFI9>
{
  40d714:	b508      	push	{r3, lr}

0040d716 <.LCFI8>:
        return BAD_FUNC_ARG;
    }
    return wc_InitMd5_ex(md5, NULL, INVALID_DEVID);
  40d716:	f06f 0201 	mvn.w	r2, #1
  40d71a:	2100      	movs	r1, #0
  40d71c:	f7ff fc74 	bl	40d008 <wc_InitMd5_ex>

0040d720 <.LVL369>:
  40d720:	bd08      	pop	{r3, pc}

0040d722 <.LCFI9>:
        return BAD_FUNC_ARG;
  40d722:	f06f 00ac 	mvn.w	r0, #172	; 0xac

0040d726 <.LVL371>:
  40d726:	4770      	bx	lr

Disassembly of section .rodata.MD5Expected%195:

0040d728 <MD5Expected>:
  40d728:	c230 7e55 0283 bea5 90b2 15c7 d820 427f     0.U~........ ..B
  40d738:	0000 bf00                                   ....

Disassembly of section .text.SYS_Tasks%196:

0040d73c <SYS_Tasks>:
  Remarks:
    See prototype in system/common/sys_module.h.
*/

void SYS_Tasks ( void )
{
  40d73c:	b508      	push	{r3, lr}

0040d73e <.LCFI0>:
    /* Maintain system services */
    SYS_CONSOLE_Tasks(sysObj.sysConsole0);
  40d73e:	4b03      	ldr	r3, [pc, #12]	; (40d74c <.LVL1+0x2>)
  40d740:	6818      	ldr	r0, [r3, #0]
  40d742:	f7ff fed9 	bl	40d4f8 <.LFE4>

0040d746 <.LVL0>:
    /* Maintain Middleware & Other Libraries */
    

    /* Maintain the application's state machine. */
        /* Call Application task APP. */
    APP_Tasks();
  40d746:	f7fb fe79 	bl	40943c <APP_Tasks>

0040d74a <.LVL1>:
  40d74a:	bd08      	pop	{r3, pc}
  40d74c:	20400000 	.word	0x20400000

Disassembly of section .text.time_resourceLock%197:

0040d750 <time_resourceLock>:
{
  40d750:	b508      	push	{r3, lr}

0040d752 <.LCFI1>:
    SYS_INT_SourceDisable(gSystemCounterObj.timeInterrupt);
  40d752:	4b03      	ldr	r3, [pc, #12]	; (40d760 <.LVL11+0x4>)
  40d754:	f993 0008 	ldrsb.w	r0, [r3, #8]
  40d758:	f7ff fab8 	bl	40cccc <.LFE149>

0040d75c <.LVL11>:
  40d75c:	bd08      	pop	{r3, pc}
  40d75e:	bf00      	nop
  40d760:	2040dbec 	.word	0x2040dbec

Disassembly of section .rodata%198:

0040d764 <.LANCHOR0>:
  40d764:	00000043 	.word	0x00000043
  40d768:	49534f50 	.word	0x49534f50
  40d76c:	00000058 	.word	0x00000058
  40d770:	00000000 	.word	0x00000000
  40d774:	002e      	.short	0x002e
  40d776:	bf00      	nop

Disassembly of section .text.register_fini%199:

0040d778 <register_fini>:
  40d778:	4b02      	ldr	r3, [pc, #8]	; (40d784 <.LVL0+0x2>)
  40d77a:	b113      	cbz	r3, 40d782 <.LVL0>

0040d77c <.LBB2>:
  40d77c:	4802      	ldr	r0, [pc, #8]	; (40d788 <.LVL0+0x6>)
  40d77e:	f000 b90b 	b.w	40d998 <.LFE155>

0040d782 <.LVL0>:
  40d782:	4770      	bx	lr
  40d784:	00000000 	.word	0x00000000
  40d788:	0040d0ad 	.word	0x0040d0ad

Disassembly of section .rodata%200:

0040d78c <.LC0>:
  40d78c:	69666e49 	.word	0x69666e49
  40d790:	7974696e 	.word	0x7974696e
  40d794:	00000000 	.word	0x00000000

0040d798 <.LC1>:
  40d798:	004e614e 	.word	0x004e614e

0040d79c <.LC2>:
  40d79c:	0030      	.short	0x0030
  40d79e:	bf00      	nop

Disassembly of section .text._Bfree%201:

0040d7a0 <_Bfree>:
  40d7a0:	b131      	cbz	r1, 40d7b0 <.LVL11+0x6>
  40d7a2:	6cc3      	ldr	r3, [r0, #76]	; 0x4c
  40d7a4:	684a      	ldr	r2, [r1, #4]
  40d7a6:	f853 0022 	ldr.w	r0, [r3, r2, lsl #2]

0040d7aa <.LVL11>:
  40d7aa:	6008      	str	r0, [r1, #0]
  40d7ac:	f843 1022 	str.w	r1, [r3, r2, lsl #2]
  40d7b0:	4770      	bx	lr

0040d7b2 <.LFE18>:
  40d7b2:	bf00      	nop

Disassembly of section .text.__i2b%202:

0040d7b4 <__i2b>:
  40d7b4:	b510      	push	{r4, lr}

0040d7b6 <.LCFI6>:
  40d7b6:	460c      	mov	r4, r1
  40d7b8:	2101      	movs	r1, #1

0040d7ba <.LVL105>:
  40d7ba:	f7ff f9f5 	bl	40cba8 <.LFE2>

0040d7be <.LVL106>:
  40d7be:	2201      	movs	r2, #1
  40d7c0:	6144      	str	r4, [r0, #20]
  40d7c2:	6102      	str	r2, [r0, #16]
  40d7c4:	bd10      	pop	{r4, pc}

0040d7c6 <.LFE23>:
  40d7c6:	bf00      	nop

Disassembly of section .text.__sprint_r%203:

0040d7c8 <__sprint_r>:
  40d7c8:	6893      	ldr	r3, [r2, #8]
  40d7ca:	b10b      	cbz	r3, 40d7d0 <.LVL19>
  40d7cc:	f7fe bc70 	b.w	40c0b0 <.LFE19>

0040d7d0 <.LVL19>:
  40d7d0:	b410      	push	{r4}

0040d7d2 <.LCFI1>:
  40d7d2:	4618      	mov	r0, r3

0040d7d4 <.LVL20>:
  40d7d4:	6053      	str	r3, [r2, #4]
  40d7d6:	f85d 4b04 	ldr.w	r4, [sp], #4

0040d7da <.LCFI2>:
  40d7da:	4770      	bx	lr

Disassembly of section .text.SYS_INT_Disable%204:

0040d7dc <SYS_INT_Disable>:
  __ASM volatile ("MRS %0, primask" : "=r" (result) :: "memory");
  40d7dc:	f3ef 8010 	mrs	r0, PRIMASK

0040d7e0 <.LBB38>:
  __ASM volatile ("cpsid i" : : : "memory");
  40d7e0:	b672      	cpsid	i

0040d7e2 <.LBB40>:
  __ASM volatile ("dmb 0xF":::"memory");
  40d7e2:	f3bf 8f5f 	dmb	sy

0040d7e6 <.LBE40>:
}
  40d7e6:	fab0 f080 	clz	r0, r0

0040d7ea <.LVL1>:
  40d7ea:	0940      	lsrs	r0, r0, #5
  40d7ec:	4770      	bx	lr

Disassembly of section .text.SYS_INT_Restore%205:

0040d7ee <SYS_INT_Restore>:
    if(0 != state )
  40d7ee:	b918      	cbnz	r0, 40d7f8 <.LBB46>

0040d7f0 <.LBB42>:
  __ASM volatile ("cpsid i" : : : "memory");
  40d7f0:	b672      	cpsid	i

0040d7f2 <.LBB44>:
  __ASM volatile ("dmb 0xF":::"memory");
  40d7f2:	f3bf 8f5f 	dmb	sy
  40d7f6:	4770      	bx	lr

0040d7f8 <.LBB46>:
  40d7f8:	f3bf 8f5f 	dmb	sy

0040d7fc <.LBB48>:
  __ASM volatile ("cpsie i" : : : "memory");
  40d7fc:	b662      	cpsie	i
  40d7fe:	4770      	bx	lr

Disassembly of section .text.CRYPT_MD5_Initialize%206:

0040d800 <CRYPT_MD5_Initialize>:
    if (md5 == NULL)
  40d800:	b120      	cbz	r0, 40d80c <.LCFI1>
{
  40d802:	b508      	push	{r3, lr}

0040d804 <.LCFI0>:
    wc_InitMd5((Md5*)md5);
  40d804:	f7ff ff85 	bl	40d712 <.LFE172>

0040d808 <.LVL1>:
    return 0;
  40d808:	2000      	movs	r0, #0
  40d80a:	bd08      	pop	{r3, pc}

0040d80c <.LCFI1>:
        return BAD_FUNC_ARG;
  40d80c:	f06f 00ac 	mvn.w	r0, #172	; 0xac

0040d810 <.LVL3>:
  40d810:	4770      	bx	lr

Disassembly of section .text.BSP_Initialize%207:

0040d814 <BSP_Initialize>:
void BSP_Initialize(void )
{


    /* Switch off LEDs */
		LED_Off(); 
  40d814:	f44f 7280 	mov.w	r2, #256	; 0x100
  40d818:	4b01      	ldr	r3, [pc, #4]	; (40d820 <BSP_Initialize+0xc>)
  40d81a:	631a      	str	r2, [r3, #48]	; 0x30
  40d81c:	4770      	bx	lr
  40d81e:	bf00      	nop
  40d820:	400e1200 	.word	0x400e1200

Disassembly of section .text.CRYPT_SHA_Initialize%208:

0040d824 <CRYPT_SHA_Initialize>:
    if (sha == NULL)
  40d824:	b118      	cbz	r0, 40d82e <.LCFI7>
{
  40d826:	b508      	push	{r3, lr}

0040d828 <.LCFI6>:
    return wc_InitSha((Sha*)sha);
  40d828:	f7fe ff56 	bl	40c6d8 <.LFE163>

0040d82c <.LVL19>:
  40d82c:	bd08      	pop	{r3, pc}

0040d82e <.LCFI7>:
        return BAD_FUNC_ARG;
  40d82e:	f06f 00ac 	mvn.w	r0, #172	; 0xac

0040d832 <.LVL21>:
  40d832:	4770      	bx	lr

Disassembly of section .text.CRYPT_SHA256_Initialize%209:

0040d834 <CRYPT_SHA256_Initialize>:
    if (sha256 == NULL)
  40d834:	b118      	cbz	r0, 40d83e <.LCFI13>
{
  40d836:	b508      	push	{r3, lr}

0040d838 <.LCFI12>:
    return wc_InitSha256((Sha256*)sha256);
  40d838:	f7fe f906 	bl	40ba48 <wc_InitSha256>

0040d83c <.LVL37>:
  40d83c:	bd08      	pop	{r3, pc}

0040d83e <.LCFI13>:
        return BAD_FUNC_ARG;
  40d83e:	f06f 00ac 	mvn.w	r0, #172	; 0xac

0040d842 <.LVL39>:
  40d842:	4770      	bx	lr

Disassembly of section .text.CRYPT_SHA384_Initialize%210:

0040d844 <CRYPT_SHA384_Initialize>:
    if (sha384 == NULL)
  40d844:	b118      	cbz	r0, 40d84e <.LCFI19>
{
  40d846:	b508      	push	{r3, lr}

0040d848 <.LCFI18>:
    return wc_InitSha384((Sha384*)sha384);
  40d848:	f000 f862 	bl	40d910 <.LFE22>

0040d84c <.LVL55>:
  40d84c:	bd08      	pop	{r3, pc}

0040d84e <.LCFI19>:
        return BAD_FUNC_ARG;
  40d84e:	f06f 00ac 	mvn.w	r0, #172	; 0xac

0040d852 <.LVL57>:
  40d852:	4770      	bx	lr

Disassembly of section .text.CRYPT_SHA512_Initialize%211:

0040d854 <CRYPT_SHA512_Initialize>:
    if (sha512 == NULL)
  40d854:	b118      	cbz	r0, 40d85e <.LCFI25>
{
  40d856:	b508      	push	{r3, lr}

0040d858 <.LCFI24>:
    return wc_InitSha512((Sha512*)sha512);
  40d858:	f000 f853 	bl	40d902 <.LFE163>

0040d85c <.LVL71>:
  40d85c:	bd08      	pop	{r3, pc}

0040d85e <.LCFI25>:
        return BAD_FUNC_ARG;
  40d85e:	f06f 00ac 	mvn.w	r0, #172	; 0xac

0040d862 <.LVL73>:
  40d862:	4770      	bx	lr

Disassembly of section .text.UARTDeviceWriteCallback%212:

0040d864 <UARTDeviceWriteCallback>:
    consUartData.isWriteComplete = true;
  40d864:	2201      	movs	r2, #1
  40d866:	4b02      	ldr	r3, [pc, #8]	; (40d870 <.LFE178+0xc>)
  40d868:	f883 2045 	strb.w	r2, [r3, #69]	; 0x45
  40d86c:	4770      	bx	lr
  40d86e:	bf00      	nop
  40d870:	2040db9c 	.word	0x2040db9c

Disassembly of section .text.USART1_WriteCallbackRegister%213:

0040d874 <USART1_WriteCallbackRegister>:


bool USART1_WriteCallbackRegister( USART_CALLBACK callback, uintptr_t context )
{
    usart1Obj.txCallback = callback;
  40d874:	4b02      	ldr	r3, [pc, #8]	; (40d880 <.LVL63+0x4>)
  40d876:	60d8      	str	r0, [r3, #12]
    usart1Obj.txContext = context;
  40d878:	6119      	str	r1, [r3, #16]

    return true;
}
  40d87a:	2001      	movs	r0, #1

0040d87c <.LVL63>:
  40d87c:	4770      	bx	lr
  40d87e:	bf00      	nop
  40d880:	20400454 	.word	0x20400454

Disassembly of section .text.USART1_ReadCallbackRegister%214:

0040d884 <USART1_ReadCallbackRegister>:

bool USART1_ReadCallbackRegister( USART_CALLBACK callback, uintptr_t context )
{
    usart1Obj.rxCallback = callback;
  40d884:	4b02      	ldr	r3, [pc, #8]	; (40d890 <.LVL65+0x4>)
  40d886:	6258      	str	r0, [r3, #36]	; 0x24
    usart1Obj.rxContext = context;
  40d888:	6299      	str	r1, [r3, #40]	; 0x28

    return true;
}
  40d88a:	2001      	movs	r0, #1

0040d88c <.LVL65>:
  40d88c:	4770      	bx	lr
  40d88e:	bf00      	nop
  40d890:	20400454 	.word	0x20400454

Disassembly of section .text.malloc%215:

0040d894 <malloc>:
  40d894:	4b02      	ldr	r3, [pc, #8]	; (40d8a0 <.LVL2+0x2>)
  40d896:	4601      	mov	r1, r0
  40d898:	6818      	ldr	r0, [r3, #0]

0040d89a <.LVL1>:
  40d89a:	f7fa b99f 	b.w	407bdc <.LFE14>

0040d89e <.LVL2>:
  40d89e:	bf00      	nop
  40d8a0:	2040dce8 	.word	0x2040dce8

Disassembly of section .text.puts%216:

0040d8a4 <puts>:
  40d8a4:	4b02      	ldr	r3, [pc, #8]	; (40d8b0 <.LVL13+0x2>)
  40d8a6:	4601      	mov	r1, r0
  40d8a8:	6818      	ldr	r0, [r3, #0]

0040d8aa <.LVL12>:
  40d8aa:	f7fe be7f 	b.w	40c5ac <.LFE165>

0040d8ae <.LVL13>:
  40d8ae:	bf00      	nop
  40d8b0:	2040dce8 	.word	0x2040dce8

Disassembly of section .rodata.blanks.8352%217:

0040d8b4 <blanks.8352>:
  40d8b4:	20202020 20202020 20202020 20202020                     

Disassembly of section .rodata.zeroes.8353%218:

0040d8c4 <zeroes.8353>:
  40d8c4:	30303030 30303030 30303030 30303030     0000000000000000

Disassembly of section .rodata.blanks.8367%219:

0040d8d4 <blanks.8367>:
  40d8d4:	20202020 20202020 20202020 20202020                     

Disassembly of section .rodata.zeroes.8368%220:

0040d8e4 <zeroes.8368>:
  40d8e4:	30303030 30303030 30303030 30303030     0000000000000000

Disassembly of section .text.main%221:

0040d8f4 <main>:
// Section: Main Entry Point
// *****************************************************************************
// *****************************************************************************

int main ( void )
{
  40d8f4:	b508      	push	{r3, lr}

0040d8f6 <.LCFI0>:
    /* Initialize all modules */
    SYS_Initialize ( NULL );
  40d8f6:	2000      	movs	r0, #0
  40d8f8:	f7fe febe 	bl	40c678 <SYS_Initialize>

0040d8fc <.LVL0>:

    while ( true )
    {
        /* Maintain state machines of all polled MPLAB Harmony modules. */
        SYS_Tasks ( );
  40d8fc:	f7ff ff1e 	bl	40d73c <SYS_Tasks>

0040d900 <.LVL1>:
  40d900:	e7fc      	b.n	40d8fc <.LVL0>

Disassembly of section .text.wc_InitSha512%222:

0040d902 <wc_InitSha512>:
{
  40d902:	b508      	push	{r3, lr}

0040d904 <.LCFI12>:
    return wc_InitSha512_ex(sha512, NULL, INVALID_DEVID);
  40d904:	f06f 0201 	mvn.w	r2, #1
  40d908:	2100      	movs	r1, #0
  40d90a:	f7fd fd5d 	bl	40b3c8 <wc_InitSha512_ex>

0040d90e <.LVL80>:
}
  40d90e:	bd08      	pop	{r3, pc}

Disassembly of section .text.wc_InitSha384%223:

0040d910 <wc_InitSha384>:
#endif

int wc_InitSha384(Sha384* sha384)
{
  40d910:	b508      	push	{r3, lr}

0040d912 <.LCFI21>:
    return wc_InitSha384_ex(sha384, NULL, INVALID_DEVID);
  40d912:	f06f 0201 	mvn.w	r2, #1
  40d916:	2100      	movs	r1, #0
  40d918:	f7fd fdb2 	bl	40b480 <.LFE15>

0040d91c <.LVL145>:
}
  40d91c:	bd08      	pop	{r3, pc}

Disassembly of section .text.APP_Initialize%224:

0040d920 <APP_Initialize>:
    appData.state = APP_STATE_INIT;
  40d920:	2200      	movs	r2, #0
  40d922:	4b01      	ldr	r3, [pc, #4]	; (40d928 <APP_Initialize+0x8>)
  40d924:	701a      	strb	r2, [r3, #0]
  40d926:	4770      	bx	lr
  40d928:	2040d6b8 	.word	0x2040d6b8

Disassembly of section .text.CRYPT_MD5_DataSizeSet%225:

0040d92c <CRYPT_MD5_DataSizeSet>:
    if (md5 == NULL)
  40d92c:	2800      	cmp	r0, #0
}
  40d92e:	bf0c      	ite	eq
  40d930:	f06f 00ac 	mvneq.w	r0, #172	; 0xac

0040d934 <.LVL5>:
  40d934:	2000      	movne	r0, #0
  40d936:	4770      	bx	lr

Disassembly of section .text.CRYPT_SHA_DataSizeSet%226:

0040d938 <CRYPT_SHA_DataSizeSet>:
    if (sha == NULL)
  40d938:	2800      	cmp	r0, #0
}
  40d93a:	bf0c      	ite	eq
  40d93c:	f06f 00ac 	mvneq.w	r0, #172	; 0xac

0040d940 <.LVL23>:
  40d940:	2000      	movne	r0, #0
  40d942:	4770      	bx	lr

Disassembly of section .text.CRYPT_SHA256_DataSizeSet%227:

0040d944 <CRYPT_SHA256_DataSizeSet>:
    if (sha256 == NULL)
  40d944:	2800      	cmp	r0, #0
}
  40d946:	bf0c      	ite	eq
  40d948:	f06f 00ac 	mvneq.w	r0, #172	; 0xac

0040d94c <.LVL41>:
  40d94c:	2000      	movne	r0, #0
  40d94e:	4770      	bx	lr

Disassembly of section .text.TC1_CH0_TimerStart%228:

0040d950 <TC1_CH0_TimerStart>:
    TC1_REGS->TC_CHANNEL[0].TC_CCR = (TC_CCR_CLKEN_Msk | TC_CCR_SWTRG_Msk);
  40d950:	2205      	movs	r2, #5
  40d952:	4b01      	ldr	r3, [pc, #4]	; (40d958 <.LFE172+0x8>)
  40d954:	601a      	str	r2, [r3, #0]
  40d956:	4770      	bx	lr
  40d958:	40010000 	.word	0x40010000

Disassembly of section .text.TC1_CH0_TimerStop%229:

0040d95c <TC1_CH0_TimerStop>:
    TC1_REGS->TC_CHANNEL[0].TC_CCR = (TC_CCR_CLKDIS_Msk);
  40d95c:	2202      	movs	r2, #2
  40d95e:	4b01      	ldr	r3, [pc, #4]	; (40d964 <.LFE142+0x8>)
  40d960:	601a      	str	r2, [r3, #0]
  40d962:	4770      	bx	lr
  40d964:	40010000 	.word	0x40010000

Disassembly of section .text.TC1_CH0_TimerPeriodSet%230:

0040d968 <TC1_CH0_TimerPeriodSet>:
    TC1_REGS->TC_CHANNEL[0].TC_RC = period;
  40d968:	4b01      	ldr	r3, [pc, #4]	; (40d970 <.LFE143+0x8>)
  40d96a:	61d8      	str	r0, [r3, #28]
  40d96c:	4770      	bx	lr
  40d96e:	bf00      	nop
  40d970:	40010000 	.word	0x40010000

Disassembly of section .text.TC1_CH0_TimerCounterGet%231:

0040d974 <TC1_CH0_TimerCounterGet>:
    return TC1_REGS->TC_CHANNEL[0].TC_CV;
  40d974:	4b01      	ldr	r3, [pc, #4]	; (40d97c <.LFE144+0x8>)
  40d976:	6918      	ldr	r0, [r3, #16]
}
  40d978:	b280      	uxth	r0, r0
  40d97a:	4770      	bx	lr
  40d97c:	40010000 	.word	0x40010000

Disassembly of section .text.TC1_CH0_TimerCallbackRegister%232:

0040d980 <TC1_CH0_TimerCallbackRegister>:
    TC1_CH0_CallbackObj.callback_fn = callback;
  40d980:	4b01      	ldr	r3, [pc, #4]	; (40d988 <.LFE146+0x8>)
  40d982:	6018      	str	r0, [r3, #0]
    TC1_CH0_CallbackObj.context = context;
  40d984:	6059      	str	r1, [r3, #4]
  40d986:	4770      	bx	lr
  40d988:	2040044c 	.word	0x2040044c

Disassembly of section .text.USART1_ReadCountGet%233:

0040d98c <USART1_ReadCountGet>:
}

size_t USART1_ReadCountGet( void )
{
    return usart1Obj.rxProcessedSize;
}
  40d98c:	4b01      	ldr	r3, [pc, #4]	; (40d994 <.LFE148+0x8>)
  40d98e:	6a18      	ldr	r0, [r3, #32]
  40d990:	4770      	bx	lr
  40d992:	bf00      	nop
  40d994:	20400454 	.word	0x20400454

Disassembly of section .text.atexit%234:

0040d998 <atexit>:
  40d998:	2300      	movs	r3, #0
  40d99a:	4601      	mov	r1, r0
  40d99c:	461a      	mov	r2, r3
  40d99e:	4618      	mov	r0, r3

0040d9a0 <.LVL1>:
  40d9a0:	f7fd be74 	b.w	40b68c <__register_exitproc>

Disassembly of section .text._cleanup_r%235:

0040d9a4 <_cleanup_r>:
  40d9a4:	4901      	ldr	r1, [pc, #4]	; (40d9ac <.LVL3+0x2>)
  40d9a6:	f7ff b80f 	b.w	40c9c8 <.LFE2>

0040d9aa <.LVL3>:
  40d9aa:	bf00      	nop
  40d9ac:	0040c131 	.word	0x0040c131

Disassembly of section .text.__sinit%236:

0040d9b0 <__sinit>:
  40d9b0:	6b83      	ldr	r3, [r0, #56]	; 0x38
  40d9b2:	b103      	cbz	r3, 40d9b6 <__sinit+0x6>
  40d9b4:	4770      	bx	lr
  40d9b6:	f7fc bf93 	b.w	40a8e0 <.LFE173>

0040d9ba <.LFE6>:
  40d9ba:	bf00      	nop

Disassembly of section .rodata.p05.7179%237:

0040d9bc <p05.7179>:
  40d9bc:	0005 0000 0019 0000 007d 0000               ........}...

Disassembly of section .text._fstat%238:

0040d9c8 <_fstat>:
  40d9c8:	f44f 5300 	mov.w	r3, #8192	; 0x2000
  40d9cc:	604b      	str	r3, [r1, #4]
  40d9ce:	2000      	movs	r0, #0
  40d9d0:	4770      	bx	lr

0040d9d2 <.LFE0>:
  40d9d2:	bf00      	nop

Disassembly of section .text.__sclose%239:

0040d9d4 <__sclose>:
  40d9d4:	f9b1 100e 	ldrsh.w	r1, [r1, #14]

0040d9d8 <.LVL20>:
  40d9d8:	f7ff bd3a 	b.w	40d450 <_close_r>

Disassembly of section .text._close%240:

0040d9dc <_close>:
  40d9dc:	f04f 30ff 	mov.w	r0, #4294967295
  40d9e0:	4770      	bx	lr

0040d9e2 <.LFE2>:
  40d9e2:	bf00      	nop

Disassembly of section .text.Dummy_Handler%241:

0040420c <Dummy_Handler>:

/* Brief default interrupt handler for unused IRQs.*/
void __attribute__((optimize("-O1"),section(".text.Dummy_Handler"),long_call))Dummy_Handler(void)
{
#if defined(__DEBUG) || defined(__DEBUG_D) && defined(__XC32)
    __builtin_software_breakpoint();
  40420c:	be00      	bkpt	0x0000
  40420e:	e7fe      	b.n	40420e <Dummy_Handler+0x2>

Disassembly of section .text.NonMaskableInt_Handler%242:

00408a44 <NonMaskableInt_Handler>:
    __builtin_software_breakpoint();
  408a44:	be00      	bkpt	0x0000
  408a46:	e7fe      	b.n	408a46 <NonMaskableInt_Handler+0x2>

Disassembly of section .text._mon_getc%243:

0040b17c <_mon_getc>:


int _mon_getc(int canblock)
{
   return 0;
}
  40b17c:	2000      	movs	r0, #0

0040b17e <.LVL1>:
  40b17e:	4770      	bx	lr

Disassembly of section .text%244:

0040d31c <__aeabi_idiv0>:
  40d31c:	4770      	bx	lr

0040d31e <L0>:
  40d31e:	bf00      	nop

Disassembly of section .rodata._global_impure_ptr%245:

0040d9e4 <_global_impure_ptr>:
  40d9e4:	cc88 2040                                   ..@ 

Disassembly of section .text.__malloc_lock%246:

0040d9e8 <__malloc_lock>:
  40d9e8:	4770      	bx	lr
  40d9ea:	bf00      	nop

Disassembly of section .text.__malloc_unlock%247:

0040d9ec <__malloc_unlock>:
  40d9ec:	4770      	bx	lr

0040d9ee <.LFE1>:
  40d9ee:	bf00      	nop

Disassembly of section .rodata%248:

0040d9f0 <.rodata%248>:
  40d9f0:	000a      	.short	0x000a
  40d9f2:	bf00      	nop

Disassembly of section .text.__sfp_lock_acquire%249:

0040d9f4 <__sfp_lock_acquire>:
  40d9f4:	4770      	bx	lr
  40d9f6:	bf00      	nop

Disassembly of section .text.__sfp_lock_release%250:

0040d9f8 <__sfp_lock_release>:
  40d9f8:	4770      	bx	lr
  40d9fa:	bf00      	nop

Disassembly of section .text._isatty%251:

0040d9fc <_isatty>:
  40d9fc:	2001      	movs	r0, #1
  40d9fe:	4770      	bx	lr

Disassembly of section .text._lseek%252:

0040da00 <_lseek>:
  40da00:	2000      	movs	r0, #0
  40da02:	4770      	bx	lr

Disassembly of section .text._mon_putc%253:

0040d006 <_mon_putc>:

void _mon_putc(char c)
{
  40d006:	4770      	bx	lr
