Archive member included to satisfy reference by file (symbol)

c:/program files (x86)/microchip/xc32/v2.10/bin/bin/../../lib/gcc/pic32c/6.2.1/../../../../pic32c/lib/v7e-m/fpv5/hard\libpic32c.a(data_init.o)
                              build/sam_e70_xplained_ultra/production/_ext/1171490990/startup.o (__pic32c_data_initialization)
c:/program files (x86)/microchip/xc32/v2.10/bin/bin/../../lib/gcc/pic32c/6.2.1/v7e-m/fpv5/hard\libgcc.a(_aeabi_uldivmod.o)
                              build/sam_e70_xplained_ultra/production/_ext/1645245335/tfm.o (__aeabi_uldivmod)
c:/program files (x86)/microchip/xc32/v2.10/bin/bin/../../lib/gcc/pic32c/6.2.1/v7e-m/fpv5/hard\libgcc.a(_udivmoddi4.o)
                              c:/program files (x86)/microchip/xc32/v2.10/bin/bin/../../lib/gcc/pic32c/6.2.1/v7e-m/fpv5/hard\libgcc.a(_aeabi_uldivmod.o) (__udivmoddi4)
c:/program files (x86)/microchip/xc32/v2.10/bin/bin/../../lib/gcc/pic32c/6.2.1/v7e-m/fpv5/hard\libgcc.a(_dvmd_tls.o)
                              c:/program files (x86)/microchip/xc32/v2.10/bin/bin/../../lib/gcc/pic32c/6.2.1/v7e-m/fpv5/hard\libgcc.a(_aeabi_uldivmod.o) (__aeabi_ldiv0)
c:/program files (x86)/microchip/xc32/v2.10/bin/bin/../../lib/gcc/pic32c/6.2.1/../../../../pic32c/lib/v7e-m/fpv5/hard\libc.a(lib_a-exit.o)
                              c:/program files (x86)/microchip/xc32/v2.10/bin/bin/../../lib/gcc/pic32c/6.2.1/../../../../pic32c/lib/v7e-m/fpv5/hard/crt0.o (exit)
c:/program files (x86)/microchip/xc32/v2.10/bin/bin/../../lib/gcc/pic32c/6.2.1/../../../../pic32c/lib/v7e-m/fpv5/hard\libc.a(lib_a-gmtime.o)
                              build/sam_e70_xplained_ultra/production/_ext/1645245335/asn.o (gmtime)
c:/program files (x86)/microchip/xc32/v2.10/bin/bin/../../lib/gcc/pic32c/6.2.1/../../../../pic32c/lib/v7e-m/fpv5/hard\libc.a(lib_a-gmtime_r.o)
                              c:/program files (x86)/microchip/xc32/v2.10/bin/bin/../../lib/gcc/pic32c/6.2.1/../../../../pic32c/lib/v7e-m/fpv5/hard\libc.a(lib_a-gmtime.o) (gmtime_r)
c:/program files (x86)/microchip/xc32/v2.10/bin/bin/../../lib/gcc/pic32c/6.2.1/../../../../pic32c/lib/v7e-m/fpv5/hard\libc.a(lib_a-impure.o)
                              c:/program files (x86)/microchip/xc32/v2.10/bin/bin/../../lib/gcc/pic32c/6.2.1/../../../../pic32c/lib/v7e-m/fpv5/hard\libc.a(lib_a-exit.o) (_global_impure_ptr)
c:/program files (x86)/microchip/xc32/v2.10/bin/bin/../../lib/gcc/pic32c/6.2.1/../../../../pic32c/lib/v7e-m/fpv5/hard\libc.a(lib_a-init.o)
                              c:/program files (x86)/microchip/xc32/v2.10/bin/bin/../../lib/gcc/pic32c/6.2.1/../../../../pic32c/lib/v7e-m/fpv5/hard/crt0.o (__libc_init_array)
c:/program files (x86)/microchip/xc32/v2.10/bin/bin/../../lib/gcc/pic32c/6.2.1/../../../../pic32c/lib/v7e-m/fpv5/hard\libc.a(lib_a-locale.o)
                              build/sam_e70_xplained_ultra/production/_ext/1645245335/asn.o (__locale_ctype_ptr)
c:/program files (x86)/microchip/xc32/v2.10/bin/bin/../../lib/gcc/pic32c/6.2.1/../../../../pic32c/lib/v7e-m/fpv5/hard\libc.a(lib_a-malloc.o)
                              build/sam_e70_xplained_ultra/production/_ext/1645245335/memory.o (malloc)
c:/program files (x86)/microchip/xc32/v2.10/bin/bin/../../lib/gcc/pic32c/6.2.1/../../../../pic32c/lib/v7e-m/fpv5/hard\libc.a(lib_a-mallocr.o)
                              c:/program files (x86)/microchip/xc32/v2.10/bin/bin/../../lib/gcc/pic32c/6.2.1/../../../../pic32c/lib/v7e-m/fpv5/hard\libc.a(lib_a-malloc.o) (_malloc_r)
c:/program files (x86)/microchip/xc32/v2.10/bin/bin/../../lib/gcc/pic32c/6.2.1/../../../../pic32c/lib/v7e-m/fpv5/hard\libc.a(lib_a-mbtowc_r.o)
                              c:/program files (x86)/microchip/xc32/v2.10/bin/bin/../../lib/gcc/pic32c/6.2.1/../../../../pic32c/lib/v7e-m/fpv5/hard\libc.a(lib_a-locale.o) (__ascii_mbtowc)
c:/program files (x86)/microchip/xc32/v2.10/bin/bin/../../lib/gcc/pic32c/6.2.1/../../../../pic32c/lib/v7e-m/fpv5/hard\libc.a(lib_a-memcmp.o)
                              build/sam_e70_xplained_ultra/production/_ext/1360937237/app.o (memcmp)
c:/program files (x86)/microchip/xc32/v2.10/bin/bin/../../lib/gcc/pic32c/6.2.1/../../../../pic32c/lib/v7e-m/fpv5/hard\libc.a(lib_a-memcpy.o)
                              build/sam_e70_xplained_ultra/production/_ext/1645245335/asn.o (memcpy)
c:/program files (x86)/microchip/xc32/v2.10/bin/bin/../../lib/gcc/pic32c/6.2.1/../../../../pic32c/lib/v7e-m/fpv5/hard\libc.a(lib_a-memmove.o)
                              build/sam_e70_xplained_ultra/production/_ext/1645245335/asn.o (memmove)
c:/program files (x86)/microchip/xc32/v2.10/bin/bin/../../lib/gcc/pic32c/6.2.1/../../../../pic32c/lib/v7e-m/fpv5/hard\libc.a(lib_a-memset.o)
                              c:/program files (x86)/microchip/xc32/v2.10/bin/bin/../../lib/gcc/pic32c/6.2.1/../../../../pic32c/lib/v7e-m/fpv5/hard/crt0.o (memset)
c:/program files (x86)/microchip/xc32/v2.10/bin/bin/../../lib/gcc/pic32c/6.2.1/../../../../pic32c/lib/v7e-m/fpv5/hard\libc.a(lib_a-mlock.o)
                              c:/program files (x86)/microchip/xc32/v2.10/bin/bin/../../lib/gcc/pic32c/6.2.1/../../../../pic32c/lib/v7e-m/fpv5/hard\libc.a(lib_a-mallocr.o) (__malloc_lock)
c:/program files (x86)/microchip/xc32/v2.10/bin/bin/../../lib/gcc/pic32c/6.2.1/../../../../pic32c/lib/v7e-m/fpv5/hard\libc.a(lib_a-realloc.o)
                              build/sam_e70_xplained_ultra/production/_ext/1645245335/memory.o (realloc)
c:/program files (x86)/microchip/xc32/v2.10/bin/bin/../../lib/gcc/pic32c/6.2.1/../../../../pic32c/lib/v7e-m/fpv5/hard\libc.a(lib_a-reallocr.o)
                              c:/program files (x86)/microchip/xc32/v2.10/bin/bin/../../lib/gcc/pic32c/6.2.1/../../../../pic32c/lib/v7e-m/fpv5/hard\libc.a(lib_a-realloc.o) (_realloc_r)
c:/program files (x86)/microchip/xc32/v2.10/bin/bin/../../lib/gcc/pic32c/6.2.1/../../../../pic32c/lib/v7e-m/fpv5/hard\libc.a(lib_a-sbrkr.o)
                              c:/program files (x86)/microchip/xc32/v2.10/bin/bin/../../lib/gcc/pic32c/6.2.1/../../../../pic32c/lib/v7e-m/fpv5/hard\libc.a(lib_a-mallocr.o) (_sbrk_r)
c:/program files (x86)/microchip/xc32/v2.10/bin/bin/../../lib/gcc/pic32c/6.2.1/../../../../pic32c/lib/v7e-m/fpv5/hard\libc.a(lib_a-sprintf.o)
                              (sprintf)
c:/program files (x86)/microchip/xc32/v2.10/bin/bin/../../lib/gcc/pic32c/6.2.1/../../../../pic32c/lib/v7e-m/fpv5/hard\libc.a(lib_a-strcmp.o)
                              build/sam_e70_xplained_ultra/production/_ext/1832805299/sys_command.o (strcmp)
c:/program files (x86)/microchip/xc32/v2.10/bin/bin/../../lib/gcc/pic32c/6.2.1/../../../../pic32c/lib/v7e-m/fpv5/hard\libc.a(lib_a-strcpy.o)
                              build/sam_e70_xplained_ultra/production/_ext/1832805299/sys_debug.o (strcpy)
c:/program files (x86)/microchip/xc32/v2.10/bin/bin/../../lib/gcc/pic32c/6.2.1/../../../../pic32c/lib/v7e-m/fpv5/hard\libc.a(lib_a-strlen.o)
                              build/sam_e70_xplained_ultra/production/_ext/1360937237/app.o (strlen)
c:/program files (x86)/microchip/xc32/v2.10/bin/bin/../../lib/gcc/pic32c/6.2.1/../../../../pic32c/lib/v7e-m/fpv5/hard\libc.a(lib_a-strncasecmp.o)
                              build/sam_e70_xplained_ultra/production/_ext/1645245335/ecc.o (strncasecmp)
c:/program files (x86)/microchip/xc32/v2.10/bin/bin/../../lib/gcc/pic32c/6.2.1/../../../../pic32c/lib/v7e-m/fpv5/hard\libc.a(lib_a-strncmp.o)
                              build/sam_e70_xplained_ultra/production/_ext/1645245335/ecc.o (strncmp)
c:/program files (x86)/microchip/xc32/v2.10/bin/bin/../../lib/gcc/pic32c/6.2.1/../../../../pic32c/lib/v7e-m/fpv5/hard\libc.a(lib_a-strncpy.o)
                              build/sam_e70_xplained_ultra/production/_ext/1645245335/error.o (strncpy)
c:/program files (x86)/microchip/xc32/v2.10/bin/bin/../../lib/gcc/pic32c/6.2.1/../../../../pic32c/lib/v7e-m/fpv5/hard\libc.a(lib_a-svfprintf.o)
                              c:/program files (x86)/microchip/xc32/v2.10/bin/bin/../../lib/gcc/pic32c/6.2.1/../../../../pic32c/lib/v7e-m/fpv5/hard\libc.a(lib_a-sprintf.o) (_svfprintf_r)
c:/program files (x86)/microchip/xc32/v2.10/bin/bin/../../lib/gcc/pic32c/6.2.1/../../../../pic32c/lib/v7e-m/fpv5/hard\libc.a(lib_a-time.o)
                              build/sam_e70_xplained_ultra/production/_ext/1645245335/asn.o (time)
c:/program files (x86)/microchip/xc32/v2.10/bin/bin/../../lib/gcc/pic32c/6.2.1/../../../../pic32c/lib/v7e-m/fpv5/hard\libc.a(lib_a-vsnprintf.o)
                              build/sam_e70_xplained_ultra/production/_ext/1832805299/sys_debug.o (vsnprintf)
c:/program files (x86)/microchip/xc32/v2.10/bin/bin/../../lib/gcc/pic32c/6.2.1/../../../../pic32c/lib/v7e-m/fpv5/hard\libc.a(lib_a-wctomb_r.o)
                              c:/program files (x86)/microchip/xc32/v2.10/bin/bin/../../lib/gcc/pic32c/6.2.1/../../../../pic32c/lib/v7e-m/fpv5/hard\libc.a(lib_a-locale.o) (__ascii_wctomb)
c:/program files (x86)/microchip/xc32/v2.10/bin/bin/../../lib/gcc/pic32c/6.2.1/../../../../pic32c/lib/v7e-m/fpv5/hard\libc.a(lib_a-__call_atexit.o)
                              c:/program files (x86)/microchip/xc32/v2.10/bin/bin/../../lib/gcc/pic32c/6.2.1/../../../../pic32c/lib/v7e-m/fpv5/hard\libc.a(lib_a-exit.o) (__call_exitprocs)
c:/program files (x86)/microchip/xc32/v2.10/bin/bin/../../lib/gcc/pic32c/6.2.1/../../../../pic32c/lib/v7e-m/fpv5/hard\libc.a(lib_a-atexit.o)
                              c:/program files (x86)/microchip/xc32/v2.10/bin/bin/../../lib/gcc/pic32c/6.2.1/../../../../pic32c/lib/v7e-m/fpv5/hard\libc.a(lib_a-__call_atexit.o) (atexit)
c:/program files (x86)/microchip/xc32/v2.10/bin/bin/../../lib/gcc/pic32c/6.2.1/../../../../pic32c/lib/v7e-m/fpv5/hard\libc.a(lib_a-ctype_.o)
                              c:/program files (x86)/microchip/xc32/v2.10/bin/bin/../../lib/gcc/pic32c/6.2.1/../../../../pic32c/lib/v7e-m/fpv5/hard\libc.a(lib_a-locale.o) (_ctype_)
c:/program files (x86)/microchip/xc32/v2.10/bin/bin/../../lib/gcc/pic32c/6.2.1/../../../../pic32c/lib/v7e-m/fpv5/hard\libc.a(lib_a-dtoa.o)
                              c:/program files (x86)/microchip/xc32/v2.10/bin/bin/../../lib/gcc/pic32c/6.2.1/../../../../pic32c/lib/v7e-m/fpv5/hard\libc.a(lib_a-svfprintf.o) (_dtoa_r)
c:/program files (x86)/microchip/xc32/v2.10/bin/bin/../../lib/gcc/pic32c/6.2.1/../../../../pic32c/lib/v7e-m/fpv5/hard\libc.a(lib_a-fini.o)
                              c:/program files (x86)/microchip/xc32/v2.10/bin/bin/../../lib/gcc/pic32c/6.2.1/../../../../pic32c/lib/v7e-m/fpv5/hard\libc.a(lib_a-__call_atexit.o) (__libc_fini_array)
c:/program files (x86)/microchip/xc32/v2.10/bin/bin/../../lib/gcc/pic32c/6.2.1/../../../../pic32c/lib/v7e-m/fpv5/hard\libc.a(lib_a-freer.o)
                              c:/program files (x86)/microchip/xc32/v2.10/bin/bin/../../lib/gcc/pic32c/6.2.1/../../../../pic32c/lib/v7e-m/fpv5/hard\libc.a(lib_a-malloc.o) (_free_r)
c:/program files (x86)/microchip/xc32/v2.10/bin/bin/../../lib/gcc/pic32c/6.2.1/../../../../pic32c/lib/v7e-m/fpv5/hard\libc.a(lib_a-gettimeofdayr.o)
                              c:/program files (x86)/microchip/xc32/v2.10/bin/bin/../../lib/gcc/pic32c/6.2.1/../../../../pic32c/lib/v7e-m/fpv5/hard\libc.a(lib_a-time.o) (_gettimeofday_r)
c:/program files (x86)/microchip/xc32/v2.10/bin/bin/../../lib/gcc/pic32c/6.2.1/../../../../pic32c/lib/v7e-m/fpv5/hard\libc.a(lib_a-localeconv.o)
                              c:/program files (x86)/microchip/xc32/v2.10/bin/bin/../../lib/gcc/pic32c/6.2.1/../../../../pic32c/lib/v7e-m/fpv5/hard\libc.a(lib_a-svfprintf.o) (_localeconv_r)
c:/program files (x86)/microchip/xc32/v2.10/bin/bin/../../lib/gcc/pic32c/6.2.1/../../../../pic32c/lib/v7e-m/fpv5/hard\libc.a(lib_a-memchr.o)
                              c:/program files (x86)/microchip/xc32/v2.10/bin/bin/../../lib/gcc/pic32c/6.2.1/../../../../pic32c/lib/v7e-m/fpv5/hard\libc.a(lib_a-svfprintf.o) (memchr)
c:/program files (x86)/microchip/xc32/v2.10/bin/bin/../../lib/gcc/pic32c/6.2.1/../../../../pic32c/lib/v7e-m/fpv5/hard\libc.a(lib_a-mprec.o)
                              c:/program files (x86)/microchip/xc32/v2.10/bin/bin/../../lib/gcc/pic32c/6.2.1/../../../../pic32c/lib/v7e-m/fpv5/hard\libc.a(lib_a-dtoa.o) (_Balloc)
c:/program files (x86)/microchip/xc32/v2.10/bin/bin/../../lib/gcc/pic32c/6.2.1/../../../../pic32c/lib/v7e-m/fpv5/hard\libc.a(lib_a-reent.o)
                              c:/program files (x86)/microchip/xc32/v2.10/bin/bin/../../lib/gcc/pic32c/6.2.1/../../../../pic32c/lib/v7e-m/fpv5/hard\libc.a(lib_a-sbrkr.o) (errno)
c:/program files (x86)/microchip/xc32/v2.10/bin/bin/../../lib/gcc/pic32c/6.2.1/../../../../pic32c/lib/v7e-m/fpv5/hard\libc.a(lib_a-s_frexp.o)
                              c:/program files (x86)/microchip/xc32/v2.10/bin/bin/../../lib/gcc/pic32c/6.2.1/../../../../pic32c/lib/v7e-m/fpv5/hard\libc.a(lib_a-svfprintf.o) (frexp)
c:/program files (x86)/microchip/xc32/v2.10/bin/bin/../../lib/gcc/pic32c/6.2.1/../../../../pic32c/lib/v7e-m/fpv5/hard\libc.a(lib_a-svfiprintf.o)
                              c:/program files (x86)/microchip/xc32/v2.10/bin/bin/../../lib/gcc/pic32c/6.2.1/../../../../pic32c/lib/v7e-m/fpv5/hard\libc.a(lib_a-svfprintf.o) (__ssprint_r)
c:/program files (x86)/microchip/xc32/v2.10/bin/bin/../../lib/gcc/pic32c/6.2.1/../../../../pic32c/lib/v7e-m/fpv5/hard\libc.a(lib_a-__atexit.o)
                              c:/program files (x86)/microchip/xc32/v2.10/bin/bin/../../lib/gcc/pic32c/6.2.1/../../../../pic32c/lib/v7e-m/fpv5/hard\libc.a(lib_a-atexit.o) (__register_exitproc)
c:/program files (x86)/microchip/xc32/v2.10/bin/bin/../../lib/gcc/pic32c/6.2.1/../../../../pic32c/lib/v7e-m/fpv5/hard\libc.a(lib_a-callocr.o)
                              c:/program files (x86)/microchip/xc32/v2.10/bin/bin/../../lib/gcc/pic32c/6.2.1/../../../../pic32c/lib/v7e-m/fpv5/hard\libc.a(lib_a-mprec.o) (_calloc_r)
c:/program files (x86)/microchip/xc32/v2.10/bin/bin/../../lib/gcc/pic32c/6.2.1/../../../../pic32c/lib/v7e-m/fpv5/hard\libm.a(lib_a-w_log.o)
                              build/sam_e70_xplained_ultra/production/_ext/1645245335/dh.o (log)
c:/program files (x86)/microchip/xc32/v2.10/bin/bin/../../lib/gcc/pic32c/6.2.1/../../../../pic32c/lib/v7e-m/fpv5/hard\libm.a(lib_a-w_pow.o)
                              build/sam_e70_xplained_ultra/production/_ext/1645245335/dh.o (pow)
c:/program files (x86)/microchip/xc32/v2.10/bin/bin/../../lib/gcc/pic32c/6.2.1/../../../../pic32c/lib/v7e-m/fpv5/hard\libm.a(lib_a-e_log.o)
                              c:/program files (x86)/microchip/xc32/v2.10/bin/bin/../../lib/gcc/pic32c/6.2.1/../../../../pic32c/lib/v7e-m/fpv5/hard\libm.a(lib_a-w_log.o) (__ieee754_log)
c:/program files (x86)/microchip/xc32/v2.10/bin/bin/../../lib/gcc/pic32c/6.2.1/../../../../pic32c/lib/v7e-m/fpv5/hard\libm.a(lib_a-e_pow.o)
                              c:/program files (x86)/microchip/xc32/v2.10/bin/bin/../../lib/gcc/pic32c/6.2.1/../../../../pic32c/lib/v7e-m/fpv5/hard\libm.a(lib_a-w_pow.o) (__ieee754_pow)
c:/program files (x86)/microchip/xc32/v2.10/bin/bin/../../lib/gcc/pic32c/6.2.1/../../../../pic32c/lib/v7e-m/fpv5/hard\libm.a(lib_a-e_sqrt.o)
                              c:/program files (x86)/microchip/xc32/v2.10/bin/bin/../../lib/gcc/pic32c/6.2.1/../../../../pic32c/lib/v7e-m/fpv5/hard\libm.a(lib_a-e_pow.o) (__ieee754_sqrt)
c:/program files (x86)/microchip/xc32/v2.10/bin/bin/../../lib/gcc/pic32c/6.2.1/../../../../pic32c/lib/v7e-m/fpv5/hard\libm.a(lib_a-s_fabs.o)
                              c:/program files (x86)/microchip/xc32/v2.10/bin/bin/../../lib/gcc/pic32c/6.2.1/../../../../pic32c/lib/v7e-m/fpv5/hard\libm.a(lib_a-e_pow.o) (fabs)
c:/program files (x86)/microchip/xc32/v2.10/bin/bin/../../lib/gcc/pic32c/6.2.1/../../../../pic32c/lib/v7e-m/fpv5/hard\libm.a(lib_a-s_finite.o)
                              c:/program files (x86)/microchip/xc32/v2.10/bin/bin/../../lib/gcc/pic32c/6.2.1/../../../../pic32c/lib/v7e-m/fpv5/hard\libm.a(lib_a-w_pow.o) (finite)
c:/program files (x86)/microchip/xc32/v2.10/bin/bin/../../lib/gcc/pic32c/6.2.1/../../../../pic32c/lib/v7e-m/fpv5/hard\libm.a(lib_a-s_lib_ver.o)
                              c:/program files (x86)/microchip/xc32/v2.10/bin/bin/../../lib/gcc/pic32c/6.2.1/../../../../pic32c/lib/v7e-m/fpv5/hard\libm.a(lib_a-w_log.o) (__fdlib_version)
c:/program files (x86)/microchip/xc32/v2.10/bin/bin/../../lib/gcc/pic32c/6.2.1/../../../../pic32c/lib/v7e-m/fpv5/hard\libm.a(lib_a-s_matherr.o)
                              c:/program files (x86)/microchip/xc32/v2.10/bin/bin/../../lib/gcc/pic32c/6.2.1/../../../../pic32c/lib/v7e-m/fpv5/hard\libm.a(lib_a-w_log.o) (matherr)
c:/program files (x86)/microchip/xc32/v2.10/bin/bin/../../lib/gcc/pic32c/6.2.1/../../../../pic32c/lib/v7e-m/fpv5/hard\libm.a(lib_a-s_nan.o)
                              c:/program files (x86)/microchip/xc32/v2.10/bin/bin/../../lib/gcc/pic32c/6.2.1/../../../../pic32c/lib/v7e-m/fpv5/hard\libm.a(lib_a-w_log.o) (nan)
c:/program files (x86)/microchip/xc32/v2.10/bin/bin/../../lib/gcc/pic32c/6.2.1/../../../../pic32c/lib/v7e-m/fpv5/hard\libm.a(lib_a-s_rint.o)
                              c:/program files (x86)/microchip/xc32/v2.10/bin/bin/../../lib/gcc/pic32c/6.2.1/../../../../pic32c/lib/v7e-m/fpv5/hard\libm.a(lib_a-w_pow.o) (rint)
c:/program files (x86)/microchip/xc32/v2.10/bin/bin/../../lib/gcc/pic32c/6.2.1/../../../../pic32c/lib/v7e-m/fpv5/hard\libm.a(lib_a-s_scalbn.o)
                              c:/program files (x86)/microchip/xc32/v2.10/bin/bin/../../lib/gcc/pic32c/6.2.1/../../../../pic32c/lib/v7e-m/fpv5/hard\libm.a(lib_a-e_pow.o) (scalbn)
c:/program files (x86)/microchip/xc32/v2.10/bin/bin/../../lib/gcc/pic32c/6.2.1/../../../../pic32c/lib/v7e-m/fpv5/hard\libm.a(lib_a-s_copysign.o)
                              c:/program files (x86)/microchip/xc32/v2.10/bin/bin/../../lib/gcc/pic32c/6.2.1/../../../../pic32c/lib/v7e-m/fpv5/hard\libm.a(lib_a-s_scalbn.o) (copysign)
c:/program files (x86)/microchip/xc32/v2.10/bin/bin/../../lib/gcc/pic32c/6.2.1/../../../../pic32c/lib/v7e-m/fpv5/hard\libpic32c.a(sbrk.o)
                              c:/program files (x86)/microchip/xc32/v2.10/bin/bin/../../lib/gcc/pic32c/6.2.1/../../../../pic32c/lib/v7e-m/fpv5/hard\libc.a(lib_a-sbrkr.o) (_sbrk)
c:/program files (x86)/microchip/xc32/v2.10/bin/bin/../../lib/gcc/pic32c/6.2.1/../../../../pic32c/lib/v7e-m/fpv5/hard\libc.a(lib_a-errno.o)
                              c:/program files (x86)/microchip/xc32/v2.10/bin/bin/../../lib/gcc/pic32c/6.2.1/../../../../pic32c/lib/v7e-m/fpv5/hard\libm.a(lib_a-w_log.o) (__errno)

Allocating common symbols
Common symbol       size              file

errno               0x4               c:/program files (x86)/microchip/xc32/v2.10/bin/bin/../../lib/gcc/pic32c/6.2.1/../../../../pic32c/lib/v7e-m/fpv5/hard\libc.a(lib_a-reent.o)
TC1_CH0_CallbackObj
                    0x8               build/sam_e70_xplained_ultra/production/_ext/829342655/plib_tc1.o
myBuf               0x400             build/sam_e70_xplained_ultra/production/_ext/1360937237/app.o
sysObj              0xc               build/sam_e70_xplained_ultra/production/_ext/1171490990/initialization.o
sysDebugInstance    0x8               build/sam_e70_xplained_ultra/production/_ext/1832805299/sys_debug.o
gblErrLvl           0x1               build/sam_e70_xplained_ultra/production/_ext/1832805299/sys_debug.o
usart1Obj           0x30              build/sam_e70_xplained_ultra/production/_ext/2001315827/plib_usart1.o

Microchip PIC32 Memory-Usage Report

ROM Program-Memory Usage
section                    address  length [bytes]      (dec)  Description
-------                 ----------  -------------------------  -----------
.vectors                  0x400000          0x168         360   
.text                     0x400168           0x24          36  App's exec code 
.ARM.exidx                0x40018c            0x8           8   
.text._Transform          0x400194         0x2754       10068   
.text._svfprintf_r        0x4028e8         0x18f0        6384   
.dinit                    0x4041d8          0xce0        3296   
.text._dtoa_r             0x404eb8          0xc4c        3148   
.rodata                   0x405b04          0xb04        2820  Read-only const 
.rodata.Spbox             0x406608          0x800        2048   
.text.Transform           0x406e08          0x6e0        1760   
.text._malloc_r           0x4074e8          0x550        1360   
.text._realloc_r          0x407a38          0x34c         844   
.text.SYS_CMD_Tasks       0x407d84          0x314         788   
.text.APP_Tasks           0x408098          0x304         772   
.text                     0x40839c          0x2dc         732  App's exec code 
.rodata._seqLeftArrow     0x408678            0x4           4   
.rodata._seqRightArrow    0x40867c            0x4           4   
.text                     0x408680          0x2dc         732  App's exec code 
.text.GetCommandCharact   0x40895c            0x4           4   
.text.wc_Sha512Final      0x408960          0x290         656   
.text.wc_Sha384Final      0x408bf0          0x290         656   
.rodata.K512              0x408e80          0x280         640   
.text.wc_HmacSetKey       0x409100          0x23e         574   
.text.Dummy_Handler       0x40933e            0x2           2   
.rodata                   0x409340          0x218         536  Read-only const 
.text._free_r             0x409558          0x1cc         460   
.text.ParseCmdBuffer      0x409724          0x1b8         440   
.text.wc_HmacFinal        0x4098dc          0x190         400   
.text.CommandHelp         0x409a6c          0x190         400   
.text.aes_test            0x409bfc          0x184         388   
.text.DesSetKey           0x409d80          0x164         356   
.text.Console_UART_Task   0x409ee4          0x154         340   
.text                     0x40a038          0x134         308  App's exec code 
.text.DesRawProcessBloc   0x40a16c          0x130         304   
.text.Des3ProcessBlock    0x40a29c          0x130         304   
.text.quorem              0x40a3cc          0x128         296   
.text.USART1_InterruptH   0x40a4f4          0x124         292   
.text.__multiply          0x40a618          0x124         292   
.text.Reset_Handler       0x40a73c          0x118         280   
.text.DesProcessBlock     0x40a854          0x118         280   
.text.__mdiff             0x40a96c          0x108         264   
.rodata._ctype_           0x40aa74          0x104         260   
.text.__ssprint_r         0x40ab78           0xfc         252   
.text.wc_Sha512Update     0x40ac74           0xea         234   
.text.wc_Sha384Update     0x40ad5e           0xea         234   
.text.des3_test           0x40ae48           0xe8         232   
.text.Sha256Process       0x40af30           0xdc         220   
.text.SYS_CONSOLE_Read    0x40b00c           0x34          52   
.text                     0x40b040           0xdc         220  App's exec code 
.text.hmac_sha_test       0x40b11c           0xcc         204   
.text.hmac_sha256_test    0x40b1e8           0xcc         204   
.text.hmac_sha384_test    0x40b2b4           0xcc         204   
.text.wc_AesCbcEncrypt    0x40b380           0xcc         204   
.text.hmac_md5_test       0x40b44c           0xc8         200   
.text.hmac_sha512_test    0x40b514           0xc8         200   
.text.Sha1Process         0x40b5dc           0xc8         200   
.text.TIME_PLIB_Callbac   0x40b6a4           0xc8         200   
.text.memmove             0x40b76c           0xc8         200   
.rodata._seqDownArrow     0x40b834            0x4           4   
.rodata.__mprec_tens      0x40b838           0xc8         200   
.text.wc_Md5Final         0x40b900           0xc4         196   
.text.des_test            0x40b9c4           0xc0         192   
.text.sha_test            0x40ba84           0xbc         188   
.text.strcpy              0x40bb40           0xbc         188   
.text.__d2b               0x40bbfc           0xbc         188   
.text.wc_InitSha512_ex    0x40bcb8           0xb8         184   
.text.wc_InitSha384_ex    0x40bd70           0xb8         184   
.text.md5_test            0x40be28           0xb4         180   
.text.wc_Des3_CbcDecryp   0x40bedc           0xb2         178   
.text.NonMaskableInt_Ha   0x40bf8e            0x2           2   
.text.wc_AesCbcDecrypt    0x40bf90           0xa8         168   
.text.__lshift            0x40c038           0xa4         164   
.text.__register_exitpr   0x40c0dc           0xa4         164   
.text.DisplayNodeMsg      0x40c180           0xa0         160   
.text                     0x40c220           0xa0         160  App's exec code 
.text.__pow5mult          0x40c2c0           0xa0         160   
.text.wc_Des3_CbcEncryp   0x40c360           0x9e         158   
.text.HardFault_Handler   0x40c3fe            0x2           2   
.text.wc_AesCtrEncrypt    0x40c400           0x9c         156   
.text.wc_Sha256Final      0x40c49c           0x9c         156   
.text.memset              0x40c538           0x9c         156   
.text.sha256_test         0x40c5d4           0x94         148   
.text.wc_InitSha256       0x40c668           0x94         148   
.text.__pic32c_data_ini   0x40c6fc           0x94         148   
.text._malloc_trim_r      0x40c790           0x94         148   
.text.wc_ShaFinal         0x40c824           0x90         144   
.text.SYS_CMD_DELETE      0x40c8b4           0x8c         140   
.text.wc_Des_CbcDecrypt   0x40c940           0x88         136   
.text.wc_Md5Update        0x40c9c8           0x88         136   
.text.SYS_CMD_Initializ   0x40ca50           0x88         136   
.text.wc_HmacUpdate       0x40cad8           0x84         132   
.text.wc_ShaUpdate        0x40cb5c           0x82         130   
.text.wc_Sha256Update     0x40cbde           0x82         130   
.rodata.sha_padding       0x40cc60           0x80         128   
.text.SendCommandPrint    0x40cce0           0x80         128   
.text.SYS_CMD_PRINT       0x40cd60           0x80         128   
.text.timer_addToList     0x40cde0           0x80         128   
.text.__multadd           0x40ce60           0x80         128   
.text.wc_Des_CbcEncrypt   0x40cee0           0x7e         126   
.text.DebugMonitor_Hand   0x40cf5e            0x2           2   
.text.sha384_test         0x40cf60           0x7c         124   
.text.sha512_test         0x40cfdc           0x7c         124   
.text.frexp               0x40d058           0x7c         124   
.text.wc_Des3_SetKey      0x40d0d4           0x76         118   
.text.MemoryManagement_   0x40d14a            0x2           2   
.text.CLK_Initialize      0x40d14c           0x74         116   
.text.timer_removeFromL   0x40d1c0           0x74         116   
.text._vsnprintf_r        0x40d234           0x74         116   
.text.PIO_Initialize      0x40d2a8           0x70         112   
.text.SYS_TIME_Initiali   0x40d318           0x70         112   
.text                     0x40d388           0x6c         108  App's exec code 
.text.SYS_Initialize      0x40d3f4           0x68         104   
.text.SYS_CMDIO_ADD       0x40d45c           0x64         100   
.text.strncpy             0x40d4c0           0x64         100   
.text.wc_InitSha          0x40d524           0x60          96   
.text.memcmp              0x40d584           0x60          96   
.text.__lo0bits           0x40d5e4           0x60          96   
.text._calloc_r           0x40d644           0x60          96   
.text.HmacKeyInnerHash    0x40d6a4           0x5e          94   
.text.BusFault_Handler    0x40d702            0x2           2   
.text.Console_UART_Read   0x40d704           0x5c          92   
.text.wc_AesSetKey        0x40d760           0x58          88   
.text.__libc_init_array   0x40d7b8           0x50          80   
.text.Console_UART_Writ   0x40d808           0x4c          76   
.text.sprintf             0x40d854           0x4c          76   
.text._Balloc             0x40d8a0           0x4c          76   
.text.SYS_CONSOLE_Initi   0x40d8ec           0x48          72   
.text.Console_UART_Stat   0x40d934           0x48          72   
.text.CommandCleanup      0x40d97c           0x48          72   
.text.USART1_Write        0x40d9c4           0x48          72   
.text.SYS_INT_SourceDis   0x40da0c           0x44          68   
.text.USART1_ErrorGet     0x40da50           0x44          68   
.rodata                   0x40da94           0x44          68  Read-only const 
.text.NVIC_Initialize     0x40dad8           0x40          64   
.text.random_test         0x40db18           0x40          64   
.rodata.sha_padding       0x40db58           0x40          64   
.text.SYS_CONSOLE_Statu   0x40db98           0x40          64   
.text.__hi0bits           0x40dbd8           0x40          64   
.text.Console_UART_Flus   0x40dc18           0x3c          60   
.text.CommandQuit         0x40dc54           0x3c          60   
.text.USART1_Initialize   0x40dc90           0x3c          60   
.text.USART1_Read         0x40dccc           0x3c          60   
.text.wc_AesSetIV         0x40dd08           0x3a          58   
.text.timerHardwarePeri   0x40dd42           0x3a          58   
.rodata.pc1               0x40dd7c           0x38          56   
.text.wc_InitMd5_ex       0x40ddb4           0x38          56   
.text.AesWriteKey         0x40ddec           0x38          56   
.text.__mcmp              0x40de24           0x38          56   
.text.__libc_fini_array   0x40de5c           0x34          52   
.rodata.pc2               0x40de90           0x30          48   
.text.SYS_CONSOLE_Write   0x40dec0           0x30          48   
.text.SYS_TIME_CounterG   0x40def0           0x30          48   
.text                     0x40df20           0x30          48  App's exec code 
.text.__ascii_mbtowc      0x40df50           0x2c          44   
.text._sbrk               0x40df7c           0x2c          44   
.text.wc_Des3_SetIV       0x40dfa8           0x28          40   
.text.ReadCommandCharac   0x40dfd0           0x28          40   
.text.SendCommandCharac   0x40dff8           0x28          40   
.text.time_resourceUnlo   0x40e020           0x28          40   
.text.TC1_CH0_TimerInit   0x40e048           0x28          40   
.rodata.__mprec_bigtens   0x40e070           0x28          40   
.text.SYS_CMDIO_GET_HAN   0x40e098           0x24          36   
.rodata._builtinCmdTbl    0x40e0bc           0x24          36   
.text.TC1_CH0_Interrupt   0x40e0e0           0x24          36   
.text._sbrk_r             0x40e104           0x24          36   
.text.CRYPT_AES_KeySet    0x40e128           0x20          32   
.rodata.bytebit           0x40e148           0x20          32   
.text.Console_UART_Read   0x40e168           0x20          32   
.text.SYS_DEBUG_Initial   0x40e188           0x20          32   
.text.vsnprintf           0x40e1a8           0x20          32   
.text.CRYPT_RNG_BlockGe   0x40e1c8           0x1e          30   
.text.CRYPT_TDES_CBC_En   0x40e1e6           0x1e          30   
.text.CRYPT_TDES_CBC_De   0x40e204           0x1e          30   
.text.CRYPT_AES_CBC_Enc   0x40e222           0x1e          30   
.text.CRYPT_AES_CBC_Dec   0x40e240           0x1e          30   
.text.CRYPT_AES_CTR_Enc   0x40e25e           0x1e          30   
.text.wc_Des_SetKey       0x40e27c           0x1c          28   
.text.SYS_CONSOLE_Tasks   0x40e298           0x1c          28   
.text.popQueue            0x40e2b4           0x1c          28   
.text.__ascii_wctomb      0x40e2d0           0x1c          28   
.text._localeconv_r       0x40e2ec           0x1c          28   
.text.wc_Des_SetIV        0x40e308           0x1a          26   
.text.UsageFault_Handle   0x40e322            0x2           2   
.text.SYS_Tasks           0x40e324           0x18          24   
.text.CRYPT_MD5_DataAdd   0x40e33c           0x18          24   
.text.CRYPT_MD5_Finaliz   0x40e354           0x18          24   
.text.CRYPT_SHA_DataAdd   0x40e36c           0x18          24   
.text.CRYPT_SHA_Finaliz   0x40e384           0x18          24   
.text.CRYPT_SHA256_Data   0x40e39c           0x18          24   
.text.CRYPT_SHA256_Fina   0x40e3b4           0x18          24   
.text.CRYPT_SHA384_Data   0x40e3cc           0x18          24   
.text.CRYPT_SHA384_Fina   0x40e3e4           0x18          24   
.text.CRYPT_SHA512_Data   0x40e3fc           0x18          24   
.text.CRYPT_SHA512_Fina   0x40e414           0x18          24   
.text.CRYPT_TDES_KeySet   0x40e42c           0x18          24   
.text.AesWriteIV          0x40e444           0x18          24   
.text.Console_UART_Regi   0x40e45c           0x18          24   
.text.UARTDeviceReadCal   0x40e474           0x18          24   
.text.CommandReset        0x40e48c           0x18          24   
.text.SendCommandMessag   0x40e4a4           0x18          24   
.rodata.sysConsoleApi     0x40e4bc           0x18          24   
.text.wc_InitMd5          0x40e4d4           0x16          22   
.text.time_resourceLock   0x40e4ec           0x14          20   
.rodata                   0x40e500           0x14          20  Read-only const 
.text.register_fini       0x40e514           0x14          20   
.rodata                   0x40e528           0x14          20  Read-only const 
.text._Bfree              0x40e53c           0x14          20   
.text.__i2b               0x40e550           0x14          20   
.text.SYS_INT_Disable     0x40e564           0x12          18   
.text.SYS_INT_Restore     0x40e576           0x12          18   
.text.CRYPT_MD5_Initial   0x40e588           0x12          18   
.text.IsCommandReady      0x40e59a           0x12          18   
.text.CRYPT_SHA_Initial   0x40e5ac           0x10          16   
.text.CRYPT_SHA256_Init   0x40e5bc           0x10          16   
.text.CRYPT_SHA384_Init   0x40e5cc           0x10          16   
.text.CRYPT_SHA512_Init   0x40e5dc           0x10          16   
.text.CRYPT_RNG_Initial   0x40e5ec           0x10          16   
.rodata.totrot            0x40e5fc           0x10          16   
.text.UARTDeviceWriteCa   0x40e60c           0x10          16   
.text.USART1_WriteCallb   0x40e61c           0x10          16   
.text.USART1_ReadCallba   0x40e62c           0x10          16   
.text.malloc              0x40e63c           0x10          16   
.text.free                0x40e64c           0x10          16   
.rodata.blanks.8352       0x40e65c           0x10          16   
.rodata.zeroes.8353       0x40e66c           0x10          16   
.text.main                0x40e67c            0xe          14   
.text.wc_InitSha512       0x40e68a            0xe          14   
.text.wc_InitSha384       0x40e698            0xe          14   
.text.APP_Initialize      0x40e6a8            0xc          12   
.text.TC1_CH0_TimerStar   0x40e6b4            0xc          12   
.text.TC1_CH0_TimerStop   0x40e6c0            0xc          12   
.text.TC1_CH0_TimerPeri   0x40e6cc            0xc          12   
.text.TC1_CH0_TimerCoun   0x40e6d8            0xc          12   
.text.TC1_CH0_TimerCall   0x40e6e4            0xc          12   
.text.USART1_ReadCountG   0x40e6f0            0xc          12   
.text.atexit              0x40e6fc            0xc          12   
.rodata.p05.7179          0x40e708            0xc          12   
.rodata._seqUpArrow       0x40e714            0x4           4   
.text                     0x40e718            0x4           4  App's exec code 
.rodata._global_impure_   0x40e71c            0x4           4   
.text.__malloc_lock       0x40e720            0x4           4   
.text.__malloc_unlock     0x40e724            0x4           4   
      Total ROM used  :      0xe724       59172  2.8% of 0x200000
        --------------------------------------------------------------------------
         Total Program Memory used  :      0xe724       59172  2.8% of 0x200000
        --------------------------------------------------------------------------


RAM Data-Memory Usage
section                    address  length [bytes]      (dec)  Description
-------                 ----------  -------------------------  -----------
.bss                    0x20400000           0x54          84  Uninitialized data 
.bss.printBuffer        0x20400054         0xc800       51200   
.data.debugInit         0x2040c854            0x4           4   
.data.impure_data       0x2040c858          0x428        1064   
.data.__malloc_av_      0x2040cc80          0x408        1032   
.bss.printBuff          0x2040d088          0x400        1024   
.bss.wrQueueElements    0x2040d488          0x200         512   
.bss.timers             0x2040d688          0x190         400   
.data.__global_locale   0x2040d818          0x16c         364   
.bss.saveCmd.7394       0x2040d984           0x81         129   
.bss._usrCmdTbl         0x2040da08           0x80         128   
.bss.readBuff           0x2040da88           0x80         128   
.data.appData           0x2040db08           0x50          80   
.bss.rdQueueElements    0x2040db58           0x50          80   
.data.consUartData      0x2040dba8           0x50          80   
.bss.gSystemCounterObj  0x2040dbf8           0x30          48   
.bss.__malloc_current_m 0x2040dc28           0x28          40   
.data.consUsartDevDesc  0x2040dc50           0x20          32   
.bss                    0x2040dc70           0x1c          28  Uninitialized data 
.bss._cmdAppData        0x2040dc8c           0x18          24   
.data.sysTimePlibAPI    0x2040dca4           0x14          20   
.bss.aes_configuration  0x2040dcb8           0x14          20   
.data.readQueue         0x2040dccc           0x14          20   
.data.writeQueue        0x2040dce0           0x14          20   
.data.sysTimeInitData   0x2040dcf4            0xc          12   
.bss.consoleDeviceInsta 0x2040dd00            0xc          12   
.bss.cmdIODevList       0x2040dd0c            0xc          12   
.data.consUsartInit0    0x2040dd18            0x8           8   
.bss._cmdList           0x2040dd20            0x8           8   
.bss.j.12373            0x2040dd28            0x4           4   
.bss._pCurrCmdN         0x2040dd2c            0x4           4   
.bss.printBuffPtr       0x2040dd30            0x4           4   
.bss.TC1_CH0_TimerStatu 0x2040dd34            0x4           4   
.data._impure_ptr       0x2040dd38            0x4           4   
.bss.__malloc_max_sbrke 0x2040dd3c            0x4           4   
.bss.__malloc_max_total 0x2040dd40            0x4           4   
.bss.__malloc_top_pad   0x2040dd44            0x4           4   
.data.__malloc_sbrk_bas 0x2040dd48            0x4           4   
.data.__malloc_trim_thr 0x2040dd4c            0x4           4   
.bss                    0x2040dd50            0x4           4  Uninitialized data 
.bss.sysCmdInit         0x2040dd54            0x3           3   
         Total RAM used  :      0xdd54       56660  14.4% of 0x60000
        --------------------------------------------------------------------------
            Total Data Memory used  :      0xdd54       56660  14.4% of 0x60000
        --------------------------------------------------------------------------


Dynamic Data-Memory Reservation
section                    address  length [bytes]      (dec)  Description
-------                 ----------  -------------------------  -----------
heap                    0x2040dd58         0x5000       20480  Reserved for heap 
stack                   0x20412d70        0x4d280      316032  Reserved for stack 

        --------------------------------------------------------------------------

Discarded input sections

 .text          0x00000000        0x0 c:/program files (x86)/microchip/xc32/v2.10/bin/bin/../../lib/gcc/pic32c/6.2.1/v7e-m/fpv5/hard/crti.o
 .data          0x00000000        0x0 c:/program files (x86)/microchip/xc32/v2.10/bin/bin/../../lib/gcc/pic32c/6.2.1/v7e-m/fpv5/hard/crti.o
 .bss           0x00000000        0x0 c:/program files (x86)/microchip/xc32/v2.10/bin/bin/../../lib/gcc/pic32c/6.2.1/v7e-m/fpv5/hard/crti.o
 .data          0x00000000        0x4 c:/program files (x86)/microchip/xc32/v2.10/bin/bin/../../lib/gcc/pic32c/6.2.1/v7e-m/fpv5/hard/crtbegin.o
 .text          0x00000000       0x74 c:/program files (x86)/microchip/xc32/v2.10/bin/bin/../../lib/gcc/pic32c/6.2.1/../../../../pic32c/lib/v7e-m/fpv5/hard/crt0.o
 .data          0x00000000        0x0 c:/program files (x86)/microchip/xc32/v2.10/bin/bin/../../lib/gcc/pic32c/6.2.1/../../../../pic32c/lib/v7e-m/fpv5/hard/crt0.o
 .bss           0x00000000        0x0 c:/program files (x86)/microchip/xc32/v2.10/bin/bin/../../lib/gcc/pic32c/6.2.1/../../../../pic32c/lib/v7e-m/fpv5/hard/crt0.o
 .ARM.extab     0x00000000        0x0 c:/program files (x86)/microchip/xc32/v2.10/bin/bin/../../lib/gcc/pic32c/6.2.1/../../../../pic32c/lib/v7e-m/fpv5/hard/crt0.o
 .ARM.exidx     0x00000000        0x8 c:/program files (x86)/microchip/xc32/v2.10/bin/bin/../../lib/gcc/pic32c/6.2.1/../../../../pic32c/lib/v7e-m/fpv5/hard/crt0.o
 .debug_line    0x00000000       0xc5 c:/program files (x86)/microchip/xc32/v2.10/bin/bin/../../lib/gcc/pic32c/6.2.1/../../../../pic32c/lib/v7e-m/fpv5/hard/crt0.o
 .debug_info    0x00000000      0x10f c:/program files (x86)/microchip/xc32/v2.10/bin/bin/../../lib/gcc/pic32c/6.2.1/../../../../pic32c/lib/v7e-m/fpv5/hard/crt0.o
 .debug_abbrev  0x00000000       0x14 c:/program files (x86)/microchip/xc32/v2.10/bin/bin/../../lib/gcc/pic32c/6.2.1/../../../../pic32c/lib/v7e-m/fpv5/hard/crt0.o
 .debug_aranges
                0x00000000       0x20 c:/program files (x86)/microchip/xc32/v2.10/bin/bin/../../lib/gcc/pic32c/6.2.1/../../../../pic32c/lib/v7e-m/fpv5/hard/crt0.o
 .ARM.attributes
                0x00000000       0x1e c:/program files (x86)/microchip/xc32/v2.10/bin/bin/../../lib/gcc/pic32c/6.2.1/../../../../pic32c/lib/v7e-m/fpv5/hard/crt0.o
 .text          0x00000000        0x0 build/sam_e70_xplained_ultra/production/_ext/1360937237/main.o
 .data          0x00000000        0x0 build/sam_e70_xplained_ultra/production/_ext/1360937237/main.o
 .bss           0x00000000        0x0 build/sam_e70_xplained_ultra/production/_ext/1360937237/main.o
 .text          0x00000000        0x0 build/sam_e70_xplained_ultra/production/_ext/1171490990/initialization.o
 .data          0x00000000        0x0 build/sam_e70_xplained_ultra/production/_ext/1171490990/initialization.o
 .bss           0x00000000        0x0 build/sam_e70_xplained_ultra/production/_ext/1171490990/initialization.o
 .data.sysConsoleObjects
                0x00000000        0x4 build/sam_e70_xplained_ultra/production/_ext/1171490990/initialization.o
 .text          0x00000000        0x0 build/sam_e70_xplained_ultra/production/_ext/1171490990/interrupts.o
 .data          0x00000000        0x0 build/sam_e70_xplained_ultra/production/_ext/1171490990/interrupts.o
 .bss           0x00000000        0x0 build/sam_e70_xplained_ultra/production/_ext/1171490990/interrupts.o
 .text          0x00000000        0x0 build/sam_e70_xplained_ultra/production/_ext/1171490990/exceptions.o
 .data          0x00000000        0x0 build/sam_e70_xplained_ultra/production/_ext/1171490990/exceptions.o
 .bss           0x00000000        0x0 build/sam_e70_xplained_ultra/production/_ext/1171490990/exceptions.o
 .text          0x00000000        0x0 build/sam_e70_xplained_ultra/production/_ext/163028504/xc32_monitor.o
 .data          0x00000000        0x0 build/sam_e70_xplained_ultra/production/_ext/163028504/xc32_monitor.o
 .bss           0x00000000        0x0 build/sam_e70_xplained_ultra/production/_ext/163028504/xc32_monitor.o
 .text._mon_getc
                0x00000000        0x4 build/sam_e70_xplained_ultra/production/_ext/163028504/xc32_monitor.o
 .text._mon_putc
                0x00000000        0x2 build/sam_e70_xplained_ultra/production/_ext/163028504/xc32_monitor.o
 .debug_info    0x00000000      0x243 build/sam_e70_xplained_ultra/production/_ext/163028504/xc32_monitor.o
 .debug_abbrev  0x00000000       0x75 build/sam_e70_xplained_ultra/production/_ext/163028504/xc32_monitor.o
 .debug_loc     0x00000000       0x21 build/sam_e70_xplained_ultra/production/_ext/163028504/xc32_monitor.o
 .debug_aranges
                0x00000000       0x28 build/sam_e70_xplained_ultra/production/_ext/163028504/xc32_monitor.o
 .debug_ranges  0x00000000       0x18 build/sam_e70_xplained_ultra/production/_ext/163028504/xc32_monitor.o
 .debug_line    0x00000000       0x6a build/sam_e70_xplained_ultra/production/_ext/163028504/xc32_monitor.o
 .debug_str     0x00000000        0x0 build/sam_e70_xplained_ultra/production/_ext/163028504/xc32_monitor.o
 .comment       0x00000000       0x3d build/sam_e70_xplained_ultra/production/_ext/163028504/xc32_monitor.o
 .debug_frame   0x00000000       0x30 build/sam_e70_xplained_ultra/production/_ext/163028504/xc32_monitor.o
 .ARM.attributes
                0x00000000       0x37 build/sam_e70_xplained_ultra/production/_ext/163028504/xc32_monitor.o
 .text          0x00000000        0x0 build/sam_e70_xplained_ultra/production/_ext/60165520/plib_clk.o
 .data          0x00000000        0x0 build/sam_e70_xplained_ultra/production/_ext/60165520/plib_clk.o
 .bss           0x00000000        0x0 build/sam_e70_xplained_ultra/production/_ext/60165520/plib_clk.o
 .text          0x00000000        0x0 build/sam_e70_xplained_ultra/production/_ext/60177924/plib_pio.o
 .data          0x00000000        0x0 build/sam_e70_xplained_ultra/production/_ext/60177924/plib_pio.o
 .bss           0x00000000        0x0 build/sam_e70_xplained_ultra/production/_ext/60177924/plib_pio.o
 .text.PIO_PortRead
                0x00000000        0x4 build/sam_e70_xplained_ultra/production/_ext/60177924/plib_pio.o
 .text.PIO_PortWrite
                0x00000000        0xc build/sam_e70_xplained_ultra/production/_ext/60177924/plib_pio.o
 .text.PIO_PortLatchRead
                0x00000000        0x4 build/sam_e70_xplained_ultra/production/_ext/60177924/plib_pio.o
 .text.PIO_PortSet
                0x00000000        0x4 build/sam_e70_xplained_ultra/production/_ext/60177924/plib_pio.o
 .text.PIO_PortClear
                0x00000000        0x4 build/sam_e70_xplained_ultra/production/_ext/60177924/plib_pio.o
 .text.PIO_PortToggle
                0x00000000        0x8 build/sam_e70_xplained_ultra/production/_ext/60177924/plib_pio.o
 .text.PIO_PortInputEnable
                0x00000000        0x4 build/sam_e70_xplained_ultra/production/_ext/60177924/plib_pio.o
 .text.PIO_PortOutputEnable
                0x00000000        0x4 build/sam_e70_xplained_ultra/production/_ext/60177924/plib_pio.o
 .text          0x00000000        0x0 build/sam_e70_xplained_ultra/production/_ext/1865468468/plib_nvic.o
 .data          0x00000000        0x0 build/sam_e70_xplained_ultra/production/_ext/1865468468/plib_nvic.o
 .bss           0x00000000        0x0 build/sam_e70_xplained_ultra/production/_ext/1865468468/plib_nvic.o
 .text          0x00000000        0x0 build/sam_e70_xplained_ultra/production/_ext/1171490990/startup.o
 .data          0x00000000        0x0 build/sam_e70_xplained_ultra/production/_ext/1171490990/startup.o
 .bss           0x00000000        0x0 build/sam_e70_xplained_ultra/production/_ext/1171490990/startup.o
 .text          0x00000000        0x0 build/sam_e70_xplained_ultra/production/_ext/1171490990/libc_syscalls.o
 .data          0x00000000        0x0 build/sam_e70_xplained_ultra/production/_ext/1171490990/libc_syscalls.o
 .bss           0x00000000        0x0 build/sam_e70_xplained_ultra/production/_ext/1171490990/libc_syscalls.o
 .text._exit    0x00000000        0x2 build/sam_e70_xplained_ultra/production/_ext/1171490990/libc_syscalls.o
 .debug_info    0x00000000      0xe5c build/sam_e70_xplained_ultra/production/_ext/1171490990/libc_syscalls.o
 .debug_abbrev  0x00000000      0x1a8 build/sam_e70_xplained_ultra/production/_ext/1171490990/libc_syscalls.o
 .debug_aranges
                0x00000000       0x20 build/sam_e70_xplained_ultra/production/_ext/1171490990/libc_syscalls.o
 .debug_ranges  0x00000000       0x10 build/sam_e70_xplained_ultra/production/_ext/1171490990/libc_syscalls.o
 .debug_line    0x00000000      0x1e7 build/sam_e70_xplained_ultra/production/_ext/1171490990/libc_syscalls.o
 .debug_str     0x00000000        0xe build/sam_e70_xplained_ultra/production/_ext/1171490990/libc_syscalls.o
 .comment       0x00000000       0x3d build/sam_e70_xplained_ultra/production/_ext/1171490990/libc_syscalls.o
 .debug_frame   0x00000000       0x20 build/sam_e70_xplained_ultra/production/_ext/1171490990/libc_syscalls.o
 .ARM.attributes
                0x00000000       0x37 build/sam_e70_xplained_ultra/production/_ext/1171490990/libc_syscalls.o
 .text          0x00000000        0x0 build/sam_e70_xplained_ultra/production/_ext/1881668453/sys_int.o
 .data          0x00000000        0x0 build/sam_e70_xplained_ultra/production/_ext/1881668453/sys_int.o
 .bss           0x00000000        0x0 build/sam_e70_xplained_ultra/production/_ext/1881668453/sys_int.o
 .text.SYS_INT_Enable
                0x00000000        0x8 build/sam_e70_xplained_ultra/production/_ext/1881668453/sys_int.o
 .text          0x00000000        0x0 build/sam_e70_xplained_ultra/production/_ext/1360937237/app.o
 .data          0x00000000        0x0 build/sam_e70_xplained_ultra/production/_ext/1360937237/app.o
 .bss           0x00000000        0x0 build/sam_e70_xplained_ultra/production/_ext/1360937237/app.o
 .text.APP_getTicks
                0x00000000        0x8 build/sam_e70_xplained_ultra/production/_ext/1360937237/app.o
 .text.APP_DisplayHash
                0x00000000       0x2c build/sam_e70_xplained_ultra/production/_ext/1360937237/app.o
 .text.APP_ReadComplete
                0x00000000        0xc build/sam_e70_xplained_ultra/production/_ext/1360937237/app.o
 .text.APP_WriteComplete
                0x00000000        0xc build/sam_e70_xplained_ultra/production/_ext/1360937237/app.o
 .text.APP_Reset
                0x00000000       0x10 build/sam_e70_xplained_ultra/production/_ext/1360937237/app.o
 .data.msgBuffer
                0x00000000        0x4 build/sam_e70_xplained_ultra/production/_ext/1360937237/app.o
 COMMON         0x00000000      0x400 build/sam_e70_xplained_ultra/production/_ext/1360937237/app.o
 .text          0x00000000        0x0 build/sam_e70_xplained_ultra/production/_ext/1171490990/tasks.o
 .data          0x00000000        0x0 build/sam_e70_xplained_ultra/production/_ext/1171490990/tasks.o
 .bss           0x00000000        0x0 build/sam_e70_xplained_ultra/production/_ext/1171490990/tasks.o
 .text          0x00000000        0x0 build/sam_e70_xplained_ultra/production/_ext/1645245335/arc4.o
 .data          0x00000000        0x0 build/sam_e70_xplained_ultra/production/_ext/1645245335/arc4.o
 .bss           0x00000000        0x0 build/sam_e70_xplained_ultra/production/_ext/1645245335/arc4.o
 .text.wc_Arc4SetKey
                0x00000000       0x5c build/sam_e70_xplained_ultra/production/_ext/1645245335/arc4.o
 .text.wc_Arc4Process
                0x00000000       0x54 build/sam_e70_xplained_ultra/production/_ext/1645245335/arc4.o
 .text.wc_Arc4Init
                0x00000000       0x10 build/sam_e70_xplained_ultra/production/_ext/1645245335/arc4.o
 .text.wc_Arc4Free
                0x00000000        0x2 build/sam_e70_xplained_ultra/production/_ext/1645245335/arc4.o
 .debug_info    0x00000000     0x19a0 build/sam_e70_xplained_ultra/production/_ext/1645245335/arc4.o
 .debug_abbrev  0x00000000      0x2a5 build/sam_e70_xplained_ultra/production/_ext/1645245335/arc4.o
 .debug_loc     0x00000000      0x36a build/sam_e70_xplained_ultra/production/_ext/1645245335/arc4.o
 .debug_aranges
                0x00000000       0x38 build/sam_e70_xplained_ultra/production/_ext/1645245335/arc4.o
 .debug_ranges  0x00000000       0x28 build/sam_e70_xplained_ultra/production/_ext/1645245335/arc4.o
 .debug_line    0x00000000      0x203 build/sam_e70_xplained_ultra/production/_ext/1645245335/arc4.o
 .debug_str     0x00000000        0xe build/sam_e70_xplained_ultra/production/_ext/1645245335/arc4.o
 .comment       0x00000000       0x3d build/sam_e70_xplained_ultra/production/_ext/1645245335/arc4.o
 .debug_frame   0x00000000       0x80 build/sam_e70_xplained_ultra/production/_ext/1645245335/arc4.o
 .ARM.attributes
                0x00000000       0x37 build/sam_e70_xplained_ultra/production/_ext/1645245335/arc4.o
 .text          0x00000000        0x0 build/sam_e70_xplained_ultra/production/_ext/1645245335/asm.o
 .data          0x00000000        0x0 build/sam_e70_xplained_ultra/production/_ext/1645245335/asm.o
 .bss           0x00000000        0x0 build/sam_e70_xplained_ultra/production/_ext/1645245335/asm.o
 .debug_line    0x00000000        0x0 build/sam_e70_xplained_ultra/production/_ext/1645245335/asm.o
 .debug_str     0x00000000        0x0 build/sam_e70_xplained_ultra/production/_ext/1645245335/asm.o
 .comment       0x00000000       0x3d build/sam_e70_xplained_ultra/production/_ext/1645245335/asm.o
 .ARM.attributes
                0x00000000       0x37 build/sam_e70_xplained_ultra/production/_ext/1645245335/asm.o
 .text          0x00000000        0x0 build/sam_e70_xplained_ultra/production/_ext/1645245335/asn.o
 .data          0x00000000        0x0 build/sam_e70_xplained_ultra/production/_ext/1645245335/asn.o
 .bss           0x00000000        0x0 build/sam_e70_xplained_ultra/production/_ext/1645245335/asn.o
 .text.GetBoolean
                0x00000000       0x3a build/sam_e70_xplained_ultra/production/_ext/1645245335/asn.o
 .text.DateGreaterThan
                0x00000000       0x96 build/sam_e70_xplained_ultra/production/_ext/1645245335/asn.o
 .text.OidFromId
                0x00000000      0x5fc build/sam_e70_xplained_ultra/production/_ext/1645245335/asn.o
 .text.CheckCurve
                0x00000000       0x2a build/sam_e70_xplained_ultra/production/_ext/1645245335/asn.o
 .text.MatchBaseName
                0x00000000      0x102 build/sam_e70_xplained_ultra/production/_ext/1645245335/asn.o
 .text.GetLength
                0x00000000       0x66 build/sam_e70_xplained_ultra/production/_ext/1645245335/asn.o
 .text.GetASNHeader
                0x00000000       0x46 build/sam_e70_xplained_ultra/production/_ext/1645245335/asn.o
 .text.GetASNInt
                0x00000000       0x60 build/sam_e70_xplained_ultra/production/_ext/1645245335/asn.o
 .text.GetASNObjectId
                0x00000000       0x44 build/sam_e70_xplained_ultra/production/_ext/1645245335/asn.o
 .text.SkipObjectId
                0x00000000       0x26 build/sam_e70_xplained_ultra/production/_ext/1645245335/asn.o
 .text.CheckBitString
                0x00000000       0xa8 build/sam_e70_xplained_ultra/production/_ext/1645245335/asn.o
 .text.GetSequence
                0x00000000       0x16 build/sam_e70_xplained_ultra/production/_ext/1645245335/asn.o
 .text.GetSet   0x00000000       0x16 build/sam_e70_xplained_ultra/production/_ext/1645245335/asn.o
 .text.GetName  0x00000000      0x3f0 build/sam_e70_xplained_ultra/production/_ext/1645245335/asn.o
 .text.GetMyVersion
                0x00000000       0x38 build/sam_e70_xplained_ultra/production/_ext/1645245335/asn.o
 .text.GetInt   0x00000000       0x56 build/sam_e70_xplained_ultra/production/_ext/1645245335/asn.o
 .text.GetObjectId
                0x00000000       0x90 build/sam_e70_xplained_ultra/production/_ext/1645245335/asn.o
 .text.GetAlgoId
                0x00000000       0x74 build/sam_e70_xplained_ultra/production/_ext/1645245335/asn.o
 .text.wc_RsaPrivateKeyDecode
                0x00000000      0x106 build/sam_e70_xplained_ultra/production/_ext/1645245335/asn.o
 .text.ToTraditionalInline
                0x00000000       0x9c build/sam_e70_xplained_ultra/production/_ext/1645245335/asn.o
 .text.ToTraditional
                0x00000000       0x30 build/sam_e70_xplained_ultra/production/_ext/1645245335/asn.o
 .text.wc_GetPkcs8TraditionalOffset
                0x00000000       0x28 build/sam_e70_xplained_ultra/production/_ext/1645245335/asn.o
 .text.wc_RsaPublicKeyDecode
                0x00000000      0x108 build/sam_e70_xplained_ultra/production/_ext/1645245335/asn.o
 .text.wc_RsaPublicKeyDecodeRaw
                0x00000000       0x8a build/sam_e70_xplained_ultra/production/_ext/1645245335/asn.o
 .text.wc_DhKeyDecode
                0x00000000       0x4e build/sam_e70_xplained_ultra/production/_ext/1645245335/asn.o
 .text.wc_DhParamsLoad
                0x00000000       0x92 build/sam_e70_xplained_ultra/production/_ext/1645245335/asn.o
 .text.FreeAltNames
                0x00000000       0x22 build/sam_e70_xplained_ultra/production/_ext/1645245335/asn.o
 .text.FreeNameSubtrees
                0x00000000       0x22 build/sam_e70_xplained_ultra/production/_ext/1645245335/asn.o
 .text.ExtractDate
                0x00000000      0x11e build/sam_e70_xplained_ultra/production/_ext/1645245335/asn.o
 .text.ValidateDate
                0x00000000       0xb8 build/sam_e70_xplained_ultra/production/_ext/1645245335/asn.o
 .text.GetDate  0x00000000       0xd0 build/sam_e70_xplained_ultra/production/_ext/1645245335/asn.o
 .text.wc_GetTime
                0x00000000       0x22 build/sam_e70_xplained_ultra/production/_ext/1645245335/asn.o
 .text.SetLength
                0x00000000       0x56 build/sam_e70_xplained_ultra/production/_ext/1645245335/asn.o
 .text.SetASNIntMP
                0x00000000       0x72 build/sam_e70_xplained_ultra/production/_ext/1645245335/asn.o
 .text.SetSequence
                0x00000000       0x10 build/sam_e70_xplained_ultra/production/_ext/1645245335/asn.o
 .text.SetOctetString
                0x00000000       0x10 build/sam_e70_xplained_ultra/production/_ext/1645245335/asn.o
 .text.SetSet   0x00000000       0x10 build/sam_e70_xplained_ultra/production/_ext/1645245335/asn.o
 .text.SetImplicit
                0x00000000       0x24 build/sam_e70_xplained_ultra/production/_ext/1645245335/asn.o
 .text.SetExplicit
                0x00000000       0x18 build/sam_e70_xplained_ultra/production/_ext/1645245335/asn.o
 .text.SetAlgoID
                0x00000000       0xc0 build/sam_e70_xplained_ultra/production/_ext/1645245335/asn.o
 .text.wc_EncodeSignature
                0x00000000       0x66 build/sam_e70_xplained_ultra/production/_ext/1645245335/asn.o
 .text.wc_GetCTC_HashOID
                0x00000000       0x2e build/sam_e70_xplained_ultra/production/_ext/1645245335/asn.o
 .text.InitSignatureCtx
                0x00000000       0x1a build/sam_e70_xplained_ultra/production/_ext/1645245335/asn.o
 .text.InitDecodedCert
                0x00000000       0x44 build/sam_e70_xplained_ultra/production/_ext/1645245335/asn.o
 .text.FreeSignatureCtx
                0x00000000       0x5c build/sam_e70_xplained_ultra/production/_ext/1645245335/asn.o
 .text.FreeDecodedCert
                0x00000000       0x68 build/sam_e70_xplained_ultra/production/_ext/1645245335/asn.o
 .text.ConfirmSignature
                0x00000000      0x3b0 build/sam_e70_xplained_ultra/production/_ext/1645245335/asn.o
 .text.GetCA    0x00000000        0x2 build/sam_e70_xplained_ultra/production/_ext/1645245335/asn.o
 .text.GetCAByName
                0x00000000        0x2 build/sam_e70_xplained_ultra/production/_ext/1645245335/asn.o
 .text.MakeSigner
                0x00000000       0x26 build/sam_e70_xplained_ultra/production/_ext/1645245335/asn.o
 .text.FreeSigner
                0x00000000       0x34 build/sam_e70_xplained_ultra/production/_ext/1645245335/asn.o
 .text.FreeSignerTable
                0x00000000       0x32 build/sam_e70_xplained_ultra/production/_ext/1645245335/asn.o
 .text.SetMyVersion
                0x00000000       0x28 build/sam_e70_xplained_ultra/production/_ext/1645245335/asn.o
 .text.wc_CreatePKCS8Key
                0x00000000      0x142 build/sam_e70_xplained_ultra/production/_ext/1645245335/asn.o
 .text.SetSerialNumber
                0x00000000       0x4c build/sam_e70_xplained_ultra/production/_ext/1645245335/asn.o
 .text.GetSerialNumber
                0x00000000       0x5c build/sam_e70_xplained_ultra/production/_ext/1645245335/asn.o
 .text.DecodeToKey
                0x00000000      0x282 build/sam_e70_xplained_ultra/production/_ext/1645245335/asn.o
 .text.ParseCertRelative
                0x00000000      0xcdc build/sam_e70_xplained_ultra/production/_ext/1645245335/asn.o
 .text.ParseCert
                0x00000000       0x6e build/sam_e70_xplained_ultra/production/_ext/1645245335/asn.o
 .text.StoreECC_DSA_Sig
                0x00000000       0x7c build/sam_e70_xplained_ultra/production/_ext/1645245335/asn.o
 .text.DecodeECC_DSA_Sig
                0x00000000       0x68 build/sam_e70_xplained_ultra/production/_ext/1645245335/asn.o
 .text.wc_EccPrivateKeyDecode
                0x00000000      0x184 build/sam_e70_xplained_ultra/production/_ext/1645245335/asn.o
 .text.wc_CheckPrivateKey
                0x00000000      0x144 build/sam_e70_xplained_ultra/production/_ext/1645245335/asn.o
 .text.wc_EccPublicKeyDecode
                0x00000000       0xa8 build/sam_e70_xplained_ultra/production/_ext/1645245335/asn.o
 .text.GetNameHash
                0x00000000       0x68 build/sam_e70_xplained_ultra/production/_ext/1645245335/asn.o
 .rodata        0x00000000      0x344 build/sam_e70_xplained_ultra/production/_ext/1645245335/asn.o
 .data.BEGIN_CERT
                0x00000000        0x4 build/sam_e70_xplained_ultra/production/_ext/1645245335/asn.o
 .data.BEGIN_CERT_REQ
                0x00000000        0x4 build/sam_e70_xplained_ultra/production/_ext/1645245335/asn.o
 .data.BEGIN_DH_PARAM
                0x00000000        0x4 build/sam_e70_xplained_ultra/production/_ext/1645245335/asn.o
 .data.BEGIN_DSA_PARAM
                0x00000000        0x4 build/sam_e70_xplained_ultra/production/_ext/1645245335/asn.o
 .data.BEGIN_DSA_PRIV
                0x00000000        0x4 build/sam_e70_xplained_ultra/production/_ext/1645245335/asn.o
 .data.BEGIN_EC_PRIV
                0x00000000        0x4 build/sam_e70_xplained_ultra/production/_ext/1645245335/asn.o
 .data.BEGIN_EDDSA_PRIV
                0x00000000        0x4 build/sam_e70_xplained_ultra/production/_ext/1645245335/asn.o
 .data.BEGIN_ENC_PRIV_KEY
                0x00000000        0x4 build/sam_e70_xplained_ultra/production/_ext/1645245335/asn.o
 .data.BEGIN_PRIV_KEY
                0x00000000        0x4 build/sam_e70_xplained_ultra/production/_ext/1645245335/asn.o
 .data.BEGIN_PUB_KEY
                0x00000000        0x4 build/sam_e70_xplained_ultra/production/_ext/1645245335/asn.o
 .data.BEGIN_RSA_PRIV
                0x00000000        0x4 build/sam_e70_xplained_ultra/production/_ext/1645245335/asn.o
 .data.BEGIN_X509_CRL
                0x00000000        0x4 build/sam_e70_xplained_ultra/production/_ext/1645245335/asn.o
 .data.END_CERT
                0x00000000        0x4 build/sam_e70_xplained_ultra/production/_ext/1645245335/asn.o
 .data.END_CERT_REQ
                0x00000000        0x4 build/sam_e70_xplained_ultra/production/_ext/1645245335/asn.o
 .data.END_DH_PARAM
                0x00000000        0x4 build/sam_e70_xplained_ultra/production/_ext/1645245335/asn.o
 .data.END_DSA_PARAM
                0x00000000        0x4 build/sam_e70_xplained_ultra/production/_ext/1645245335/asn.o
 .data.END_DSA_PRIV
                0x00000000        0x4 build/sam_e70_xplained_ultra/production/_ext/1645245335/asn.o
 .data.END_EC_PRIV
                0x00000000        0x4 build/sam_e70_xplained_ultra/production/_ext/1645245335/asn.o
 .data.END_EDDSA_PRIV
                0x00000000        0x4 build/sam_e70_xplained_ultra/production/_ext/1645245335/asn.o
 .data.END_ENC_PRIV_KEY
                0x00000000        0x4 build/sam_e70_xplained_ultra/production/_ext/1645245335/asn.o
 .data.END_PRIV_KEY
                0x00000000        0x4 build/sam_e70_xplained_ultra/production/_ext/1645245335/asn.o
 .data.END_PUB_KEY
                0x00000000        0x4 build/sam_e70_xplained_ultra/production/_ext/1645245335/asn.o
 .data.END_RSA_PRIV
                0x00000000        0x4 build/sam_e70_xplained_ultra/production/_ext/1645245335/asn.o
 .data.END_X509_CRL
                0x00000000        0x4 build/sam_e70_xplained_ultra/production/_ext/1645245335/asn.o
 .rodata.blkAes128CbcOid
                0x00000000        0xc build/sam_e70_xplained_ultra/production/_ext/1645245335/asn.o
 .rodata.blkAes192CbcOid
                0x00000000        0xc build/sam_e70_xplained_ultra/production/_ext/1645245335/asn.o
 .rodata.blkAes256CbcOid
                0x00000000        0xc build/sam_e70_xplained_ultra/production/_ext/1645245335/asn.o
 .rodata.blkDes3CbcOid
                0x00000000        0x8 build/sam_e70_xplained_ultra/production/_ext/1645245335/asn.o
 .rodata.blkDesCbcOid
                0x00000000        0x8 build/sam_e70_xplained_ultra/production/_ext/1645245335/asn.o
 .rodata.dhSinglePass_stdDH_sha1kdf_Oid
                0x00000000        0xc build/sam_e70_xplained_ultra/production/_ext/1645245335/asn.o
 .rodata.dhSinglePass_stdDH_sha224kdf_Oid
                0x00000000        0x8 build/sam_e70_xplained_ultra/production/_ext/1645245335/asn.o
 .rodata.dhSinglePass_stdDH_sha256kdf_Oid
                0x00000000        0x8 build/sam_e70_xplained_ultra/production/_ext/1645245335/asn.o
 .rodata.dhSinglePass_stdDH_sha384kdf_Oid
                0x00000000        0x8 build/sam_e70_xplained_ultra/production/_ext/1645245335/asn.o
 .rodata.dhSinglePass_stdDH_sha512kdf_Oid
                0x00000000        0x8 build/sam_e70_xplained_ultra/production/_ext/1645245335/asn.o
 .rodata.extAltNamesHwNameOid
                0x00000000        0x8 build/sam_e70_xplained_ultra/production/_ext/1645245335/asn.o
 .rodata.extAltNamesOid
                0x00000000        0x4 build/sam_e70_xplained_ultra/production/_ext/1645245335/asn.o
 .rodata.extAuthInfoCaIssuerOid
                0x00000000        0x8 build/sam_e70_xplained_ultra/production/_ext/1645245335/asn.o
 .rodata.extAuthInfoOcspOid
                0x00000000        0x8 build/sam_e70_xplained_ultra/production/_ext/1645245335/asn.o
 .rodata.extAuthInfoOid
                0x00000000        0x8 build/sam_e70_xplained_ultra/production/_ext/1645245335/asn.o
 .rodata.extAuthKeyOid
                0x00000000        0x4 build/sam_e70_xplained_ultra/production/_ext/1645245335/asn.o
 .rodata.extBasicCaOid
                0x00000000        0x4 build/sam_e70_xplained_ultra/production/_ext/1645245335/asn.o
 .rodata.extCertPolicyAnyOid
                0x00000000        0x4 build/sam_e70_xplained_ultra/production/_ext/1645245335/asn.o
 .rodata.extCertPolicyOid
                0x00000000        0x4 build/sam_e70_xplained_ultra/production/_ext/1645245335/asn.o
 .rodata.extCrlDistOid
                0x00000000        0x4 build/sam_e70_xplained_ultra/production/_ext/1645245335/asn.o
 .rodata.extExtKeyUsageAnyOid
                0x00000000        0x4 build/sam_e70_xplained_ultra/production/_ext/1645245335/asn.o
 .rodata.extExtKeyUsageClientAuthOid
                0x00000000        0x8 build/sam_e70_xplained_ultra/production/_ext/1645245335/asn.o
 .rodata.extExtKeyUsageOcspSignOid
                0x00000000        0x8 build/sam_e70_xplained_ultra/production/_ext/1645245335/asn.o
 .rodata.extExtKeyUsageOid
                0x00000000        0x4 build/sam_e70_xplained_ultra/production/_ext/1645245335/asn.o
 .rodata.extExtKeyUsageServerAuthOid
                0x00000000        0x8 build/sam_e70_xplained_ultra/production/_ext/1645245335/asn.o
 .rodata.extInhibitAnyOid
                0x00000000        0x4 build/sam_e70_xplained_ultra/production/_ext/1645245335/asn.o
 .rodata.extKeyUsageOid
                0x00000000        0x4 build/sam_e70_xplained_ultra/production/_ext/1645245335/asn.o
 .rodata.extNameConsOid
                0x00000000        0x4 build/sam_e70_xplained_ultra/production/_ext/1645245335/asn.o
 .rodata.extSubjKeyOid
                0x00000000        0x4 build/sam_e70_xplained_ultra/production/_ext/1645245335/asn.o
 .rodata.hashMd2hOid
                0x00000000        0x8 build/sam_e70_xplained_ultra/production/_ext/1645245335/asn.o
 .rodata.hashMd5hOid
                0x00000000        0x8 build/sam_e70_xplained_ultra/production/_ext/1645245335/asn.o
 .rodata.hashSha1hOid
                0x00000000        0x8 build/sam_e70_xplained_ultra/production/_ext/1645245335/asn.o
 .rodata.hashSha224hOid
                0x00000000        0xc build/sam_e70_xplained_ultra/production/_ext/1645245335/asn.o
 .rodata.hashSha256hOid
                0x00000000        0xc build/sam_e70_xplained_ultra/production/_ext/1645245335/asn.o
 .rodata.hashSha384hOid
                0x00000000        0xc build/sam_e70_xplained_ultra/production/_ext/1645245335/asn.o
 .rodata.hashSha512hOid
                0x00000000        0xc build/sam_e70_xplained_ultra/production/_ext/1645245335/asn.o
 .rodata.keyEcdsaOid
                0x00000000        0x8 build/sam_e70_xplained_ultra/production/_ext/1645245335/asn.o
 .rodata.keyRsaOid
                0x00000000        0xc build/sam_e70_xplained_ultra/production/_ext/1645245335/asn.o
 .rodata.pbkdf2Oid
                0x00000000        0xc build/sam_e70_xplained_ultra/production/_ext/1645245335/asn.o
 .rodata.sigMd2wRsaOid
                0x00000000        0xc build/sam_e70_xplained_ultra/production/_ext/1645245335/asn.o
 .rodata.sigMd5wRsaOid
                0x00000000        0xc build/sam_e70_xplained_ultra/production/_ext/1645245335/asn.o
 .rodata.sigSha1wEcdsaOid
                0x00000000        0x8 build/sam_e70_xplained_ultra/production/_ext/1645245335/asn.o
 .rodata.sigSha1wRsaOid
                0x00000000        0xc build/sam_e70_xplained_ultra/production/_ext/1645245335/asn.o
 .rodata.sigSha224wEcdsaOid
                0x00000000        0x8 build/sam_e70_xplained_ultra/production/_ext/1645245335/asn.o
 .rodata.sigSha224wRsaOid
                0x00000000        0xc build/sam_e70_xplained_ultra/production/_ext/1645245335/asn.o
 .rodata.sigSha256wEcdsaOid
                0x00000000        0x8 build/sam_e70_xplained_ultra/production/_ext/1645245335/asn.o
 .rodata.sigSha256wRsaOid
                0x00000000        0xc build/sam_e70_xplained_ultra/production/_ext/1645245335/asn.o
 .rodata.sigSha384wEcdsaOid
                0x00000000        0x8 build/sam_e70_xplained_ultra/production/_ext/1645245335/asn.o
 .rodata.sigSha384wRsaOid
                0x00000000        0xc build/sam_e70_xplained_ultra/production/_ext/1645245335/asn.o
 .rodata.sigSha512wEcdsaOid
                0x00000000        0x8 build/sam_e70_xplained_ultra/production/_ext/1645245335/asn.o
 .rodata.sigSha512wRsaOid
                0x00000000        0xc build/sam_e70_xplained_ultra/production/_ext/1645245335/asn.o
 .rodata.wrapAes128Oid
                0x00000000        0xc build/sam_e70_xplained_ultra/production/_ext/1645245335/asn.o
 .rodata.wrapAes192Oid
                0x00000000        0xc build/sam_e70_xplained_ultra/production/_ext/1645245335/asn.o
 .rodata.wrapAes256Oid
                0x00000000        0xc build/sam_e70_xplained_ultra/production/_ext/1645245335/asn.o
 .debug_info    0x00000000     0xb024 build/sam_e70_xplained_ultra/production/_ext/1645245335/asn.o
 .debug_abbrev  0x00000000      0x520 build/sam_e70_xplained_ultra/production/_ext/1645245335/asn.o
 .debug_loc     0x00000000     0x7015 build/sam_e70_xplained_ultra/production/_ext/1645245335/asn.o
 .debug_aranges
                0x00000000      0x220 build/sam_e70_xplained_ultra/production/_ext/1645245335/asn.o
 .debug_ranges  0x00000000      0x620 build/sam_e70_xplained_ultra/production/_ext/1645245335/asn.o
 .debug_line    0x00000000     0x124a build/sam_e70_xplained_ultra/production/_ext/1645245335/asn.o
 .debug_str     0x00000000      0x2f3 build/sam_e70_xplained_ultra/production/_ext/1645245335/asn.o
 .comment       0x00000000       0x3d build/sam_e70_xplained_ultra/production/_ext/1645245335/asn.o
 .debug_frame   0x00000000      0x8d8 build/sam_e70_xplained_ultra/production/_ext/1645245335/asn.o
 .ARM.attributes
                0x00000000       0x37 build/sam_e70_xplained_ultra/production/_ext/1645245335/asn.o
 .text          0x00000000        0x0 build/sam_e70_xplained_ultra/production/_ext/1645245335/async.o
 .data          0x00000000        0x0 build/sam_e70_xplained_ultra/production/_ext/1645245335/async.o
 .bss           0x00000000        0x0 build/sam_e70_xplained_ultra/production/_ext/1645245335/async.o
 .debug_line    0x00000000        0x0 build/sam_e70_xplained_ultra/production/_ext/1645245335/async.o
 .debug_str     0x00000000        0x0 build/sam_e70_xplained_ultra/production/_ext/1645245335/async.o
 .comment       0x00000000       0x3d build/sam_e70_xplained_ultra/production/_ext/1645245335/async.o
 .ARM.attributes
                0x00000000       0x37 build/sam_e70_xplained_ultra/production/_ext/1645245335/async.o
 .text          0x00000000        0x0 build/sam_e70_xplained_ultra/production/_ext/1645245335/chacha.o
 .data          0x00000000        0x0 build/sam_e70_xplained_ultra/production/_ext/1645245335/chacha.o
 .bss           0x00000000        0x0 build/sam_e70_xplained_ultra/production/_ext/1645245335/chacha.o
 .debug_line    0x00000000        0x0 build/sam_e70_xplained_ultra/production/_ext/1645245335/chacha.o
 .debug_str     0x00000000        0x0 build/sam_e70_xplained_ultra/production/_ext/1645245335/chacha.o
 .comment       0x00000000       0x3d build/sam_e70_xplained_ultra/production/_ext/1645245335/chacha.o
 .ARM.attributes
                0x00000000       0x37 build/sam_e70_xplained_ultra/production/_ext/1645245335/chacha.o
 .text          0x00000000        0x0 build/sam_e70_xplained_ultra/production/_ext/1645245335/chacha20_poly1305.o
 .data          0x00000000        0x0 build/sam_e70_xplained_ultra/production/_ext/1645245335/chacha20_poly1305.o
 .bss           0x00000000        0x0 build/sam_e70_xplained_ultra/production/_ext/1645245335/chacha20_poly1305.o
 .debug_line    0x00000000        0x0 build/sam_e70_xplained_ultra/production/_ext/1645245335/chacha20_poly1305.o
 .debug_str     0x00000000        0x0 build/sam_e70_xplained_ultra/production/_ext/1645245335/chacha20_poly1305.o
 .comment       0x00000000       0x3d build/sam_e70_xplained_ultra/production/_ext/1645245335/chacha20_poly1305.o
 .ARM.attributes
                0x00000000       0x37 build/sam_e70_xplained_ultra/production/_ext/1645245335/chacha20_poly1305.o
 .text          0x00000000        0x0 build/sam_e70_xplained_ultra/production/_ext/1645245335/cmac.o
 .data          0x00000000        0x0 build/sam_e70_xplained_ultra/production/_ext/1645245335/cmac.o
 .bss           0x00000000        0x0 build/sam_e70_xplained_ultra/production/_ext/1645245335/cmac.o
 .debug_line    0x00000000        0x0 build/sam_e70_xplained_ultra/production/_ext/1645245335/cmac.o
 .debug_str     0x00000000        0x0 build/sam_e70_xplained_ultra/production/_ext/1645245335/cmac.o
 .comment       0x00000000       0x3d build/sam_e70_xplained_ultra/production/_ext/1645245335/cmac.o
 .ARM.attributes
                0x00000000       0x37 build/sam_e70_xplained_ultra/production/_ext/1645245335/cmac.o
 .text          0x00000000        0x0 build/sam_e70_xplained_ultra/production/_ext/1645245335/coding.o
 .data          0x00000000        0x0 build/sam_e70_xplained_ultra/production/_ext/1645245335/coding.o
 .bss           0x00000000        0x0 build/sam_e70_xplained_ultra/production/_ext/1645245335/coding.o
 .text.Base64_Decode
                0x00000000      0x18c build/sam_e70_xplained_ultra/production/_ext/1645245335/coding.o
 .rodata.base64Decode
                0x00000000       0x50 build/sam_e70_xplained_ultra/production/_ext/1645245335/coding.o
 .debug_info    0x00000000     0x184e build/sam_e70_xplained_ultra/production/_ext/1645245335/coding.o
 .debug_abbrev  0x00000000      0x20b build/sam_e70_xplained_ultra/production/_ext/1645245335/coding.o
 .debug_loc     0x00000000      0x6bb build/sam_e70_xplained_ultra/production/_ext/1645245335/coding.o
 .debug_aranges
                0x00000000       0x20 build/sam_e70_xplained_ultra/production/_ext/1645245335/coding.o
 .debug_ranges  0x00000000       0x60 build/sam_e70_xplained_ultra/production/_ext/1645245335/coding.o
 .debug_line    0x00000000      0x1d5 build/sam_e70_xplained_ultra/production/_ext/1645245335/coding.o
 .debug_str     0x00000000        0xe build/sam_e70_xplained_ultra/production/_ext/1645245335/coding.o
 .comment       0x00000000       0x3d build/sam_e70_xplained_ultra/production/_ext/1645245335/coding.o
 .debug_frame   0x00000000       0x40 build/sam_e70_xplained_ultra/production/_ext/1645245335/coding.o
 .ARM.attributes
                0x00000000       0x37 build/sam_e70_xplained_ultra/production/_ext/1645245335/coding.o
 .text          0x00000000        0x0 build/sam_e70_xplained_ultra/production/_ext/1645245335/compress.o
 .data          0x00000000        0x0 build/sam_e70_xplained_ultra/production/_ext/1645245335/compress.o
 .bss           0x00000000        0x0 build/sam_e70_xplained_ultra/production/_ext/1645245335/compress.o
 .debug_line    0x00000000        0x0 build/sam_e70_xplained_ultra/production/_ext/1645245335/compress.o
 .debug_str     0x00000000        0x0 build/sam_e70_xplained_ultra/production/_ext/1645245335/compress.o
 .comment       0x00000000       0x3d build/sam_e70_xplained_ultra/production/_ext/1645245335/compress.o
 .ARM.attributes
                0x00000000       0x37 build/sam_e70_xplained_ultra/production/_ext/1645245335/compress.o
 .text          0x00000000        0x0 build/sam_e70_xplained_ultra/production/_ext/1645245335/crypto.o
 .data          0x00000000        0x0 build/sam_e70_xplained_ultra/production/_ext/1645245335/crypto.o
 .bss           0x00000000        0x0 build/sam_e70_xplained_ultra/production/_ext/1645245335/crypto.o
 .text.CRYPT_MD5_DataSizeSet
                0x00000000        0xc build/sam_e70_xplained_ultra/production/_ext/1645245335/crypto.o
 .text.CRYPT_SHA_DataSizeSet
                0x00000000        0xc build/sam_e70_xplained_ultra/production/_ext/1645245335/crypto.o
 .text.CRYPT_SHA256_DataSizeSet
                0x00000000        0xc build/sam_e70_xplained_ultra/production/_ext/1645245335/crypto.o
 .text.CRYPT_HMAC_SetKey
                0x00000000       0x2e build/sam_e70_xplained_ultra/production/_ext/1645245335/crypto.o
 .text.CRYPT_HMAC_DataAdd
                0x00000000       0x18 build/sam_e70_xplained_ultra/production/_ext/1645245335/crypto.o
 .text.CRYPT_HMAC_Finalize
                0x00000000       0x18 build/sam_e70_xplained_ultra/production/_ext/1645245335/crypto.o
 .text.CRYPT_RNG_Get
                0x00000000       0x18 build/sam_e70_xplained_ultra/production/_ext/1645245335/crypto.o
 .text.CRYPT_TDES_IvSet
                0x00000000       0x18 build/sam_e70_xplained_ultra/production/_ext/1645245335/crypto.o
 .text.CRYPT_AES_IvSet
                0x00000000       0x18 build/sam_e70_xplained_ultra/production/_ext/1645245335/crypto.o
 .text.CRYPT_AES_DIRECT_Encrypt
                0x00000000       0x20 build/sam_e70_xplained_ultra/production/_ext/1645245335/crypto.o
 .text.CRYPT_AES_DIRECT_Decrypt
                0x00000000       0x20 build/sam_e70_xplained_ultra/production/_ext/1645245335/crypto.o
 .text.CRYPT_RSA_Initialize
                0x00000000       0x26 build/sam_e70_xplained_ultra/production/_ext/1645245335/crypto.o
 .text.CRYPT_RSA_Free
                0x00000000       0x20 build/sam_e70_xplained_ultra/production/_ext/1645245335/crypto.o
 .text.CRYPT_RSA_PublicKeyDecode
                0x00000000       0x24 build/sam_e70_xplained_ultra/production/_ext/1645245335/crypto.o
 .text.CRYPT_RSA_PrivateKeyDecode
                0x00000000       0x24 build/sam_e70_xplained_ultra/production/_ext/1645245335/crypto.o
 .text.CRYPT_RSA_PublicEncrypt
                0x00000000       0x32 build/sam_e70_xplained_ultra/production/_ext/1645245335/crypto.o
 .text.CRYPT_RSA_PrivateDecrypt
                0x00000000       0x30 build/sam_e70_xplained_ultra/production/_ext/1645245335/crypto.o
 .text.CRYPT_RSA_EncryptSizeGet
                0x00000000       0x12 build/sam_e70_xplained_ultra/production/_ext/1645245335/crypto.o
 .text.CRYPT_ECC_Initialize
                0x00000000       0x24 build/sam_e70_xplained_ultra/production/_ext/1645245335/crypto.o
 .text.CRYPT_ECC_Free
                0x00000000       0x20 build/sam_e70_xplained_ultra/production/_ext/1645245335/crypto.o
 .text.CRYPT_ECC_PublicExport
                0x00000000       0x22 build/sam_e70_xplained_ultra/production/_ext/1645245335/crypto.o
 .text.CRYPT_ECC_PublicImport
                0x00000000       0x22 build/sam_e70_xplained_ultra/production/_ext/1645245335/crypto.o
 .text.CRYPT_ECC_PrivateImport
                0x00000000       0x32 build/sam_e70_xplained_ultra/production/_ext/1645245335/crypto.o
 .text.CRYPT_ECC_DHE_KeyMake
                0x00000000       0x22 build/sam_e70_xplained_ultra/production/_ext/1645245335/crypto.o
 .text.CRYPT_ECC_DHE_SharedSecretMake
                0x00000000       0x2e build/sam_e70_xplained_ultra/production/_ext/1645245335/crypto.o
 .text.CRYPT_ECC_DSA_HashSign
                0x00000000       0x3c build/sam_e70_xplained_ultra/production/_ext/1645245335/crypto.o
 .text.CRYPT_ECC_DSA_HashVerify
                0x00000000       0x36 build/sam_e70_xplained_ultra/production/_ext/1645245335/crypto.o
 .text.CRYPT_ECC_KeySizeGet
                0x00000000       0x12 build/sam_e70_xplained_ultra/production/_ext/1645245335/crypto.o
 .text.CRYPT_ECC_SignatureSizeGet
                0x00000000       0x12 build/sam_e70_xplained_ultra/production/_ext/1645245335/crypto.o
 .text.CRYPT_ERROR_StringGet
                0x00000000       0x12 build/sam_e70_xplained_ultra/production/_ext/1645245335/crypto.o
 .text          0x00000000        0x0 build/sam_e70_xplained_ultra/production/_ext/1645245335/curve25519.o
 .data          0x00000000        0x0 build/sam_e70_xplained_ultra/production/_ext/1645245335/curve25519.o
 .bss           0x00000000        0x0 build/sam_e70_xplained_ultra/production/_ext/1645245335/curve25519.o
 .debug_line    0x00000000        0x0 build/sam_e70_xplained_ultra/production/_ext/1645245335/curve25519.o
 .debug_str     0x00000000        0x0 build/sam_e70_xplained_ultra/production/_ext/1645245335/curve25519.o
 .comment       0x00000000       0x3d build/sam_e70_xplained_ultra/production/_ext/1645245335/curve25519.o
 .ARM.attributes
                0x00000000       0x37 build/sam_e70_xplained_ultra/production/_ext/1645245335/curve25519.o
 .text          0x00000000        0x0 build/sam_e70_xplained_ultra/production/_ext/1645245335/des3.o
 .data          0x00000000        0x0 build/sam_e70_xplained_ultra/production/_ext/1645245335/des3.o
 .bss           0x00000000        0x0 build/sam_e70_xplained_ultra/production/_ext/1645245335/des3.o
 .text.wc_Des3Init
                0x00000000       0x10 build/sam_e70_xplained_ultra/production/_ext/1645245335/des3.o
 .text.wc_Des3Free
                0x00000000        0x2 build/sam_e70_xplained_ultra/production/_ext/1645245335/des3.o
 .text          0x00000000        0x0 build/sam_e70_xplained_ultra/production/_ext/1645245335/dh.o
 .data          0x00000000        0x0 build/sam_e70_xplained_ultra/production/_ext/1645245335/dh.o
 .bss           0x00000000        0x0 build/sam_e70_xplained_ultra/production/_ext/1645245335/dh.o
 .text.GeneratePublicDh
                0x00000000       0x80 build/sam_e70_xplained_ultra/production/_ext/1645245335/dh.o
 .text.wc_InitDhKey_ex
                0x00000000       0x2e build/sam_e70_xplained_ultra/production/_ext/1645245335/dh.o
 .text.wc_InitDhKey
                0x00000000        0xe build/sam_e70_xplained_ultra/production/_ext/1645245335/dh.o
 .text.wc_FreeDhKey
                0x00000000       0x16 build/sam_e70_xplained_ultra/production/_ext/1645245335/dh.o
 .text.wc_DhCheckPubKey
                0x00000000       0x9c build/sam_e70_xplained_ultra/production/_ext/1645245335/dh.o
 .text.wc_DhAgree_Sync
                0x00000000       0xb4 build/sam_e70_xplained_ultra/production/_ext/1645245335/dh.o
 .text.wc_DhGenerateKeyPair
                0x00000000      0x140 build/sam_e70_xplained_ultra/production/_ext/1645245335/dh.o
 .text.wc_DhAgree
                0x00000000       0x32 build/sam_e70_xplained_ultra/production/_ext/1645245335/dh.o
 .text.wc_DhSetKey
                0x00000000       0x9e build/sam_e70_xplained_ultra/production/_ext/1645245335/dh.o
 .debug_info    0x00000000     0x25f6 build/sam_e70_xplained_ultra/production/_ext/1645245335/dh.o
 .debug_abbrev  0x00000000      0x360 build/sam_e70_xplained_ultra/production/_ext/1645245335/dh.o
 .debug_loc     0x00000000      0xe53 build/sam_e70_xplained_ultra/production/_ext/1645245335/dh.o
 .debug_aranges
                0x00000000       0x60 build/sam_e70_xplained_ultra/production/_ext/1645245335/dh.o
 .debug_ranges  0x00000000       0x98 build/sam_e70_xplained_ultra/production/_ext/1645245335/dh.o
 .debug_line    0x00000000      0x2fe build/sam_e70_xplained_ultra/production/_ext/1645245335/dh.o
 .debug_str     0x00000000       0xbc build/sam_e70_xplained_ultra/production/_ext/1645245335/dh.o
 .comment       0x00000000       0x3d build/sam_e70_xplained_ultra/production/_ext/1645245335/dh.o
 .debug_frame   0x00000000      0x168 build/sam_e70_xplained_ultra/production/_ext/1645245335/dh.o
 .ARM.attributes
                0x00000000       0x37 build/sam_e70_xplained_ultra/production/_ext/1645245335/dh.o
 .text          0x00000000        0x0 build/sam_e70_xplained_ultra/production/_ext/1645245335/dsa.o
 .data          0x00000000        0x0 build/sam_e70_xplained_ultra/production/_ext/1645245335/dsa.o
 .bss           0x00000000        0x0 build/sam_e70_xplained_ultra/production/_ext/1645245335/dsa.o
 .debug_line    0x00000000        0x0 build/sam_e70_xplained_ultra/production/_ext/1645245335/dsa.o
 .debug_str     0x00000000        0x0 build/sam_e70_xplained_ultra/production/_ext/1645245335/dsa.o
 .comment       0x00000000       0x3d build/sam_e70_xplained_ultra/production/_ext/1645245335/dsa.o
 .ARM.attributes
                0x00000000       0x37 build/sam_e70_xplained_ultra/production/_ext/1645245335/dsa.o
 .text          0x00000000        0x0 build/sam_e70_xplained_ultra/production/_ext/1645245335/ecc.o
 .data          0x00000000        0x0 build/sam_e70_xplained_ultra/production/_ext/1645245335/ecc.o
 .bss           0x00000000        0x0 build/sam_e70_xplained_ultra/production/_ext/1645245335/ecc.o
 .text._wc_ecc_curve_free
                0x00000000       0x6a build/sam_e70_xplained_ultra/production/_ext/1645245335/ecc.o
 .text.wc_ecc_cmp_param
                0x00000000       0x70 build/sam_e70_xplained_ultra/production/_ext/1645245335/ecc.o
 .text.wc_ecc_curve_load_item
                0x00000000       0x50 build/sam_e70_xplained_ultra/production/_ext/1645245335/ecc.o
 .text.wc_ecc_curve_load
                0x00000000       0xb8 build/sam_e70_xplained_ultra/production/_ext/1645245335/ecc.o
 .text.wc_ecc_set_curve
                0x00000000       0x70 build/sam_e70_xplained_ultra/production/_ext/1645245335/ecc.o
 .text.wc_ecc_import_raw_private
                0x00000000       0xc4 build/sam_e70_xplained_ultra/production/_ext/1645245335/ecc.o
 .text.ecc_projective_dbl_point
                0x00000000      0x350 build/sam_e70_xplained_ultra/production/_ext/1645245335/ecc.o
 .text.ecc_projective_add_point
                0x00000000      0x554 build/sam_e70_xplained_ultra/production/_ext/1645245335/ecc.o
 .text.ecc_map  0x00000000      0x12a build/sam_e70_xplained_ultra/production/_ext/1645245335/ecc.o
 .text.wc_ecc_new_point_h
                0x00000000       0x40 build/sam_e70_xplained_ultra/production/_ext/1645245335/ecc.o
 .text.wc_ecc_new_point
                0x00000000        0xa build/sam_e70_xplained_ultra/production/_ext/1645245335/ecc.o
 .text.wc_ecc_del_point_h
                0x00000000       0x24 build/sam_e70_xplained_ultra/production/_ext/1645245335/ecc.o
 .text.wc_ecc_mulmod_ex
                0x00000000      0x3c6 build/sam_e70_xplained_ultra/production/_ext/1645245335/ecc.o
 .text.wc_ecc_mulmod
                0x00000000       0x18 build/sam_e70_xplained_ultra/production/_ext/1645245335/ecc.o
 .text.wc_ecc_del_point
                0x00000000        0xa build/sam_e70_xplained_ultra/production/_ext/1645245335/ecc.o
 .text.wc_ecc_copy_point
                0x00000000       0x3e build/sam_e70_xplained_ultra/production/_ext/1645245335/ecc.o
 .text.wc_ecc_cmp_point
                0x00000000       0x3e build/sam_e70_xplained_ultra/production/_ext/1645245335/ecc.o
 .text.wc_ecc_is_valid_idx
                0x00000000       0x24 build/sam_e70_xplained_ultra/production/_ext/1645245335/ecc.o
 .text.wc_ecc_export_raw
                0x00000000      0x120 build/sam_e70_xplained_ultra/production/_ext/1645245335/ecc.o
 .text.wc_ecc_get_curve_idx
                0x00000000       0x28 build/sam_e70_xplained_ultra/production/_ext/1645245335/ecc.o
 .text.wc_ecc_get_name
                0x00000000       0x20 build/sam_e70_xplained_ultra/production/_ext/1645245335/ecc.o
 .text.wc_ecc_get_curve_id
                0x00000000       0x20 build/sam_e70_xplained_ultra/production/_ext/1645245335/ecc.o
 .text.wc_ecc_get_curve_size_from_id
                0x00000000       0x24 build/sam_e70_xplained_ultra/production/_ext/1645245335/ecc.o
 .text.wc_ecc_get_curve_idx_from_name
                0x00000000       0x50 build/sam_e70_xplained_ultra/production/_ext/1645245335/ecc.o
 .text.wc_ecc_get_curve_size_from_name
                0x00000000       0x24 build/sam_e70_xplained_ultra/production/_ext/1645245335/ecc.o
 .text.wc_ecc_get_curve_id_from_name
                0x00000000       0x24 build/sam_e70_xplained_ultra/production/_ext/1645245335/ecc.o
 .text.wc_ecc_get_curve_id_from_params
                0x00000000       0xe8 build/sam_e70_xplained_ultra/production/_ext/1645245335/ecc.o
 .text.wc_ecc_shared_secret_gen
                0x00000000       0xdc build/sam_e70_xplained_ultra/production/_ext/1645245335/ecc.o
 .text.wc_ecc_shared_secret_ex
                0x00000000       0x7e build/sam_e70_xplained_ultra/production/_ext/1645245335/ecc.o
 .text.wc_ecc_shared_secret
                0x00000000       0x70 build/sam_e70_xplained_ultra/production/_ext/1645245335/ecc.o
 .text.wc_ecc_point_is_at_infinity
                0x00000000       0x26 build/sam_e70_xplained_ultra/production/_ext/1645245335/ecc.o
 .text.wc_ecc_make_key_ex
                0x00000000      0x198 build/sam_e70_xplained_ultra/production/_ext/1645245335/ecc.o
 .text.wc_ecc_make_key
                0x00000000        0xa build/sam_e70_xplained_ultra/production/_ext/1645245335/ecc.o
 .text.wc_ecc_init_ex
                0x00000000       0x48 build/sam_e70_xplained_ultra/production/_ext/1645245335/ecc.o
 .text.wc_ecc_init
                0x00000000        0xe build/sam_e70_xplained_ultra/production/_ext/1645245335/ecc.o
 .text.wc_ecc_set_flags
                0x00000000       0x12 build/sam_e70_xplained_ultra/production/_ext/1645245335/ecc.o
 .text.wc_ecc_free
                0x00000000       0x28 build/sam_e70_xplained_ultra/production/_ext/1645245335/ecc.o
 .text.wc_ecc_sign_hash_ex
                0x00000000      0x204 build/sam_e70_xplained_ultra/production/_ext/1645245335/ecc.o
 .text.wc_ecc_sign_hash
                0x00000000       0xda build/sam_e70_xplained_ultra/production/_ext/1645245335/ecc.o
 .text.wc_ecc_verify_hash_ex
                0x00000000      0x430 build/sam_e70_xplained_ultra/production/_ext/1645245335/ecc.o
 .text.wc_ecc_verify_hash
                0x00000000       0xd0 build/sam_e70_xplained_ultra/production/_ext/1645245335/ecc.o
 .text.wc_ecc_import_point_der
                0x00000000       0xce build/sam_e70_xplained_ultra/production/_ext/1645245335/ecc.o
 .text.wc_ecc_export_point_der
                0x00000000       0xfc build/sam_e70_xplained_ultra/production/_ext/1645245335/ecc.o
 .text.wc_ecc_export_x963
                0x00000000       0xfc build/sam_e70_xplained_ultra/production/_ext/1645245335/ecc.o
 .text.wc_ecc_export_x963_ex
                0x00000000       0x10 build/sam_e70_xplained_ultra/production/_ext/1645245335/ecc.o
 .text.wc_ecc_is_point
                0x00000000      0x106 build/sam_e70_xplained_ultra/production/_ext/1645245335/ecc.o
 .text.wc_ecc_check_key
                0x00000000      0x254 build/sam_e70_xplained_ultra/production/_ext/1645245335/ecc.o
 .text.wc_ecc_import_x963_ex
                0x00000000       0xe0 build/sam_e70_xplained_ultra/production/_ext/1645245335/ecc.o
 .text.wc_ecc_import_x963
                0x00000000        0xa build/sam_e70_xplained_ultra/production/_ext/1645245335/ecc.o
 .text.wc_ecc_export_private_only
                0x00000000       0x60 build/sam_e70_xplained_ultra/production/_ext/1645245335/ecc.o
 .text.wc_ecc_export_public_raw
                0x00000000       0x16 build/sam_e70_xplained_ultra/production/_ext/1645245335/ecc.o
 .text.wc_ecc_export_private_raw
                0x00000000       0x22 build/sam_e70_xplained_ultra/production/_ext/1645245335/ecc.o
 .text.wc_ecc_import_private_key_ex
                0x00000000       0x44 build/sam_e70_xplained_ultra/production/_ext/1645245335/ecc.o
 .text.wc_ecc_import_private_key
                0x00000000       0x14 build/sam_e70_xplained_ultra/production/_ext/1645245335/ecc.o
 .text.wc_ecc_rs_to_sig
                0x00000000       0xa8 build/sam_e70_xplained_ultra/production/_ext/1645245335/ecc.o
 .text.wc_ecc_sig_to_rs
                0x00000000       0x94 build/sam_e70_xplained_ultra/production/_ext/1645245335/ecc.o
 .text.wc_ecc_import_raw_ex
                0x00000000       0x10 build/sam_e70_xplained_ultra/production/_ext/1645245335/ecc.o
 .text.wc_ecc_import_raw
                0x00000000       0x78 build/sam_e70_xplained_ultra/production/_ext/1645245335/ecc.o
 .text.wc_ecc_size
                0x00000000        0xc build/sam_e70_xplained_ultra/production/_ext/1645245335/ecc.o
 .text.wc_ecc_sig_size
                0x00000000       0x10 build/sam_e70_xplained_ultra/production/_ext/1645245335/ecc.o
 .text.wc_ecc_get_oid
                0x00000000       0x5c build/sam_e70_xplained_ultra/production/_ext/1645245335/ecc.o
 .rodata        0x00000000      0xe2c build/sam_e70_xplained_ultra/production/_ext/1645245335/ecc.o
 .rodata.ecc_oid_prime239v1
                0x00000000        0x8 build/sam_e70_xplained_ultra/production/_ext/1645245335/ecc.o
 .rodata.ecc_oid_secp112r1
                0x00000000        0x8 build/sam_e70_xplained_ultra/production/_ext/1645245335/ecc.o
 .rodata.ecc_oid_secp128r1
                0x00000000        0x8 build/sam_e70_xplained_ultra/production/_ext/1645245335/ecc.o
 .rodata.ecc_oid_secp160r1
                0x00000000        0x8 build/sam_e70_xplained_ultra/production/_ext/1645245335/ecc.o
 .rodata.ecc_oid_secp192r1
                0x00000000        0x8 build/sam_e70_xplained_ultra/production/_ext/1645245335/ecc.o
 .rodata.ecc_oid_secp224r1
                0x00000000        0x8 build/sam_e70_xplained_ultra/production/_ext/1645245335/ecc.o
 .rodata.ecc_oid_secp256r1
                0x00000000        0x8 build/sam_e70_xplained_ultra/production/_ext/1645245335/ecc.o
 .rodata.ecc_oid_secp384r1
                0x00000000        0x8 build/sam_e70_xplained_ultra/production/_ext/1645245335/ecc.o
 .rodata.ecc_oid_secp521r1
                0x00000000        0x8 build/sam_e70_xplained_ultra/production/_ext/1645245335/ecc.o
 .rodata.ecc_sets
                0x00000000      0x208 build/sam_e70_xplained_ultra/production/_ext/1645245335/ecc.o
 .debug_info    0x00000000     0x9407 build/sam_e70_xplained_ultra/production/_ext/1645245335/ecc.o
 .debug_abbrev  0x00000000      0x4ee build/sam_e70_xplained_ultra/production/_ext/1645245335/ecc.o
 .debug_loc     0x00000000     0x6f8d build/sam_e70_xplained_ultra/production/_ext/1645245335/ecc.o
 .debug_aranges
                0x00000000      0x200 build/sam_e70_xplained_ultra/production/_ext/1645245335/ecc.o
 .debug_ranges  0x00000000      0x2d8 build/sam_e70_xplained_ultra/production/_ext/1645245335/ecc.o
 .debug_line    0x00000000      0xf4e build/sam_e70_xplained_ultra/production/_ext/1645245335/ecc.o
 .debug_str     0x00000000      0x24b build/sam_e70_xplained_ultra/production/_ext/1645245335/ecc.o
 .comment       0x00000000       0x3d build/sam_e70_xplained_ultra/production/_ext/1645245335/ecc.o
 .debug_frame   0x00000000      0x87c build/sam_e70_xplained_ultra/production/_ext/1645245335/ecc.o
 .ARM.attributes
                0x00000000       0x37 build/sam_e70_xplained_ultra/production/_ext/1645245335/ecc.o
 .text          0x00000000        0x0 build/sam_e70_xplained_ultra/production/_ext/1645245335/ecc_fp.o
 .data          0x00000000        0x0 build/sam_e70_xplained_ultra/production/_ext/1645245335/ecc_fp.o
 .bss           0x00000000        0x0 build/sam_e70_xplained_ultra/production/_ext/1645245335/ecc_fp.o
 .debug_line    0x00000000        0x0 build/sam_e70_xplained_ultra/production/_ext/1645245335/ecc_fp.o
 .debug_str     0x00000000        0x0 build/sam_e70_xplained_ultra/production/_ext/1645245335/ecc_fp.o
 .comment       0x00000000       0x3d build/sam_e70_xplained_ultra/production/_ext/1645245335/ecc_fp.o
 .ARM.attributes
                0x00000000       0x37 build/sam_e70_xplained_ultra/production/_ext/1645245335/ecc_fp.o
 .text          0x00000000        0x0 build/sam_e70_xplained_ultra/production/_ext/1645245335/ed25519.o
 .data          0x00000000        0x0 build/sam_e70_xplained_ultra/production/_ext/1645245335/ed25519.o
 .bss           0x00000000        0x0 build/sam_e70_xplained_ultra/production/_ext/1645245335/ed25519.o
 .debug_line    0x00000000        0x0 build/sam_e70_xplained_ultra/production/_ext/1645245335/ed25519.o
 .debug_str     0x00000000        0x0 build/sam_e70_xplained_ultra/production/_ext/1645245335/ed25519.o
 .comment       0x00000000       0x3d build/sam_e70_xplained_ultra/production/_ext/1645245335/ed25519.o
 .ARM.attributes
                0x00000000       0x37 build/sam_e70_xplained_ultra/production/_ext/1645245335/ed25519.o
 .text          0x00000000        0x0 build/sam_e70_xplained_ultra/production/_ext/1645245335/error.o
 .data          0x00000000        0x0 build/sam_e70_xplained_ultra/production/_ext/1645245335/error.o
 .bss           0x00000000        0x0 build/sam_e70_xplained_ultra/production/_ext/1645245335/error.o
 .text.wc_GetErrorString
                0x00000000      0x534 build/sam_e70_xplained_ultra/production/_ext/1645245335/error.o
 .text.wc_ErrorString
                0x00000000       0x14 build/sam_e70_xplained_ultra/production/_ext/1645245335/error.o
 .rodata        0x00000000     0x1158 build/sam_e70_xplained_ultra/production/_ext/1645245335/error.o
 .debug_info    0x00000000     0x1770 build/sam_e70_xplained_ultra/production/_ext/1645245335/error.o
 .debug_abbrev  0x00000000      0x236 build/sam_e70_xplained_ultra/production/_ext/1645245335/error.o
 .debug_loc     0x00000000       0x8e build/sam_e70_xplained_ultra/production/_ext/1645245335/error.o
 .debug_aranges
                0x00000000       0x28 build/sam_e70_xplained_ultra/production/_ext/1645245335/error.o
 .debug_ranges  0x00000000       0x18 build/sam_e70_xplained_ultra/production/_ext/1645245335/error.o
 .debug_line    0x00000000      0x227 build/sam_e70_xplained_ultra/production/_ext/1645245335/error.o
 .debug_str     0x00000000        0xe build/sam_e70_xplained_ultra/production/_ext/1645245335/error.o
 .comment       0x00000000       0x3d build/sam_e70_xplained_ultra/production/_ext/1645245335/error.o
 .debug_frame   0x00000000       0x38 build/sam_e70_xplained_ultra/production/_ext/1645245335/error.o
 .ARM.attributes
                0x00000000       0x37 build/sam_e70_xplained_ultra/production/_ext/1645245335/error.o
 .text          0x00000000        0x0 build/sam_e70_xplained_ultra/production/_ext/1645245335/fe_low_mem.o
 .data          0x00000000        0x0 build/sam_e70_xplained_ultra/production/_ext/1645245335/fe_low_mem.o
 .bss           0x00000000        0x0 build/sam_e70_xplained_ultra/production/_ext/1645245335/fe_low_mem.o
 .debug_line    0x00000000        0x0 build/sam_e70_xplained_ultra/production/_ext/1645245335/fe_low_mem.o
 .debug_str     0x00000000        0x0 build/sam_e70_xplained_ultra/production/_ext/1645245335/fe_low_mem.o
 .comment       0x00000000       0x3d build/sam_e70_xplained_ultra/production/_ext/1645245335/fe_low_mem.o
 .ARM.attributes
                0x00000000       0x37 build/sam_e70_xplained_ultra/production/_ext/1645245335/fe_low_mem.o
 .text          0x00000000        0x0 build/sam_e70_xplained_ultra/production/_ext/1645245335/fe_operations.o
 .data          0x00000000        0x0 build/sam_e70_xplained_ultra/production/_ext/1645245335/fe_operations.o
 .bss           0x00000000        0x0 build/sam_e70_xplained_ultra/production/_ext/1645245335/fe_operations.o
 .debug_line    0x00000000        0x0 build/sam_e70_xplained_ultra/production/_ext/1645245335/fe_operations.o
 .debug_str     0x00000000        0x0 build/sam_e70_xplained_ultra/production/_ext/1645245335/fe_operations.o
 .comment       0x00000000       0x3d build/sam_e70_xplained_ultra/production/_ext/1645245335/fe_operations.o
 .ARM.attributes
                0x00000000       0x37 build/sam_e70_xplained_ultra/production/_ext/1645245335/fe_operations.o
 .text          0x00000000        0x0 build/sam_e70_xplained_ultra/production/_ext/1645245335/ge_low_mem.o
 .data          0x00000000        0x0 build/sam_e70_xplained_ultra/production/_ext/1645245335/ge_low_mem.o
 .bss           0x00000000        0x0 build/sam_e70_xplained_ultra/production/_ext/1645245335/ge_low_mem.o
 .debug_line    0x00000000        0x0 build/sam_e70_xplained_ultra/production/_ext/1645245335/ge_low_mem.o
 .debug_str     0x00000000        0x0 build/sam_e70_xplained_ultra/production/_ext/1645245335/ge_low_mem.o
 .comment       0x00000000       0x3d build/sam_e70_xplained_ultra/production/_ext/1645245335/ge_low_mem.o
 .ARM.attributes
                0x00000000       0x37 build/sam_e70_xplained_ultra/production/_ext/1645245335/ge_low_mem.o
 .text          0x00000000        0x0 build/sam_e70_xplained_ultra/production/_ext/1645245335/ge_operations.o
 .data          0x00000000        0x0 build/sam_e70_xplained_ultra/production/_ext/1645245335/ge_operations.o
 .bss           0x00000000        0x0 build/sam_e70_xplained_ultra/production/_ext/1645245335/ge_operations.o
 .debug_line    0x00000000        0x0 build/sam_e70_xplained_ultra/production/_ext/1645245335/ge_operations.o
 .debug_str     0x00000000        0x0 build/sam_e70_xplained_ultra/production/_ext/1645245335/ge_operations.o
 .comment       0x00000000       0x3d build/sam_e70_xplained_ultra/production/_ext/1645245335/ge_operations.o
 .ARM.attributes
                0x00000000       0x37 build/sam_e70_xplained_ultra/production/_ext/1645245335/ge_operations.o
 .text          0x00000000        0x0 build/sam_e70_xplained_ultra/production/_ext/1645245335/hash.o
 .data          0x00000000        0x0 build/sam_e70_xplained_ultra/production/_ext/1645245335/hash.o
 .bss           0x00000000        0x0 build/sam_e70_xplained_ultra/production/_ext/1645245335/hash.o
 .text.wc_HashGetOID
                0x00000000       0x3c build/sam_e70_xplained_ultra/production/_ext/1645245335/hash.o
 .text.wc_HashGetDigestSize
                0x00000000       0x36 build/sam_e70_xplained_ultra/production/_ext/1645245335/hash.o
 .text.wc_HashInit
                0x00000000       0x48 build/sam_e70_xplained_ultra/production/_ext/1645245335/hash.o
 .text.wc_HashUpdate
                0x00000000       0x66 build/sam_e70_xplained_ultra/production/_ext/1645245335/hash.o
 .text.wc_HashFinal
                0x00000000       0x5a build/sam_e70_xplained_ultra/production/_ext/1645245335/hash.o
 .text.wc_Md5Hash
                0x00000000       0x36 build/sam_e70_xplained_ultra/production/_ext/1645245335/hash.o
 .text.wc_ShaHash
                0x00000000       0x3c build/sam_e70_xplained_ultra/production/_ext/1645245335/hash.o
 .text.wc_Sha256Hash
                0x00000000       0x44 build/sam_e70_xplained_ultra/production/_ext/1645245335/hash.o
 .text.wc_Sha512Hash
                0x00000000       0x36 build/sam_e70_xplained_ultra/production/_ext/1645245335/hash.o
 .text.wc_Sha384Hash
                0x00000000       0x36 build/sam_e70_xplained_ultra/production/_ext/1645245335/hash.o
 .text.wc_Hash  0x00000000       0x9e build/sam_e70_xplained_ultra/production/_ext/1645245335/hash.o
 .debug_info    0x00000000     0x2bd4 build/sam_e70_xplained_ultra/production/_ext/1645245335/hash.o
 .debug_abbrev  0x00000000      0x31a build/sam_e70_xplained_ultra/production/_ext/1645245335/hash.o
 .debug_loc     0x00000000      0xed3 build/sam_e70_xplained_ultra/production/_ext/1645245335/hash.o
 .debug_aranges
                0x00000000       0x70 build/sam_e70_xplained_ultra/production/_ext/1645245335/hash.o
 .debug_ranges  0x00000000       0x60 build/sam_e70_xplained_ultra/production/_ext/1645245335/hash.o
 .debug_line    0x00000000      0x479 build/sam_e70_xplained_ultra/production/_ext/1645245335/hash.o
 .debug_str     0x00000000      0x121 build/sam_e70_xplained_ultra/production/_ext/1645245335/hash.o
 .comment       0x00000000       0x3d build/sam_e70_xplained_ultra/production/_ext/1645245335/hash.o
 .debug_frame   0x00000000      0x17c build/sam_e70_xplained_ultra/production/_ext/1645245335/hash.o
 .ARM.attributes
                0x00000000       0x37 build/sam_e70_xplained_ultra/production/_ext/1645245335/hash.o
 .text          0x00000000        0x0 build/sam_e70_xplained_ultra/production/_ext/1645245335/hc128.o
 .data          0x00000000        0x0 build/sam_e70_xplained_ultra/production/_ext/1645245335/hc128.o
 .bss           0x00000000        0x0 build/sam_e70_xplained_ultra/production/_ext/1645245335/hc128.o
 .debug_line    0x00000000        0x0 build/sam_e70_xplained_ultra/production/_ext/1645245335/hc128.o
 .debug_str     0x00000000        0x0 build/sam_e70_xplained_ultra/production/_ext/1645245335/hc128.o
 .comment       0x00000000       0x3d build/sam_e70_xplained_ultra/production/_ext/1645245335/hc128.o
 .ARM.attributes
                0x00000000       0x37 build/sam_e70_xplained_ultra/production/_ext/1645245335/hc128.o
 .text          0x00000000        0x0 build/sam_e70_xplained_ultra/production/_ext/1645245335/hmac.o
 .data          0x00000000        0x0 build/sam_e70_xplained_ultra/production/_ext/1645245335/hmac.o
 .bss           0x00000000        0x0 build/sam_e70_xplained_ultra/production/_ext/1645245335/hmac.o
 .text.wc_HmacSizeByType
                0x00000000       0x44 build/sam_e70_xplained_ultra/production/_ext/1645245335/hmac.o
 .text.wc_HmacInit
                0x00000000       0x20 build/sam_e70_xplained_ultra/production/_ext/1645245335/hmac.o
 .text.wc_HmacFree
                0x00000000        0x2 build/sam_e70_xplained_ultra/production/_ext/1645245335/hmac.o
 .text.wolfSSL_GetHmacMaxSize
                0x00000000        0x4 build/sam_e70_xplained_ultra/production/_ext/1645245335/hmac.o
 .text          0x00000000        0x0 build/sam_e70_xplained_ultra/production/_ext/1645245335/idea.o
 .data          0x00000000        0x0 build/sam_e70_xplained_ultra/production/_ext/1645245335/idea.o
 .bss           0x00000000        0x0 build/sam_e70_xplained_ultra/production/_ext/1645245335/idea.o
 .debug_line    0x00000000        0x0 build/sam_e70_xplained_ultra/production/_ext/1645245335/idea.o
 .debug_str     0x00000000        0x0 build/sam_e70_xplained_ultra/production/_ext/1645245335/idea.o
 .comment       0x00000000       0x3d build/sam_e70_xplained_ultra/production/_ext/1645245335/idea.o
 .ARM.attributes
                0x00000000       0x37 build/sam_e70_xplained_ultra/production/_ext/1645245335/idea.o
 .text          0x00000000        0x0 build/sam_e70_xplained_ultra/production/_ext/1645245335/integer.o
 .data          0x00000000        0x0 build/sam_e70_xplained_ultra/production/_ext/1645245335/integer.o
 .bss           0x00000000        0x0 build/sam_e70_xplained_ultra/production/_ext/1645245335/integer.o
 .debug_info    0x00000000      0xddd build/sam_e70_xplained_ultra/production/_ext/1645245335/integer.o
 .debug_abbrev  0x00000000      0x176 build/sam_e70_xplained_ultra/production/_ext/1645245335/integer.o
 .debug_aranges
                0x00000000       0x18 build/sam_e70_xplained_ultra/production/_ext/1645245335/integer.o
 .debug_line    0x00000000      0x124 build/sam_e70_xplained_ultra/production/_ext/1645245335/integer.o
 .debug_str     0x00000000        0xe build/sam_e70_xplained_ultra/production/_ext/1645245335/integer.o
 .comment       0x00000000       0x3d build/sam_e70_xplained_ultra/production/_ext/1645245335/integer.o
 .ARM.attributes
                0x00000000       0x37 build/sam_e70_xplained_ultra/production/_ext/1645245335/integer.o
 .text          0x00000000        0x0 build/sam_e70_xplained_ultra/production/_ext/1645245335/logging.o
 .data          0x00000000        0x0 build/sam_e70_xplained_ultra/production/_ext/1645245335/logging.o
 .bss           0x00000000        0x0 build/sam_e70_xplained_ultra/production/_ext/1645245335/logging.o
 .text.wolfSSL_SetLoggingCb
                0x00000000        0x6 build/sam_e70_xplained_ultra/production/_ext/1645245335/logging.o
 .text.wolfSSL_Debugging_ON
                0x00000000        0x6 build/sam_e70_xplained_ultra/production/_ext/1645245335/logging.o
 .text.wolfSSL_Debugging_OFF
                0x00000000        0x2 build/sam_e70_xplained_ultra/production/_ext/1645245335/logging.o
 .debug_info    0x00000000     0x1748 build/sam_e70_xplained_ultra/production/_ext/1645245335/logging.o
 .debug_abbrev  0x00000000      0x1ef build/sam_e70_xplained_ultra/production/_ext/1645245335/logging.o
 .debug_loc     0x00000000       0x21 build/sam_e70_xplained_ultra/production/_ext/1645245335/logging.o
 .debug_aranges
                0x00000000       0x30 build/sam_e70_xplained_ultra/production/_ext/1645245335/logging.o
 .debug_ranges  0x00000000       0x20 build/sam_e70_xplained_ultra/production/_ext/1645245335/logging.o
 .debug_line    0x00000000      0x1a4 build/sam_e70_xplained_ultra/production/_ext/1645245335/logging.o
 .debug_str     0x00000000        0xe build/sam_e70_xplained_ultra/production/_ext/1645245335/logging.o
 .comment       0x00000000       0x3d build/sam_e70_xplained_ultra/production/_ext/1645245335/logging.o
 .debug_frame   0x00000000       0x40 build/sam_e70_xplained_ultra/production/_ext/1645245335/logging.o
 .ARM.attributes
                0x00000000       0x37 build/sam_e70_xplained_ultra/production/_ext/1645245335/logging.o
 .text          0x00000000        0x0 build/sam_e70_xplained_ultra/production/_ext/1645245335/md2.o
 .data          0x00000000        0x0 build/sam_e70_xplained_ultra/production/_ext/1645245335/md2.o
 .bss           0x00000000        0x0 build/sam_e70_xplained_ultra/production/_ext/1645245335/md2.o
 .debug_line    0x00000000        0x0 build/sam_e70_xplained_ultra/production/_ext/1645245335/md2.o
 .debug_str     0x00000000        0x0 build/sam_e70_xplained_ultra/production/_ext/1645245335/md2.o
 .comment       0x00000000       0x3d build/sam_e70_xplained_ultra/production/_ext/1645245335/md2.o
 .ARM.attributes
                0x00000000       0x37 build/sam_e70_xplained_ultra/production/_ext/1645245335/md2.o
 .text          0x00000000        0x0 build/sam_e70_xplained_ultra/production/_ext/1645245335/md4.o
 .data          0x00000000        0x0 build/sam_e70_xplained_ultra/production/_ext/1645245335/md4.o
 .bss           0x00000000        0x0 build/sam_e70_xplained_ultra/production/_ext/1645245335/md4.o
 .text.Transform
                0x00000000      0x484 build/sam_e70_xplained_ultra/production/_ext/1645245335/md4.o
 .text.wc_InitMd4
                0x00000000       0x2c build/sam_e70_xplained_ultra/production/_ext/1645245335/md4.o
 .text.wc_Md4Update
                0x00000000       0x60 build/sam_e70_xplained_ultra/production/_ext/1645245335/md4.o
 .text.wc_Md4Final
                0x00000000       0x8a build/sam_e70_xplained_ultra/production/_ext/1645245335/md4.o
 .debug_info    0x00000000     0x18f0 build/sam_e70_xplained_ultra/production/_ext/1645245335/md4.o
 .debug_abbrev  0x00000000      0x2ce build/sam_e70_xplained_ultra/production/_ext/1645245335/md4.o
 .debug_loc     0x00000000     0x1ebc build/sam_e70_xplained_ultra/production/_ext/1645245335/md4.o
 .debug_aranges
                0x00000000       0x38 build/sam_e70_xplained_ultra/production/_ext/1645245335/md4.o
 .debug_ranges  0x00000000       0x40 build/sam_e70_xplained_ultra/production/_ext/1645245335/md4.o
 .debug_line    0x00000000      0x3a8 build/sam_e70_xplained_ultra/production/_ext/1645245335/md4.o
 .debug_str     0x00000000        0xe build/sam_e70_xplained_ultra/production/_ext/1645245335/md4.o
 .comment       0x00000000       0x3d build/sam_e70_xplained_ultra/production/_ext/1645245335/md4.o
 .debug_frame   0x00000000       0x9c build/sam_e70_xplained_ultra/production/_ext/1645245335/md4.o
 .ARM.attributes
                0x00000000       0x37 build/sam_e70_xplained_ultra/production/_ext/1645245335/md4.o
 .text          0x00000000        0x0 build/sam_e70_xplained_ultra/production/_ext/1645245335/md5.o
 .data          0x00000000        0x0 build/sam_e70_xplained_ultra/production/_ext/1645245335/md5.o
 .bss           0x00000000        0x0 build/sam_e70_xplained_ultra/production/_ext/1645245335/md5.o
 .text.wc_Md5Free
                0x00000000        0x2 build/sam_e70_xplained_ultra/production/_ext/1645245335/md5.o
 .text.wc_Md5Copy
                0x00000000       0x22 build/sam_e70_xplained_ultra/production/_ext/1645245335/md5.o
 .text.wc_Md5GetHash
                0x00000000       0x2e build/sam_e70_xplained_ultra/production/_ext/1645245335/md5.o
 .text          0x00000000        0x0 build/sam_e70_xplained_ultra/production/_ext/1645245335/memory.o
 .data          0x00000000        0x0 build/sam_e70_xplained_ultra/production/_ext/1645245335/memory.o
 .bss           0x00000000        0x0 build/sam_e70_xplained_ultra/production/_ext/1645245335/memory.o
 .text.wolfSSL_SetAllocators
                0x00000000       0x38 build/sam_e70_xplained_ultra/production/_ext/1645245335/memory.o
 .text.wolfSSL_GetAllocators
                0x00000000       0x2c build/sam_e70_xplained_ultra/production/_ext/1645245335/memory.o
 .text.wolfSSL_Malloc
                0x00000000       0x18 build/sam_e70_xplained_ultra/production/_ext/1645245335/memory.o
 .text.wolfSSL_Free
                0x00000000       0x18 build/sam_e70_xplained_ultra/production/_ext/1645245335/memory.o
 .text.wolfSSL_Realloc
                0x00000000       0x18 build/sam_e70_xplained_ultra/production/_ext/1645245335/memory.o
 .bss.free_function
                0x00000000        0x4 build/sam_e70_xplained_ultra/production/_ext/1645245335/memory.o
 .bss.malloc_function
                0x00000000        0x4 build/sam_e70_xplained_ultra/production/_ext/1645245335/memory.o
 .bss.realloc_function
                0x00000000        0x4 build/sam_e70_xplained_ultra/production/_ext/1645245335/memory.o
 .debug_info    0x00000000     0x19a2 build/sam_e70_xplained_ultra/production/_ext/1645245335/memory.o
 .debug_abbrev  0x00000000      0x256 build/sam_e70_xplained_ultra/production/_ext/1645245335/memory.o
 .debug_loc     0x00000000      0x27f build/sam_e70_xplained_ultra/production/_ext/1645245335/memory.o
 .debug_aranges
                0x00000000       0x40 build/sam_e70_xplained_ultra/production/_ext/1645245335/memory.o
 .debug_ranges  0x00000000       0x30 build/sam_e70_xplained_ultra/production/_ext/1645245335/memory.o
 .debug_line    0x00000000      0x1e5 build/sam_e70_xplained_ultra/production/_ext/1645245335/memory.o
 .debug_str     0x00000000        0xe build/sam_e70_xplained_ultra/production/_ext/1645245335/memory.o
 .comment       0x00000000       0x3d build/sam_e70_xplained_ultra/production/_ext/1645245335/memory.o
 .debug_frame   0x00000000       0x78 build/sam_e70_xplained_ultra/production/_ext/1645245335/memory.o
 .ARM.attributes
                0x00000000       0x37 build/sam_e70_xplained_ultra/production/_ext/1645245335/memory.o
 .text          0x00000000        0x0 build/sam_e70_xplained_ultra/production/_ext/1645245335/misc.o
 .data          0x00000000        0x0 build/sam_e70_xplained_ultra/production/_ext/1645245335/misc.o
 .bss           0x00000000        0x0 build/sam_e70_xplained_ultra/production/_ext/1645245335/misc.o
 .debug_info    0x00000000      0xdda build/sam_e70_xplained_ultra/production/_ext/1645245335/misc.o
 .debug_abbrev  0x00000000      0x176 build/sam_e70_xplained_ultra/production/_ext/1645245335/misc.o
 .debug_aranges
                0x00000000       0x18 build/sam_e70_xplained_ultra/production/_ext/1645245335/misc.o
 .debug_line    0x00000000      0x124 build/sam_e70_xplained_ultra/production/_ext/1645245335/misc.o
 .debug_str     0x00000000        0xe build/sam_e70_xplained_ultra/production/_ext/1645245335/misc.o
 .comment       0x00000000       0x3d build/sam_e70_xplained_ultra/production/_ext/1645245335/misc.o
 .ARM.attributes
                0x00000000       0x37 build/sam_e70_xplained_ultra/production/_ext/1645245335/misc.o
 .text          0x00000000        0x0 build/sam_e70_xplained_ultra/production/_ext/1645245335/pkcs12.o
 .data          0x00000000        0x0 build/sam_e70_xplained_ultra/production/_ext/1645245335/pkcs12.o
 .bss           0x00000000        0x0 build/sam_e70_xplained_ultra/production/_ext/1645245335/pkcs12.o
 .debug_line    0x00000000        0x0 build/sam_e70_xplained_ultra/production/_ext/1645245335/pkcs12.o
 .debug_str     0x00000000        0x0 build/sam_e70_xplained_ultra/production/_ext/1645245335/pkcs12.o
 .comment       0x00000000       0x3d build/sam_e70_xplained_ultra/production/_ext/1645245335/pkcs12.o
 .ARM.attributes
                0x00000000       0x37 build/sam_e70_xplained_ultra/production/_ext/1645245335/pkcs12.o
 .text          0x00000000        0x0 build/sam_e70_xplained_ultra/production/_ext/1645245335/pkcs7.o
 .data          0x00000000        0x0 build/sam_e70_xplained_ultra/production/_ext/1645245335/pkcs7.o
 .bss           0x00000000        0x0 build/sam_e70_xplained_ultra/production/_ext/1645245335/pkcs7.o
 .debug_line    0x00000000        0x0 build/sam_e70_xplained_ultra/production/_ext/1645245335/pkcs7.o
 .debug_str     0x00000000        0x0 build/sam_e70_xplained_ultra/production/_ext/1645245335/pkcs7.o
 .comment       0x00000000       0x3d build/sam_e70_xplained_ultra/production/_ext/1645245335/pkcs7.o
 .ARM.attributes
                0x00000000       0x37 build/sam_e70_xplained_ultra/production/_ext/1645245335/pkcs7.o
 .text          0x00000000        0x0 build/sam_e70_xplained_ultra/production/_ext/1645245335/poly1305.o
 .data          0x00000000        0x0 build/sam_e70_xplained_ultra/production/_ext/1645245335/poly1305.o
 .bss           0x00000000        0x0 build/sam_e70_xplained_ultra/production/_ext/1645245335/poly1305.o
 .debug_line    0x00000000        0x0 build/sam_e70_xplained_ultra/production/_ext/1645245335/poly1305.o
 .debug_str     0x00000000        0x0 build/sam_e70_xplained_ultra/production/_ext/1645245335/poly1305.o
 .comment       0x00000000       0x3d build/sam_e70_xplained_ultra/production/_ext/1645245335/poly1305.o
 .ARM.attributes
                0x00000000       0x37 build/sam_e70_xplained_ultra/production/_ext/1645245335/poly1305.o
 .text          0x00000000        0x0 build/sam_e70_xplained_ultra/production/_ext/1645245335/pwdbased.o
 .data          0x00000000        0x0 build/sam_e70_xplained_ultra/production/_ext/1645245335/pwdbased.o
 .bss           0x00000000        0x0 build/sam_e70_xplained_ultra/production/_ext/1645245335/pwdbased.o
 .debug_line    0x00000000        0x0 build/sam_e70_xplained_ultra/production/_ext/1645245335/pwdbased.o
 .debug_str     0x00000000        0x0 build/sam_e70_xplained_ultra/production/_ext/1645245335/pwdbased.o
 .comment       0x00000000       0x3d build/sam_e70_xplained_ultra/production/_ext/1645245335/pwdbased.o
 .ARM.attributes
                0x00000000       0x37 build/sam_e70_xplained_ultra/production/_ext/1645245335/pwdbased.o
 .text          0x00000000        0x0 build/sam_e70_xplained_ultra/production/_ext/1645245335/rabbit.o
 .data          0x00000000        0x0 build/sam_e70_xplained_ultra/production/_ext/1645245335/rabbit.o
 .bss           0x00000000        0x0 build/sam_e70_xplained_ultra/production/_ext/1645245335/rabbit.o
 .text.RABBIT_next_state
                0x00000000      0x14c build/sam_e70_xplained_ultra/production/_ext/1645245335/rabbit.o
 .text.wc_RabbitSetIV
                0x00000000       0xa0 build/sam_e70_xplained_ultra/production/_ext/1645245335/rabbit.o
 .text.wc_Rabbit_SetHeap
                0x00000000       0x10 build/sam_e70_xplained_ultra/production/_ext/1645245335/rabbit.o
 .text.wc_RabbitSetKey
                0x00000000      0x1dc build/sam_e70_xplained_ultra/production/_ext/1645245335/rabbit.o
 .text.wc_RabbitProcess
                0x00000000      0x270 build/sam_e70_xplained_ultra/production/_ext/1645245335/rabbit.o
 .debug_info    0x00000000     0x2840 build/sam_e70_xplained_ultra/production/_ext/1645245335/rabbit.o
 .debug_abbrev  0x00000000      0x3d5 build/sam_e70_xplained_ultra/production/_ext/1645245335/rabbit.o
 .debug_loc     0x00000000      0xa61 build/sam_e70_xplained_ultra/production/_ext/1645245335/rabbit.o
 .debug_aranges
                0x00000000       0x40 build/sam_e70_xplained_ultra/production/_ext/1645245335/rabbit.o
 .debug_ranges  0x00000000       0x80 build/sam_e70_xplained_ultra/production/_ext/1645245335/rabbit.o
 .debug_line    0x00000000      0x350 build/sam_e70_xplained_ultra/production/_ext/1645245335/rabbit.o
 .debug_str     0x00000000       0x34 build/sam_e70_xplained_ultra/production/_ext/1645245335/rabbit.o
 .comment       0x00000000       0x3d build/sam_e70_xplained_ultra/production/_ext/1645245335/rabbit.o
 .debug_frame   0x00000000       0xd4 build/sam_e70_xplained_ultra/production/_ext/1645245335/rabbit.o
 .ARM.attributes
                0x00000000       0x37 build/sam_e70_xplained_ultra/production/_ext/1645245335/rabbit.o
 .text          0x00000000        0x0 build/sam_e70_xplained_ultra/production/_ext/1645245335/ripemd.o
 .data          0x00000000        0x0 build/sam_e70_xplained_ultra/production/_ext/1645245335/ripemd.o
 .bss           0x00000000        0x0 build/sam_e70_xplained_ultra/production/_ext/1645245335/ripemd.o
 .debug_line    0x00000000        0x0 build/sam_e70_xplained_ultra/production/_ext/1645245335/ripemd.o
 .debug_str     0x00000000        0x0 build/sam_e70_xplained_ultra/production/_ext/1645245335/ripemd.o
 .comment       0x00000000       0x3d build/sam_e70_xplained_ultra/production/_ext/1645245335/ripemd.o
 .ARM.attributes
                0x00000000       0x37 build/sam_e70_xplained_ultra/production/_ext/1645245335/ripemd.o
 .text          0x00000000        0x0 build/sam_e70_xplained_ultra/production/_ext/1645245335/rsa.o
 .data          0x00000000        0x0 build/sam_e70_xplained_ultra/production/_ext/1645245335/rsa.o
 .bss           0x00000000        0x0 build/sam_e70_xplained_ultra/production/_ext/1645245335/rsa.o
 .text.wc_RsaCleanup
                0x00000000       0x64 build/sam_e70_xplained_ultra/production/_ext/1645245335/rsa.o
 .text.RsaMGF1  0x00000000       0xf8 build/sam_e70_xplained_ultra/production/_ext/1645245335/rsa.o
 .text.RsaMGF   0x00000000       0x72 build/sam_e70_xplained_ultra/production/_ext/1645245335/rsa.o
 .text.wc_InitRsaKey_ex
                0x00000000       0x88 build/sam_e70_xplained_ultra/production/_ext/1645245335/rsa.o
 .text.wc_InitRsaKey
                0x00000000        0xc build/sam_e70_xplained_ultra/production/_ext/1645245335/rsa.o
 .text.wc_FreeRsaKey
                0x00000000       0x90 build/sam_e70_xplained_ultra/production/_ext/1645245335/rsa.o
 .text.wc_RsaEncryptSize
                0x00000000       0x10 build/sam_e70_xplained_ultra/production/_ext/1645245335/rsa.o
 .text.wc_RsaFunctionSync
                0x00000000      0x1da build/sam_e70_xplained_ultra/production/_ext/1645245335/rsa.o
 .text.wc_RsaFunction
                0x00000000       0x5c build/sam_e70_xplained_ultra/production/_ext/1645245335/rsa.o
 .text.RsaPrivateDecryptEx
                0x00000000      0x3e6 build/sam_e70_xplained_ultra/production/_ext/1645245335/rsa.o
 .text.wc_RsaPrivateDecryptInline
                0x00000000       0x2a build/sam_e70_xplained_ultra/production/_ext/1645245335/rsa.o
 .text.wc_RsaPrivateDecryptInline_ex
                0x00000000       0x36 build/sam_e70_xplained_ultra/production/_ext/1645245335/rsa.o
 .text.wc_RsaPrivateDecrypt
                0x00000000       0x28 build/sam_e70_xplained_ultra/production/_ext/1645245335/rsa.o
 .text.wc_RsaPrivateDecrypt_ex
                0x00000000       0x34 build/sam_e70_xplained_ultra/production/_ext/1645245335/rsa.o
 .text.wc_RsaSSL_VerifyInline
                0x00000000       0x28 build/sam_e70_xplained_ultra/production/_ext/1645245335/rsa.o
 .text.wc_RsaSSL_Verify
                0x00000000       0x2e build/sam_e70_xplained_ultra/production/_ext/1645245335/rsa.o
 .text.RsaPublicEncryptEx
                0x00000000      0x396 build/sam_e70_xplained_ultra/production/_ext/1645245335/rsa.o
 .text.wc_RsaPublicEncrypt
                0x00000000       0x26 build/sam_e70_xplained_ultra/production/_ext/1645245335/rsa.o
 .text.wc_RsaPublicEncrypt_ex
                0x00000000       0x32 build/sam_e70_xplained_ultra/production/_ext/1645245335/rsa.o
 .text.wc_RsaSSL_Sign
                0x00000000       0x28 build/sam_e70_xplained_ultra/production/_ext/1645245335/rsa.o
 .text.wc_RsaFlattenPublicKey
                0x00000000       0x7c build/sam_e70_xplained_ultra/production/_ext/1645245335/rsa.o
 .debug_info    0x00000000     0x4bae build/sam_e70_xplained_ultra/production/_ext/1645245335/rsa.o
 .debug_abbrev  0x00000000      0x47c build/sam_e70_xplained_ultra/production/_ext/1645245335/rsa.o
 .debug_loc     0x00000000     0x2fe2 build/sam_e70_xplained_ultra/production/_ext/1645245335/rsa.o
 .debug_aranges
                0x00000000       0xc0 build/sam_e70_xplained_ultra/production/_ext/1645245335/rsa.o
 .debug_ranges  0x00000000      0x250 build/sam_e70_xplained_ultra/production/_ext/1645245335/rsa.o
 .debug_line    0x00000000      0x6d9 build/sam_e70_xplained_ultra/production/_ext/1645245335/rsa.o
 .debug_str     0x00000000      0x161 build/sam_e70_xplained_ultra/production/_ext/1645245335/rsa.o
 .comment       0x00000000       0x3d build/sam_e70_xplained_ultra/production/_ext/1645245335/rsa.o
 .debug_frame   0x00000000      0x2ec build/sam_e70_xplained_ultra/production/_ext/1645245335/rsa.o
 .ARM.attributes
                0x00000000       0x37 build/sam_e70_xplained_ultra/production/_ext/1645245335/rsa.o
 .text          0x00000000        0x0 build/sam_e70_xplained_ultra/production/_ext/1645245335/sha3.o
 .data          0x00000000        0x0 build/sam_e70_xplained_ultra/production/_ext/1645245335/sha3.o
 .bss           0x00000000        0x0 build/sam_e70_xplained_ultra/production/_ext/1645245335/sha3.o
 .debug_line    0x00000000        0x0 build/sam_e70_xplained_ultra/production/_ext/1645245335/sha3.o
 .debug_str     0x00000000        0x0 build/sam_e70_xplained_ultra/production/_ext/1645245335/sha3.o
 .comment       0x00000000       0x3d build/sam_e70_xplained_ultra/production/_ext/1645245335/sha3.o
 .ARM.attributes
                0x00000000       0x37 build/sam_e70_xplained_ultra/production/_ext/1645245335/sha3.o
 .text          0x00000000        0x0 build/sam_e70_xplained_ultra/production/_ext/1645245335/sha512.o
 .data          0x00000000        0x0 build/sam_e70_xplained_ultra/production/_ext/1645245335/sha512.o
 .bss           0x00000000        0x0 build/sam_e70_xplained_ultra/production/_ext/1645245335/sha512.o
 .text.wc_Sha512Free
                0x00000000        0x2 build/sam_e70_xplained_ultra/production/_ext/1645245335/sha512.o
 .text.wc_Sha384Free
                0x00000000        0x2 build/sam_e70_xplained_ultra/production/_ext/1645245335/sha512.o
 .text.wc_Sha512Copy
                0x00000000       0x22 build/sam_e70_xplained_ultra/production/_ext/1645245335/sha512.o
 .text.wc_Sha512GetHash
                0x00000000       0x2e build/sam_e70_xplained_ultra/production/_ext/1645245335/sha512.o
 .text.wc_Sha384Copy
                0x00000000       0x22 build/sam_e70_xplained_ultra/production/_ext/1645245335/sha512.o
 .text.wc_Sha384GetHash
                0x00000000       0x2e build/sam_e70_xplained_ultra/production/_ext/1645245335/sha512.o
 .text          0x00000000        0x0 build/sam_e70_xplained_ultra/production/_ext/1645245335/signature.o
 .data          0x00000000        0x0 build/sam_e70_xplained_ultra/production/_ext/1645245335/signature.o
 .bss           0x00000000        0x0 build/sam_e70_xplained_ultra/production/_ext/1645245335/signature.o
 .text.wc_SignatureDerEncode
                0x00000000       0x50 build/sam_e70_xplained_ultra/production/_ext/1645245335/signature.o
 .text.wc_SignatureGetSize
                0x00000000       0x3e build/sam_e70_xplained_ultra/production/_ext/1645245335/signature.o
 .text.wc_SignatureVerify
                0x00000000      0x160 build/sam_e70_xplained_ultra/production/_ext/1645245335/signature.o
 .text.wc_SignatureGenerate
                0x00000000      0x112 build/sam_e70_xplained_ultra/production/_ext/1645245335/signature.o
 .debug_info    0x00000000     0x31f5 build/sam_e70_xplained_ultra/production/_ext/1645245335/signature.o
 .debug_abbrev  0x00000000      0x35c build/sam_e70_xplained_ultra/production/_ext/1645245335/signature.o
 .debug_loc     0x00000000      0x8c2 build/sam_e70_xplained_ultra/production/_ext/1645245335/signature.o
 .debug_aranges
                0x00000000       0x38 build/sam_e70_xplained_ultra/production/_ext/1645245335/signature.o
 .debug_ranges  0x00000000       0x58 build/sam_e70_xplained_ultra/production/_ext/1645245335/signature.o
 .debug_line    0x00000000      0x3f6 build/sam_e70_xplained_ultra/production/_ext/1645245335/signature.o
 .debug_str     0x00000000      0x112 build/sam_e70_xplained_ultra/production/_ext/1645245335/signature.o
 .comment       0x00000000       0x3d build/sam_e70_xplained_ultra/production/_ext/1645245335/signature.o
 .debug_frame   0x00000000       0xa8 build/sam_e70_xplained_ultra/production/_ext/1645245335/signature.o
 .ARM.attributes
                0x00000000       0x37 build/sam_e70_xplained_ultra/production/_ext/1645245335/signature.o
 .text          0x00000000        0x0 build/sam_e70_xplained_ultra/production/_ext/1645245335/srp.o
 .data          0x00000000        0x0 build/sam_e70_xplained_ultra/production/_ext/1645245335/srp.o
 .bss           0x00000000        0x0 build/sam_e70_xplained_ultra/production/_ext/1645245335/srp.o
 .debug_line    0x00000000        0x0 build/sam_e70_xplained_ultra/production/_ext/1645245335/srp.o
 .debug_str     0x00000000        0x0 build/sam_e70_xplained_ultra/production/_ext/1645245335/srp.o
 .comment       0x00000000       0x3d build/sam_e70_xplained_ultra/production/_ext/1645245335/srp.o
 .ARM.attributes
                0x00000000       0x37 build/sam_e70_xplained_ultra/production/_ext/1645245335/srp.o
 .text          0x00000000        0x0 build/sam_e70_xplained_ultra/production/_ext/1645245335/tfm.o
 .data          0x00000000        0x0 build/sam_e70_xplained_ultra/production/_ext/1645245335/tfm.o
 .bss           0x00000000        0x0 build/sam_e70_xplained_ultra/production/_ext/1645245335/tfm.o
 .text.CheckRunTimeSettings
                0x00000000        0x4 build/sam_e70_xplained_ultra/production/_ext/1645245335/tfm.o
 .text.CheckRunTimeFastMath
                0x00000000        0x4 build/sam_e70_xplained_ultra/production/_ext/1645245335/tfm.o
 .text.s_fp_add
                0x00000000       0xd2 build/sam_e70_xplained_ultra/production/_ext/1645245335/tfm.o
 .text.s_fp_sub
                0x00000000       0xe4 build/sam_e70_xplained_ultra/production/_ext/1645245335/tfm.o
 .text.fp_mul_2
                0x00000000       0x64 build/sam_e70_xplained_ultra/production/_ext/1645245335/tfm.o
 .text.fp_mul_d
                0x00000000       0xbe build/sam_e70_xplained_ultra/production/_ext/1645245335/tfm.o
 .text.fp_div_2
                0x00000000       0x86 build/sam_e70_xplained_ultra/production/_ext/1645245335/tfm.o
 .text.fp_cmp_d
                0x00000000       0x4c build/sam_e70_xplained_ultra/production/_ext/1645245335/tfm.o
 .text.fp_cmp_mag
                0x00000000       0x66 build/sam_e70_xplained_ultra/production/_ext/1645245335/tfm.o
 .text.fp_add   0x00000000       0x4a build/sam_e70_xplained_ultra/production/_ext/1645245335/tfm.o
 .text.fp_sub   0x00000000       0x44 build/sam_e70_xplained_ultra/production/_ext/1645245335/tfm.o
 .text.fp_cmp   0x00000000       0x34 build/sam_e70_xplained_ultra/production/_ext/1645245335/tfm.o
 .text.fp_montgomery_setup
                0x00000000       0x40 build/sam_e70_xplained_ultra/production/_ext/1645245335/tfm.o
 .text.fp_montgomery_reduce
                0x00000000      0x166 build/sam_e70_xplained_ultra/production/_ext/1645245335/tfm.o
 .text.fp_is_bit_set
                0x00000000       0x2a build/sam_e70_xplained_ultra/production/_ext/1645245335/tfm.o
 .text.fp_set_bit
                0x00000000       0x34 build/sam_e70_xplained_ultra/production/_ext/1645245335/tfm.o
 .text.fp_count_bits
                0x00000000       0x1a build/sam_e70_xplained_ultra/production/_ext/1645245335/tfm.o
 .text.fp_unsigned_bin_size
                0x00000000       0x1c build/sam_e70_xplained_ultra/production/_ext/1645245335/tfm.o
 .text.fp_leading_bit
                0x00000000       0x22 build/sam_e70_xplained_ultra/production/_ext/1645245335/tfm.o
 .text.fp_lshd  0x00000000       0x86 build/sam_e70_xplained_ultra/production/_ext/1645245335/tfm.o
 .text.fp_rshb  0x00000000       0x70 build/sam_e70_xplained_ultra/production/_ext/1645245335/tfm.o
 .text.fp_reverse
                0x00000000       0x28 build/sam_e70_xplained_ultra/production/_ext/1645245335/tfm.o
 .text.fp_zero  0x00000000       0x14 build/sam_e70_xplained_ultra/production/_ext/1645245335/tfm.o
 .text.fp_2expt
                0x00000000       0x3c build/sam_e70_xplained_ultra/production/_ext/1645245335/tfm.o
 .text.fp_read_unsigned_bin
                0x00000000       0x6c build/sam_e70_xplained_ultra/production/_ext/1645245335/tfm.o
 .text.fp_set   0x00000000       0x16 build/sam_e70_xplained_ultra/production/_ext/1645245335/tfm.o
 .text.fp_montgomery_calc_normalization
                0x00000000       0x80 build/sam_e70_xplained_ultra/production/_ext/1645245335/tfm.o
 .text.fp_rshd  0x00000000       0x82 build/sam_e70_xplained_ultra/production/_ext/1645245335/tfm.o
 .text.fp_init  0x00000000        0x8 build/sam_e70_xplained_ultra/production/_ext/1645245335/tfm.o
 .text.mp_init  0x00000000       0x10 build/sam_e70_xplained_ultra/production/_ext/1645245335/tfm.o
 .text.fp_sub_d
                0x00000000       0x2a build/sam_e70_xplained_ultra/production/_ext/1645245335/tfm.o
 .text.fp_clear
                0x00000000       0x14 build/sam_e70_xplained_ultra/production/_ext/1645245335/tfm.o
 .text.fp_forcezero
                0x00000000       0x22 build/sam_e70_xplained_ultra/production/_ext/1645245335/tfm.o
 .text.mp_forcezero
                0x00000000        0x8 build/sam_e70_xplained_ultra/production/_ext/1645245335/tfm.o
 .text.fp_free  0x00000000        0x2 build/sam_e70_xplained_ultra/production/_ext/1645245335/tfm.o
 .text.mp_clear
                0x00000000        0xc build/sam_e70_xplained_ultra/production/_ext/1645245335/tfm.o
 .text.mp_free  0x00000000        0x2 build/sam_e70_xplained_ultra/production/_ext/1645245335/tfm.o
 .text.mp_init_multi
                0x00000000       0x3e build/sam_e70_xplained_ultra/production/_ext/1645245335/tfm.o
 .text.mp_add   0x00000000        0xa build/sam_e70_xplained_ultra/production/_ext/1645245335/tfm.o
 .text.mp_sub   0x00000000        0xa build/sam_e70_xplained_ultra/production/_ext/1645245335/tfm.o
 .text.mp_mul_d
                0x00000000        0xa build/sam_e70_xplained_ultra/production/_ext/1645245335/tfm.o
 .text.mp_cmp   0x00000000        0x8 build/sam_e70_xplained_ultra/production/_ext/1645245335/tfm.o
 .text.mp_cmp_d
                0x00000000        0x8 build/sam_e70_xplained_ultra/production/_ext/1645245335/tfm.o
 .text.mp_unsigned_bin_size
                0x00000000        0x8 build/sam_e70_xplained_ultra/production/_ext/1645245335/tfm.o
 .text.mp_read_unsigned_bin
                0x00000000        0xa build/sam_e70_xplained_ultra/production/_ext/1645245335/tfm.o
 .text.mp_sub_d
                0x00000000        0xa build/sam_e70_xplained_ultra/production/_ext/1645245335/tfm.o
 .text.fp_copy  0x00000000       0x24 build/sam_e70_xplained_ultra/production/_ext/1645245335/tfm.o
 .text.fp_mul_2d
                0x00000000       0xa4 build/sam_e70_xplained_ultra/production/_ext/1645245335/tfm.o
 .text.fp_set_int
                0x00000000       0x66 build/sam_e70_xplained_ultra/production/_ext/1645245335/tfm.o
 .text.mp_mul_2d
                0x00000000        0xa build/sam_e70_xplained_ultra/production/_ext/1645245335/tfm.o
 .text.fp_mul_comba
                0x00000000      0x11a build/sam_e70_xplained_ultra/production/_ext/1645245335/tfm.o
 .text.fp_mul   0x00000000       0x2c build/sam_e70_xplained_ultra/production/_ext/1645245335/tfm.o
 .text.mp_mul   0x00000000        0xa build/sam_e70_xplained_ultra/production/_ext/1645245335/tfm.o
 .text.fp_mod_2d
                0x00000000       0x98 build/sam_e70_xplained_ultra/production/_ext/1645245335/tfm.o
 .text.fp_div_2d
                0x00000000       0xaa build/sam_e70_xplained_ultra/production/_ext/1645245335/tfm.o
 .text.fp_to_unsigned_bin_at_pos
                0x00000000       0x38 build/sam_e70_xplained_ultra/production/_ext/1645245335/tfm.o
 .text.mp_to_unsigned_bin_at_pos
                0x00000000        0x8 build/sam_e70_xplained_ultra/production/_ext/1645245335/tfm.o
 .text.mp_div_2d
                0x00000000        0xa build/sam_e70_xplained_ultra/production/_ext/1645245335/tfm.o
 .text.fp_sqr_comba
                0x00000000      0x17e build/sam_e70_xplained_ultra/production/_ext/1645245335/tfm.o
 .text.fp_sqr   0x00000000       0x2a build/sam_e70_xplained_ultra/production/_ext/1645245335/tfm.o
 .text.fp_init_copy
                0x00000000       0x1a build/sam_e70_xplained_ultra/production/_ext/1645245335/tfm.o
 .text.fp_div   0x00000000      0x36c build/sam_e70_xplained_ultra/production/_ext/1645245335/tfm.o
 .text.fp_mod   0x00000000       0x46 build/sam_e70_xplained_ultra/production/_ext/1645245335/tfm.o
 .text.fp_invmod
                0x00000000      0x47c build/sam_e70_xplained_ultra/production/_ext/1645245335/tfm.o
 .text.mp_invmod
                0x00000000        0x8 build/sam_e70_xplained_ultra/production/_ext/1645245335/tfm.o
 .text.fp_mulmod
                0x00000000       0x2e build/sam_e70_xplained_ultra/production/_ext/1645245335/tfm.o
 .text.mp_mulmod
                0x00000000        0x8 build/sam_e70_xplained_ultra/production/_ext/1645245335/tfm.o
 .text.fp_submod
                0x00000000       0x2e build/sam_e70_xplained_ultra/production/_ext/1645245335/tfm.o
 .text.mp_submod
                0x00000000        0x8 build/sam_e70_xplained_ultra/production/_ext/1645245335/tfm.o
 .text.fp_addmod
                0x00000000       0x2e build/sam_e70_xplained_ultra/production/_ext/1645245335/tfm.o
 .text.mp_addmod
                0x00000000        0x8 build/sam_e70_xplained_ultra/production/_ext/1645245335/tfm.o
 .text._fp_exptmod
                0x00000000      0x124 build/sam_e70_xplained_ultra/production/_ext/1645245335/tfm.o
 .text.mp_mod   0x00000000        0x8 build/sam_e70_xplained_ultra/production/_ext/1645245335/tfm.o
 .text.mp_div   0x00000000        0x8 build/sam_e70_xplained_ultra/production/_ext/1645245335/tfm.o
 .text.fp_exptmod
                0x00000000       0x62 build/sam_e70_xplained_ultra/production/_ext/1645245335/tfm.o
 .text.mp_exptmod
                0x00000000        0x8 build/sam_e70_xplained_ultra/production/_ext/1645245335/tfm.o
 .text.fp_to_unsigned_bin
                0x00000000       0x28 build/sam_e70_xplained_ultra/production/_ext/1645245335/tfm.o
 .text.mp_to_unsigned_bin
                0x00000000        0xa build/sam_e70_xplained_ultra/production/_ext/1645245335/tfm.o
 .text.mp_copy  0x00000000        0xa build/sam_e70_xplained_ultra/production/_ext/1645245335/tfm.o
 .text.mp_isodd
                0x00000000       0x12 build/sam_e70_xplained_ultra/production/_ext/1645245335/tfm.o
 .text.mp_iszero
                0x00000000        0xa build/sam_e70_xplained_ultra/production/_ext/1645245335/tfm.o
 .text.mp_count_bits
                0x00000000        0x8 build/sam_e70_xplained_ultra/production/_ext/1645245335/tfm.o
 .text.mp_leading_bit
                0x00000000        0x8 build/sam_e70_xplained_ultra/production/_ext/1645245335/tfm.o
 .text.mp_rshb  0x00000000        0x8 build/sam_e70_xplained_ultra/production/_ext/1645245335/tfm.o
 .text.mp_rshd  0x00000000        0x8 build/sam_e70_xplained_ultra/production/_ext/1645245335/tfm.o
 .text.mp_set_int
                0x00000000        0xa build/sam_e70_xplained_ultra/production/_ext/1645245335/tfm.o
 .text.mp_is_bit_set
                0x00000000        0x8 build/sam_e70_xplained_ultra/production/_ext/1645245335/tfm.o
 .text.mp_set_bit
                0x00000000        0x8 build/sam_e70_xplained_ultra/production/_ext/1645245335/tfm.o
 .text.fp_sqrmod
                0x00000000       0x2a build/sam_e70_xplained_ultra/production/_ext/1645245335/tfm.o
 .text.mp_sqrmod
                0x00000000        0x8 build/sam_e70_xplained_ultra/production/_ext/1645245335/tfm.o
 .text.mp_montgomery_calc_normalization
                0x00000000        0xa build/sam_e70_xplained_ultra/production/_ext/1645245335/tfm.o
 .text.fp_add_d
                0x00000000       0x2a build/sam_e70_xplained_ultra/production/_ext/1645245335/tfm.o
 .text.mp_add_d
                0x00000000        0xa build/sam_e70_xplained_ultra/production/_ext/1645245335/tfm.o
 .text.mp_read_radix
                0x00000000       0xa0 build/sam_e70_xplained_ultra/production/_ext/1645245335/tfm.o
 .text.mp_sqr   0x00000000        0xa build/sam_e70_xplained_ultra/production/_ext/1645245335/tfm.o
 .text.mp_montgomery_reduce
                0x00000000        0xa build/sam_e70_xplained_ultra/production/_ext/1645245335/tfm.o
 .text.mp_montgomery_setup
                0x00000000        0x8 build/sam_e70_xplained_ultra/production/_ext/1645245335/tfm.o
 .text.mp_div_2
                0x00000000        0xa build/sam_e70_xplained_ultra/production/_ext/1645245335/tfm.o
 .text.mp_init_copy
                0x00000000        0xa build/sam_e70_xplained_ultra/production/_ext/1645245335/tfm.o
 .text.mp_set   0x00000000        0xa build/sam_e70_xplained_ultra/production/_ext/1645245335/tfm.o
 .text.mp_lshd  0x00000000        0xa build/sam_e70_xplained_ultra/production/_ext/1645245335/tfm.o
 .rodata        0x00000000       0x64 build/sam_e70_xplained_ultra/production/_ext/1645245335/tfm.o
 .debug_info    0x00000000     0x54e4 build/sam_e70_xplained_ultra/production/_ext/1645245335/tfm.o
 .debug_abbrev  0x00000000      0x499 build/sam_e70_xplained_ultra/production/_ext/1645245335/tfm.o
 .debug_loc     0x00000000     0x5614 build/sam_e70_xplained_ultra/production/_ext/1645245335/tfm.o
 .debug_aranges
                0x00000000      0x340 build/sam_e70_xplained_ultra/production/_ext/1645245335/tfm.o
 .debug_ranges  0x00000000      0x3b0 build/sam_e70_xplained_ultra/production/_ext/1645245335/tfm.o
 .debug_line    0x00000000      0xd5b build/sam_e70_xplained_ultra/production/_ext/1645245335/tfm.o
 .debug_str     0x00000000       0x29 build/sam_e70_xplained_ultra/production/_ext/1645245335/tfm.o
 .comment       0x00000000       0x3d build/sam_e70_xplained_ultra/production/_ext/1645245335/tfm.o
 .debug_frame   0x00000000      0xb40 build/sam_e70_xplained_ultra/production/_ext/1645245335/tfm.o
 .ARM.attributes
                0x00000000       0x37 build/sam_e70_xplained_ultra/production/_ext/1645245335/tfm.o
 .text          0x00000000        0x0 build/sam_e70_xplained_ultra/production/_ext/1645245335/wc_encrypt.o
 .data          0x00000000        0x0 build/sam_e70_xplained_ultra/production/_ext/1645245335/wc_encrypt.o
 .bss           0x00000000        0x0 build/sam_e70_xplained_ultra/production/_ext/1645245335/wc_encrypt.o
 .text.wc_AesCbcDecryptWithKey
                0x00000000       0x50 build/sam_e70_xplained_ultra/production/_ext/1645245335/wc_encrypt.o
 .text.wc_AesCbcEncryptWithKey
                0x00000000       0x34 build/sam_e70_xplained_ultra/production/_ext/1645245335/wc_encrypt.o
 .text.wc_Des_CbcEncryptWithKey
                0x00000000       0x30 build/sam_e70_xplained_ultra/production/_ext/1645245335/wc_encrypt.o
 .text.wc_Des_CbcDecryptWithKey
                0x00000000       0x30 build/sam_e70_xplained_ultra/production/_ext/1645245335/wc_encrypt.o
 .text.wc_Des3_CbcEncryptWithKey
                0x00000000       0x30 build/sam_e70_xplained_ultra/production/_ext/1645245335/wc_encrypt.o
 .text.wc_Des3_CbcDecryptWithKey
                0x00000000       0x30 build/sam_e70_xplained_ultra/production/_ext/1645245335/wc_encrypt.o
 .debug_info    0x00000000     0x1f80 build/sam_e70_xplained_ultra/production/_ext/1645245335/wc_encrypt.o
 .debug_abbrev  0x00000000      0x21c build/sam_e70_xplained_ultra/production/_ext/1645245335/wc_encrypt.o
 .debug_loc     0x00000000      0x7f2 build/sam_e70_xplained_ultra/production/_ext/1645245335/wc_encrypt.o
 .debug_aranges
                0x00000000       0x48 build/sam_e70_xplained_ultra/production/_ext/1645245335/wc_encrypt.o
 .debug_ranges  0x00000000       0x38 build/sam_e70_xplained_ultra/production/_ext/1645245335/wc_encrypt.o
 .debug_line    0x00000000      0x21f build/sam_e70_xplained_ultra/production/_ext/1645245335/wc_encrypt.o
 .debug_str     0x00000000       0xa4 build/sam_e70_xplained_ultra/production/_ext/1645245335/wc_encrypt.o
 .comment       0x00000000       0x3d build/sam_e70_xplained_ultra/production/_ext/1645245335/wc_encrypt.o
 .debug_frame   0x00000000      0x104 build/sam_e70_xplained_ultra/production/_ext/1645245335/wc_encrypt.o
 .ARM.attributes
                0x00000000       0x37 build/sam_e70_xplained_ultra/production/_ext/1645245335/wc_encrypt.o
 .text          0x00000000        0x0 build/sam_e70_xplained_ultra/production/_ext/1645245335/wc_port.o
 .data          0x00000000        0x0 build/sam_e70_xplained_ultra/production/_ext/1645245335/wc_port.o
 .bss           0x00000000        0x0 build/sam_e70_xplained_ultra/production/_ext/1645245335/wc_port.o
 .text.wolfCrypt_Init
                0x00000000       0x14 build/sam_e70_xplained_ultra/production/_ext/1645245335/wc_port.o
 .text.wolfCrypt_Cleanup
                0x00000000       0x18 build/sam_e70_xplained_ultra/production/_ext/1645245335/wc_port.o
 .text.wc_InitAndAllocMutex
                0x00000000        0xa build/sam_e70_xplained_ultra/production/_ext/1645245335/wc_port.o
 .text.wc_InitMutex
                0x00000000        0x4 build/sam_e70_xplained_ultra/production/_ext/1645245335/wc_port.o
 .text.wc_FreeMutex
                0x00000000        0x4 build/sam_e70_xplained_ultra/production/_ext/1645245335/wc_port.o
 .text.wc_LockMutex
                0x00000000        0x4 build/sam_e70_xplained_ultra/production/_ext/1645245335/wc_port.o
 .text.wc_UnLockMutex
                0x00000000        0x4 build/sam_e70_xplained_ultra/production/_ext/1645245335/wc_port.o
 .bss.initRefCount
                0x00000000        0x4 build/sam_e70_xplained_ultra/production/_ext/1645245335/wc_port.o
 .debug_info    0x00000000     0x1942 build/sam_e70_xplained_ultra/production/_ext/1645245335/wc_port.o
 .debug_abbrev  0x00000000      0x2c1 build/sam_e70_xplained_ultra/production/_ext/1645245335/wc_port.o
 .debug_loc     0x00000000       0xa4 build/sam_e70_xplained_ultra/production/_ext/1645245335/wc_port.o
 .debug_aranges
                0x00000000       0x50 build/sam_e70_xplained_ultra/production/_ext/1645245335/wc_port.o
 .debug_ranges  0x00000000       0x40 build/sam_e70_xplained_ultra/production/_ext/1645245335/wc_port.o
 .debug_line    0x00000000      0x210 build/sam_e70_xplained_ultra/production/_ext/1645245335/wc_port.o
 .debug_str     0x00000000       0x2a build/sam_e70_xplained_ultra/production/_ext/1645245335/wc_port.o
 .comment       0x00000000       0x3d build/sam_e70_xplained_ultra/production/_ext/1645245335/wc_port.o
 .debug_frame   0x00000000       0x88 build/sam_e70_xplained_ultra/production/_ext/1645245335/wc_port.o
 .ARM.attributes
                0x00000000       0x37 build/sam_e70_xplained_ultra/production/_ext/1645245335/wc_port.o
 .text          0x00000000        0x0 build/sam_e70_xplained_ultra/production/_ext/1645245335/wolfevent.o
 .data          0x00000000        0x0 build/sam_e70_xplained_ultra/production/_ext/1645245335/wolfevent.o
 .bss           0x00000000        0x0 build/sam_e70_xplained_ultra/production/_ext/1645245335/wolfevent.o
 .debug_line    0x00000000        0x0 build/sam_e70_xplained_ultra/production/_ext/1645245335/wolfevent.o
 .debug_str     0x00000000        0x0 build/sam_e70_xplained_ultra/production/_ext/1645245335/wolfevent.o
 .comment       0x00000000       0x3d build/sam_e70_xplained_ultra/production/_ext/1645245335/wolfevent.o
 .ARM.attributes
                0x00000000       0x37 build/sam_e70_xplained_ultra/production/_ext/1645245335/wolfevent.o
 .text          0x00000000        0x0 build/sam_e70_xplained_ultra/production/_ext/1645245335/wolfmath.o
 .data          0x00000000        0x0 build/sam_e70_xplained_ultra/production/_ext/1645245335/wolfmath.o
 .bss           0x00000000        0x0 build/sam_e70_xplained_ultra/production/_ext/1645245335/wolfmath.o
 .text.get_digit_count
                0x00000000        0xa build/sam_e70_xplained_ultra/production/_ext/1645245335/wolfmath.o
 .text.get_digit
                0x00000000       0x1c build/sam_e70_xplained_ultra/production/_ext/1645245335/wolfmath.o
 .text.get_rand_digit
                0x00000000        0xa build/sam_e70_xplained_ultra/production/_ext/1645245335/wolfmath.o
 .rodata.wc_off_on_addr
                0x00000000        0x8 build/sam_e70_xplained_ultra/production/_ext/1645245335/wolfmath.o
 .debug_info    0x00000000     0x1074 build/sam_e70_xplained_ultra/production/_ext/1645245335/wolfmath.o
 .debug_abbrev  0x00000000      0x1f9 build/sam_e70_xplained_ultra/production/_ext/1645245335/wolfmath.o
 .debug_loc     0x00000000      0x11a build/sam_e70_xplained_ultra/production/_ext/1645245335/wolfmath.o
 .debug_aranges
                0x00000000       0x30 build/sam_e70_xplained_ultra/production/_ext/1645245335/wolfmath.o
 .debug_ranges  0x00000000       0x20 build/sam_e70_xplained_ultra/production/_ext/1645245335/wolfmath.o
 .debug_line    0x00000000      0x1bf build/sam_e70_xplained_ultra/production/_ext/1645245335/wolfmath.o
 .debug_str     0x00000000       0x23 build/sam_e70_xplained_ultra/production/_ext/1645245335/wolfmath.o
 .comment       0x00000000       0x3d build/sam_e70_xplained_ultra/production/_ext/1645245335/wolfmath.o
 .debug_frame   0x00000000       0x48 build/sam_e70_xplained_ultra/production/_ext/1645245335/wolfmath.o
 .ARM.attributes
                0x00000000       0x37 build/sam_e70_xplained_ultra/production/_ext/1645245335/wolfmath.o
 .text          0x00000000        0x0 build/sam_e70_xplained_ultra/production/_ext/1645245335/aes_pic32c.o
 .data          0x00000000        0x0 build/sam_e70_xplained_ultra/production/_ext/1645245335/aes_pic32c.o
 .bss           0x00000000        0x0 build/sam_e70_xplained_ultra/production/_ext/1645245335/aes_pic32c.o
 .text.wc_AesSetKeyDirect
                0x00000000       0x10 build/sam_e70_xplained_ultra/production/_ext/1645245335/aes_pic32c.o
 .text.wc_AesEncryptDirect
                0x00000000        0xa build/sam_e70_xplained_ultra/production/_ext/1645245335/aes_pic32c.o
 .text.wc_AesDecryptDirect
                0x00000000        0xa build/sam_e70_xplained_ultra/production/_ext/1645245335/aes_pic32c.o
 .text          0x00000000        0x0 build/sam_e70_xplained_ultra/production/_ext/1645245335/sha_pic32c.o
 .data          0x00000000        0x0 build/sam_e70_xplained_ultra/production/_ext/1645245335/sha_pic32c.o
 .bss           0x00000000        0x0 build/sam_e70_xplained_ultra/production/_ext/1645245335/sha_pic32c.o
 .text          0x00000000        0x0 build/sam_e70_xplained_ultra/production/_ext/1645245335/sha256_pic32c.o
 .data          0x00000000        0x0 build/sam_e70_xplained_ultra/production/_ext/1645245335/sha256_pic32c.o
 .bss           0x00000000        0x0 build/sam_e70_xplained_ultra/production/_ext/1645245335/sha256_pic32c.o
 .text.wc_Sha256Free
                0x00000000        0x2 build/sam_e70_xplained_ultra/production/_ext/1645245335/sha256_pic32c.o
 .text          0x00000000        0x0 build/sam_e70_xplained_ultra/production/_ext/1832805299/sys_console.o
 .data          0x00000000        0x0 build/sam_e70_xplained_ultra/production/_ext/1832805299/sys_console.o
 .bss           0x00000000        0x0 build/sam_e70_xplained_ultra/production/_ext/1832805299/sys_console.o
 .text.SYS_CONSOLE_Deinitialize
                0x00000000       0x30 build/sam_e70_xplained_ultra/production/_ext/1832805299/sys_console.o
 .text.SYS_CONSOLE_Reinitialize
                0x00000000       0x28 build/sam_e70_xplained_ultra/production/_ext/1832805299/sys_console.o
 .text.SYS_CONSOLE_RegisterCallback
                0x00000000       0x20 build/sam_e70_xplained_ultra/production/_ext/1832805299/sys_console.o
 .text.SYS_CONSOLE_Flush
                0x00000000       0x1c build/sam_e70_xplained_ultra/production/_ext/1832805299/sys_console.o
 .text          0x00000000        0x0 build/sam_e70_xplained_ultra/production/_ext/1832805299/sys_console_uart.o
 .data          0x00000000        0x0 build/sam_e70_xplained_ultra/production/_ext/1832805299/sys_console_uart.o
 .bss           0x00000000        0x0 build/sam_e70_xplained_ultra/production/_ext/1832805299/sys_console_uart.o
 .text          0x00000000        0x0 build/sam_e70_xplained_ultra/production/_ext/1832805299/sys_debug.o
 .data          0x00000000        0x0 build/sam_e70_xplained_ultra/production/_ext/1832805299/sys_debug.o
 .bss           0x00000000        0x0 build/sam_e70_xplained_ultra/production/_ext/1832805299/sys_debug.o
 .text.SYS_DEBUG_Reinitialize
                0x00000000       0x20 build/sam_e70_xplained_ultra/production/_ext/1832805299/sys_debug.o
 .text.SYS_DEBUG_Deinitialize
                0x00000000       0x18 build/sam_e70_xplained_ultra/production/_ext/1832805299/sys_debug.o
 .text.SYS_DEBUG_Tasks
                0x00000000        0x2 build/sam_e70_xplained_ultra/production/_ext/1832805299/sys_debug.o
 .text.SYS_DEBUG_Status
                0x00000000        0xc build/sam_e70_xplained_ultra/production/_ext/1832805299/sys_debug.o
 .text.SYS_DEBUG_Message
                0x00000000       0x1c build/sam_e70_xplained_ultra/production/_ext/1832805299/sys_debug.o
 .text.SYS_DEBUG_Print
                0x00000000       0x84 build/sam_e70_xplained_ultra/production/_ext/1832805299/sys_debug.o
 .text.SYS_DEBUG_ErrorLevelSet
                0x00000000        0xc build/sam_e70_xplained_ultra/production/_ext/1832805299/sys_debug.o
 .text.SYS_DEBUG_ErrorLevelGet
                0x00000000        0xc build/sam_e70_xplained_ultra/production/_ext/1832805299/sys_debug.o
 .bss.printBuffer
                0x00000000       0xc8 build/sam_e70_xplained_ultra/production/_ext/1832805299/sys_debug.o
 .bss.tmpBuf    0x00000000       0xc8 build/sam_e70_xplained_ultra/production/_ext/1832805299/sys_debug.o
 .text          0x00000000        0x0 build/sam_e70_xplained_ultra/production/_ext/1832805299/sys_command.o
 .data          0x00000000        0x0 build/sam_e70_xplained_ultra/production/_ext/1832805299/sys_command.o
 .bss           0x00000000        0x0 build/sam_e70_xplained_ultra/production/_ext/1832805299/sys_command.o
 .text.SYS_CMD_ADDGRP
                0x00000000       0x70 build/sam_e70_xplained_ultra/production/_ext/1832805299/sys_command.o
 .text.SYS_CMD_MESSAGE
                0x00000000        0xc build/sam_e70_xplained_ultra/production/_ext/1832805299/sys_command.o
 .text.SYS_CMD_RegisterCallback
                0x00000000       0x2c build/sam_e70_xplained_ultra/production/_ext/1832805299/sys_command.o
 .text.SYS_CMD_READY_TO_WRITE
                0x00000000       0x48 build/sam_e70_xplained_ultra/production/_ext/1832805299/sys_command.o
 .text.SYS_CMD_READY_TO_READ
                0x00000000       0x80 build/sam_e70_xplained_ultra/production/_ext/1832805299/sys_command.o
 .text          0x00000000        0x0 build/sam_e70_xplained_ultra/production/_ext/101884895/sys_time.o
 .data          0x00000000        0x0 build/sam_e70_xplained_ultra/production/_ext/101884895/sys_time.o
 .bss           0x00000000        0x0 build/sam_e70_xplained_ultra/production/_ext/101884895/sys_time.o
 .text.SYS_TMR_Deinitialize
                0x00000000       0x34 build/sam_e70_xplained_ultra/production/_ext/101884895/sys_time.o
 .text.SYS_TIME_Status
                0x00000000       0x14 build/sam_e70_xplained_ultra/production/_ext/101884895/sys_time.o
 .text.SYS_TIME_FrequencyGet
                0x00000000        0xc build/sam_e70_xplained_ultra/production/_ext/101884895/sys_time.o
 .text.SYS_TIME_Counter64Get
                0x00000000       0x30 build/sam_e70_xplained_ultra/production/_ext/101884895/sys_time.o
 .text.SYS_TIME_CounterSet
                0x00000000       0x18 build/sam_e70_xplained_ultra/production/_ext/101884895/sys_time.o
 .text.SYS_TIME_CountToUS
                0x00000000       0x18 build/sam_e70_xplained_ultra/production/_ext/101884895/sys_time.o
 .text.SYS_TIME_CountToMS
                0x00000000       0x18 build/sam_e70_xplained_ultra/production/_ext/101884895/sys_time.o
 .text.SYS_TIME_USToCount
                0x00000000       0x1c build/sam_e70_xplained_ultra/production/_ext/101884895/sys_time.o
 .text.SYS_TIME_MSToCount
                0x00000000       0x1c build/sam_e70_xplained_ultra/production/_ext/101884895/sys_time.o
 .text.SYS_TIME_TimerCreate
                0x00000000       0x98 build/sam_e70_xplained_ultra/production/_ext/101884895/sys_time.o
 .text.SYS_TIME_TimerReload
                0x00000000       0x54 build/sam_e70_xplained_ultra/production/_ext/101884895/sys_time.o
 .text.SYS_TIME_TimerDestroy
                0x00000000       0x5c build/sam_e70_xplained_ultra/production/_ext/101884895/sys_time.o
 .text.SYS_TIME_TimerStart
                0x00000000       0x3c build/sam_e70_xplained_ultra/production/_ext/101884895/sys_time.o
 .text.SYS_TIME_TimerStop
                0x00000000       0x4c build/sam_e70_xplained_ultra/production/_ext/101884895/sys_time.o
 .text.SYS_TIME_TimerCounterGet
                0x00000000        0x4 build/sam_e70_xplained_ultra/production/_ext/101884895/sys_time.o
 .text.SYS_TIME_TimerPeriodHasExpired
                0x00000000       0x28 build/sam_e70_xplained_ultra/production/_ext/101884895/sys_time.o
 .text.SYS_TIME_DelayUS
                0x00000000       0x44 build/sam_e70_xplained_ultra/production/_ext/101884895/sys_time.o
 .text.SYS_TIME_DelayMS
                0x00000000       0x44 build/sam_e70_xplained_ultra/production/_ext/101884895/sys_time.o
 .text.SYS_TIME_DelayIsComplete
                0x00000000       0x18 build/sam_e70_xplained_ultra/production/_ext/101884895/sys_time.o
 .text.SYS_TIME_CallbackRegisterUS
                0x00000000       0x3c build/sam_e70_xplained_ultra/production/_ext/101884895/sys_time.o
 .text.SYS_TIME_CallbackRegisterMS
                0x00000000       0x3c build/sam_e70_xplained_ultra/production/_ext/101884895/sys_time.o
 .bss.gSysTimeTokenCount
                0x00000000        0x2 build/sam_e70_xplained_ultra/production/_ext/101884895/sys_time.o
 .text          0x00000000        0x0 build/sam_e70_xplained_ultra/production/_ext/829342655/plib_tc1.o
 .data          0x00000000        0x0 build/sam_e70_xplained_ultra/production/_ext/829342655/plib_tc1.o
 .bss           0x00000000        0x0 build/sam_e70_xplained_ultra/production/_ext/829342655/plib_tc1.o
 .text.TC1_CH0_TimerPeriodGet
                0x00000000        0xc build/sam_e70_xplained_ultra/production/_ext/829342655/plib_tc1.o
 .text.TC1_CH0_TimerPeriodHasExpired
                0x00000000       0x3c build/sam_e70_xplained_ultra/production/_ext/829342655/plib_tc1.o
 .text          0x00000000        0x0 build/sam_e70_xplained_ultra/production/_ext/2001315827/plib_usart1.o
 .data          0x00000000        0x0 build/sam_e70_xplained_ultra/production/_ext/2001315827/plib_usart1.o
 .bss           0x00000000        0x0 build/sam_e70_xplained_ultra/production/_ext/2001315827/plib_usart1.o
 .text.USART1_SerialSetup
                0x00000000       0xd4 build/sam_e70_xplained_ultra/production/_ext/2001315827/plib_usart1.o
 .text.USART1_WriteIsBusy
                0x00000000        0xc build/sam_e70_xplained_ultra/production/_ext/2001315827/plib_usart1.o
 .text.USART1_ReadIsBusy
                0x00000000        0xc build/sam_e70_xplained_ultra/production/_ext/2001315827/plib_usart1.o
 .text.USART1_WriteCountGet
                0x00000000        0xc build/sam_e70_xplained_ultra/production/_ext/2001315827/plib_usart1.o
 .text          0x00000000        0x0 c:/program files (x86)/microchip/xc32/v2.10/bin/bin/../../lib/gcc/pic32c/6.2.1/../../../../pic32c/lib/v7e-m/fpv5/hard\libpic32c.a(data_init.o)
 .data          0x00000000        0x0 c:/program files (x86)/microchip/xc32/v2.10/bin/bin/../../lib/gcc/pic32c/6.2.1/../../../../pic32c/lib/v7e-m/fpv5/hard\libpic32c.a(data_init.o)
 .bss           0x00000000        0x0 c:/program files (x86)/microchip/xc32/v2.10/bin/bin/../../lib/gcc/pic32c/6.2.1/../../../../pic32c/lib/v7e-m/fpv5/hard\libpic32c.a(data_init.o)
 .data          0x00000000        0x0 c:/program files (x86)/microchip/xc32/v2.10/bin/bin/../../lib/gcc/pic32c/6.2.1/v7e-m/fpv5/hard\libgcc.a(_aeabi_uldivmod.o)
 .bss           0x00000000        0x0 c:/program files (x86)/microchip/xc32/v2.10/bin/bin/../../lib/gcc/pic32c/6.2.1/v7e-m/fpv5/hard\libgcc.a(_aeabi_uldivmod.o)
 .data          0x00000000        0x0 c:/program files (x86)/microchip/xc32/v2.10/bin/bin/../../lib/gcc/pic32c/6.2.1/v7e-m/fpv5/hard\libgcc.a(_udivmoddi4.o)
 .bss           0x00000000        0x0 c:/program files (x86)/microchip/xc32/v2.10/bin/bin/../../lib/gcc/pic32c/6.2.1/v7e-m/fpv5/hard\libgcc.a(_udivmoddi4.o)
 .ARM.extab     0x00000000        0x0 c:/program files (x86)/microchip/xc32/v2.10/bin/bin/../../lib/gcc/pic32c/6.2.1/v7e-m/fpv5/hard\libgcc.a(_udivmoddi4.o)
 .data          0x00000000        0x0 c:/program files (x86)/microchip/xc32/v2.10/bin/bin/../../lib/gcc/pic32c/6.2.1/v7e-m/fpv5/hard\libgcc.a(_dvmd_tls.o)
 .bss           0x00000000        0x0 c:/program files (x86)/microchip/xc32/v2.10/bin/bin/../../lib/gcc/pic32c/6.2.1/v7e-m/fpv5/hard\libgcc.a(_dvmd_tls.o)
 .text          0x00000000        0x0 c:/program files (x86)/microchip/xc32/v2.10/bin/bin/../../lib/gcc/pic32c/6.2.1/../../../../pic32c/lib/v7e-m/fpv5/hard\libc.a(lib_a-exit.o)
 .data          0x00000000        0x0 c:/program files (x86)/microchip/xc32/v2.10/bin/bin/../../lib/gcc/pic32c/6.2.1/../../../../pic32c/lib/v7e-m/fpv5/hard\libc.a(lib_a-exit.o)
 .bss           0x00000000        0x0 c:/program files (x86)/microchip/xc32/v2.10/bin/bin/../../lib/gcc/pic32c/6.2.1/../../../../pic32c/lib/v7e-m/fpv5/hard\libc.a(lib_a-exit.o)
 .text.exit     0x00000000       0x20 c:/program files (x86)/microchip/xc32/v2.10/bin/bin/../../lib/gcc/pic32c/6.2.1/../../../../pic32c/lib/v7e-m/fpv5/hard\libc.a(lib_a-exit.o)
 .debug_info    0x00000000      0xeaa c:/program files (x86)/microchip/xc32/v2.10/bin/bin/../../lib/gcc/pic32c/6.2.1/../../../../pic32c/lib/v7e-m/fpv5/hard\libc.a(lib_a-exit.o)
 .debug_abbrev  0x00000000      0x1e9 c:/program files (x86)/microchip/xc32/v2.10/bin/bin/../../lib/gcc/pic32c/6.2.1/../../../../pic32c/lib/v7e-m/fpv5/hard\libc.a(lib_a-exit.o)
 .debug_loc     0x00000000       0x3e c:/program files (x86)/microchip/xc32/v2.10/bin/bin/../../lib/gcc/pic32c/6.2.1/../../../../pic32c/lib/v7e-m/fpv5/hard\libc.a(lib_a-exit.o)
 .debug_aranges
                0x00000000       0x20 c:/program files (x86)/microchip/xc32/v2.10/bin/bin/../../lib/gcc/pic32c/6.2.1/../../../../pic32c/lib/v7e-m/fpv5/hard\libc.a(lib_a-exit.o)
 .debug_ranges  0x00000000       0x10 c:/program files (x86)/microchip/xc32/v2.10/bin/bin/../../lib/gcc/pic32c/6.2.1/../../../../pic32c/lib/v7e-m/fpv5/hard\libc.a(lib_a-exit.o)
 .debug_line    0x00000000      0x23c c:/program files (x86)/microchip/xc32/v2.10/bin/bin/../../lib/gcc/pic32c/6.2.1/../../../../pic32c/lib/v7e-m/fpv5/hard\libc.a(lib_a-exit.o)
 .debug_str     0x00000000       0x1f c:/program files (x86)/microchip/xc32/v2.10/bin/bin/../../lib/gcc/pic32c/6.2.1/../../../../pic32c/lib/v7e-m/fpv5/hard\libc.a(lib_a-exit.o)
 .comment       0x00000000       0x3d c:/program files (x86)/microchip/xc32/v2.10/bin/bin/../../lib/gcc/pic32c/6.2.1/../../../../pic32c/lib/v7e-m/fpv5/hard\libc.a(lib_a-exit.o)
 .debug_frame   0x00000000       0x28 c:/program files (x86)/microchip/xc32/v2.10/bin/bin/../../lib/gcc/pic32c/6.2.1/../../../../pic32c/lib/v7e-m/fpv5/hard\libc.a(lib_a-exit.o)
 .ARM.attributes
                0x00000000       0x32 c:/program files (x86)/microchip/xc32/v2.10/bin/bin/../../lib/gcc/pic32c/6.2.1/../../../../pic32c/lib/v7e-m/fpv5/hard\libc.a(lib_a-exit.o)
 .text          0x00000000        0x0 c:/program files (x86)/microchip/xc32/v2.10/bin/bin/../../lib/gcc/pic32c/6.2.1/../../../../pic32c/lib/v7e-m/fpv5/hard\libc.a(lib_a-gmtime.o)
 .data          0x00000000        0x0 c:/program files (x86)/microchip/xc32/v2.10/bin/bin/../../lib/gcc/pic32c/6.2.1/../../../../pic32c/lib/v7e-m/fpv5/hard\libc.a(lib_a-gmtime.o)
 .bss           0x00000000        0x0 c:/program files (x86)/microchip/xc32/v2.10/bin/bin/../../lib/gcc/pic32c/6.2.1/../../../../pic32c/lib/v7e-m/fpv5/hard\libc.a(lib_a-gmtime.o)
 .text.gmtime   0x00000000       0x10 c:/program files (x86)/microchip/xc32/v2.10/bin/bin/../../lib/gcc/pic32c/6.2.1/../../../../pic32c/lib/v7e-m/fpv5/hard\libc.a(lib_a-gmtime.o)
 .debug_info    0x00000000      0xf41 c:/program files (x86)/microchip/xc32/v2.10/bin/bin/../../lib/gcc/pic32c/6.2.1/../../../../pic32c/lib/v7e-m/fpv5/hard\libc.a(lib_a-gmtime.o)
 .debug_abbrev  0x00000000      0x1db c:/program files (x86)/microchip/xc32/v2.10/bin/bin/../../lib/gcc/pic32c/6.2.1/../../../../pic32c/lib/v7e-m/fpv5/hard\libc.a(lib_a-gmtime.o)
 .debug_loc     0x00000000       0x35 c:/program files (x86)/microchip/xc32/v2.10/bin/bin/../../lib/gcc/pic32c/6.2.1/../../../../pic32c/lib/v7e-m/fpv5/hard\libc.a(lib_a-gmtime.o)
 .debug_aranges
                0x00000000       0x20 c:/program files (x86)/microchip/xc32/v2.10/bin/bin/../../lib/gcc/pic32c/6.2.1/../../../../pic32c/lib/v7e-m/fpv5/hard\libc.a(lib_a-gmtime.o)
 .debug_ranges  0x00000000       0x10 c:/program files (x86)/microchip/xc32/v2.10/bin/bin/../../lib/gcc/pic32c/6.2.1/../../../../pic32c/lib/v7e-m/fpv5/hard\libc.a(lib_a-gmtime.o)
 .debug_line    0x00000000      0x236 c:/program files (x86)/microchip/xc32/v2.10/bin/bin/../../lib/gcc/pic32c/6.2.1/../../../../pic32c/lib/v7e-m/fpv5/hard\libc.a(lib_a-gmtime.o)
 .debug_str     0x00000000       0x17 c:/program files (x86)/microchip/xc32/v2.10/bin/bin/../../lib/gcc/pic32c/6.2.1/../../../../pic32c/lib/v7e-m/fpv5/hard\libc.a(lib_a-gmtime.o)
 .comment       0x00000000       0x3d c:/program files (x86)/microchip/xc32/v2.10/bin/bin/../../lib/gcc/pic32c/6.2.1/../../../../pic32c/lib/v7e-m/fpv5/hard\libc.a(lib_a-gmtime.o)
 .debug_frame   0x00000000       0x20 c:/program files (x86)/microchip/xc32/v2.10/bin/bin/../../lib/gcc/pic32c/6.2.1/../../../../pic32c/lib/v7e-m/fpv5/hard\libc.a(lib_a-gmtime.o)
 .ARM.attributes
                0x00000000       0x32 c:/program files (x86)/microchip/xc32/v2.10/bin/bin/../../lib/gcc/pic32c/6.2.1/../../../../pic32c/lib/v7e-m/fpv5/hard\libc.a(lib_a-gmtime.o)
 .text          0x00000000        0x0 c:/program files (x86)/microchip/xc32/v2.10/bin/bin/../../lib/gcc/pic32c/6.2.1/../../../../pic32c/lib/v7e-m/fpv5/hard\libc.a(lib_a-gmtime_r.o)
 .data          0x00000000        0x0 c:/program files (x86)/microchip/xc32/v2.10/bin/bin/../../lib/gcc/pic32c/6.2.1/../../../../pic32c/lib/v7e-m/fpv5/hard\libc.a(lib_a-gmtime_r.o)
 .bss           0x00000000        0x0 c:/program files (x86)/microchip/xc32/v2.10/bin/bin/../../lib/gcc/pic32c/6.2.1/../../../../pic32c/lib/v7e-m/fpv5/hard\libc.a(lib_a-gmtime_r.o)
 .text.gmtime_r
                0x00000000      0x1d4 c:/program files (x86)/microchip/xc32/v2.10/bin/bin/../../lib/gcc/pic32c/6.2.1/../../../../pic32c/lib/v7e-m/fpv5/hard\libc.a(lib_a-gmtime_r.o)
 .debug_info    0x00000000     0x1072 c:/program files (x86)/microchip/xc32/v2.10/bin/bin/../../lib/gcc/pic32c/6.2.1/../../../../pic32c/lib/v7e-m/fpv5/hard\libc.a(lib_a-gmtime_r.o)
 .debug_abbrev  0x00000000      0x1cd c:/program files (x86)/microchip/xc32/v2.10/bin/bin/../../lib/gcc/pic32c/6.2.1/../../../../pic32c/lib/v7e-m/fpv5/hard\libc.a(lib_a-gmtime_r.o)
 .debug_loc     0x00000000      0x1e1 c:/program files (x86)/microchip/xc32/v2.10/bin/bin/../../lib/gcc/pic32c/6.2.1/../../../../pic32c/lib/v7e-m/fpv5/hard\libc.a(lib_a-gmtime_r.o)
 .debug_aranges
                0x00000000       0x20 c:/program files (x86)/microchip/xc32/v2.10/bin/bin/../../lib/gcc/pic32c/6.2.1/../../../../pic32c/lib/v7e-m/fpv5/hard\libc.a(lib_a-gmtime_r.o)
 .debug_ranges  0x00000000       0x10 c:/program files (x86)/microchip/xc32/v2.10/bin/bin/../../lib/gcc/pic32c/6.2.1/../../../../pic32c/lib/v7e-m/fpv5/hard\libc.a(lib_a-gmtime_r.o)
 .debug_line    0x00000000      0x2c7 c:/program files (x86)/microchip/xc32/v2.10/bin/bin/../../lib/gcc/pic32c/6.2.1/../../../../pic32c/lib/v7e-m/fpv5/hard\libc.a(lib_a-gmtime_r.o)
 .debug_str     0x00000000        0xe c:/program files (x86)/microchip/xc32/v2.10/bin/bin/../../lib/gcc/pic32c/6.2.1/../../../../pic32c/lib/v7e-m/fpv5/hard\libc.a(lib_a-gmtime_r.o)
 .comment       0x00000000       0x3d c:/program files (x86)/microchip/xc32/v2.10/bin/bin/../../lib/gcc/pic32c/6.2.1/../../../../pic32c/lib/v7e-m/fpv5/hard\libc.a(lib_a-gmtime_r.o)
 .debug_frame   0x00000000       0x34 c:/program files (x86)/microchip/xc32/v2.10/bin/bin/../../lib/gcc/pic32c/6.2.1/../../../../pic32c/lib/v7e-m/fpv5/hard\libc.a(lib_a-gmtime_r.o)
 .ARM.attributes
                0x00000000       0x32 c:/program files (x86)/microchip/xc32/v2.10/bin/bin/../../lib/gcc/pic32c/6.2.1/../../../../pic32c/lib/v7e-m/fpv5/hard\libc.a(lib_a-gmtime_r.o)
 .text          0x00000000        0x0 c:/program files (x86)/microchip/xc32/v2.10/bin/bin/../../lib/gcc/pic32c/6.2.1/../../../../pic32c/lib/v7e-m/fpv5/hard\libc.a(lib_a-impure.o)
 .data          0x00000000        0x0 c:/program files (x86)/microchip/xc32/v2.10/bin/bin/../../lib/gcc/pic32c/6.2.1/../../../../pic32c/lib/v7e-m/fpv5/hard\libc.a(lib_a-impure.o)
 .bss           0x00000000        0x0 c:/program files (x86)/microchip/xc32/v2.10/bin/bin/../../lib/gcc/pic32c/6.2.1/../../../../pic32c/lib/v7e-m/fpv5/hard\libc.a(lib_a-impure.o)
 .text          0x00000000        0x0 c:/program files (x86)/microchip/xc32/v2.10/bin/bin/../../lib/gcc/pic32c/6.2.1/../../../../pic32c/lib/v7e-m/fpv5/hard\libc.a(lib_a-init.o)
 .data          0x00000000        0x0 c:/program files (x86)/microchip/xc32/v2.10/bin/bin/../../lib/gcc/pic32c/6.2.1/../../../../pic32c/lib/v7e-m/fpv5/hard\libc.a(lib_a-init.o)
 .bss           0x00000000        0x0 c:/program files (x86)/microchip/xc32/v2.10/bin/bin/../../lib/gcc/pic32c/6.2.1/../../../../pic32c/lib/v7e-m/fpv5/hard\libc.a(lib_a-init.o)
 .text          0x00000000        0x0 c:/program files (x86)/microchip/xc32/v2.10/bin/bin/../../lib/gcc/pic32c/6.2.1/../../../../pic32c/lib/v7e-m/fpv5/hard\libc.a(lib_a-locale.o)
 .data          0x00000000        0x0 c:/program files (x86)/microchip/xc32/v2.10/bin/bin/../../lib/gcc/pic32c/6.2.1/../../../../pic32c/lib/v7e-m/fpv5/hard\libc.a(lib_a-locale.o)
 .bss           0x00000000        0x0 c:/program files (x86)/microchip/xc32/v2.10/bin/bin/../../lib/gcc/pic32c/6.2.1/../../../../pic32c/lib/v7e-m/fpv5/hard\libc.a(lib_a-locale.o)
 .text._setlocale_r
                0x00000000       0x40 c:/program files (x86)/microchip/xc32/v2.10/bin/bin/../../lib/gcc/pic32c/6.2.1/../../../../pic32c/lib/v7e-m/fpv5/hard\libc.a(lib_a-locale.o)
 .text.__locale_mb_cur_max
                0x00000000       0x1c c:/program files (x86)/microchip/xc32/v2.10/bin/bin/../../lib/gcc/pic32c/6.2.1/../../../../pic32c/lib/v7e-m/fpv5/hard\libc.a(lib_a-locale.o)
 .text.__locale_ctype_ptr_l
                0x00000000        0x8 c:/program files (x86)/microchip/xc32/v2.10/bin/bin/../../lib/gcc/pic32c/6.2.1/../../../../pic32c/lib/v7e-m/fpv5/hard\libc.a(lib_a-locale.o)
 .text.__locale_ctype_ptr
                0x00000000       0x1c c:/program files (x86)/microchip/xc32/v2.10/bin/bin/../../lib/gcc/pic32c/6.2.1/../../../../pic32c/lib/v7e-m/fpv5/hard\libc.a(lib_a-locale.o)
 .text.setlocale
                0x00000000       0x10 c:/program files (x86)/microchip/xc32/v2.10/bin/bin/../../lib/gcc/pic32c/6.2.1/../../../../pic32c/lib/v7e-m/fpv5/hard\libc.a(lib_a-locale.o)
 .bss._PathLocale
                0x00000000        0x4 c:/program files (x86)/microchip/xc32/v2.10/bin/bin/../../lib/gcc/pic32c/6.2.1/../../../../pic32c/lib/v7e-m/fpv5/hard\libc.a(lib_a-locale.o)
 .text          0x00000000        0x0 c:/program files (x86)/microchip/xc32/v2.10/bin/bin/../../lib/gcc/pic32c/6.2.1/../../../../pic32c/lib/v7e-m/fpv5/hard\libc.a(lib_a-malloc.o)
 .data          0x00000000        0x0 c:/program files (x86)/microchip/xc32/v2.10/bin/bin/../../lib/gcc/pic32c/6.2.1/../../../../pic32c/lib/v7e-m/fpv5/hard\libc.a(lib_a-malloc.o)
 .bss           0x00000000        0x0 c:/program files (x86)/microchip/xc32/v2.10/bin/bin/../../lib/gcc/pic32c/6.2.1/../../../../pic32c/lib/v7e-m/fpv5/hard\libc.a(lib_a-malloc.o)
 .text          0x00000000        0x0 c:/program files (x86)/microchip/xc32/v2.10/bin/bin/../../lib/gcc/pic32c/6.2.1/../../../../pic32c/lib/v7e-m/fpv5/hard\libc.a(lib_a-mallocr.o)
 .data          0x00000000        0x0 c:/program files (x86)/microchip/xc32/v2.10/bin/bin/../../lib/gcc/pic32c/6.2.1/../../../../pic32c/lib/v7e-m/fpv5/hard\libc.a(lib_a-mallocr.o)
 .bss           0x00000000        0x0 c:/program files (x86)/microchip/xc32/v2.10/bin/bin/../../lib/gcc/pic32c/6.2.1/../../../../pic32c/lib/v7e-m/fpv5/hard\libc.a(lib_a-mallocr.o)
 .text          0x00000000        0x0 c:/program files (x86)/microchip/xc32/v2.10/bin/bin/../../lib/gcc/pic32c/6.2.1/../../../../pic32c/lib/v7e-m/fpv5/hard\libc.a(lib_a-mbtowc_r.o)
 .data          0x00000000        0x0 c:/program files (x86)/microchip/xc32/v2.10/bin/bin/../../lib/gcc/pic32c/6.2.1/../../../../pic32c/lib/v7e-m/fpv5/hard\libc.a(lib_a-mbtowc_r.o)
 .bss           0x00000000        0x0 c:/program files (x86)/microchip/xc32/v2.10/bin/bin/../../lib/gcc/pic32c/6.2.1/../../../../pic32c/lib/v7e-m/fpv5/hard\libc.a(lib_a-mbtowc_r.o)
 .text._mbtowc_r
                0x00000000       0x24 c:/program files (x86)/microchip/xc32/v2.10/bin/bin/../../lib/gcc/pic32c/6.2.1/../../../../pic32c/lib/v7e-m/fpv5/hard\libc.a(lib_a-mbtowc_r.o)
 .text          0x00000000        0x0 c:/program files (x86)/microchip/xc32/v2.10/bin/bin/../../lib/gcc/pic32c/6.2.1/../../../../pic32c/lib/v7e-m/fpv5/hard\libc.a(lib_a-memcmp.o)
 .data          0x00000000        0x0 c:/program files (x86)/microchip/xc32/v2.10/bin/bin/../../lib/gcc/pic32c/6.2.1/../../../../pic32c/lib/v7e-m/fpv5/hard\libc.a(lib_a-memcmp.o)
 .bss           0x00000000        0x0 c:/program files (x86)/microchip/xc32/v2.10/bin/bin/../../lib/gcc/pic32c/6.2.1/../../../../pic32c/lib/v7e-m/fpv5/hard\libc.a(lib_a-memcmp.o)
 .data          0x00000000        0x0 c:/program files (x86)/microchip/xc32/v2.10/bin/bin/../../lib/gcc/pic32c/6.2.1/../../../../pic32c/lib/v7e-m/fpv5/hard\libc.a(lib_a-memcpy.o)
 .bss           0x00000000        0x0 c:/program files (x86)/microchip/xc32/v2.10/bin/bin/../../lib/gcc/pic32c/6.2.1/../../../../pic32c/lib/v7e-m/fpv5/hard\libc.a(lib_a-memcpy.o)
 .text          0x00000000        0x0 c:/program files (x86)/microchip/xc32/v2.10/bin/bin/../../lib/gcc/pic32c/6.2.1/../../../../pic32c/lib/v7e-m/fpv5/hard\libc.a(lib_a-memmove.o)
 .data          0x00000000        0x0 c:/program files (x86)/microchip/xc32/v2.10/bin/bin/../../lib/gcc/pic32c/6.2.1/../../../../pic32c/lib/v7e-m/fpv5/hard\libc.a(lib_a-memmove.o)
 .bss           0x00000000        0x0 c:/program files (x86)/microchip/xc32/v2.10/bin/bin/../../lib/gcc/pic32c/6.2.1/../../../../pic32c/lib/v7e-m/fpv5/hard\libc.a(lib_a-memmove.o)
 .text          0x00000000        0x0 c:/program files (x86)/microchip/xc32/v2.10/bin/bin/../../lib/gcc/pic32c/6.2.1/../../../../pic32c/lib/v7e-m/fpv5/hard\libc.a(lib_a-memset.o)
 .data          0x00000000        0x0 c:/program files (x86)/microchip/xc32/v2.10/bin/bin/../../lib/gcc/pic32c/6.2.1/../../../../pic32c/lib/v7e-m/fpv5/hard\libc.a(lib_a-memset.o)
 .bss           0x00000000        0x0 c:/program files (x86)/microchip/xc32/v2.10/bin/bin/../../lib/gcc/pic32c/6.2.1/../../../../pic32c/lib/v7e-m/fpv5/hard\libc.a(lib_a-memset.o)
 .text          0x00000000        0x0 c:/program files (x86)/microchip/xc32/v2.10/bin/bin/../../lib/gcc/pic32c/6.2.1/../../../../pic32c/lib/v7e-m/fpv5/hard\libc.a(lib_a-mlock.o)
 .data          0x00000000        0x0 c:/program files (x86)/microchip/xc32/v2.10/bin/bin/../../lib/gcc/pic32c/6.2.1/../../../../pic32c/lib/v7e-m/fpv5/hard\libc.a(lib_a-mlock.o)
 .bss           0x00000000        0x0 c:/program files (x86)/microchip/xc32/v2.10/bin/bin/../../lib/gcc/pic32c/6.2.1/../../../../pic32c/lib/v7e-m/fpv5/hard\libc.a(lib_a-mlock.o)
 .text          0x00000000        0x0 c:/program files (x86)/microchip/xc32/v2.10/bin/bin/../../lib/gcc/pic32c/6.2.1/../../../../pic32c/lib/v7e-m/fpv5/hard\libc.a(lib_a-realloc.o)
 .data          0x00000000        0x0 c:/program files (x86)/microchip/xc32/v2.10/bin/bin/../../lib/gcc/pic32c/6.2.1/../../../../pic32c/lib/v7e-m/fpv5/hard\libc.a(lib_a-realloc.o)
 .bss           0x00000000        0x0 c:/program files (x86)/microchip/xc32/v2.10/bin/bin/../../lib/gcc/pic32c/6.2.1/../../../../pic32c/lib/v7e-m/fpv5/hard\libc.a(lib_a-realloc.o)
 .text.realloc  0x00000000       0x10 c:/program files (x86)/microchip/xc32/v2.10/bin/bin/../../lib/gcc/pic32c/6.2.1/../../../../pic32c/lib/v7e-m/fpv5/hard\libc.a(lib_a-realloc.o)
 .debug_info    0x00000000      0xe46 c:/program files (x86)/microchip/xc32/v2.10/bin/bin/../../lib/gcc/pic32c/6.2.1/../../../../pic32c/lib/v7e-m/fpv5/hard\libc.a(lib_a-realloc.o)
 .debug_abbrev  0x00000000      0x1cc c:/program files (x86)/microchip/xc32/v2.10/bin/bin/../../lib/gcc/pic32c/6.2.1/../../../../pic32c/lib/v7e-m/fpv5/hard\libc.a(lib_a-realloc.o)
 .debug_loc     0x00000000       0x58 c:/program files (x86)/microchip/xc32/v2.10/bin/bin/../../lib/gcc/pic32c/6.2.1/../../../../pic32c/lib/v7e-m/fpv5/hard\libc.a(lib_a-realloc.o)
 .debug_aranges
                0x00000000       0x20 c:/program files (x86)/microchip/xc32/v2.10/bin/bin/../../lib/gcc/pic32c/6.2.1/../../../../pic32c/lib/v7e-m/fpv5/hard\libc.a(lib_a-realloc.o)
 .debug_ranges  0x00000000       0x10 c:/program files (x86)/microchip/xc32/v2.10/bin/bin/../../lib/gcc/pic32c/6.2.1/../../../../pic32c/lib/v7e-m/fpv5/hard\libc.a(lib_a-realloc.o)
 .debug_line    0x00000000      0x22c c:/program files (x86)/microchip/xc32/v2.10/bin/bin/../../lib/gcc/pic32c/6.2.1/../../../../pic32c/lib/v7e-m/fpv5/hard\libc.a(lib_a-realloc.o)
 .debug_str     0x00000000       0x19 c:/program files (x86)/microchip/xc32/v2.10/bin/bin/../../lib/gcc/pic32c/6.2.1/../../../../pic32c/lib/v7e-m/fpv5/hard\libc.a(lib_a-realloc.o)
 .comment       0x00000000       0x3d c:/program files (x86)/microchip/xc32/v2.10/bin/bin/../../lib/gcc/pic32c/6.2.1/../../../../pic32c/lib/v7e-m/fpv5/hard\libc.a(lib_a-realloc.o)
 .debug_frame   0x00000000       0x20 c:/program files (x86)/microchip/xc32/v2.10/bin/bin/../../lib/gcc/pic32c/6.2.1/../../../../pic32c/lib/v7e-m/fpv5/hard\libc.a(lib_a-realloc.o)
 .ARM.attributes
                0x00000000       0x32 c:/program files (x86)/microchip/xc32/v2.10/bin/bin/../../lib/gcc/pic32c/6.2.1/../../../../pic32c/lib/v7e-m/fpv5/hard\libc.a(lib_a-realloc.o)
 .text          0x00000000        0x0 c:/program files (x86)/microchip/xc32/v2.10/bin/bin/../../lib/gcc/pic32c/6.2.1/../../../../pic32c/lib/v7e-m/fpv5/hard\libc.a(lib_a-reallocr.o)
 .data          0x00000000        0x0 c:/program files (x86)/microchip/xc32/v2.10/bin/bin/../../lib/gcc/pic32c/6.2.1/../../../../pic32c/lib/v7e-m/fpv5/hard\libc.a(lib_a-reallocr.o)
 .bss           0x00000000        0x0 c:/program files (x86)/microchip/xc32/v2.10/bin/bin/../../lib/gcc/pic32c/6.2.1/../../../../pic32c/lib/v7e-m/fpv5/hard\libc.a(lib_a-reallocr.o)
 .text          0x00000000        0x0 c:/program files (x86)/microchip/xc32/v2.10/bin/bin/../../lib/gcc/pic32c/6.2.1/../../../../pic32c/lib/v7e-m/fpv5/hard\libc.a(lib_a-sbrkr.o)
 .data          0x00000000        0x0 c:/program files (x86)/microchip/xc32/v2.10/bin/bin/../../lib/gcc/pic32c/6.2.1/../../../../pic32c/lib/v7e-m/fpv5/hard\libc.a(lib_a-sbrkr.o)
 .bss           0x00000000        0x0 c:/program files (x86)/microchip/xc32/v2.10/bin/bin/../../lib/gcc/pic32c/6.2.1/../../../../pic32c/lib/v7e-m/fpv5/hard\libc.a(lib_a-sbrkr.o)
 .text          0x00000000        0x0 c:/program files (x86)/microchip/xc32/v2.10/bin/bin/../../lib/gcc/pic32c/6.2.1/../../../../pic32c/lib/v7e-m/fpv5/hard\libc.a(lib_a-sprintf.o)
 .data          0x00000000        0x0 c:/program files (x86)/microchip/xc32/v2.10/bin/bin/../../lib/gcc/pic32c/6.2.1/../../../../pic32c/lib/v7e-m/fpv5/hard\libc.a(lib_a-sprintf.o)
 .bss           0x00000000        0x0 c:/program files (x86)/microchip/xc32/v2.10/bin/bin/../../lib/gcc/pic32c/6.2.1/../../../../pic32c/lib/v7e-m/fpv5/hard\libc.a(lib_a-sprintf.o)
 .text._sprintf_r
                0x00000000       0x44 c:/program files (x86)/microchip/xc32/v2.10/bin/bin/../../lib/gcc/pic32c/6.2.1/../../../../pic32c/lib/v7e-m/fpv5/hard\libc.a(lib_a-sprintf.o)
 .data          0x00000000        0x0 c:/program files (x86)/microchip/xc32/v2.10/bin/bin/../../lib/gcc/pic32c/6.2.1/../../../../pic32c/lib/v7e-m/fpv5/hard\libc.a(lib_a-strcmp.o)
 .bss           0x00000000        0x0 c:/program files (x86)/microchip/xc32/v2.10/bin/bin/../../lib/gcc/pic32c/6.2.1/../../../../pic32c/lib/v7e-m/fpv5/hard\libc.a(lib_a-strcmp.o)
 .text          0x00000000        0x0 c:/program files (x86)/microchip/xc32/v2.10/bin/bin/../../lib/gcc/pic32c/6.2.1/../../../../pic32c/lib/v7e-m/fpv5/hard\libc.a(lib_a-strcpy.o)
 .data          0x00000000        0x0 c:/program files (x86)/microchip/xc32/v2.10/bin/bin/../../lib/gcc/pic32c/6.2.1/../../../../pic32c/lib/v7e-m/fpv5/hard\libc.a(lib_a-strcpy.o)
 .bss           0x00000000        0x0 c:/program files (x86)/microchip/xc32/v2.10/bin/bin/../../lib/gcc/pic32c/6.2.1/../../../../pic32c/lib/v7e-m/fpv5/hard\libc.a(lib_a-strcpy.o)
 .data          0x00000000        0x0 c:/program files (x86)/microchip/xc32/v2.10/bin/bin/../../lib/gcc/pic32c/6.2.1/../../../../pic32c/lib/v7e-m/fpv5/hard\libc.a(lib_a-strlen.o)
 .bss           0x00000000        0x0 c:/program files (x86)/microchip/xc32/v2.10/bin/bin/../../lib/gcc/pic32c/6.2.1/../../../../pic32c/lib/v7e-m/fpv5/hard\libc.a(lib_a-strlen.o)
 .text          0x00000000        0x0 c:/program files (x86)/microchip/xc32/v2.10/bin/bin/../../lib/gcc/pic32c/6.2.1/../../../../pic32c/lib/v7e-m/fpv5/hard\libc.a(lib_a-strncasecmp.o)
 .data          0x00000000        0x0 c:/program files (x86)/microchip/xc32/v2.10/bin/bin/../../lib/gcc/pic32c/6.2.1/../../../../pic32c/lib/v7e-m/fpv5/hard\libc.a(lib_a-strncasecmp.o)
 .bss           0x00000000        0x0 c:/program files (x86)/microchip/xc32/v2.10/bin/bin/../../lib/gcc/pic32c/6.2.1/../../../../pic32c/lib/v7e-m/fpv5/hard\libc.a(lib_a-strncasecmp.o)
 .text.strncasecmp
                0x00000000       0x60 c:/program files (x86)/microchip/xc32/v2.10/bin/bin/../../lib/gcc/pic32c/6.2.1/../../../../pic32c/lib/v7e-m/fpv5/hard\libc.a(lib_a-strncasecmp.o)
 .debug_info    0x00000000      0xec9 c:/program files (x86)/microchip/xc32/v2.10/bin/bin/../../lib/gcc/pic32c/6.2.1/../../../../pic32c/lib/v7e-m/fpv5/hard\libc.a(lib_a-strncasecmp.o)
 .debug_abbrev  0x00000000      0x1ec c:/program files (x86)/microchip/xc32/v2.10/bin/bin/../../lib/gcc/pic32c/6.2.1/../../../../pic32c/lib/v7e-m/fpv5/hard\libc.a(lib_a-strncasecmp.o)
 .debug_loc     0x00000000      0x1ef c:/program files (x86)/microchip/xc32/v2.10/bin/bin/../../lib/gcc/pic32c/6.2.1/../../../../pic32c/lib/v7e-m/fpv5/hard\libc.a(lib_a-strncasecmp.o)
 .debug_aranges
                0x00000000       0x20 c:/program files (x86)/microchip/xc32/v2.10/bin/bin/../../lib/gcc/pic32c/6.2.1/../../../../pic32c/lib/v7e-m/fpv5/hard\libc.a(lib_a-strncasecmp.o)
 .debug_ranges  0x00000000       0x28 c:/program files (x86)/microchip/xc32/v2.10/bin/bin/../../lib/gcc/pic32c/6.2.1/../../../../pic32c/lib/v7e-m/fpv5/hard\libc.a(lib_a-strncasecmp.o)
 .debug_line    0x00000000      0x243 c:/program files (x86)/microchip/xc32/v2.10/bin/bin/../../lib/gcc/pic32c/6.2.1/../../../../pic32c/lib/v7e-m/fpv5/hard\libc.a(lib_a-strncasecmp.o)
 .debug_str     0x00000000       0x21 c:/program files (x86)/microchip/xc32/v2.10/bin/bin/../../lib/gcc/pic32c/6.2.1/../../../../pic32c/lib/v7e-m/fpv5/hard\libc.a(lib_a-strncasecmp.o)
 .comment       0x00000000       0x3d c:/program files (x86)/microchip/xc32/v2.10/bin/bin/../../lib/gcc/pic32c/6.2.1/../../../../pic32c/lib/v7e-m/fpv5/hard\libc.a(lib_a-strncasecmp.o)
 .debug_frame   0x00000000       0x38 c:/program files (x86)/microchip/xc32/v2.10/bin/bin/../../lib/gcc/pic32c/6.2.1/../../../../pic32c/lib/v7e-m/fpv5/hard\libc.a(lib_a-strncasecmp.o)
 .ARM.attributes
                0x00000000       0x32 c:/program files (x86)/microchip/xc32/v2.10/bin/bin/../../lib/gcc/pic32c/6.2.1/../../../../pic32c/lib/v7e-m/fpv5/hard\libc.a(lib_a-strncasecmp.o)
 .text          0x00000000        0x0 c:/program files (x86)/microchip/xc32/v2.10/bin/bin/../../lib/gcc/pic32c/6.2.1/../../../../pic32c/lib/v7e-m/fpv5/hard\libc.a(lib_a-strncmp.o)
 .data          0x00000000        0x0 c:/program files (x86)/microchip/xc32/v2.10/bin/bin/../../lib/gcc/pic32c/6.2.1/../../../../pic32c/lib/v7e-m/fpv5/hard\libc.a(lib_a-strncmp.o)
 .bss           0x00000000        0x0 c:/program files (x86)/microchip/xc32/v2.10/bin/bin/../../lib/gcc/pic32c/6.2.1/../../../../pic32c/lib/v7e-m/fpv5/hard\libc.a(lib_a-strncmp.o)
 .text.strncmp  0x00000000       0xa4 c:/program files (x86)/microchip/xc32/v2.10/bin/bin/../../lib/gcc/pic32c/6.2.1/../../../../pic32c/lib/v7e-m/fpv5/hard\libc.a(lib_a-strncmp.o)
 .debug_info    0x00000000      0xe39 c:/program files (x86)/microchip/xc32/v2.10/bin/bin/../../lib/gcc/pic32c/6.2.1/../../../../pic32c/lib/v7e-m/fpv5/hard\libc.a(lib_a-strncmp.o)
 .debug_abbrev  0x00000000      0x19e c:/program files (x86)/microchip/xc32/v2.10/bin/bin/../../lib/gcc/pic32c/6.2.1/../../../../pic32c/lib/v7e-m/fpv5/hard\libc.a(lib_a-strncmp.o)
 .debug_loc     0x00000000      0x252 c:/program files (x86)/microchip/xc32/v2.10/bin/bin/../../lib/gcc/pic32c/6.2.1/../../../../pic32c/lib/v7e-m/fpv5/hard\libc.a(lib_a-strncmp.o)
 .debug_aranges
                0x00000000       0x20 c:/program files (x86)/microchip/xc32/v2.10/bin/bin/../../lib/gcc/pic32c/6.2.1/../../../../pic32c/lib/v7e-m/fpv5/hard\libc.a(lib_a-strncmp.o)
 .debug_ranges  0x00000000       0x10 c:/program files (x86)/microchip/xc32/v2.10/bin/bin/../../lib/gcc/pic32c/6.2.1/../../../../pic32c/lib/v7e-m/fpv5/hard\libc.a(lib_a-strncmp.o)
 .debug_line    0x00000000      0x264 c:/program files (x86)/microchip/xc32/v2.10/bin/bin/../../lib/gcc/pic32c/6.2.1/../../../../pic32c/lib/v7e-m/fpv5/hard\libc.a(lib_a-strncmp.o)
 .debug_str     0x00000000        0xe c:/program files (x86)/microchip/xc32/v2.10/bin/bin/../../lib/gcc/pic32c/6.2.1/../../../../pic32c/lib/v7e-m/fpv5/hard\libc.a(lib_a-strncmp.o)
 .comment       0x00000000       0x3d c:/program files (x86)/microchip/xc32/v2.10/bin/bin/../../lib/gcc/pic32c/6.2.1/../../../../pic32c/lib/v7e-m/fpv5/hard\libc.a(lib_a-strncmp.o)
 .debug_frame   0x00000000       0x54 c:/program files (x86)/microchip/xc32/v2.10/bin/bin/../../lib/gcc/pic32c/6.2.1/../../../../pic32c/lib/v7e-m/fpv5/hard\libc.a(lib_a-strncmp.o)
 .ARM.attributes
                0x00000000       0x32 c:/program files (x86)/microchip/xc32/v2.10/bin/bin/../../lib/gcc/pic32c/6.2.1/../../../../pic32c/lib/v7e-m/fpv5/hard\libc.a(lib_a-strncmp.o)
 .text          0x00000000        0x0 c:/program files (x86)/microchip/xc32/v2.10/bin/bin/../../lib/gcc/pic32c/6.2.1/../../../../pic32c/lib/v7e-m/fpv5/hard\libc.a(lib_a-strncpy.o)
 .data          0x00000000        0x0 c:/program files (x86)/microchip/xc32/v2.10/bin/bin/../../lib/gcc/pic32c/6.2.1/../../../../pic32c/lib/v7e-m/fpv5/hard\libc.a(lib_a-strncpy.o)
 .bss           0x00000000        0x0 c:/program files (x86)/microchip/xc32/v2.10/bin/bin/../../lib/gcc/pic32c/6.2.1/../../../../pic32c/lib/v7e-m/fpv5/hard\libc.a(lib_a-strncpy.o)
 .text          0x00000000        0x0 c:/program files (x86)/microchip/xc32/v2.10/bin/bin/../../lib/gcc/pic32c/6.2.1/../../../../pic32c/lib/v7e-m/fpv5/hard\libc.a(lib_a-svfprintf.o)
 .data          0x00000000        0x0 c:/program files (x86)/microchip/xc32/v2.10/bin/bin/../../lib/gcc/pic32c/6.2.1/../../../../pic32c/lib/v7e-m/fpv5/hard\libc.a(lib_a-svfprintf.o)
 .bss           0x00000000        0x0 c:/program files (x86)/microchip/xc32/v2.10/bin/bin/../../lib/gcc/pic32c/6.2.1/../../../../pic32c/lib/v7e-m/fpv5/hard\libc.a(lib_a-svfprintf.o)
 .text          0x00000000        0x0 c:/program files (x86)/microchip/xc32/v2.10/bin/bin/../../lib/gcc/pic32c/6.2.1/../../../../pic32c/lib/v7e-m/fpv5/hard\libc.a(lib_a-time.o)
 .data          0x00000000        0x0 c:/program files (x86)/microchip/xc32/v2.10/bin/bin/../../lib/gcc/pic32c/6.2.1/../../../../pic32c/lib/v7e-m/fpv5/hard\libc.a(lib_a-time.o)
 .bss           0x00000000        0x0 c:/program files (x86)/microchip/xc32/v2.10/bin/bin/../../lib/gcc/pic32c/6.2.1/../../../../pic32c/lib/v7e-m/fpv5/hard\libc.a(lib_a-time.o)
 .text.time     0x00000000       0x28 c:/program files (x86)/microchip/xc32/v2.10/bin/bin/../../lib/gcc/pic32c/6.2.1/../../../../pic32c/lib/v7e-m/fpv5/hard\libc.a(lib_a-time.o)
 .debug_info    0x00000000      0xecc c:/program files (x86)/microchip/xc32/v2.10/bin/bin/../../lib/gcc/pic32c/6.2.1/../../../../pic32c/lib/v7e-m/fpv5/hard\libc.a(lib_a-time.o)
 .debug_abbrev  0x00000000      0x1d8 c:/program files (x86)/microchip/xc32/v2.10/bin/bin/../../lib/gcc/pic32c/6.2.1/../../../../pic32c/lib/v7e-m/fpv5/hard\libc.a(lib_a-time.o)
 .debug_loc     0x00000000       0x64 c:/program files (x86)/microchip/xc32/v2.10/bin/bin/../../lib/gcc/pic32c/6.2.1/../../../../pic32c/lib/v7e-m/fpv5/hard\libc.a(lib_a-time.o)
 .debug_aranges
                0x00000000       0x20 c:/program files (x86)/microchip/xc32/v2.10/bin/bin/../../lib/gcc/pic32c/6.2.1/../../../../pic32c/lib/v7e-m/fpv5/hard\libc.a(lib_a-time.o)
 .debug_ranges  0x00000000       0x10 c:/program files (x86)/microchip/xc32/v2.10/bin/bin/../../lib/gcc/pic32c/6.2.1/../../../../pic32c/lib/v7e-m/fpv5/hard\libc.a(lib_a-time.o)
 .debug_line    0x00000000      0x238 c:/program files (x86)/microchip/xc32/v2.10/bin/bin/../../lib/gcc/pic32c/6.2.1/../../../../pic32c/lib/v7e-m/fpv5/hard\libc.a(lib_a-time.o)
 .debug_str     0x00000000       0x1e c:/program files (x86)/microchip/xc32/v2.10/bin/bin/../../lib/gcc/pic32c/6.2.1/../../../../pic32c/lib/v7e-m/fpv5/hard\libc.a(lib_a-time.o)
 .comment       0x00000000       0x3d c:/program files (x86)/microchip/xc32/v2.10/bin/bin/../../lib/gcc/pic32c/6.2.1/../../../../pic32c/lib/v7e-m/fpv5/hard\libc.a(lib_a-time.o)
 .debug_frame   0x00000000       0x30 c:/program files (x86)/microchip/xc32/v2.10/bin/bin/../../lib/gcc/pic32c/6.2.1/../../../../pic32c/lib/v7e-m/fpv5/hard\libc.a(lib_a-time.o)
 .ARM.attributes
                0x00000000       0x32 c:/program files (x86)/microchip/xc32/v2.10/bin/bin/../../lib/gcc/pic32c/6.2.1/../../../../pic32c/lib/v7e-m/fpv5/hard\libc.a(lib_a-time.o)
 .text          0x00000000        0x0 c:/program files (x86)/microchip/xc32/v2.10/bin/bin/../../lib/gcc/pic32c/6.2.1/../../../../pic32c/lib/v7e-m/fpv5/hard\libc.a(lib_a-vsnprintf.o)
 .data          0x00000000        0x0 c:/program files (x86)/microchip/xc32/v2.10/bin/bin/../../lib/gcc/pic32c/6.2.1/../../../../pic32c/lib/v7e-m/fpv5/hard\libc.a(lib_a-vsnprintf.o)
 .bss           0x00000000        0x0 c:/program files (x86)/microchip/xc32/v2.10/bin/bin/../../lib/gcc/pic32c/6.2.1/../../../../pic32c/lib/v7e-m/fpv5/hard\libc.a(lib_a-vsnprintf.o)
 .text          0x00000000        0x0 c:/program files (x86)/microchip/xc32/v2.10/bin/bin/../../lib/gcc/pic32c/6.2.1/../../../../pic32c/lib/v7e-m/fpv5/hard\libc.a(lib_a-wctomb_r.o)
 .data          0x00000000        0x0 c:/program files (x86)/microchip/xc32/v2.10/bin/bin/../../lib/gcc/pic32c/6.2.1/../../../../pic32c/lib/v7e-m/fpv5/hard\libc.a(lib_a-wctomb_r.o)
 .bss           0x00000000        0x0 c:/program files (x86)/microchip/xc32/v2.10/bin/bin/../../lib/gcc/pic32c/6.2.1/../../../../pic32c/lib/v7e-m/fpv5/hard\libc.a(lib_a-wctomb_r.o)
 .text._wctomb_r
                0x00000000       0x24 c:/program files (x86)/microchip/xc32/v2.10/bin/bin/../../lib/gcc/pic32c/6.2.1/../../../../pic32c/lib/v7e-m/fpv5/hard\libc.a(lib_a-wctomb_r.o)
 .text          0x00000000        0x0 c:/program files (x86)/microchip/xc32/v2.10/bin/bin/../../lib/gcc/pic32c/6.2.1/../../../../pic32c/lib/v7e-m/fpv5/hard\libc.a(lib_a-__call_atexit.o)
 .data          0x00000000        0x0 c:/program files (x86)/microchip/xc32/v2.10/bin/bin/../../lib/gcc/pic32c/6.2.1/../../../../pic32c/lib/v7e-m/fpv5/hard\libc.a(lib_a-__call_atexit.o)
 .bss           0x00000000        0x0 c:/program files (x86)/microchip/xc32/v2.10/bin/bin/../../lib/gcc/pic32c/6.2.1/../../../../pic32c/lib/v7e-m/fpv5/hard\libc.a(lib_a-__call_atexit.o)
 .text.__call_exitprocs
                0x00000000       0xd4 c:/program files (x86)/microchip/xc32/v2.10/bin/bin/../../lib/gcc/pic32c/6.2.1/../../../../pic32c/lib/v7e-m/fpv5/hard\libc.a(lib_a-__call_atexit.o)
 .text          0x00000000        0x0 c:/program files (x86)/microchip/xc32/v2.10/bin/bin/../../lib/gcc/pic32c/6.2.1/../../../../pic32c/lib/v7e-m/fpv5/hard\libc.a(lib_a-atexit.o)
 .data          0x00000000        0x0 c:/program files (x86)/microchip/xc32/v2.10/bin/bin/../../lib/gcc/pic32c/6.2.1/../../../../pic32c/lib/v7e-m/fpv5/hard\libc.a(lib_a-atexit.o)
 .bss           0x00000000        0x0 c:/program files (x86)/microchip/xc32/v2.10/bin/bin/../../lib/gcc/pic32c/6.2.1/../../../../pic32c/lib/v7e-m/fpv5/hard\libc.a(lib_a-atexit.o)
 .text          0x00000000        0x0 c:/program files (x86)/microchip/xc32/v2.10/bin/bin/../../lib/gcc/pic32c/6.2.1/../../../../pic32c/lib/v7e-m/fpv5/hard\libc.a(lib_a-ctype_.o)
 .data          0x00000000        0x0 c:/program files (x86)/microchip/xc32/v2.10/bin/bin/../../lib/gcc/pic32c/6.2.1/../../../../pic32c/lib/v7e-m/fpv5/hard\libc.a(lib_a-ctype_.o)
 .bss           0x00000000        0x0 c:/program files (x86)/microchip/xc32/v2.10/bin/bin/../../lib/gcc/pic32c/6.2.1/../../../../pic32c/lib/v7e-m/fpv5/hard\libc.a(lib_a-ctype_.o)
 .text          0x00000000        0x0 c:/program files (x86)/microchip/xc32/v2.10/bin/bin/../../lib/gcc/pic32c/6.2.1/../../../../pic32c/lib/v7e-m/fpv5/hard\libc.a(lib_a-dtoa.o)
 .data          0x00000000        0x0 c:/program files (x86)/microchip/xc32/v2.10/bin/bin/../../lib/gcc/pic32c/6.2.1/../../../../pic32c/lib/v7e-m/fpv5/hard\libc.a(lib_a-dtoa.o)
 .bss           0x00000000        0x0 c:/program files (x86)/microchip/xc32/v2.10/bin/bin/../../lib/gcc/pic32c/6.2.1/../../../../pic32c/lib/v7e-m/fpv5/hard\libc.a(lib_a-dtoa.o)
 .text          0x00000000        0x0 c:/program files (x86)/microchip/xc32/v2.10/bin/bin/../../lib/gcc/pic32c/6.2.1/../../../../pic32c/lib/v7e-m/fpv5/hard\libc.a(lib_a-fini.o)
 .data          0x00000000        0x0 c:/program files (x86)/microchip/xc32/v2.10/bin/bin/../../lib/gcc/pic32c/6.2.1/../../../../pic32c/lib/v7e-m/fpv5/hard\libc.a(lib_a-fini.o)
 .bss           0x00000000        0x0 c:/program files (x86)/microchip/xc32/v2.10/bin/bin/../../lib/gcc/pic32c/6.2.1/../../../../pic32c/lib/v7e-m/fpv5/hard\libc.a(lib_a-fini.o)
 .text          0x00000000        0x0 c:/program files (x86)/microchip/xc32/v2.10/bin/bin/../../lib/gcc/pic32c/6.2.1/../../../../pic32c/lib/v7e-m/fpv5/hard\libc.a(lib_a-freer.o)
 .data          0x00000000        0x0 c:/program files (x86)/microchip/xc32/v2.10/bin/bin/../../lib/gcc/pic32c/6.2.1/../../../../pic32c/lib/v7e-m/fpv5/hard\libc.a(lib_a-freer.o)
 .bss           0x00000000        0x0 c:/program files (x86)/microchip/xc32/v2.10/bin/bin/../../lib/gcc/pic32c/6.2.1/../../../../pic32c/lib/v7e-m/fpv5/hard\libc.a(lib_a-freer.o)
 .text          0x00000000        0x0 c:/program files (x86)/microchip/xc32/v2.10/bin/bin/../../lib/gcc/pic32c/6.2.1/../../../../pic32c/lib/v7e-m/fpv5/hard\libc.a(lib_a-gettimeofdayr.o)
 .data          0x00000000        0x0 c:/program files (x86)/microchip/xc32/v2.10/bin/bin/../../lib/gcc/pic32c/6.2.1/../../../../pic32c/lib/v7e-m/fpv5/hard\libc.a(lib_a-gettimeofdayr.o)
 .bss           0x00000000        0x0 c:/program files (x86)/microchip/xc32/v2.10/bin/bin/../../lib/gcc/pic32c/6.2.1/../../../../pic32c/lib/v7e-m/fpv5/hard\libc.a(lib_a-gettimeofdayr.o)
 .text._gettimeofday_r
                0x00000000       0x28 c:/program files (x86)/microchip/xc32/v2.10/bin/bin/../../lib/gcc/pic32c/6.2.1/../../../../pic32c/lib/v7e-m/fpv5/hard\libc.a(lib_a-gettimeofdayr.o)
 .debug_info    0x00000000      0xf36 c:/program files (x86)/microchip/xc32/v2.10/bin/bin/../../lib/gcc/pic32c/6.2.1/../../../../pic32c/lib/v7e-m/fpv5/hard\libc.a(lib_a-gettimeofdayr.o)
 .debug_abbrev  0x00000000      0x1f7 c:/program files (x86)/microchip/xc32/v2.10/bin/bin/../../lib/gcc/pic32c/6.2.1/../../../../pic32c/lib/v7e-m/fpv5/hard\libc.a(lib_a-gettimeofdayr.o)
 .debug_loc     0x00000000       0xa4 c:/program files (x86)/microchip/xc32/v2.10/bin/bin/../../lib/gcc/pic32c/6.2.1/../../../../pic32c/lib/v7e-m/fpv5/hard\libc.a(lib_a-gettimeofdayr.o)
 .debug_aranges
                0x00000000       0x20 c:/program files (x86)/microchip/xc32/v2.10/bin/bin/../../lib/gcc/pic32c/6.2.1/../../../../pic32c/lib/v7e-m/fpv5/hard\libc.a(lib_a-gettimeofdayr.o)
 .debug_ranges  0x00000000       0x30 c:/program files (x86)/microchip/xc32/v2.10/bin/bin/../../lib/gcc/pic32c/6.2.1/../../../../pic32c/lib/v7e-m/fpv5/hard\libc.a(lib_a-gettimeofdayr.o)
 .debug_line    0x00000000      0x246 c:/program files (x86)/microchip/xc32/v2.10/bin/bin/../../lib/gcc/pic32c/6.2.1/../../../../pic32c/lib/v7e-m/fpv5/hard\libc.a(lib_a-gettimeofdayr.o)
 .debug_str     0x00000000       0x1c c:/program files (x86)/microchip/xc32/v2.10/bin/bin/../../lib/gcc/pic32c/6.2.1/../../../../pic32c/lib/v7e-m/fpv5/hard\libc.a(lib_a-gettimeofdayr.o)
 .comment       0x00000000       0x3d c:/program files (x86)/microchip/xc32/v2.10/bin/bin/../../lib/gcc/pic32c/6.2.1/../../../../pic32c/lib/v7e-m/fpv5/hard\libc.a(lib_a-gettimeofdayr.o)
 .debug_frame   0x00000000       0x2c c:/program files (x86)/microchip/xc32/v2.10/bin/bin/../../lib/gcc/pic32c/6.2.1/../../../../pic32c/lib/v7e-m/fpv5/hard\libc.a(lib_a-gettimeofdayr.o)
 .ARM.attributes
                0x00000000       0x32 c:/program files (x86)/microchip/xc32/v2.10/bin/bin/../../lib/gcc/pic32c/6.2.1/../../../../pic32c/lib/v7e-m/fpv5/hard\libc.a(lib_a-gettimeofdayr.o)
 .text          0x00000000        0x0 c:/program files (x86)/microchip/xc32/v2.10/bin/bin/../../lib/gcc/pic32c/6.2.1/../../../../pic32c/lib/v7e-m/fpv5/hard\libc.a(lib_a-localeconv.o)
 .data          0x00000000        0x0 c:/program files (x86)/microchip/xc32/v2.10/bin/bin/../../lib/gcc/pic32c/6.2.1/../../../../pic32c/lib/v7e-m/fpv5/hard\libc.a(lib_a-localeconv.o)
 .bss           0x00000000        0x0 c:/program files (x86)/microchip/xc32/v2.10/bin/bin/../../lib/gcc/pic32c/6.2.1/../../../../pic32c/lib/v7e-m/fpv5/hard\libc.a(lib_a-localeconv.o)
 .text.__localeconv_l
                0x00000000        0x4 c:/program files (x86)/microchip/xc32/v2.10/bin/bin/../../lib/gcc/pic32c/6.2.1/../../../../pic32c/lib/v7e-m/fpv5/hard\libc.a(lib_a-localeconv.o)
 .text.localeconv
                0x00000000       0x1c c:/program files (x86)/microchip/xc32/v2.10/bin/bin/../../lib/gcc/pic32c/6.2.1/../../../../pic32c/lib/v7e-m/fpv5/hard\libc.a(lib_a-localeconv.o)
 .data          0x00000000        0x0 c:/program files (x86)/microchip/xc32/v2.10/bin/bin/../../lib/gcc/pic32c/6.2.1/../../../../pic32c/lib/v7e-m/fpv5/hard\libc.a(lib_a-memchr.o)
 .bss           0x00000000        0x0 c:/program files (x86)/microchip/xc32/v2.10/bin/bin/../../lib/gcc/pic32c/6.2.1/../../../../pic32c/lib/v7e-m/fpv5/hard\libc.a(lib_a-memchr.o)
 .text          0x00000000        0x0 c:/program files (x86)/microchip/xc32/v2.10/bin/bin/../../lib/gcc/pic32c/6.2.1/../../../../pic32c/lib/v7e-m/fpv5/hard\libc.a(lib_a-mprec.o)
 .data          0x00000000        0x0 c:/program files (x86)/microchip/xc32/v2.10/bin/bin/../../lib/gcc/pic32c/6.2.1/../../../../pic32c/lib/v7e-m/fpv5/hard\libc.a(lib_a-mprec.o)
 .bss           0x00000000        0x0 c:/program files (x86)/microchip/xc32/v2.10/bin/bin/../../lib/gcc/pic32c/6.2.1/../../../../pic32c/lib/v7e-m/fpv5/hard\libc.a(lib_a-mprec.o)
 .text.__s2b    0x00000000       0x9c c:/program files (x86)/microchip/xc32/v2.10/bin/bin/../../lib/gcc/pic32c/6.2.1/../../../../pic32c/lib/v7e-m/fpv5/hard\libc.a(lib_a-mprec.o)
 .text.__ulp    0x00000000       0x54 c:/program files (x86)/microchip/xc32/v2.10/bin/bin/../../lib/gcc/pic32c/6.2.1/../../../../pic32c/lib/v7e-m/fpv5/hard\libc.a(lib_a-mprec.o)
 .text.__b2d    0x00000000       0xc4 c:/program files (x86)/microchip/xc32/v2.10/bin/bin/../../lib/gcc/pic32c/6.2.1/../../../../pic32c/lib/v7e-m/fpv5/hard\libc.a(lib_a-mprec.o)
 .text.__ratio  0x00000000       0x60 c:/program files (x86)/microchip/xc32/v2.10/bin/bin/../../lib/gcc/pic32c/6.2.1/../../../../pic32c/lib/v7e-m/fpv5/hard\libc.a(lib_a-mprec.o)
 .text._mprec_log10
                0x00000000       0x28 c:/program files (x86)/microchip/xc32/v2.10/bin/bin/../../lib/gcc/pic32c/6.2.1/../../../../pic32c/lib/v7e-m/fpv5/hard\libc.a(lib_a-mprec.o)
 .text.__copybits
                0x00000000       0x48 c:/program files (x86)/microchip/xc32/v2.10/bin/bin/../../lib/gcc/pic32c/6.2.1/../../../../pic32c/lib/v7e-m/fpv5/hard\libc.a(lib_a-mprec.o)
 .text.__any_on
                0x00000000       0x60 c:/program files (x86)/microchip/xc32/v2.10/bin/bin/../../lib/gcc/pic32c/6.2.1/../../../../pic32c/lib/v7e-m/fpv5/hard\libc.a(lib_a-mprec.o)
 .rodata.__mprec_tinytens
                0x00000000       0x28 c:/program files (x86)/microchip/xc32/v2.10/bin/bin/../../lib/gcc/pic32c/6.2.1/../../../../pic32c/lib/v7e-m/fpv5/hard\libc.a(lib_a-mprec.o)
 .text          0x00000000        0x0 c:/program files (x86)/microchip/xc32/v2.10/bin/bin/../../lib/gcc/pic32c/6.2.1/../../../../pic32c/lib/v7e-m/fpv5/hard\libc.a(lib_a-reent.o)
 .data          0x00000000        0x0 c:/program files (x86)/microchip/xc32/v2.10/bin/bin/../../lib/gcc/pic32c/6.2.1/../../../../pic32c/lib/v7e-m/fpv5/hard\libc.a(lib_a-reent.o)
 .bss           0x00000000        0x0 c:/program files (x86)/microchip/xc32/v2.10/bin/bin/../../lib/gcc/pic32c/6.2.1/../../../../pic32c/lib/v7e-m/fpv5/hard\libc.a(lib_a-reent.o)
 .text.cleanup_glue
                0x00000000       0x1c c:/program files (x86)/microchip/xc32/v2.10/bin/bin/../../lib/gcc/pic32c/6.2.1/../../../../pic32c/lib/v7e-m/fpv5/hard\libc.a(lib_a-reent.o)
 .text._reclaim_reent
                0x00000000       0x88 c:/program files (x86)/microchip/xc32/v2.10/bin/bin/../../lib/gcc/pic32c/6.2.1/../../../../pic32c/lib/v7e-m/fpv5/hard\libc.a(lib_a-reent.o)
 .text          0x00000000        0x0 c:/program files (x86)/microchip/xc32/v2.10/bin/bin/../../lib/gcc/pic32c/6.2.1/../../../../pic32c/lib/v7e-m/fpv5/hard\libc.a(lib_a-s_frexp.o)
 .data          0x00000000        0x0 c:/program files (x86)/microchip/xc32/v2.10/bin/bin/../../lib/gcc/pic32c/6.2.1/../../../../pic32c/lib/v7e-m/fpv5/hard\libc.a(lib_a-s_frexp.o)
 .bss           0x00000000        0x0 c:/program files (x86)/microchip/xc32/v2.10/bin/bin/../../lib/gcc/pic32c/6.2.1/../../../../pic32c/lib/v7e-m/fpv5/hard\libc.a(lib_a-s_frexp.o)
 .text          0x00000000        0x0 c:/program files (x86)/microchip/xc32/v2.10/bin/bin/../../lib/gcc/pic32c/6.2.1/../../../../pic32c/lib/v7e-m/fpv5/hard\libc.a(lib_a-svfiprintf.o)
 .data          0x00000000        0x0 c:/program files (x86)/microchip/xc32/v2.10/bin/bin/../../lib/gcc/pic32c/6.2.1/../../../../pic32c/lib/v7e-m/fpv5/hard\libc.a(lib_a-svfiprintf.o)
 .bss           0x00000000        0x0 c:/program files (x86)/microchip/xc32/v2.10/bin/bin/../../lib/gcc/pic32c/6.2.1/../../../../pic32c/lib/v7e-m/fpv5/hard\libc.a(lib_a-svfiprintf.o)
 .text._svfiprintf_r
                0x00000000      0xb28 c:/program files (x86)/microchip/xc32/v2.10/bin/bin/../../lib/gcc/pic32c/6.2.1/../../../../pic32c/lib/v7e-m/fpv5/hard\libc.a(lib_a-svfiprintf.o)
 .rodata        0x00000000       0x30 c:/program files (x86)/microchip/xc32/v2.10/bin/bin/../../lib/gcc/pic32c/6.2.1/../../../../pic32c/lib/v7e-m/fpv5/hard\libc.a(lib_a-svfiprintf.o)
 .rodata.blanks.8331
                0x00000000       0x10 c:/program files (x86)/microchip/xc32/v2.10/bin/bin/../../lib/gcc/pic32c/6.2.1/../../../../pic32c/lib/v7e-m/fpv5/hard\libc.a(lib_a-svfiprintf.o)
 .rodata.zeroes.8332
                0x00000000       0x10 c:/program files (x86)/microchip/xc32/v2.10/bin/bin/../../lib/gcc/pic32c/6.2.1/../../../../pic32c/lib/v7e-m/fpv5/hard\libc.a(lib_a-svfiprintf.o)
 .text          0x00000000        0x0 c:/program files (x86)/microchip/xc32/v2.10/bin/bin/../../lib/gcc/pic32c/6.2.1/../../../../pic32c/lib/v7e-m/fpv5/hard\libc.a(lib_a-__atexit.o)
 .data          0x00000000        0x0 c:/program files (x86)/microchip/xc32/v2.10/bin/bin/../../lib/gcc/pic32c/6.2.1/../../../../pic32c/lib/v7e-m/fpv5/hard\libc.a(lib_a-__atexit.o)
 .bss           0x00000000        0x0 c:/program files (x86)/microchip/xc32/v2.10/bin/bin/../../lib/gcc/pic32c/6.2.1/../../../../pic32c/lib/v7e-m/fpv5/hard\libc.a(lib_a-__atexit.o)
 .text          0x00000000        0x0 c:/program files (x86)/microchip/xc32/v2.10/bin/bin/../../lib/gcc/pic32c/6.2.1/../../../../pic32c/lib/v7e-m/fpv5/hard\libc.a(lib_a-callocr.o)
 .data          0x00000000        0x0 c:/program files (x86)/microchip/xc32/v2.10/bin/bin/../../lib/gcc/pic32c/6.2.1/../../../../pic32c/lib/v7e-m/fpv5/hard\libc.a(lib_a-callocr.o)
 .bss           0x00000000        0x0 c:/program files (x86)/microchip/xc32/v2.10/bin/bin/../../lib/gcc/pic32c/6.2.1/../../../../pic32c/lib/v7e-m/fpv5/hard\libc.a(lib_a-callocr.o)
 .text          0x00000000        0x0 c:/program files (x86)/microchip/xc32/v2.10/bin/bin/../../lib/gcc/pic32c/6.2.1/../../../../pic32c/lib/v7e-m/fpv5/hard\libm.a(lib_a-w_log.o)
 .data          0x00000000        0x0 c:/program files (x86)/microchip/xc32/v2.10/bin/bin/../../lib/gcc/pic32c/6.2.1/../../../../pic32c/lib/v7e-m/fpv5/hard\libm.a(lib_a-w_log.o)
 .bss           0x00000000        0x0 c:/program files (x86)/microchip/xc32/v2.10/bin/bin/../../lib/gcc/pic32c/6.2.1/../../../../pic32c/lib/v7e-m/fpv5/hard\libm.a(lib_a-w_log.o)
 .text.log      0x00000000       0xec c:/program files (x86)/microchip/xc32/v2.10/bin/bin/../../lib/gcc/pic32c/6.2.1/../../../../pic32c/lib/v7e-m/fpv5/hard\libm.a(lib_a-w_log.o)
 .rodata        0x00000000        0x8 c:/program files (x86)/microchip/xc32/v2.10/bin/bin/../../lib/gcc/pic32c/6.2.1/../../../../pic32c/lib/v7e-m/fpv5/hard\libm.a(lib_a-w_log.o)
 .debug_info    0x00000000      0xffa c:/program files (x86)/microchip/xc32/v2.10/bin/bin/../../lib/gcc/pic32c/6.2.1/../../../../pic32c/lib/v7e-m/fpv5/hard\libm.a(lib_a-w_log.o)
 .debug_abbrev  0x00000000      0x24b c:/program files (x86)/microchip/xc32/v2.10/bin/bin/../../lib/gcc/pic32c/6.2.1/../../../../pic32c/lib/v7e-m/fpv5/hard\libm.a(lib_a-w_log.o)
 .debug_loc     0x00000000      0x142 c:/program files (x86)/microchip/xc32/v2.10/bin/bin/../../lib/gcc/pic32c/6.2.1/../../../../pic32c/lib/v7e-m/fpv5/hard\libm.a(lib_a-w_log.o)
 .debug_aranges
                0x00000000       0x20 c:/program files (x86)/microchip/xc32/v2.10/bin/bin/../../lib/gcc/pic32c/6.2.1/../../../../pic32c/lib/v7e-m/fpv5/hard\libm.a(lib_a-w_log.o)
 .debug_ranges  0x00000000       0x10 c:/program files (x86)/microchip/xc32/v2.10/bin/bin/../../lib/gcc/pic32c/6.2.1/../../../../pic32c/lib/v7e-m/fpv5/hard\libm.a(lib_a-w_log.o)
 .debug_line    0x00000000      0x2dc c:/program files (x86)/microchip/xc32/v2.10/bin/bin/../../lib/gcc/pic32c/6.2.1/../../../../pic32c/lib/v7e-m/fpv5/hard\libm.a(lib_a-w_log.o)
 .debug_str     0x00000000       0x1c c:/program files (x86)/microchip/xc32/v2.10/bin/bin/../../lib/gcc/pic32c/6.2.1/../../../../pic32c/lib/v7e-m/fpv5/hard\libm.a(lib_a-w_log.o)
 .comment       0x00000000       0x3d c:/program files (x86)/microchip/xc32/v2.10/bin/bin/../../lib/gcc/pic32c/6.2.1/../../../../pic32c/lib/v7e-m/fpv5/hard\libm.a(lib_a-w_log.o)
 .debug_frame   0x00000000       0x4c c:/program files (x86)/microchip/xc32/v2.10/bin/bin/../../lib/gcc/pic32c/6.2.1/../../../../pic32c/lib/v7e-m/fpv5/hard\libm.a(lib_a-w_log.o)
 .ARM.attributes
                0x00000000       0x32 c:/program files (x86)/microchip/xc32/v2.10/bin/bin/../../lib/gcc/pic32c/6.2.1/../../../../pic32c/lib/v7e-m/fpv5/hard\libm.a(lib_a-w_log.o)
 .text          0x00000000        0x0 c:/program files (x86)/microchip/xc32/v2.10/bin/bin/../../lib/gcc/pic32c/6.2.1/../../../../pic32c/lib/v7e-m/fpv5/hard\libm.a(lib_a-w_pow.o)
 .data          0x00000000        0x0 c:/program files (x86)/microchip/xc32/v2.10/bin/bin/../../lib/gcc/pic32c/6.2.1/../../../../pic32c/lib/v7e-m/fpv5/hard\libm.a(lib_a-w_pow.o)
 .bss           0x00000000        0x0 c:/program files (x86)/microchip/xc32/v2.10/bin/bin/../../lib/gcc/pic32c/6.2.1/../../../../pic32c/lib/v7e-m/fpv5/hard\libm.a(lib_a-w_pow.o)
 .text.pow      0x00000000      0x280 c:/program files (x86)/microchip/xc32/v2.10/bin/bin/../../lib/gcc/pic32c/6.2.1/../../../../pic32c/lib/v7e-m/fpv5/hard\libm.a(lib_a-w_pow.o)
 .rodata        0x00000000        0x4 c:/program files (x86)/microchip/xc32/v2.10/bin/bin/../../lib/gcc/pic32c/6.2.1/../../../../pic32c/lib/v7e-m/fpv5/hard\libm.a(lib_a-w_pow.o)
 .debug_info    0x00000000     0x10e9 c:/program files (x86)/microchip/xc32/v2.10/bin/bin/../../lib/gcc/pic32c/6.2.1/../../../../pic32c/lib/v7e-m/fpv5/hard\libm.a(lib_a-w_pow.o)
 .debug_abbrev  0x00000000      0x24b c:/program files (x86)/microchip/xc32/v2.10/bin/bin/../../lib/gcc/pic32c/6.2.1/../../../../pic32c/lib/v7e-m/fpv5/hard\libm.a(lib_a-w_pow.o)
 .debug_loc     0x00000000      0x24a c:/program files (x86)/microchip/xc32/v2.10/bin/bin/../../lib/gcc/pic32c/6.2.1/../../../../pic32c/lib/v7e-m/fpv5/hard\libm.a(lib_a-w_pow.o)
 .debug_aranges
                0x00000000       0x20 c:/program files (x86)/microchip/xc32/v2.10/bin/bin/../../lib/gcc/pic32c/6.2.1/../../../../pic32c/lib/v7e-m/fpv5/hard\libm.a(lib_a-w_pow.o)
 .debug_ranges  0x00000000       0x10 c:/program files (x86)/microchip/xc32/v2.10/bin/bin/../../lib/gcc/pic32c/6.2.1/../../../../pic32c/lib/v7e-m/fpv5/hard\libm.a(lib_a-w_pow.o)
 .debug_line    0x00000000      0x343 c:/program files (x86)/microchip/xc32/v2.10/bin/bin/../../lib/gcc/pic32c/6.2.1/../../../../pic32c/lib/v7e-m/fpv5/hard\libm.a(lib_a-w_pow.o)
 .debug_str     0x00000000       0x1c c:/program files (x86)/microchip/xc32/v2.10/bin/bin/../../lib/gcc/pic32c/6.2.1/../../../../pic32c/lib/v7e-m/fpv5/hard\libm.a(lib_a-w_pow.o)
 .comment       0x00000000       0x3d c:/program files (x86)/microchip/xc32/v2.10/bin/bin/../../lib/gcc/pic32c/6.2.1/../../../../pic32c/lib/v7e-m/fpv5/hard\libm.a(lib_a-w_pow.o)
 .debug_frame   0x00000000       0x80 c:/program files (x86)/microchip/xc32/v2.10/bin/bin/../../lib/gcc/pic32c/6.2.1/../../../../pic32c/lib/v7e-m/fpv5/hard\libm.a(lib_a-w_pow.o)
 .ARM.attributes
                0x00000000       0x32 c:/program files (x86)/microchip/xc32/v2.10/bin/bin/../../lib/gcc/pic32c/6.2.1/../../../../pic32c/lib/v7e-m/fpv5/hard\libm.a(lib_a-w_pow.o)
 .text          0x00000000        0x0 c:/program files (x86)/microchip/xc32/v2.10/bin/bin/../../lib/gcc/pic32c/6.2.1/../../../../pic32c/lib/v7e-m/fpv5/hard\libm.a(lib_a-e_log.o)
 .data          0x00000000        0x0 c:/program files (x86)/microchip/xc32/v2.10/bin/bin/../../lib/gcc/pic32c/6.2.1/../../../../pic32c/lib/v7e-m/fpv5/hard\libm.a(lib_a-e_log.o)
 .bss           0x00000000        0x0 c:/program files (x86)/microchip/xc32/v2.10/bin/bin/../../lib/gcc/pic32c/6.2.1/../../../../pic32c/lib/v7e-m/fpv5/hard\libm.a(lib_a-e_log.o)
 .text.__ieee754_log
                0x00000000      0x264 c:/program files (x86)/microchip/xc32/v2.10/bin/bin/../../lib/gcc/pic32c/6.2.1/../../../../pic32c/lib/v7e-m/fpv5/hard\libm.a(lib_a-e_log.o)
 .debug_info    0x00000000     0x10f7 c:/program files (x86)/microchip/xc32/v2.10/bin/bin/../../lib/gcc/pic32c/6.2.1/../../../../pic32c/lib/v7e-m/fpv5/hard\libm.a(lib_a-e_log.o)
 .debug_abbrev  0x00000000      0x1ef c:/program files (x86)/microchip/xc32/v2.10/bin/bin/../../lib/gcc/pic32c/6.2.1/../../../../pic32c/lib/v7e-m/fpv5/hard\libm.a(lib_a-e_log.o)
 .debug_loc     0x00000000      0x79c c:/program files (x86)/microchip/xc32/v2.10/bin/bin/../../lib/gcc/pic32c/6.2.1/../../../../pic32c/lib/v7e-m/fpv5/hard\libm.a(lib_a-e_log.o)
 .debug_aranges
                0x00000000       0x20 c:/program files (x86)/microchip/xc32/v2.10/bin/bin/../../lib/gcc/pic32c/6.2.1/../../../../pic32c/lib/v7e-m/fpv5/hard\libm.a(lib_a-e_log.o)
 .debug_ranges  0x00000000       0x10 c:/program files (x86)/microchip/xc32/v2.10/bin/bin/../../lib/gcc/pic32c/6.2.1/../../../../pic32c/lib/v7e-m/fpv5/hard\libm.a(lib_a-e_log.o)
 .debug_line    0x00000000      0x393 c:/program files (x86)/microchip/xc32/v2.10/bin/bin/../../lib/gcc/pic32c/6.2.1/../../../../pic32c/lib/v7e-m/fpv5/hard\libm.a(lib_a-e_log.o)
 .debug_str     0x00000000        0xe c:/program files (x86)/microchip/xc32/v2.10/bin/bin/../../lib/gcc/pic32c/6.2.1/../../../../pic32c/lib/v7e-m/fpv5/hard\libm.a(lib_a-e_log.o)
 .comment       0x00000000       0x3d c:/program files (x86)/microchip/xc32/v2.10/bin/bin/../../lib/gcc/pic32c/6.2.1/../../../../pic32c/lib/v7e-m/fpv5/hard\libm.a(lib_a-e_log.o)
 .debug_frame   0x00000000       0x54 c:/program files (x86)/microchip/xc32/v2.10/bin/bin/../../lib/gcc/pic32c/6.2.1/../../../../pic32c/lib/v7e-m/fpv5/hard\libm.a(lib_a-e_log.o)
 .ARM.attributes
                0x00000000       0x32 c:/program files (x86)/microchip/xc32/v2.10/bin/bin/../../lib/gcc/pic32c/6.2.1/../../../../pic32c/lib/v7e-m/fpv5/hard\libm.a(lib_a-e_log.o)
 .text          0x00000000        0x0 c:/program files (x86)/microchip/xc32/v2.10/bin/bin/../../lib/gcc/pic32c/6.2.1/../../../../pic32c/lib/v7e-m/fpv5/hard\libm.a(lib_a-e_pow.o)
 .data          0x00000000        0x0 c:/program files (x86)/microchip/xc32/v2.10/bin/bin/../../lib/gcc/pic32c/6.2.1/../../../../pic32c/lib/v7e-m/fpv5/hard\libm.a(lib_a-e_pow.o)
 .bss           0x00000000        0x0 c:/program files (x86)/microchip/xc32/v2.10/bin/bin/../../lib/gcc/pic32c/6.2.1/../../../../pic32c/lib/v7e-m/fpv5/hard\libm.a(lib_a-e_pow.o)
 .text.__ieee754_pow
                0x00000000      0x77c c:/program files (x86)/microchip/xc32/v2.10/bin/bin/../../lib/gcc/pic32c/6.2.1/../../../../pic32c/lib/v7e-m/fpv5/hard\libm.a(lib_a-e_pow.o)
 .rodata        0x00000000        0x4 c:/program files (x86)/microchip/xc32/v2.10/bin/bin/../../lib/gcc/pic32c/6.2.1/../../../../pic32c/lib/v7e-m/fpv5/hard\libm.a(lib_a-e_pow.o)
 .debug_info    0x00000000     0x1576 c:/program files (x86)/microchip/xc32/v2.10/bin/bin/../../lib/gcc/pic32c/6.2.1/../../../../pic32c/lib/v7e-m/fpv5/hard\libm.a(lib_a-e_pow.o)
 .debug_abbrev  0x00000000      0x2c1 c:/program files (x86)/microchip/xc32/v2.10/bin/bin/../../lib/gcc/pic32c/6.2.1/../../../../pic32c/lib/v7e-m/fpv5/hard\libm.a(lib_a-e_pow.o)
 .debug_loc     0x00000000     0x1077 c:/program files (x86)/microchip/xc32/v2.10/bin/bin/../../lib/gcc/pic32c/6.2.1/../../../../pic32c/lib/v7e-m/fpv5/hard\libm.a(lib_a-e_pow.o)
 .debug_aranges
                0x00000000       0x20 c:/program files (x86)/microchip/xc32/v2.10/bin/bin/../../lib/gcc/pic32c/6.2.1/../../../../pic32c/lib/v7e-m/fpv5/hard\libm.a(lib_a-e_pow.o)
 .debug_ranges  0x00000000       0xe8 c:/program files (x86)/microchip/xc32/v2.10/bin/bin/../../lib/gcc/pic32c/6.2.1/../../../../pic32c/lib/v7e-m/fpv5/hard\libm.a(lib_a-e_pow.o)
 .debug_line    0x00000000      0x462 c:/program files (x86)/microchip/xc32/v2.10/bin/bin/../../lib/gcc/pic32c/6.2.1/../../../../pic32c/lib/v7e-m/fpv5/hard\libm.a(lib_a-e_pow.o)
 .debug_str     0x00000000       0x22 c:/program files (x86)/microchip/xc32/v2.10/bin/bin/../../lib/gcc/pic32c/6.2.1/../../../../pic32c/lib/v7e-m/fpv5/hard\libm.a(lib_a-e_pow.o)
 .comment       0x00000000       0x3d c:/program files (x86)/microchip/xc32/v2.10/bin/bin/../../lib/gcc/pic32c/6.2.1/../../../../pic32c/lib/v7e-m/fpv5/hard\libm.a(lib_a-e_pow.o)
 .debug_frame   0x00000000       0xa4 c:/program files (x86)/microchip/xc32/v2.10/bin/bin/../../lib/gcc/pic32c/6.2.1/../../../../pic32c/lib/v7e-m/fpv5/hard\libm.a(lib_a-e_pow.o)
 .ARM.attributes
                0x00000000       0x32 c:/program files (x86)/microchip/xc32/v2.10/bin/bin/../../lib/gcc/pic32c/6.2.1/../../../../pic32c/lib/v7e-m/fpv5/hard\libm.a(lib_a-e_pow.o)
 .text          0x00000000        0x0 c:/program files (x86)/microchip/xc32/v2.10/bin/bin/../../lib/gcc/pic32c/6.2.1/../../../../pic32c/lib/v7e-m/fpv5/hard\libm.a(lib_a-e_sqrt.o)
 .data          0x00000000        0x0 c:/program files (x86)/microchip/xc32/v2.10/bin/bin/../../lib/gcc/pic32c/6.2.1/../../../../pic32c/lib/v7e-m/fpv5/hard\libm.a(lib_a-e_sqrt.o)
 .bss           0x00000000        0x0 c:/program files (x86)/microchip/xc32/v2.10/bin/bin/../../lib/gcc/pic32c/6.2.1/../../../../pic32c/lib/v7e-m/fpv5/hard\libm.a(lib_a-e_sqrt.o)
 .text.__ieee754_sqrt
                0x00000000      0x178 c:/program files (x86)/microchip/xc32/v2.10/bin/bin/../../lib/gcc/pic32c/6.2.1/../../../../pic32c/lib/v7e-m/fpv5/hard\libm.a(lib_a-e_sqrt.o)
 .debug_info    0x00000000     0x1022 c:/program files (x86)/microchip/xc32/v2.10/bin/bin/../../lib/gcc/pic32c/6.2.1/../../../../pic32c/lib/v7e-m/fpv5/hard\libm.a(lib_a-e_sqrt.o)
 .debug_abbrev  0x00000000      0x1fe c:/program files (x86)/microchip/xc32/v2.10/bin/bin/../../lib/gcc/pic32c/6.2.1/../../../../pic32c/lib/v7e-m/fpv5/hard\libm.a(lib_a-e_sqrt.o)
 .debug_loc     0x00000000      0x49f c:/program files (x86)/microchip/xc32/v2.10/bin/bin/../../lib/gcc/pic32c/6.2.1/../../../../pic32c/lib/v7e-m/fpv5/hard\libm.a(lib_a-e_sqrt.o)
 .debug_aranges
                0x00000000       0x20 c:/program files (x86)/microchip/xc32/v2.10/bin/bin/../../lib/gcc/pic32c/6.2.1/../../../../pic32c/lib/v7e-m/fpv5/hard\libm.a(lib_a-e_sqrt.o)
 .debug_ranges  0x00000000       0x10 c:/program files (x86)/microchip/xc32/v2.10/bin/bin/../../lib/gcc/pic32c/6.2.1/../../../../pic32c/lib/v7e-m/fpv5/hard\libm.a(lib_a-e_sqrt.o)
 .debug_line    0x00000000      0x3a8 c:/program files (x86)/microchip/xc32/v2.10/bin/bin/../../lib/gcc/pic32c/6.2.1/../../../../pic32c/lib/v7e-m/fpv5/hard\libm.a(lib_a-e_sqrt.o)
 .debug_str     0x00000000        0xe c:/program files (x86)/microchip/xc32/v2.10/bin/bin/../../lib/gcc/pic32c/6.2.1/../../../../pic32c/lib/v7e-m/fpv5/hard\libm.a(lib_a-e_sqrt.o)
 .comment       0x00000000       0x3d c:/program files (x86)/microchip/xc32/v2.10/bin/bin/../../lib/gcc/pic32c/6.2.1/../../../../pic32c/lib/v7e-m/fpv5/hard\libm.a(lib_a-e_sqrt.o)
 .debug_frame   0x00000000       0x40 c:/program files (x86)/microchip/xc32/v2.10/bin/bin/../../lib/gcc/pic32c/6.2.1/../../../../pic32c/lib/v7e-m/fpv5/hard\libm.a(lib_a-e_sqrt.o)
 .ARM.attributes
                0x00000000       0x32 c:/program files (x86)/microchip/xc32/v2.10/bin/bin/../../lib/gcc/pic32c/6.2.1/../../../../pic32c/lib/v7e-m/fpv5/hard\libm.a(lib_a-e_sqrt.o)
 .text          0x00000000        0x0 c:/program files (x86)/microchip/xc32/v2.10/bin/bin/../../lib/gcc/pic32c/6.2.1/../../../../pic32c/lib/v7e-m/fpv5/hard\libm.a(lib_a-s_fabs.o)
 .data          0x00000000        0x0 c:/program files (x86)/microchip/xc32/v2.10/bin/bin/../../lib/gcc/pic32c/6.2.1/../../../../pic32c/lib/v7e-m/fpv5/hard\libm.a(lib_a-s_fabs.o)
 .bss           0x00000000        0x0 c:/program files (x86)/microchip/xc32/v2.10/bin/bin/../../lib/gcc/pic32c/6.2.1/../../../../pic32c/lib/v7e-m/fpv5/hard\libm.a(lib_a-s_fabs.o)
 .text.fabs     0x00000000       0x10 c:/program files (x86)/microchip/xc32/v2.10/bin/bin/../../lib/gcc/pic32c/6.2.1/../../../../pic32c/lib/v7e-m/fpv5/hard\libm.a(lib_a-s_fabs.o)
 .debug_info    0x00000000      0xf2e c:/program files (x86)/microchip/xc32/v2.10/bin/bin/../../lib/gcc/pic32c/6.2.1/../../../../pic32c/lib/v7e-m/fpv5/hard\libm.a(lib_a-s_fabs.o)
 .debug_abbrev  0x00000000      0x1eb c:/program files (x86)/microchip/xc32/v2.10/bin/bin/../../lib/gcc/pic32c/6.2.1/../../../../pic32c/lib/v7e-m/fpv5/hard\libm.a(lib_a-s_fabs.o)
 .debug_loc     0x00000000       0x3d c:/program files (x86)/microchip/xc32/v2.10/bin/bin/../../lib/gcc/pic32c/6.2.1/../../../../pic32c/lib/v7e-m/fpv5/hard\libm.a(lib_a-s_fabs.o)
 .debug_aranges
                0x00000000       0x20 c:/program files (x86)/microchip/xc32/v2.10/bin/bin/../../lib/gcc/pic32c/6.2.1/../../../../pic32c/lib/v7e-m/fpv5/hard\libm.a(lib_a-s_fabs.o)
 .debug_ranges  0x00000000       0x10 c:/program files (x86)/microchip/xc32/v2.10/bin/bin/../../lib/gcc/pic32c/6.2.1/../../../../pic32c/lib/v7e-m/fpv5/hard\libm.a(lib_a-s_fabs.o)
 .debug_line    0x00000000      0x325 c:/program files (x86)/microchip/xc32/v2.10/bin/bin/../../lib/gcc/pic32c/6.2.1/../../../../pic32c/lib/v7e-m/fpv5/hard\libm.a(lib_a-s_fabs.o)
 .debug_str     0x00000000        0xe c:/program files (x86)/microchip/xc32/v2.10/bin/bin/../../lib/gcc/pic32c/6.2.1/../../../../pic32c/lib/v7e-m/fpv5/hard\libm.a(lib_a-s_fabs.o)
 .comment       0x00000000       0x3d c:/program files (x86)/microchip/xc32/v2.10/bin/bin/../../lib/gcc/pic32c/6.2.1/../../../../pic32c/lib/v7e-m/fpv5/hard\libm.a(lib_a-s_fabs.o)
 .debug_frame   0x00000000       0x20 c:/program files (x86)/microchip/xc32/v2.10/bin/bin/../../lib/gcc/pic32c/6.2.1/../../../../pic32c/lib/v7e-m/fpv5/hard\libm.a(lib_a-s_fabs.o)
 .ARM.attributes
                0x00000000       0x32 c:/program files (x86)/microchip/xc32/v2.10/bin/bin/../../lib/gcc/pic32c/6.2.1/../../../../pic32c/lib/v7e-m/fpv5/hard\libm.a(lib_a-s_fabs.o)
 .text          0x00000000        0x0 c:/program files (x86)/microchip/xc32/v2.10/bin/bin/../../lib/gcc/pic32c/6.2.1/../../../../pic32c/lib/v7e-m/fpv5/hard\libm.a(lib_a-s_finite.o)
 .data          0x00000000        0x0 c:/program files (x86)/microchip/xc32/v2.10/bin/bin/../../lib/gcc/pic32c/6.2.1/../../../../pic32c/lib/v7e-m/fpv5/hard\libm.a(lib_a-s_finite.o)
 .bss           0x00000000        0x0 c:/program files (x86)/microchip/xc32/v2.10/bin/bin/../../lib/gcc/pic32c/6.2.1/../../../../pic32c/lib/v7e-m/fpv5/hard\libm.a(lib_a-s_finite.o)
 .text.finite   0x00000000       0x10 c:/program files (x86)/microchip/xc32/v2.10/bin/bin/../../lib/gcc/pic32c/6.2.1/../../../../pic32c/lib/v7e-m/fpv5/hard\libm.a(lib_a-s_finite.o)
 .debug_info    0x00000000      0xf23 c:/program files (x86)/microchip/xc32/v2.10/bin/bin/../../lib/gcc/pic32c/6.2.1/../../../../pic32c/lib/v7e-m/fpv5/hard\libm.a(lib_a-s_finite.o)
 .debug_abbrev  0x00000000      0x1c2 c:/program files (x86)/microchip/xc32/v2.10/bin/bin/../../lib/gcc/pic32c/6.2.1/../../../../pic32c/lib/v7e-m/fpv5/hard\libm.a(lib_a-s_finite.o)
 .debug_aranges
                0x00000000       0x20 c:/program files (x86)/microchip/xc32/v2.10/bin/bin/../../lib/gcc/pic32c/6.2.1/../../../../pic32c/lib/v7e-m/fpv5/hard\libm.a(lib_a-s_finite.o)
 .debug_ranges  0x00000000       0x10 c:/program files (x86)/microchip/xc32/v2.10/bin/bin/../../lib/gcc/pic32c/6.2.1/../../../../pic32c/lib/v7e-m/fpv5/hard\libm.a(lib_a-s_finite.o)
 .debug_line    0x00000000      0x2b4 c:/program files (x86)/microchip/xc32/v2.10/bin/bin/../../lib/gcc/pic32c/6.2.1/../../../../pic32c/lib/v7e-m/fpv5/hard\libm.a(lib_a-s_finite.o)
 .debug_str     0x00000000        0xe c:/program files (x86)/microchip/xc32/v2.10/bin/bin/../../lib/gcc/pic32c/6.2.1/../../../../pic32c/lib/v7e-m/fpv5/hard\libm.a(lib_a-s_finite.o)
 .comment       0x00000000       0x3d c:/program files (x86)/microchip/xc32/v2.10/bin/bin/../../lib/gcc/pic32c/6.2.1/../../../../pic32c/lib/v7e-m/fpv5/hard\libm.a(lib_a-s_finite.o)
 .debug_frame   0x00000000       0x20 c:/program files (x86)/microchip/xc32/v2.10/bin/bin/../../lib/gcc/pic32c/6.2.1/../../../../pic32c/lib/v7e-m/fpv5/hard\libm.a(lib_a-s_finite.o)
 .ARM.attributes
                0x00000000       0x32 c:/program files (x86)/microchip/xc32/v2.10/bin/bin/../../lib/gcc/pic32c/6.2.1/../../../../pic32c/lib/v7e-m/fpv5/hard\libm.a(lib_a-s_finite.o)
 .text          0x00000000        0x0 c:/program files (x86)/microchip/xc32/v2.10/bin/bin/../../lib/gcc/pic32c/6.2.1/../../../../pic32c/lib/v7e-m/fpv5/hard\libm.a(lib_a-s_lib_ver.o)
 .data          0x00000000        0x0 c:/program files (x86)/microchip/xc32/v2.10/bin/bin/../../lib/gcc/pic32c/6.2.1/../../../../pic32c/lib/v7e-m/fpv5/hard\libm.a(lib_a-s_lib_ver.o)
 .bss           0x00000000        0x0 c:/program files (x86)/microchip/xc32/v2.10/bin/bin/../../lib/gcc/pic32c/6.2.1/../../../../pic32c/lib/v7e-m/fpv5/hard\libm.a(lib_a-s_lib_ver.o)
 .data.__fdlib_version
                0x00000000        0x1 c:/program files (x86)/microchip/xc32/v2.10/bin/bin/../../lib/gcc/pic32c/6.2.1/../../../../pic32c/lib/v7e-m/fpv5/hard\libm.a(lib_a-s_lib_ver.o)
 .debug_info    0x00000000      0xe4e c:/program files (x86)/microchip/xc32/v2.10/bin/bin/../../lib/gcc/pic32c/6.2.1/../../../../pic32c/lib/v7e-m/fpv5/hard\libm.a(lib_a-s_lib_ver.o)
 .debug_abbrev  0x00000000      0x18e c:/program files (x86)/microchip/xc32/v2.10/bin/bin/../../lib/gcc/pic32c/6.2.1/../../../../pic32c/lib/v7e-m/fpv5/hard\libm.a(lib_a-s_lib_ver.o)
 .debug_aranges
                0x00000000       0x18 c:/program files (x86)/microchip/xc32/v2.10/bin/bin/../../lib/gcc/pic32c/6.2.1/../../../../pic32c/lib/v7e-m/fpv5/hard\libm.a(lib_a-s_lib_ver.o)
 .debug_line    0x00000000      0x210 c:/program files (x86)/microchip/xc32/v2.10/bin/bin/../../lib/gcc/pic32c/6.2.1/../../../../pic32c/lib/v7e-m/fpv5/hard\libm.a(lib_a-s_lib_ver.o)
 .debug_str     0x00000000        0xe c:/program files (x86)/microchip/xc32/v2.10/bin/bin/../../lib/gcc/pic32c/6.2.1/../../../../pic32c/lib/v7e-m/fpv5/hard\libm.a(lib_a-s_lib_ver.o)
 .comment       0x00000000       0x3d c:/program files (x86)/microchip/xc32/v2.10/bin/bin/../../lib/gcc/pic32c/6.2.1/../../../../pic32c/lib/v7e-m/fpv5/hard\libm.a(lib_a-s_lib_ver.o)
 .ARM.attributes
                0x00000000       0x32 c:/program files (x86)/microchip/xc32/v2.10/bin/bin/../../lib/gcc/pic32c/6.2.1/../../../../pic32c/lib/v7e-m/fpv5/hard\libm.a(lib_a-s_lib_ver.o)
 .text          0x00000000        0x0 c:/program files (x86)/microchip/xc32/v2.10/bin/bin/../../lib/gcc/pic32c/6.2.1/../../../../pic32c/lib/v7e-m/fpv5/hard\libm.a(lib_a-s_matherr.o)
 .data          0x00000000        0x0 c:/program files (x86)/microchip/xc32/v2.10/bin/bin/../../lib/gcc/pic32c/6.2.1/../../../../pic32c/lib/v7e-m/fpv5/hard\libm.a(lib_a-s_matherr.o)
 .bss           0x00000000        0x0 c:/program files (x86)/microchip/xc32/v2.10/bin/bin/../../lib/gcc/pic32c/6.2.1/../../../../pic32c/lib/v7e-m/fpv5/hard\libm.a(lib_a-s_matherr.o)
 .text.matherr  0x00000000        0x4 c:/program files (x86)/microchip/xc32/v2.10/bin/bin/../../lib/gcc/pic32c/6.2.1/../../../../pic32c/lib/v7e-m/fpv5/hard\libm.a(lib_a-s_matherr.o)
 .debug_info    0x00000000      0xf02 c:/program files (x86)/microchip/xc32/v2.10/bin/bin/../../lib/gcc/pic32c/6.2.1/../../../../pic32c/lib/v7e-m/fpv5/hard\libm.a(lib_a-s_matherr.o)
 .debug_abbrev  0x00000000      0x1c1 c:/program files (x86)/microchip/xc32/v2.10/bin/bin/../../lib/gcc/pic32c/6.2.1/../../../../pic32c/lib/v7e-m/fpv5/hard\libm.a(lib_a-s_matherr.o)
 .debug_loc     0x00000000       0x21 c:/program files (x86)/microchip/xc32/v2.10/bin/bin/../../lib/gcc/pic32c/6.2.1/../../../../pic32c/lib/v7e-m/fpv5/hard\libm.a(lib_a-s_matherr.o)
 .debug_aranges
                0x00000000       0x20 c:/program files (x86)/microchip/xc32/v2.10/bin/bin/../../lib/gcc/pic32c/6.2.1/../../../../pic32c/lib/v7e-m/fpv5/hard\libm.a(lib_a-s_matherr.o)
 .debug_ranges  0x00000000       0x10 c:/program files (x86)/microchip/xc32/v2.10/bin/bin/../../lib/gcc/pic32c/6.2.1/../../../../pic32c/lib/v7e-m/fpv5/hard\libm.a(lib_a-s_matherr.o)
 .debug_line    0x00000000      0x221 c:/program files (x86)/microchip/xc32/v2.10/bin/bin/../../lib/gcc/pic32c/6.2.1/../../../../pic32c/lib/v7e-m/fpv5/hard\libm.a(lib_a-s_matherr.o)
 .debug_str     0x00000000        0xe c:/program files (x86)/microchip/xc32/v2.10/bin/bin/../../lib/gcc/pic32c/6.2.1/../../../../pic32c/lib/v7e-m/fpv5/hard\libm.a(lib_a-s_matherr.o)
 .comment       0x00000000       0x3d c:/program files (x86)/microchip/xc32/v2.10/bin/bin/../../lib/gcc/pic32c/6.2.1/../../../../pic32c/lib/v7e-m/fpv5/hard\libm.a(lib_a-s_matherr.o)
 .debug_frame   0x00000000       0x20 c:/program files (x86)/microchip/xc32/v2.10/bin/bin/../../lib/gcc/pic32c/6.2.1/../../../../pic32c/lib/v7e-m/fpv5/hard\libm.a(lib_a-s_matherr.o)
 .ARM.attributes
                0x00000000       0x32 c:/program files (x86)/microchip/xc32/v2.10/bin/bin/../../lib/gcc/pic32c/6.2.1/../../../../pic32c/lib/v7e-m/fpv5/hard\libm.a(lib_a-s_matherr.o)
 .text          0x00000000        0x0 c:/program files (x86)/microchip/xc32/v2.10/bin/bin/../../lib/gcc/pic32c/6.2.1/../../../../pic32c/lib/v7e-m/fpv5/hard\libm.a(lib_a-s_nan.o)
 .data          0x00000000        0x0 c:/program files (x86)/microchip/xc32/v2.10/bin/bin/../../lib/gcc/pic32c/6.2.1/../../../../pic32c/lib/v7e-m/fpv5/hard\libm.a(lib_a-s_nan.o)
 .bss           0x00000000        0x0 c:/program files (x86)/microchip/xc32/v2.10/bin/bin/../../lib/gcc/pic32c/6.2.1/../../../../pic32c/lib/v7e-m/fpv5/hard\libm.a(lib_a-s_nan.o)
 .text.nan      0x00000000       0x10 c:/program files (x86)/microchip/xc32/v2.10/bin/bin/../../lib/gcc/pic32c/6.2.1/../../../../pic32c/lib/v7e-m/fpv5/hard\libm.a(lib_a-s_nan.o)
 .debug_info    0x00000000      0xe86 c:/program files (x86)/microchip/xc32/v2.10/bin/bin/../../lib/gcc/pic32c/6.2.1/../../../../pic32c/lib/v7e-m/fpv5/hard\libm.a(lib_a-s_nan.o)
 .debug_abbrev  0x00000000      0x1bf c:/program files (x86)/microchip/xc32/v2.10/bin/bin/../../lib/gcc/pic32c/6.2.1/../../../../pic32c/lib/v7e-m/fpv5/hard\libm.a(lib_a-s_nan.o)
 .debug_aranges
                0x00000000       0x20 c:/program files (x86)/microchip/xc32/v2.10/bin/bin/../../lib/gcc/pic32c/6.2.1/../../../../pic32c/lib/v7e-m/fpv5/hard\libm.a(lib_a-s_nan.o)
 .debug_ranges  0x00000000       0x10 c:/program files (x86)/microchip/xc32/v2.10/bin/bin/../../lib/gcc/pic32c/6.2.1/../../../../pic32c/lib/v7e-m/fpv5/hard\libm.a(lib_a-s_nan.o)
 .debug_line    0x00000000      0x21e c:/program files (x86)/microchip/xc32/v2.10/bin/bin/../../lib/gcc/pic32c/6.2.1/../../../../pic32c/lib/v7e-m/fpv5/hard\libm.a(lib_a-s_nan.o)
 .debug_str     0x00000000        0xe c:/program files (x86)/microchip/xc32/v2.10/bin/bin/../../lib/gcc/pic32c/6.2.1/../../../../pic32c/lib/v7e-m/fpv5/hard\libm.a(lib_a-s_nan.o)
 .comment       0x00000000       0x3d c:/program files (x86)/microchip/xc32/v2.10/bin/bin/../../lib/gcc/pic32c/6.2.1/../../../../pic32c/lib/v7e-m/fpv5/hard\libm.a(lib_a-s_nan.o)
 .debug_frame   0x00000000       0x20 c:/program files (x86)/microchip/xc32/v2.10/bin/bin/../../lib/gcc/pic32c/6.2.1/../../../../pic32c/lib/v7e-m/fpv5/hard\libm.a(lib_a-s_nan.o)
 .ARM.attributes
                0x00000000       0x32 c:/program files (x86)/microchip/xc32/v2.10/bin/bin/../../lib/gcc/pic32c/6.2.1/../../../../pic32c/lib/v7e-m/fpv5/hard\libm.a(lib_a-s_nan.o)
 .text          0x00000000        0x0 c:/program files (x86)/microchip/xc32/v2.10/bin/bin/../../lib/gcc/pic32c/6.2.1/../../../../pic32c/lib/v7e-m/fpv5/hard\libm.a(lib_a-s_rint.o)
 .data          0x00000000        0x0 c:/program files (x86)/microchip/xc32/v2.10/bin/bin/../../lib/gcc/pic32c/6.2.1/../../../../pic32c/lib/v7e-m/fpv5/hard\libm.a(lib_a-s_rint.o)
 .bss           0x00000000        0x0 c:/program files (x86)/microchip/xc32/v2.10/bin/bin/../../lib/gcc/pic32c/6.2.1/../../../../pic32c/lib/v7e-m/fpv5/hard\libm.a(lib_a-s_rint.o)
 .text.rint     0x00000000      0x11c c:/program files (x86)/microchip/xc32/v2.10/bin/bin/../../lib/gcc/pic32c/6.2.1/../../../../pic32c/lib/v7e-m/fpv5/hard\libm.a(lib_a-s_rint.o)
 .rodata.TWO52  0x00000000       0x10 c:/program files (x86)/microchip/xc32/v2.10/bin/bin/../../lib/gcc/pic32c/6.2.1/../../../../pic32c/lib/v7e-m/fpv5/hard\libm.a(lib_a-s_rint.o)
 .debug_info    0x00000000     0x101b c:/program files (x86)/microchip/xc32/v2.10/bin/bin/../../lib/gcc/pic32c/6.2.1/../../../../pic32c/lib/v7e-m/fpv5/hard\libm.a(lib_a-s_rint.o)
 .debug_abbrev  0x00000000      0x1ff c:/program files (x86)/microchip/xc32/v2.10/bin/bin/../../lib/gcc/pic32c/6.2.1/../../../../pic32c/lib/v7e-m/fpv5/hard\libm.a(lib_a-s_rint.o)
 .debug_loc     0x00000000      0x35d c:/program files (x86)/microchip/xc32/v2.10/bin/bin/../../lib/gcc/pic32c/6.2.1/../../../../pic32c/lib/v7e-m/fpv5/hard\libm.a(lib_a-s_rint.o)
 .debug_aranges
                0x00000000       0x20 c:/program files (x86)/microchip/xc32/v2.10/bin/bin/../../lib/gcc/pic32c/6.2.1/../../../../pic32c/lib/v7e-m/fpv5/hard\libm.a(lib_a-s_rint.o)
 .debug_ranges  0x00000000       0x48 c:/program files (x86)/microchip/xc32/v2.10/bin/bin/../../lib/gcc/pic32c/6.2.1/../../../../pic32c/lib/v7e-m/fpv5/hard\libm.a(lib_a-s_rint.o)
 .debug_line    0x00000000      0x308 c:/program files (x86)/microchip/xc32/v2.10/bin/bin/../../lib/gcc/pic32c/6.2.1/../../../../pic32c/lib/v7e-m/fpv5/hard\libm.a(lib_a-s_rint.o)
 .debug_str     0x00000000        0xe c:/program files (x86)/microchip/xc32/v2.10/bin/bin/../../lib/gcc/pic32c/6.2.1/../../../../pic32c/lib/v7e-m/fpv5/hard\libm.a(lib_a-s_rint.o)
 .comment       0x00000000       0x3d c:/program files (x86)/microchip/xc32/v2.10/bin/bin/../../lib/gcc/pic32c/6.2.1/../../../../pic32c/lib/v7e-m/fpv5/hard\libm.a(lib_a-s_rint.o)
 .debug_frame   0x00000000       0x48 c:/program files (x86)/microchip/xc32/v2.10/bin/bin/../../lib/gcc/pic32c/6.2.1/../../../../pic32c/lib/v7e-m/fpv5/hard\libm.a(lib_a-s_rint.o)
 .ARM.attributes
                0x00000000       0x32 c:/program files (x86)/microchip/xc32/v2.10/bin/bin/../../lib/gcc/pic32c/6.2.1/../../../../pic32c/lib/v7e-m/fpv5/hard\libm.a(lib_a-s_rint.o)
 .text          0x00000000        0x0 c:/program files (x86)/microchip/xc32/v2.10/bin/bin/../../lib/gcc/pic32c/6.2.1/../../../../pic32c/lib/v7e-m/fpv5/hard\libm.a(lib_a-s_scalbn.o)
 .data          0x00000000        0x0 c:/program files (x86)/microchip/xc32/v2.10/bin/bin/../../lib/gcc/pic32c/6.2.1/../../../../pic32c/lib/v7e-m/fpv5/hard\libm.a(lib_a-s_scalbn.o)
 .bss           0x00000000        0x0 c:/program files (x86)/microchip/xc32/v2.10/bin/bin/../../lib/gcc/pic32c/6.2.1/../../../../pic32c/lib/v7e-m/fpv5/hard\libm.a(lib_a-s_scalbn.o)
 .text.scalbn   0x00000000      0x11c c:/program files (x86)/microchip/xc32/v2.10/bin/bin/../../lib/gcc/pic32c/6.2.1/../../../../pic32c/lib/v7e-m/fpv5/hard\libm.a(lib_a-s_scalbn.o)
 .debug_info    0x00000000     0x1070 c:/program files (x86)/microchip/xc32/v2.10/bin/bin/../../lib/gcc/pic32c/6.2.1/../../../../pic32c/lib/v7e-m/fpv5/hard\libm.a(lib_a-s_scalbn.o)
 .debug_abbrev  0x00000000      0x227 c:/program files (x86)/microchip/xc32/v2.10/bin/bin/../../lib/gcc/pic32c/6.2.1/../../../../pic32c/lib/v7e-m/fpv5/hard\libm.a(lib_a-s_scalbn.o)
 .debug_loc     0x00000000      0x37b c:/program files (x86)/microchip/xc32/v2.10/bin/bin/../../lib/gcc/pic32c/6.2.1/../../../../pic32c/lib/v7e-m/fpv5/hard\libm.a(lib_a-s_scalbn.o)
 .debug_aranges
                0x00000000       0x20 c:/program files (x86)/microchip/xc32/v2.10/bin/bin/../../lib/gcc/pic32c/6.2.1/../../../../pic32c/lib/v7e-m/fpv5/hard\libm.a(lib_a-s_scalbn.o)
 .debug_ranges  0x00000000       0x30 c:/program files (x86)/microchip/xc32/v2.10/bin/bin/../../lib/gcc/pic32c/6.2.1/../../../../pic32c/lib/v7e-m/fpv5/hard\libm.a(lib_a-s_scalbn.o)
 .debug_line    0x00000000      0x2e9 c:/program files (x86)/microchip/xc32/v2.10/bin/bin/../../lib/gcc/pic32c/6.2.1/../../../../pic32c/lib/v7e-m/fpv5/hard\libm.a(lib_a-s_scalbn.o)
 .debug_str     0x00000000       0x17 c:/program files (x86)/microchip/xc32/v2.10/bin/bin/../../lib/gcc/pic32c/6.2.1/../../../../pic32c/lib/v7e-m/fpv5/hard\libm.a(lib_a-s_scalbn.o)
 .comment       0x00000000       0x3d c:/program files (x86)/microchip/xc32/v2.10/bin/bin/../../lib/gcc/pic32c/6.2.1/../../../../pic32c/lib/v7e-m/fpv5/hard\libm.a(lib_a-s_scalbn.o)
 .debug_frame   0x00000000       0x74 c:/program files (x86)/microchip/xc32/v2.10/bin/bin/../../lib/gcc/pic32c/6.2.1/../../../../pic32c/lib/v7e-m/fpv5/hard\libm.a(lib_a-s_scalbn.o)
 .ARM.attributes
                0x00000000       0x32 c:/program files (x86)/microchip/xc32/v2.10/bin/bin/../../lib/gcc/pic32c/6.2.1/../../../../pic32c/lib/v7e-m/fpv5/hard\libm.a(lib_a-s_scalbn.o)
 .text          0x00000000        0x0 c:/program files (x86)/microchip/xc32/v2.10/bin/bin/../../lib/gcc/pic32c/6.2.1/../../../../pic32c/lib/v7e-m/fpv5/hard\libm.a(lib_a-s_copysign.o)
 .data          0x00000000        0x0 c:/program files (x86)/microchip/xc32/v2.10/bin/bin/../../lib/gcc/pic32c/6.2.1/../../../../pic32c/lib/v7e-m/fpv5/hard\libm.a(lib_a-s_copysign.o)
 .bss           0x00000000        0x0 c:/program files (x86)/microchip/xc32/v2.10/bin/bin/../../lib/gcc/pic32c/6.2.1/../../../../pic32c/lib/v7e-m/fpv5/hard\libm.a(lib_a-s_copysign.o)
 .text.copysign
                0x00000000       0x1c c:/program files (x86)/microchip/xc32/v2.10/bin/bin/../../lib/gcc/pic32c/6.2.1/../../../../pic32c/lib/v7e-m/fpv5/hard\libm.a(lib_a-s_copysign.o)
 .debug_info    0x00000000      0xf65 c:/program files (x86)/microchip/xc32/v2.10/bin/bin/../../lib/gcc/pic32c/6.2.1/../../../../pic32c/lib/v7e-m/fpv5/hard\libm.a(lib_a-s_copysign.o)
 .debug_abbrev  0x00000000      0x1fa c:/program files (x86)/microchip/xc32/v2.10/bin/bin/../../lib/gcc/pic32c/6.2.1/../../../../pic32c/lib/v7e-m/fpv5/hard\libm.a(lib_a-s_copysign.o)
 .debug_loc     0x00000000       0x3d c:/program files (x86)/microchip/xc32/v2.10/bin/bin/../../lib/gcc/pic32c/6.2.1/../../../../pic32c/lib/v7e-m/fpv5/hard\libm.a(lib_a-s_copysign.o)
 .debug_aranges
                0x00000000       0x20 c:/program files (x86)/microchip/xc32/v2.10/bin/bin/../../lib/gcc/pic32c/6.2.1/../../../../pic32c/lib/v7e-m/fpv5/hard\libm.a(lib_a-s_copysign.o)
 .debug_ranges  0x00000000       0x10 c:/program files (x86)/microchip/xc32/v2.10/bin/bin/../../lib/gcc/pic32c/6.2.1/../../../../pic32c/lib/v7e-m/fpv5/hard\libm.a(lib_a-s_copysign.o)
 .debug_line    0x00000000      0x2b8 c:/program files (x86)/microchip/xc32/v2.10/bin/bin/../../lib/gcc/pic32c/6.2.1/../../../../pic32c/lib/v7e-m/fpv5/hard\libm.a(lib_a-s_copysign.o)
 .debug_str     0x00000000        0xe c:/program files (x86)/microchip/xc32/v2.10/bin/bin/../../lib/gcc/pic32c/6.2.1/../../../../pic32c/lib/v7e-m/fpv5/hard\libm.a(lib_a-s_copysign.o)
 .comment       0x00000000       0x3d c:/program files (x86)/microchip/xc32/v2.10/bin/bin/../../lib/gcc/pic32c/6.2.1/../../../../pic32c/lib/v7e-m/fpv5/hard\libm.a(lib_a-s_copysign.o)
 .debug_frame   0x00000000       0x20 c:/program files (x86)/microchip/xc32/v2.10/bin/bin/../../lib/gcc/pic32c/6.2.1/../../../../pic32c/lib/v7e-m/fpv5/hard\libm.a(lib_a-s_copysign.o)
 .ARM.attributes
                0x00000000       0x32 c:/program files (x86)/microchip/xc32/v2.10/bin/bin/../../lib/gcc/pic32c/6.2.1/../../../../pic32c/lib/v7e-m/fpv5/hard\libm.a(lib_a-s_copysign.o)
 .text          0x00000000        0x0 c:/program files (x86)/microchip/xc32/v2.10/bin/bin/../../lib/gcc/pic32c/6.2.1/../../../../pic32c/lib/v7e-m/fpv5/hard\libpic32c.a(sbrk.o)
 .data          0x00000000        0x0 c:/program files (x86)/microchip/xc32/v2.10/bin/bin/../../lib/gcc/pic32c/6.2.1/../../../../pic32c/lib/v7e-m/fpv5/hard\libpic32c.a(sbrk.o)
 .text          0x00000000        0x0 c:/program files (x86)/microchip/xc32/v2.10/bin/bin/../../lib/gcc/pic32c/6.2.1/../../../../pic32c/lib/v7e-m/fpv5/hard\libc.a(lib_a-errno.o)
 .data          0x00000000        0x0 c:/program files (x86)/microchip/xc32/v2.10/bin/bin/../../lib/gcc/pic32c/6.2.1/../../../../pic32c/lib/v7e-m/fpv5/hard\libc.a(lib_a-errno.o)
 .bss           0x00000000        0x0 c:/program files (x86)/microchip/xc32/v2.10/bin/bin/../../lib/gcc/pic32c/6.2.1/../../../../pic32c/lib/v7e-m/fpv5/hard\libc.a(lib_a-errno.o)
 .text.__errno  0x00000000        0xc c:/program files (x86)/microchip/xc32/v2.10/bin/bin/../../lib/gcc/pic32c/6.2.1/../../../../pic32c/lib/v7e-m/fpv5/hard\libc.a(lib_a-errno.o)
 .debug_info    0x00000000      0xe1b c:/program files (x86)/microchip/xc32/v2.10/bin/bin/../../lib/gcc/pic32c/6.2.1/../../../../pic32c/lib/v7e-m/fpv5/hard\libc.a(lib_a-errno.o)
 .debug_abbrev  0x00000000      0x194 c:/program files (x86)/microchip/xc32/v2.10/bin/bin/../../lib/gcc/pic32c/6.2.1/../../../../pic32c/lib/v7e-m/fpv5/hard\libc.a(lib_a-errno.o)
 .debug_aranges
                0x00000000       0x20 c:/program files (x86)/microchip/xc32/v2.10/bin/bin/../../lib/gcc/pic32c/6.2.1/../../../../pic32c/lib/v7e-m/fpv5/hard\libc.a(lib_a-errno.o)
 .debug_ranges  0x00000000       0x10 c:/program files (x86)/microchip/xc32/v2.10/bin/bin/../../lib/gcc/pic32c/6.2.1/../../../../pic32c/lib/v7e-m/fpv5/hard\libc.a(lib_a-errno.o)
 .debug_line    0x00000000      0x1b1 c:/program files (x86)/microchip/xc32/v2.10/bin/bin/../../lib/gcc/pic32c/6.2.1/../../../../pic32c/lib/v7e-m/fpv5/hard\libc.a(lib_a-errno.o)
 .debug_str     0x00000000        0xe c:/program files (x86)/microchip/xc32/v2.10/bin/bin/../../lib/gcc/pic32c/6.2.1/../../../../pic32c/lib/v7e-m/fpv5/hard\libc.a(lib_a-errno.o)
 .comment       0x00000000       0x3d c:/program files (x86)/microchip/xc32/v2.10/bin/bin/../../lib/gcc/pic32c/6.2.1/../../../../pic32c/lib/v7e-m/fpv5/hard\libc.a(lib_a-errno.o)
 .debug_frame   0x00000000       0x20 c:/program files (x86)/microchip/xc32/v2.10/bin/bin/../../lib/gcc/pic32c/6.2.1/../../../../pic32c/lib/v7e-m/fpv5/hard\libc.a(lib_a-errno.o)
 .ARM.attributes
                0x00000000       0x32 c:/program files (x86)/microchip/xc32/v2.10/bin/bin/../../lib/gcc/pic32c/6.2.1/../../../../pic32c/lib/v7e-m/fpv5/hard\libc.a(lib_a-errno.o)
 .text          0x00000000        0x0 c:/program files (x86)/microchip/xc32/v2.10/bin/bin/../../lib/gcc/pic32c/6.2.1/v7e-m/fpv5/hard/crtend.o
 .data          0x00000000        0x0 c:/program files (x86)/microchip/xc32/v2.10/bin/bin/../../lib/gcc/pic32c/6.2.1/v7e-m/fpv5/hard/crtend.o
 .bss           0x00000000        0x0 c:/program files (x86)/microchip/xc32/v2.10/bin/bin/../../lib/gcc/pic32c/6.2.1/v7e-m/fpv5/hard/crtend.o
 .eh_frame      0x00000000        0x4 c:/program files (x86)/microchip/xc32/v2.10/bin/bin/../../lib/gcc/pic32c/6.2.1/v7e-m/fpv5/hard/crtend.o
 .jcr           0x00000000        0x4 c:/program files (x86)/microchip/xc32/v2.10/bin/bin/../../lib/gcc/pic32c/6.2.1/v7e-m/fpv5/hard/crtend.o
 .comment       0x00000000       0x3d c:/program files (x86)/microchip/xc32/v2.10/bin/bin/../../lib/gcc/pic32c/6.2.1/v7e-m/fpv5/hard/crtend.o
 .ARM.attributes
                0x00000000       0x32 c:/program files (x86)/microchip/xc32/v2.10/bin/bin/../../lib/gcc/pic32c/6.2.1/v7e-m/fpv5/hard/crtend.o
 .text          0x00000000        0x0 c:/program files (x86)/microchip/xc32/v2.10/bin/bin/../../lib/gcc/pic32c/6.2.1/v7e-m/fpv5/hard/crtn.o
 .data          0x00000000        0x0 c:/program files (x86)/microchip/xc32/v2.10/bin/bin/../../lib/gcc/pic32c/6.2.1/v7e-m/fpv5/hard/crtn.o
 .bss           0x00000000        0x0 c:/program files (x86)/microchip/xc32/v2.10/bin/bin/../../lib/gcc/pic32c/6.2.1/v7e-m/fpv5/hard/crtn.o

Memory Configuration

Name             Origin             Length             Attributes
rom              0x00400000         0x00200000         xr
ram              0x20400000         0x00060000         xrw
itcm             0x00000000         0x00000000         xrw
dtcm             0x20000000         0x00000000         xrw
*default*        0x00000000         0xffffffff
tcm              0x00000000         0xffffffff

Linker script and memory map

LOAD c:/program files (x86)/microchip/xc32/v2.10/bin/bin/../../lib/gcc/pic32c/6.2.1/v7e-m/fpv5/hard/crti.o
LOAD c:/program files (x86)/microchip/xc32/v2.10/bin/bin/../../lib/gcc/pic32c/6.2.1/v7e-m/fpv5/hard/crtbegin.o
LOAD c:/program files (x86)/microchip/xc32/v2.10/bin/bin/../../lib/gcc/pic32c/6.2.1/../../../../pic32c/lib/v7e-m/fpv5/hard/crt0.o
LOAD build/sam_e70_xplained_ultra/production/_ext/1360937237/main.o
LOAD build/sam_e70_xplained_ultra/production/_ext/1171490990/initialization.o
LOAD build/sam_e70_xplained_ultra/production/_ext/1171490990/interrupts.o
LOAD build/sam_e70_xplained_ultra/production/_ext/1171490990/exceptions.o
LOAD build/sam_e70_xplained_ultra/production/_ext/163028504/xc32_monitor.o
LOAD build/sam_e70_xplained_ultra/production/_ext/60165520/plib_clk.o
LOAD build/sam_e70_xplained_ultra/production/_ext/60177924/plib_pio.o
LOAD build/sam_e70_xplained_ultra/production/_ext/1865468468/plib_nvic.o
LOAD build/sam_e70_xplained_ultra/production/_ext/1171490990/startup.o
LOAD build/sam_e70_xplained_ultra/production/_ext/1171490990/libc_syscalls.o
LOAD build/sam_e70_xplained_ultra/production/_ext/1881668453/sys_int.o
LOAD build/sam_e70_xplained_ultra/production/_ext/1360937237/app.o
LOAD build/sam_e70_xplained_ultra/production/_ext/1171490990/tasks.o
LOAD build/sam_e70_xplained_ultra/production/_ext/1645245335/arc4.o
LOAD build/sam_e70_xplained_ultra/production/_ext/1645245335/asm.o
LOAD build/sam_e70_xplained_ultra/production/_ext/1645245335/asn.o
LOAD build/sam_e70_xplained_ultra/production/_ext/1645245335/async.o
LOAD build/sam_e70_xplained_ultra/production/_ext/1645245335/chacha.o
LOAD build/sam_e70_xplained_ultra/production/_ext/1645245335/chacha20_poly1305.o
LOAD build/sam_e70_xplained_ultra/production/_ext/1645245335/cmac.o
LOAD build/sam_e70_xplained_ultra/production/_ext/1645245335/coding.o
LOAD build/sam_e70_xplained_ultra/production/_ext/1645245335/compress.o
LOAD build/sam_e70_xplained_ultra/production/_ext/1645245335/crypto.o
LOAD build/sam_e70_xplained_ultra/production/_ext/1645245335/curve25519.o
LOAD build/sam_e70_xplained_ultra/production/_ext/1645245335/des3.o
LOAD build/sam_e70_xplained_ultra/production/_ext/1645245335/dh.o
LOAD build/sam_e70_xplained_ultra/production/_ext/1645245335/dsa.o
LOAD build/sam_e70_xplained_ultra/production/_ext/1645245335/ecc.o
LOAD build/sam_e70_xplained_ultra/production/_ext/1645245335/ecc_fp.o
LOAD build/sam_e70_xplained_ultra/production/_ext/1645245335/ed25519.o
LOAD build/sam_e70_xplained_ultra/production/_ext/1645245335/error.o
LOAD build/sam_e70_xplained_ultra/production/_ext/1645245335/fe_low_mem.o
LOAD build/sam_e70_xplained_ultra/production/_ext/1645245335/fe_operations.o
LOAD build/sam_e70_xplained_ultra/production/_ext/1645245335/ge_low_mem.o
LOAD build/sam_e70_xplained_ultra/production/_ext/1645245335/ge_operations.o
LOAD build/sam_e70_xplained_ultra/production/_ext/1645245335/hash.o
LOAD build/sam_e70_xplained_ultra/production/_ext/1645245335/hc128.o
LOAD build/sam_e70_xplained_ultra/production/_ext/1645245335/hmac.o
LOAD build/sam_e70_xplained_ultra/production/_ext/1645245335/idea.o
LOAD build/sam_e70_xplained_ultra/production/_ext/1645245335/integer.o
LOAD build/sam_e70_xplained_ultra/production/_ext/1645245335/logging.o
LOAD build/sam_e70_xplained_ultra/production/_ext/1645245335/md2.o
LOAD build/sam_e70_xplained_ultra/production/_ext/1645245335/md4.o
LOAD build/sam_e70_xplained_ultra/production/_ext/1645245335/md5.o
LOAD build/sam_e70_xplained_ultra/production/_ext/1645245335/memory.o
LOAD build/sam_e70_xplained_ultra/production/_ext/1645245335/misc.o
LOAD build/sam_e70_xplained_ultra/production/_ext/1645245335/pkcs12.o
LOAD build/sam_e70_xplained_ultra/production/_ext/1645245335/pkcs7.o
LOAD build/sam_e70_xplained_ultra/production/_ext/1645245335/poly1305.o
LOAD build/sam_e70_xplained_ultra/production/_ext/1645245335/pwdbased.o
LOAD build/sam_e70_xplained_ultra/production/_ext/1645245335/rabbit.o
LOAD build/sam_e70_xplained_ultra/production/_ext/1645245335/ripemd.o
LOAD build/sam_e70_xplained_ultra/production/_ext/1645245335/rsa.o
LOAD build/sam_e70_xplained_ultra/production/_ext/1645245335/sha3.o
LOAD build/sam_e70_xplained_ultra/production/_ext/1645245335/sha512.o
LOAD build/sam_e70_xplained_ultra/production/_ext/1645245335/signature.o
LOAD build/sam_e70_xplained_ultra/production/_ext/1645245335/srp.o
LOAD build/sam_e70_xplained_ultra/production/_ext/1645245335/tfm.o
LOAD build/sam_e70_xplained_ultra/production/_ext/1645245335/wc_encrypt.o
LOAD build/sam_e70_xplained_ultra/production/_ext/1645245335/wc_port.o
LOAD build/sam_e70_xplained_ultra/production/_ext/1645245335/wolfevent.o
LOAD build/sam_e70_xplained_ultra/production/_ext/1645245335/wolfmath.o
LOAD build/sam_e70_xplained_ultra/production/_ext/1645245335/aes_pic32c.o
LOAD build/sam_e70_xplained_ultra/production/_ext/1645245335/sha_pic32c.o
LOAD build/sam_e70_xplained_ultra/production/_ext/1645245335/sha256_pic32c.o
LOAD build/sam_e70_xplained_ultra/production/_ext/1832805299/sys_console.o
LOAD build/sam_e70_xplained_ultra/production/_ext/1832805299/sys_console_uart.o
LOAD build/sam_e70_xplained_ultra/production/_ext/1832805299/sys_debug.o
LOAD build/sam_e70_xplained_ultra/production/_ext/1832805299/sys_command.o
LOAD build/sam_e70_xplained_ultra/production/_ext/101884895/sys_time.o
LOAD build/sam_e70_xplained_ultra/production/_ext/829342655/plib_tc1.o
LOAD build/sam_e70_xplained_ultra/production/_ext/2001315827/plib_usart1.o
                0x00000001                __MPLAB_BUILD = 0x1
                0x00005000                _min_heap_size = 0x5000
START GROUP
LOAD c:/program files (x86)/microchip/xc32/v2.10/bin/bin/../../lib/gcc/pic32c/6.2.1/../../../../pic32c/lib/v7e-m/fpv5/hard\libpic32c.a
LOAD c:/program files (x86)/microchip/xc32/v2.10/bin/bin/../../lib/gcc/pic32c/6.2.1/v7e-m/fpv5/hard\libgcc.a
LOAD c:/program files (x86)/microchip/xc32/v2.10/bin/bin/../../lib/gcc/pic32c/6.2.1/../../../../pic32c/lib/v7e-m/fpv5/hard\libc.a
LOAD c:/program files (x86)/microchip/xc32/v2.10/bin/bin/../../lib/gcc/pic32c/6.2.1/../../../../pic32c/lib/v7e-m/fpv5/hard\libm.a
END GROUP
LOAD c:/program files (x86)/microchip/xc32/v2.10/bin/bin/../../lib/gcc/pic32c/6.2.1/v7e-m/fpv5/hard/crtend.o
LOAD c:/program files (x86)/microchip/xc32/v2.10/bin/bin/../../lib/gcc/pic32c/6.2.1/v7e-m/fpv5/hard/crtn.o

.vectors        0x00400000      0x168
                0x00400000                . = ALIGN (0x4)
                0x00400000                _sfixed = .
 *(.vectors .vectors.*)
 .vectors       0x00400000      0x168 build/sam_e70_xplained_ultra/production/_ext/1171490990/interrupts.o
                0x00400000                exception_table

.text           0x00400168       0x24
                0x00400168                . = ALIGN (0x4)
 *(.glue_7t)
 .glue_7t       0x00400168        0x0 linker stubs
 *(.glue_7)
 .glue_7        0x00400168        0x0 linker stubs
 *(.gnu.linkonce.r.*)
 *(.ARM.extab* .gnu.linkonce.armextab.*)
                0x00400168                . = ALIGN (0x4)
 *(.init)
 .init          0x00400168        0x4 c:/program files (x86)/microchip/xc32/v2.10/bin/bin/../../lib/gcc/pic32c/6.2.1/v7e-m/fpv5/hard/crti.o
                0x00400168                _init
 .init          0x0040016c        0x8 c:/program files (x86)/microchip/xc32/v2.10/bin/bin/../../lib/gcc/pic32c/6.2.1/v7e-m/fpv5/hard/crtn.o
                0x00400174                . = ALIGN (0x4)
                0x00400174                __preinit_array_start = .
 *(.preinit_array)
                0x00400174                __preinit_array_end = .
                0x00400174                . = ALIGN (0x4)
                0x00400174                __init_array_start = .
 *(SORT(.init_array.*))
 .init_array.00000
                0x00400174        0x4 c:/program files (x86)/microchip/xc32/v2.10/bin/bin/../../lib/gcc/pic32c/6.2.1/../../../../pic32c/lib/v7e-m/fpv5/hard\libc.a(lib_a-__call_atexit.o)
 *(.init_array)
 .init_array    0x00400178        0x4 c:/program files (x86)/microchip/xc32/v2.10/bin/bin/../../lib/gcc/pic32c/6.2.1/v7e-m/fpv5/hard/crtbegin.o
                0x0040017c                __init_array_end = .
                0x0040017c                . = ALIGN (0x4)
 *crtbegin.o(.ctors)
 *(EXCLUDE_FILE(*crtend.o) .ctors)
 *(SORT(.ctors.*))
 *crtend.o(.ctors)
                0x0040017c                . = ALIGN (0x4)
 *(.fini)
 .fini          0x0040017c        0x4 c:/program files (x86)/microchip/xc32/v2.10/bin/bin/../../lib/gcc/pic32c/6.2.1/v7e-m/fpv5/hard/crti.o
                0x0040017c                _fini
 .fini          0x00400180        0x8 c:/program files (x86)/microchip/xc32/v2.10/bin/bin/../../lib/gcc/pic32c/6.2.1/v7e-m/fpv5/hard/crtn.o
                0x00400188                . = ALIGN (0x4)
                0x00400188                __fini_array_start = .
 *(.fini_array)
 .fini_array    0x00400188        0x4 c:/program files (x86)/microchip/xc32/v2.10/bin/bin/../../lib/gcc/pic32c/6.2.1/v7e-m/fpv5/hard/crtbegin.o
 *(SORT(.fini_array.*))
                0x0040018c                __fini_array_end = .
 *crtbegin.o(.dtors)
 *(EXCLUDE_FILE(*crtend.o) .dtors)
 *(SORT(.dtors.*))
 *crtend.o(.dtors)
                0x0040018c                . = ALIGN (0x4)
                0x0040018c                _efixed = .
                [!provide]                PROVIDE (__exidx_start, .)

.ARM.exidx      0x0040018c        0x8
 *(.ARM.exidx* .gnu.linkonce.armexidx.*)
 .ARM.exidx     0x0040018c        0x8 c:/program files (x86)/microchip/xc32/v2.10/bin/bin/../../lib/gcc/pic32c/6.2.1/v7e-m/fpv5/hard\libgcc.a(_udivmoddi4.o)
                [!provide]                PROVIDE (__exidx_end, .)
                0x00400194                . = ALIGN (0x4)
                0x00400194                _etext = .

.bss            0x20400000       0x54
                0x20400000                . = ALIGN (0x4)
                0x20400000                __bss_start__ = .
                0x20400000                _sbss = .
                0x20400000                _szero = .
 *(COMMON)
 COMMON         0x20400000        0xc build/sam_e70_xplained_ultra/production/_ext/1171490990/initialization.o
                0x20400000                sysObj
 COMMON         0x2040000c        0x9 build/sam_e70_xplained_ultra/production/_ext/1832805299/sys_debug.o
                0x2040000c                sysDebugInstance
                0x20400014                gblErrLvl
 *fill*         0x20400015        0x3 
 COMMON         0x20400018        0x8 build/sam_e70_xplained_ultra/production/_ext/829342655/plib_tc1.o
                0x20400018                TC1_CH0_CallbackObj
 COMMON         0x20400020       0x30 build/sam_e70_xplained_ultra/production/_ext/2001315827/plib_usart1.o
                0x20400020                usart1Obj
 COMMON         0x20400050        0x4 c:/program files (x86)/microchip/xc32/v2.10/bin/bin/../../lib/gcc/pic32c/6.2.1/../../../../pic32c/lib/v7e-m/fpv5/hard\libc.a(lib_a-reent.o)
                0x20400050                errno
                0x20400054                . = ALIGN (0x4)
                0x20400054                __bss_end__ = .
                0x20400054                _ebss = .
                0x20400054                _ezero = .
                0x20400054                . = ALIGN (0x4)
                0x20400054                _end = .
                0x2045ffff                _ram_end_ = ((ORIGIN (ram) + LENGTH (ram)) - 0x1)
OUTPUT(dist/sam_e70_xplained_ultra/production/encrypt_decrypt.X.production.elf elf32-littlearm)
LOAD stack
LOAD data_init

.ARM.attributes
                0x00000000       0x2e
 .ARM.attributes
                0x00000000       0x20 c:/program files (x86)/microchip/xc32/v2.10/bin/bin/../../lib/gcc/pic32c/6.2.1/v7e-m/fpv5/hard/crti.o
 .ARM.attributes
                0x00000020       0x32 c:/program files (x86)/microchip/xc32/v2.10/bin/bin/../../lib/gcc/pic32c/6.2.1/v7e-m/fpv5/hard/crtbegin.o
 .ARM.attributes
                0x00000052       0x37 build/sam_e70_xplained_ultra/production/_ext/1360937237/main.o
 .ARM.attributes
                0x00000089       0x37 build/sam_e70_xplained_ultra/production/_ext/1171490990/initialization.o
 .ARM.attributes
                0x000000c0       0x37 build/sam_e70_xplained_ultra/production/_ext/1171490990/interrupts.o
 .ARM.attributes
                0x000000f7       0x37 build/sam_e70_xplained_ultra/production/_ext/1171490990/exceptions.o
 .ARM.attributes
                0x0000012e       0x37 build/sam_e70_xplained_ultra/production/_ext/60165520/plib_clk.o
 .ARM.attributes
                0x00000165       0x37 build/sam_e70_xplained_ultra/production/_ext/60177924/plib_pio.o
 .ARM.attributes
                0x0000019c       0x37 build/sam_e70_xplained_ultra/production/_ext/1865468468/plib_nvic.o
 .ARM.attributes
                0x000001d3       0x37 build/sam_e70_xplained_ultra/production/_ext/1171490990/startup.o
 .ARM.attributes
                0x0000020a       0x37 build/sam_e70_xplained_ultra/production/_ext/1881668453/sys_int.o
 .ARM.attributes
                0x00000241       0x37 build/sam_e70_xplained_ultra/production/_ext/1360937237/app.o
 .ARM.attributes
                0x00000278       0x37 build/sam_e70_xplained_ultra/production/_ext/1171490990/tasks.o
 .ARM.attributes
                0x000002af       0x37 build/sam_e70_xplained_ultra/production/_ext/1645245335/crypto.o
 .ARM.attributes
                0x000002e6       0x37 build/sam_e70_xplained_ultra/production/_ext/1645245335/des3.o
 .ARM.attributes
                0x0000031d       0x37 build/sam_e70_xplained_ultra/production/_ext/1645245335/hmac.o
 .ARM.attributes
                0x00000354       0x37 build/sam_e70_xplained_ultra/production/_ext/1645245335/md5.o
 .ARM.attributes
                0x0000038b       0x37 build/sam_e70_xplained_ultra/production/_ext/1645245335/sha512.o
 .ARM.attributes
                0x000003c2       0x37 build/sam_e70_xplained_ultra/production/_ext/1645245335/aes_pic32c.o
 .ARM.attributes
                0x000003f9       0x37 build/sam_e70_xplained_ultra/production/_ext/1645245335/sha_pic32c.o
 .ARM.attributes
                0x00000430       0x37 build/sam_e70_xplained_ultra/production/_ext/1645245335/sha256_pic32c.o
 .ARM.attributes
                0x00000467       0x37 build/sam_e70_xplained_ultra/production/_ext/1832805299/sys_console.o
 .ARM.attributes
                0x0000049e       0x37 build/sam_e70_xplained_ultra/production/_ext/1832805299/sys_console_uart.o
 .ARM.attributes
                0x000004d5       0x37 build/sam_e70_xplained_ultra/production/_ext/1832805299/sys_debug.o
 .ARM.attributes
                0x0000050c       0x37 build/sam_e70_xplained_ultra/production/_ext/1832805299/sys_command.o
 .ARM.attributes
                0x00000543       0x37 build/sam_e70_xplained_ultra/production/_ext/101884895/sys_time.o
 .ARM.attributes
                0x0000057a       0x37 build/sam_e70_xplained_ultra/production/_ext/829342655/plib_tc1.o
 .ARM.attributes
                0x000005b1       0x37 build/sam_e70_xplained_ultra/production/_ext/2001315827/plib_usart1.o
 .ARM.attributes
                0x000005e8       0x32 c:/program files (x86)/microchip/xc32/v2.10/bin/bin/../../lib/gcc/pic32c/6.2.1/../../../../pic32c/lib/v7e-m/fpv5/hard\libpic32c.a(data_init.o)
 .ARM.attributes
                0x0000061a       0x20 c:/program files (x86)/microchip/xc32/v2.10/bin/bin/../../lib/gcc/pic32c/6.2.1/v7e-m/fpv5/hard\libgcc.a(_aeabi_uldivmod.o)
 .ARM.attributes
                0x0000063a       0x32 c:/program files (x86)/microchip/xc32/v2.10/bin/bin/../../lib/gcc/pic32c/6.2.1/v7e-m/fpv5/hard\libgcc.a(_udivmoddi4.o)
 .ARM.attributes
                0x0000066c       0x20 c:/program files (x86)/microchip/xc32/v2.10/bin/bin/../../lib/gcc/pic32c/6.2.1/v7e-m/fpv5/hard\libgcc.a(_dvmd_tls.o)
 .ARM.attributes
                0x0000068c       0x32 c:/program files (x86)/microchip/xc32/v2.10/bin/bin/../../lib/gcc/pic32c/6.2.1/../../../../pic32c/lib/v7e-m/fpv5/hard\libc.a(lib_a-impure.o)
 .ARM.attributes
                0x000006be       0x32 c:/program files (x86)/microchip/xc32/v2.10/bin/bin/../../lib/gcc/pic32c/6.2.1/../../../../pic32c/lib/v7e-m/fpv5/hard\libc.a(lib_a-init.o)
 .ARM.attributes
                0x000006f0       0x32 c:/program files (x86)/microchip/xc32/v2.10/bin/bin/../../lib/gcc/pic32c/6.2.1/../../../../pic32c/lib/v7e-m/fpv5/hard\libc.a(lib_a-locale.o)
 .ARM.attributes
                0x00000722       0x32 c:/program files (x86)/microchip/xc32/v2.10/bin/bin/../../lib/gcc/pic32c/6.2.1/../../../../pic32c/lib/v7e-m/fpv5/hard\libc.a(lib_a-malloc.o)
 .ARM.attributes
                0x00000754       0x32 c:/program files (x86)/microchip/xc32/v2.10/bin/bin/../../lib/gcc/pic32c/6.2.1/../../../../pic32c/lib/v7e-m/fpv5/hard\libc.a(lib_a-mallocr.o)
 .ARM.attributes
                0x00000786       0x32 c:/program files (x86)/microchip/xc32/v2.10/bin/bin/../../lib/gcc/pic32c/6.2.1/../../../../pic32c/lib/v7e-m/fpv5/hard\libc.a(lib_a-mbtowc_r.o)
 .ARM.attributes
                0x000007b8       0x32 c:/program files (x86)/microchip/xc32/v2.10/bin/bin/../../lib/gcc/pic32c/6.2.1/../../../../pic32c/lib/v7e-m/fpv5/hard\libc.a(lib_a-memcmp.o)
 .ARM.attributes
                0x000007ea       0x1e c:/program files (x86)/microchip/xc32/v2.10/bin/bin/../../lib/gcc/pic32c/6.2.1/../../../../pic32c/lib/v7e-m/fpv5/hard\libc.a(lib_a-memcpy.o)
 .ARM.attributes
                0x00000808       0x32 c:/program files (x86)/microchip/xc32/v2.10/bin/bin/../../lib/gcc/pic32c/6.2.1/../../../../pic32c/lib/v7e-m/fpv5/hard\libc.a(lib_a-memmove.o)
 .ARM.attributes
                0x0000083a       0x32 c:/program files (x86)/microchip/xc32/v2.10/bin/bin/../../lib/gcc/pic32c/6.2.1/../../../../pic32c/lib/v7e-m/fpv5/hard\libc.a(lib_a-memset.o)
 .ARM.attributes
                0x0000086c       0x32 c:/program files (x86)/microchip/xc32/v2.10/bin/bin/../../lib/gcc/pic32c/6.2.1/../../../../pic32c/lib/v7e-m/fpv5/hard\libc.a(lib_a-mlock.o)
 .ARM.attributes
                0x0000089e       0x32 c:/program files (x86)/microchip/xc32/v2.10/bin/bin/../../lib/gcc/pic32c/6.2.1/../../../../pic32c/lib/v7e-m/fpv5/hard\libc.a(lib_a-reallocr.o)
 .ARM.attributes
                0x000008d0       0x32 c:/program files (x86)/microchip/xc32/v2.10/bin/bin/../../lib/gcc/pic32c/6.2.1/../../../../pic32c/lib/v7e-m/fpv5/hard\libc.a(lib_a-sbrkr.o)
 .ARM.attributes
                0x00000902       0x32 c:/program files (x86)/microchip/xc32/v2.10/bin/bin/../../lib/gcc/pic32c/6.2.1/../../../../pic32c/lib/v7e-m/fpv5/hard\libc.a(lib_a-sprintf.o)
 .ARM.attributes
                0x00000934       0x1e c:/program files (x86)/microchip/xc32/v2.10/bin/bin/../../lib/gcc/pic32c/6.2.1/../../../../pic32c/lib/v7e-m/fpv5/hard\libc.a(lib_a-strcmp.o)
 .ARM.attributes
                0x00000952       0x32 c:/program files (x86)/microchip/xc32/v2.10/bin/bin/../../lib/gcc/pic32c/6.2.1/../../../../pic32c/lib/v7e-m/fpv5/hard\libc.a(lib_a-strcpy.o)
 .ARM.attributes
                0x00000984       0x1e c:/program files (x86)/microchip/xc32/v2.10/bin/bin/../../lib/gcc/pic32c/6.2.1/../../../../pic32c/lib/v7e-m/fpv5/hard\libc.a(lib_a-strlen.o)
 .ARM.attributes
                0x000009a2       0x32 c:/program files (x86)/microchip/xc32/v2.10/bin/bin/../../lib/gcc/pic32c/6.2.1/../../../../pic32c/lib/v7e-m/fpv5/hard\libc.a(lib_a-strncpy.o)
 .ARM.attributes
                0x000009d4       0x32 c:/program files (x86)/microchip/xc32/v2.10/bin/bin/../../lib/gcc/pic32c/6.2.1/../../../../pic32c/lib/v7e-m/fpv5/hard\libc.a(lib_a-svfprintf.o)
 .ARM.attributes
                0x00000a06       0x32 c:/program files (x86)/microchip/xc32/v2.10/bin/bin/../../lib/gcc/pic32c/6.2.1/../../../../pic32c/lib/v7e-m/fpv5/hard\libc.a(lib_a-vsnprintf.o)
 .ARM.attributes
                0x00000a38       0x32 c:/program files (x86)/microchip/xc32/v2.10/bin/bin/../../lib/gcc/pic32c/6.2.1/../../../../pic32c/lib/v7e-m/fpv5/hard\libc.a(lib_a-wctomb_r.o)
 .ARM.attributes
                0x00000a6a       0x32 c:/program files (x86)/microchip/xc32/v2.10/bin/bin/../../lib/gcc/pic32c/6.2.1/../../../../pic32c/lib/v7e-m/fpv5/hard\libc.a(lib_a-__call_atexit.o)
 .ARM.attributes
                0x00000a9c       0x32 c:/program files (x86)/microchip/xc32/v2.10/bin/bin/../../lib/gcc/pic32c/6.2.1/../../../../pic32c/lib/v7e-m/fpv5/hard\libc.a(lib_a-atexit.o)
 .ARM.attributes
                0x00000ace       0x32 c:/program files (x86)/microchip/xc32/v2.10/bin/bin/../../lib/gcc/pic32c/6.2.1/../../../../pic32c/lib/v7e-m/fpv5/hard\libc.a(lib_a-ctype_.o)
 .ARM.attributes
                0x00000b00       0x32 c:/program files (x86)/microchip/xc32/v2.10/bin/bin/../../lib/gcc/pic32c/6.2.1/../../../../pic32c/lib/v7e-m/fpv5/hard\libc.a(lib_a-dtoa.o)
 .ARM.attributes
                0x00000b32       0x32 c:/program files (x86)/microchip/xc32/v2.10/bin/bin/../../lib/gcc/pic32c/6.2.1/../../../../pic32c/lib/v7e-m/fpv5/hard\libc.a(lib_a-fini.o)
 .ARM.attributes
                0x00000b64       0x32 c:/program files (x86)/microchip/xc32/v2.10/bin/bin/../../lib/gcc/pic32c/6.2.1/../../../../pic32c/lib/v7e-m/fpv5/hard\libc.a(lib_a-freer.o)
 .ARM.attributes
                0x00000b96       0x32 c:/program files (x86)/microchip/xc32/v2.10/bin/bin/../../lib/gcc/pic32c/6.2.1/../../../../pic32c/lib/v7e-m/fpv5/hard\libc.a(lib_a-localeconv.o)
 .ARM.attributes
                0x00000bc8       0x1e c:/program files (x86)/microchip/xc32/v2.10/bin/bin/../../lib/gcc/pic32c/6.2.1/../../../../pic32c/lib/v7e-m/fpv5/hard\libc.a(lib_a-memchr.o)
 .ARM.attributes
                0x00000be6       0x32 c:/program files (x86)/microchip/xc32/v2.10/bin/bin/../../lib/gcc/pic32c/6.2.1/../../../../pic32c/lib/v7e-m/fpv5/hard\libc.a(lib_a-mprec.o)
 .ARM.attributes
                0x00000c18       0x32 c:/program files (x86)/microchip/xc32/v2.10/bin/bin/../../lib/gcc/pic32c/6.2.1/../../../../pic32c/lib/v7e-m/fpv5/hard\libc.a(lib_a-reent.o)
 .ARM.attributes
                0x00000c4a       0x32 c:/program files (x86)/microchip/xc32/v2.10/bin/bin/../../lib/gcc/pic32c/6.2.1/../../../../pic32c/lib/v7e-m/fpv5/hard\libc.a(lib_a-s_frexp.o)
 .ARM.attributes
                0x00000c7c       0x32 c:/program files (x86)/microchip/xc32/v2.10/bin/bin/../../lib/gcc/pic32c/6.2.1/../../../../pic32c/lib/v7e-m/fpv5/hard\libc.a(lib_a-svfiprintf.o)
 .ARM.attributes
                0x00000cae       0x32 c:/program files (x86)/microchip/xc32/v2.10/bin/bin/../../lib/gcc/pic32c/6.2.1/../../../../pic32c/lib/v7e-m/fpv5/hard\libc.a(lib_a-__atexit.o)
 .ARM.attributes
                0x00000ce0       0x32 c:/program files (x86)/microchip/xc32/v2.10/bin/bin/../../lib/gcc/pic32c/6.2.1/../../../../pic32c/lib/v7e-m/fpv5/hard\libc.a(lib_a-callocr.o)
 .ARM.attributes
                0x00000d12       0x32 c:/program files (x86)/microchip/xc32/v2.10/bin/bin/../../lib/gcc/pic32c/6.2.1/../../../../pic32c/lib/v7e-m/fpv5/hard\libpic32c.a(sbrk.o)
 .ARM.attributes
                0x00000d44       0x20 c:/program files (x86)/microchip/xc32/v2.10/bin/bin/../../lib/gcc/pic32c/6.2.1/v7e-m/fpv5/hard/crtn.o

.comment        0x00000000       0x3c
 .comment       0x00000000       0x3c c:/program files (x86)/microchip/xc32/v2.10/bin/bin/../../lib/gcc/pic32c/6.2.1/v7e-m/fpv5/hard/crtbegin.o
                                 0x3d (size before relaxing)
 .comment       0x0000003c       0x3d build/sam_e70_xplained_ultra/production/_ext/1360937237/main.o
 .comment       0x0000003c       0x3d build/sam_e70_xplained_ultra/production/_ext/1171490990/initialization.o
 .comment       0x0000003c       0x3d build/sam_e70_xplained_ultra/production/_ext/1171490990/interrupts.o
 .comment       0x0000003c       0x3d build/sam_e70_xplained_ultra/production/_ext/1171490990/exceptions.o
 .comment       0x0000003c       0x3d build/sam_e70_xplained_ultra/production/_ext/60165520/plib_clk.o
 .comment       0x0000003c       0x3d build/sam_e70_xplained_ultra/production/_ext/60177924/plib_pio.o
 .comment       0x0000003c       0x3d build/sam_e70_xplained_ultra/production/_ext/1865468468/plib_nvic.o
 .comment       0x0000003c       0x3d build/sam_e70_xplained_ultra/production/_ext/1171490990/startup.o
 .comment       0x0000003c       0x3d build/sam_e70_xplained_ultra/production/_ext/1881668453/sys_int.o
 .comment       0x0000003c       0x3d build/sam_e70_xplained_ultra/production/_ext/1360937237/app.o
 .comment       0x0000003c       0x3d build/sam_e70_xplained_ultra/production/_ext/1171490990/tasks.o
 .comment       0x0000003c       0x3d build/sam_e70_xplained_ultra/production/_ext/1645245335/crypto.o
 .comment       0x0000003c       0x3d build/sam_e70_xplained_ultra/production/_ext/1645245335/des3.o
 .comment       0x0000003c       0x3d build/sam_e70_xplained_ultra/production/_ext/1645245335/hmac.o
 .comment       0x0000003c       0x3d build/sam_e70_xplained_ultra/production/_ext/1645245335/md5.o
 .comment       0x0000003c       0x3d build/sam_e70_xplained_ultra/production/_ext/1645245335/sha512.o
 .comment       0x0000003c       0x3d build/sam_e70_xplained_ultra/production/_ext/1645245335/aes_pic32c.o
 .comment       0x0000003c       0x3d build/sam_e70_xplained_ultra/production/_ext/1645245335/sha_pic32c.o
 .comment       0x0000003c       0x3d build/sam_e70_xplained_ultra/production/_ext/1645245335/sha256_pic32c.o
 .comment       0x0000003c       0x3d build/sam_e70_xplained_ultra/production/_ext/1832805299/sys_console.o
 .comment       0x0000003c       0x3d build/sam_e70_xplained_ultra/production/_ext/1832805299/sys_console_uart.o
 .comment       0x0000003c       0x3d build/sam_e70_xplained_ultra/production/_ext/1832805299/sys_debug.o
 .comment       0x0000003c       0x3d build/sam_e70_xplained_ultra/production/_ext/1832805299/sys_command.o
 .comment       0x0000003c       0x3d build/sam_e70_xplained_ultra/production/_ext/101884895/sys_time.o
 .comment       0x0000003c       0x3d build/sam_e70_xplained_ultra/production/_ext/829342655/plib_tc1.o
 .comment       0x0000003c       0x3d build/sam_e70_xplained_ultra/production/_ext/2001315827/plib_usart1.o
 .comment       0x0000003c       0x3d c:/program files (x86)/microchip/xc32/v2.10/bin/bin/../../lib/gcc/pic32c/6.2.1/../../../../pic32c/lib/v7e-m/fpv5/hard\libpic32c.a(data_init.o)
 .comment       0x0000003c       0x3d c:/program files (x86)/microchip/xc32/v2.10/bin/bin/../../lib/gcc/pic32c/6.2.1/v7e-m/fpv5/hard\libgcc.a(_udivmoddi4.o)
 .comment       0x0000003c       0x3d c:/program files (x86)/microchip/xc32/v2.10/bin/bin/../../lib/gcc/pic32c/6.2.1/../../../../pic32c/lib/v7e-m/fpv5/hard\libc.a(lib_a-impure.o)
 .comment       0x0000003c       0x3d c:/program files (x86)/microchip/xc32/v2.10/bin/bin/../../lib/gcc/pic32c/6.2.1/../../../../pic32c/lib/v7e-m/fpv5/hard\libc.a(lib_a-init.o)
 .comment       0x0000003c       0x3d c:/program files (x86)/microchip/xc32/v2.10/bin/bin/../../lib/gcc/pic32c/6.2.1/../../../../pic32c/lib/v7e-m/fpv5/hard\libc.a(lib_a-locale.o)
 .comment       0x0000003c       0x3d c:/program files (x86)/microchip/xc32/v2.10/bin/bin/../../lib/gcc/pic32c/6.2.1/../../../../pic32c/lib/v7e-m/fpv5/hard\libc.a(lib_a-malloc.o)
 .comment       0x0000003c       0x3d c:/program files (x86)/microchip/xc32/v2.10/bin/bin/../../lib/gcc/pic32c/6.2.1/../../../../pic32c/lib/v7e-m/fpv5/hard\libc.a(lib_a-mallocr.o)
 .comment       0x0000003c       0x3d c:/program files (x86)/microchip/xc32/v2.10/bin/bin/../../lib/gcc/pic32c/6.2.1/../../../../pic32c/lib/v7e-m/fpv5/hard\libc.a(lib_a-mbtowc_r.o)
 .comment       0x0000003c       0x3d c:/program files (x86)/microchip/xc32/v2.10/bin/bin/../../lib/gcc/pic32c/6.2.1/../../../../pic32c/lib/v7e-m/fpv5/hard\libc.a(lib_a-memcmp.o)
 .comment       0x0000003c       0x3d c:/program files (x86)/microchip/xc32/v2.10/bin/bin/../../lib/gcc/pic32c/6.2.1/../../../../pic32c/lib/v7e-m/fpv5/hard\libc.a(lib_a-memmove.o)
 .comment       0x0000003c       0x3d c:/program files (x86)/microchip/xc32/v2.10/bin/bin/../../lib/gcc/pic32c/6.2.1/../../../../pic32c/lib/v7e-m/fpv5/hard\libc.a(lib_a-memset.o)
 .comment       0x0000003c       0x3d c:/program files (x86)/microchip/xc32/v2.10/bin/bin/../../lib/gcc/pic32c/6.2.1/../../../../pic32c/lib/v7e-m/fpv5/hard\libc.a(lib_a-mlock.o)
 .comment       0x0000003c       0x3d c:/program files (x86)/microchip/xc32/v2.10/bin/bin/../../lib/gcc/pic32c/6.2.1/../../../../pic32c/lib/v7e-m/fpv5/hard\libc.a(lib_a-reallocr.o)
 .comment       0x0000003c       0x3d c:/program files (x86)/microchip/xc32/v2.10/bin/bin/../../lib/gcc/pic32c/6.2.1/../../../../pic32c/lib/v7e-m/fpv5/hard\libc.a(lib_a-sbrkr.o)
 .comment       0x0000003c       0x3d c:/program files (x86)/microchip/xc32/v2.10/bin/bin/../../lib/gcc/pic32c/6.2.1/../../../../pic32c/lib/v7e-m/fpv5/hard\libc.a(lib_a-sprintf.o)
 .comment       0x0000003c       0x3d c:/program files (x86)/microchip/xc32/v2.10/bin/bin/../../lib/gcc/pic32c/6.2.1/../../../../pic32c/lib/v7e-m/fpv5/hard\libc.a(lib_a-strcpy.o)
 .comment       0x0000003c       0x3d c:/program files (x86)/microchip/xc32/v2.10/bin/bin/../../lib/gcc/pic32c/6.2.1/../../../../pic32c/lib/v7e-m/fpv5/hard\libc.a(lib_a-strncpy.o)
 .comment       0x0000003c       0x3d c:/program files (x86)/microchip/xc32/v2.10/bin/bin/../../lib/gcc/pic32c/6.2.1/../../../../pic32c/lib/v7e-m/fpv5/hard\libc.a(lib_a-svfprintf.o)
 .comment       0x0000003c       0x3d c:/program files (x86)/microchip/xc32/v2.10/bin/bin/../../lib/gcc/pic32c/6.2.1/../../../../pic32c/lib/v7e-m/fpv5/hard\libc.a(lib_a-vsnprintf.o)
 .comment       0x0000003c       0x3d c:/program files (x86)/microchip/xc32/v2.10/bin/bin/../../lib/gcc/pic32c/6.2.1/../../../../pic32c/lib/v7e-m/fpv5/hard\libc.a(lib_a-wctomb_r.o)
 .comment       0x0000003c       0x3d c:/program files (x86)/microchip/xc32/v2.10/bin/bin/../../lib/gcc/pic32c/6.2.1/../../../../pic32c/lib/v7e-m/fpv5/hard\libc.a(lib_a-__call_atexit.o)
 .comment       0x0000003c       0x3d c:/program files (x86)/microchip/xc32/v2.10/bin/bin/../../lib/gcc/pic32c/6.2.1/../../../../pic32c/lib/v7e-m/fpv5/hard\libc.a(lib_a-atexit.o)
 .comment       0x0000003c       0x3d c:/program files (x86)/microchip/xc32/v2.10/bin/bin/../../lib/gcc/pic32c/6.2.1/../../../../pic32c/lib/v7e-m/fpv5/hard\libc.a(lib_a-ctype_.o)
 .comment       0x0000003c       0x3d c:/program files (x86)/microchip/xc32/v2.10/bin/bin/../../lib/gcc/pic32c/6.2.1/../../../../pic32c/lib/v7e-m/fpv5/hard\libc.a(lib_a-dtoa.o)
 .comment       0x0000003c       0x3d c:/program files (x86)/microchip/xc32/v2.10/bin/bin/../../lib/gcc/pic32c/6.2.1/../../../../pic32c/lib/v7e-m/fpv5/hard\libc.a(lib_a-fini.o)
 .comment       0x0000003c       0x3d c:/program files (x86)/microchip/xc32/v2.10/bin/bin/../../lib/gcc/pic32c/6.2.1/../../../../pic32c/lib/v7e-m/fpv5/hard\libc.a(lib_a-freer.o)
 .comment       0x0000003c       0x3d c:/program files (x86)/microchip/xc32/v2.10/bin/bin/../../lib/gcc/pic32c/6.2.1/../../../../pic32c/lib/v7e-m/fpv5/hard\libc.a(lib_a-localeconv.o)
 .comment       0x0000003c       0x3d c:/program files (x86)/microchip/xc32/v2.10/bin/bin/../../lib/gcc/pic32c/6.2.1/../../../../pic32c/lib/v7e-m/fpv5/hard\libc.a(lib_a-mprec.o)
 .comment       0x0000003c       0x3d c:/program files (x86)/microchip/xc32/v2.10/bin/bin/../../lib/gcc/pic32c/6.2.1/../../../../pic32c/lib/v7e-m/fpv5/hard\libc.a(lib_a-reent.o)
 .comment       0x0000003c       0x3d c:/program files (x86)/microchip/xc32/v2.10/bin/bin/../../lib/gcc/pic32c/6.2.1/../../../../pic32c/lib/v7e-m/fpv5/hard\libc.a(lib_a-s_frexp.o)
 .comment       0x0000003c       0x3d c:/program files (x86)/microchip/xc32/v2.10/bin/bin/../../lib/gcc/pic32c/6.2.1/../../../../pic32c/lib/v7e-m/fpv5/hard\libc.a(lib_a-svfiprintf.o)
 .comment       0x0000003c       0x3d c:/program files (x86)/microchip/xc32/v2.10/bin/bin/../../lib/gcc/pic32c/6.2.1/../../../../pic32c/lib/v7e-m/fpv5/hard\libc.a(lib_a-__atexit.o)
 .comment       0x0000003c       0x3d c:/program files (x86)/microchip/xc32/v2.10/bin/bin/../../lib/gcc/pic32c/6.2.1/../../../../pic32c/lib/v7e-m/fpv5/hard\libc.a(lib_a-callocr.o)
 .comment       0x0000003c       0x3d c:/program files (x86)/microchip/xc32/v2.10/bin/bin/../../lib/gcc/pic32c/6.2.1/../../../../pic32c/lib/v7e-m/fpv5/hard\libpic32c.a(sbrk.o)

.debug_info     0x00000000    0x5a615
 .debug_info    0x00000000      0xf7c build/sam_e70_xplained_ultra/production/_ext/1360937237/main.o
 .debug_info    0x00000f7c     0x1f3f build/sam_e70_xplained_ultra/production/_ext/1171490990/initialization.o
 .debug_info    0x00002ebb     0x19a4 build/sam_e70_xplained_ultra/production/_ext/1171490990/interrupts.o
 .debug_info    0x0000485f     0x101c build/sam_e70_xplained_ultra/production/_ext/1171490990/exceptions.o
 .debug_info    0x0000587b      0x8b0 build/sam_e70_xplained_ultra/production/_ext/60165520/plib_clk.o
 .debug_info    0x0000612b      0xe91 build/sam_e70_xplained_ultra/production/_ext/60177924/plib_pio.o
 .debug_info    0x00006fbc      0xf1f build/sam_e70_xplained_ultra/production/_ext/1865468468/plib_nvic.o
 .debug_info    0x00007edb     0x17bf build/sam_e70_xplained_ultra/production/_ext/1171490990/startup.o
 .debug_info    0x0000969a      0xc06 build/sam_e70_xplained_ultra/production/_ext/1881668453/sys_int.o
 .debug_info    0x0000a2a0     0x3e36 build/sam_e70_xplained_ultra/production/_ext/1360937237/app.o
 .debug_info    0x0000e0d6      0xf9b build/sam_e70_xplained_ultra/production/_ext/1171490990/tasks.o
 .debug_info    0x0000f071     0x4acf build/sam_e70_xplained_ultra/production/_ext/1645245335/crypto.o
 .debug_info    0x00013b40     0x2ae0 build/sam_e70_xplained_ultra/production/_ext/1645245335/des3.o
 .debug_info    0x00016620     0x2a15 build/sam_e70_xplained_ultra/production/_ext/1645245335/hmac.o
 .debug_info    0x00019035     0x1d25 build/sam_e70_xplained_ultra/production/_ext/1645245335/md5.o
 .debug_info    0x0001ad5a     0x3d85 build/sam_e70_xplained_ultra/production/_ext/1645245335/sha512.o
 .debug_info    0x0001eadf     0x2846 build/sam_e70_xplained_ultra/production/_ext/1645245335/aes_pic32c.o
 .debug_info    0x00021325     0x2283 build/sam_e70_xplained_ultra/production/_ext/1645245335/sha_pic32c.o
 .debug_info    0x000235a8     0x22d6 build/sam_e70_xplained_ultra/production/_ext/1645245335/sha256_pic32c.o
 .debug_info    0x0002587e     0x18b9 build/sam_e70_xplained_ultra/production/_ext/1832805299/sys_console.o
 .debug_info    0x00027137     0x1c96 build/sam_e70_xplained_ultra/production/_ext/1832805299/sys_console_uart.o
 .debug_info    0x00028dcd     0x14f8 build/sam_e70_xplained_ultra/production/_ext/1832805299/sys_debug.o
 .debug_info    0x0002a2c5     0x2e5f build/sam_e70_xplained_ultra/production/_ext/1832805299/sys_command.o
 .debug_info    0x0002d124     0x2b7b build/sam_e70_xplained_ultra/production/_ext/101884895/sys_time.o
 .debug_info    0x0002fc9f      0xefa build/sam_e70_xplained_ultra/production/_ext/829342655/plib_tc1.o
 .debug_info    0x00030b99      0xedb build/sam_e70_xplained_ultra/production/_ext/2001315827/plib_usart1.o
 .debug_info    0x00031a74      0x29f c:/program files (x86)/microchip/xc32/v2.10/bin/bin/../../lib/gcc/pic32c/6.2.1/../../../../pic32c/lib/v7e-m/fpv5/hard\libpic32c.a(data_init.o)
 .debug_info    0x00031d13      0x10f c:/program files (x86)/microchip/xc32/v2.10/bin/bin/../../lib/gcc/pic32c/6.2.1/v7e-m/fpv5/hard\libgcc.a(_aeabi_uldivmod.o)
 .debug_info    0x00031e22     0x2288 c:/program files (x86)/microchip/xc32/v2.10/bin/bin/../../lib/gcc/pic32c/6.2.1/v7e-m/fpv5/hard\libgcc.a(_udivmoddi4.o)
 .debug_info    0x000340aa      0x113 c:/program files (x86)/microchip/xc32/v2.10/bin/bin/../../lib/gcc/pic32c/6.2.1/v7e-m/fpv5/hard\libgcc.a(_dvmd_tls.o)
 .debug_info    0x000341bd      0xdde c:/program files (x86)/microchip/xc32/v2.10/bin/bin/../../lib/gcc/pic32c/6.2.1/../../../../pic32c/lib/v7e-m/fpv5/hard\libc.a(lib_a-impure.o)
 .debug_info    0x00034f9b      0x40a c:/program files (x86)/microchip/xc32/v2.10/bin/bin/../../lib/gcc/pic32c/6.2.1/../../../../pic32c/lib/v7e-m/fpv5/hard\libc.a(lib_a-init.o)
 .debug_info    0x000353a5     0x1884 c:/program files (x86)/microchip/xc32/v2.10/bin/bin/../../lib/gcc/pic32c/6.2.1/../../../../pic32c/lib/v7e-m/fpv5/hard\libc.a(lib_a-locale.o)
 .debug_info    0x00036c29      0xe81 c:/program files (x86)/microchip/xc32/v2.10/bin/bin/../../lib/gcc/pic32c/6.2.1/../../../../pic32c/lib/v7e-m/fpv5/hard\libc.a(lib_a-malloc.o)
 .debug_info    0x00037aaa     0x155d c:/program files (x86)/microchip/xc32/v2.10/bin/bin/../../lib/gcc/pic32c/6.2.1/../../../../pic32c/lib/v7e-m/fpv5/hard\libc.a(lib_a-mallocr.o)
 .debug_info    0x00039007     0x176c c:/program files (x86)/microchip/xc32/v2.10/bin/bin/../../lib/gcc/pic32c/6.2.1/../../../../pic32c/lib/v7e-m/fpv5/hard\libc.a(lib_a-mbtowc_r.o)
 .debug_info    0x0003a773      0xe5a c:/program files (x86)/microchip/xc32/v2.10/bin/bin/../../lib/gcc/pic32c/6.2.1/../../../../pic32c/lib/v7e-m/fpv5/hard\libc.a(lib_a-memcmp.o)
 .debug_info    0x0003b5cd      0x129 c:/program files (x86)/microchip/xc32/v2.10/bin/bin/../../lib/gcc/pic32c/6.2.1/../../../../pic32c/lib/v7e-m/fpv5/hard\libc.a(lib_a-memcpy.o)
 .debug_info    0x0003b6f6     0x160b c:/program files (x86)/microchip/xc32/v2.10/bin/bin/../../lib/gcc/pic32c/6.2.1/../../../../pic32c/lib/v7e-m/fpv5/hard\libc.a(lib_a-memmove.o)
 .debug_info    0x0003cd01     0x15e9 c:/program files (x86)/microchip/xc32/v2.10/bin/bin/../../lib/gcc/pic32c/6.2.1/../../../../pic32c/lib/v7e-m/fpv5/hard\libc.a(lib_a-memset.o)
 .debug_info    0x0003e2ea      0xe38 c:/program files (x86)/microchip/xc32/v2.10/bin/bin/../../lib/gcc/pic32c/6.2.1/../../../../pic32c/lib/v7e-m/fpv5/hard\libc.a(lib_a-mlock.o)
 .debug_info    0x0003f122     0x14db c:/program files (x86)/microchip/xc32/v2.10/bin/bin/../../lib/gcc/pic32c/6.2.1/../../../../pic32c/lib/v7e-m/fpv5/hard\libc.a(lib_a-reallocr.o)
 .debug_info    0x000405fd      0xece c:/program files (x86)/microchip/xc32/v2.10/bin/bin/../../lib/gcc/pic32c/6.2.1/../../../../pic32c/lib/v7e-m/fpv5/hard\libc.a(lib_a-sbrkr.o)
 .debug_info    0x000414cb     0x1246 c:/program files (x86)/microchip/xc32/v2.10/bin/bin/../../lib/gcc/pic32c/6.2.1/../../../../pic32c/lib/v7e-m/fpv5/hard\libc.a(lib_a-sprintf.o)
 .debug_info    0x00042711      0x128 c:/program files (x86)/microchip/xc32/v2.10/bin/bin/../../lib/gcc/pic32c/6.2.1/../../../../pic32c/lib/v7e-m/fpv5/hard\libc.a(lib_a-strcmp.o)
 .debug_info    0x00042839      0xdfa c:/program files (x86)/microchip/xc32/v2.10/bin/bin/../../lib/gcc/pic32c/6.2.1/../../../../pic32c/lib/v7e-m/fpv5/hard\libc.a(lib_a-strcpy.o)
 .debug_info    0x00043633      0x128 c:/program files (x86)/microchip/xc32/v2.10/bin/bin/../../lib/gcc/pic32c/6.2.1/../../../../pic32c/lib/v7e-m/fpv5/hard\libc.a(lib_a-strlen.o)
 .debug_info    0x0004375b      0xe7a c:/program files (x86)/microchip/xc32/v2.10/bin/bin/../../lib/gcc/pic32c/6.2.1/../../../../pic32c/lib/v7e-m/fpv5/hard\libc.a(lib_a-strncpy.o)
 .debug_info    0x000445d5     0x28a5 c:/program files (x86)/microchip/xc32/v2.10/bin/bin/../../lib/gcc/pic32c/6.2.1/../../../../pic32c/lib/v7e-m/fpv5/hard\libc.a(lib_a-svfprintf.o)
 .debug_info    0x00046e7a     0x12b6 c:/program files (x86)/microchip/xc32/v2.10/bin/bin/../../lib/gcc/pic32c/6.2.1/../../../../pic32c/lib/v7e-m/fpv5/hard\libc.a(lib_a-vsnprintf.o)
 .debug_info    0x00048130     0x1737 c:/program files (x86)/microchip/xc32/v2.10/bin/bin/../../lib/gcc/pic32c/6.2.1/../../../../pic32c/lib/v7e-m/fpv5/hard\libc.a(lib_a-wctomb_r.o)
 .debug_info    0x00049867      0xf5a c:/program files (x86)/microchip/xc32/v2.10/bin/bin/../../lib/gcc/pic32c/6.2.1/../../../../pic32c/lib/v7e-m/fpv5/hard\libc.a(lib_a-__call_atexit.o)
 .debug_info    0x0004a7c1      0xe6f c:/program files (x86)/microchip/xc32/v2.10/bin/bin/../../lib/gcc/pic32c/6.2.1/../../../../pic32c/lib/v7e-m/fpv5/hard\libc.a(lib_a-atexit.o)
 .debug_info    0x0004b630     0x1569 c:/program files (x86)/microchip/xc32/v2.10/bin/bin/../../lib/gcc/pic32c/6.2.1/../../../../pic32c/lib/v7e-m/fpv5/hard\libc.a(lib_a-ctype_.o)
 .debug_info    0x0004cb99     0x213a c:/program files (x86)/microchip/xc32/v2.10/bin/bin/../../lib/gcc/pic32c/6.2.1/../../../../pic32c/lib/v7e-m/fpv5/hard\libc.a(lib_a-dtoa.o)
 .debug_info    0x0004ecd3      0x3cf c:/program files (x86)/microchip/xc32/v2.10/bin/bin/../../lib/gcc/pic32c/6.2.1/../../../../pic32c/lib/v7e-m/fpv5/hard\libc.a(lib_a-fini.o)
 .debug_info    0x0004f0a2     0x13bc c:/program files (x86)/microchip/xc32/v2.10/bin/bin/../../lib/gcc/pic32c/6.2.1/../../../../pic32c/lib/v7e-m/fpv5/hard\libc.a(lib_a-freer.o)
 .debug_info    0x0005045e     0x169d c:/program files (x86)/microchip/xc32/v2.10/bin/bin/../../lib/gcc/pic32c/6.2.1/../../../../pic32c/lib/v7e-m/fpv5/hard\libc.a(lib_a-localeconv.o)
 .debug_info    0x00051afb      0x122 c:/program files (x86)/microchip/xc32/v2.10/bin/bin/../../lib/gcc/pic32c/6.2.1/../../../../pic32c/lib/v7e-m/fpv5/hard\libc.a(lib_a-memchr.o)
 .debug_info    0x00051c1d     0x2568 c:/program files (x86)/microchip/xc32/v2.10/bin/bin/../../lib/gcc/pic32c/6.2.1/../../../../pic32c/lib/v7e-m/fpv5/hard\libc.a(lib_a-mprec.o)
 .debug_info    0x00054185      0xf8a c:/program files (x86)/microchip/xc32/v2.10/bin/bin/../../lib/gcc/pic32c/6.2.1/../../../../pic32c/lib/v7e-m/fpv5/hard\libc.a(lib_a-reent.o)
 .debug_info    0x0005510f      0xfa6 c:/program files (x86)/microchip/xc32/v2.10/bin/bin/../../lib/gcc/pic32c/6.2.1/../../../../pic32c/lib/v7e-m/fpv5/hard\libc.a(lib_a-s_frexp.o)
 .debug_info    0x000560b5     0x21bb c:/program files (x86)/microchip/xc32/v2.10/bin/bin/../../lib/gcc/pic32c/6.2.1/../../../../pic32c/lib/v7e-m/fpv5/hard\libc.a(lib_a-svfiprintf.o)
 .debug_info    0x00058270      0xedb c:/program files (x86)/microchip/xc32/v2.10/bin/bin/../../lib/gcc/pic32c/6.2.1/../../../../pic32c/lib/v7e-m/fpv5/hard\libc.a(lib_a-__atexit.o)
 .debug_info    0x0005914b     0x1248 c:/program files (x86)/microchip/xc32/v2.10/bin/bin/../../lib/gcc/pic32c/6.2.1/../../../../pic32c/lib/v7e-m/fpv5/hard\libc.a(lib_a-callocr.o)
 .debug_info    0x0005a393      0x282 c:/program files (x86)/microchip/xc32/v2.10/bin/bin/../../lib/gcc/pic32c/6.2.1/../../../../pic32c/lib/v7e-m/fpv5/hard\libpic32c.a(sbrk.o)

.debug_abbrev   0x00000000     0x8c9b
 .debug_abbrev  0x00000000      0x1e8 build/sam_e70_xplained_ultra/production/_ext/1360937237/main.o
 .debug_abbrev  0x000001e8      0x280 build/sam_e70_xplained_ultra/production/_ext/1171490990/initialization.o
 .debug_abbrev  0x00000468      0x1bf build/sam_e70_xplained_ultra/production/_ext/1171490990/interrupts.o
 .debug_abbrev  0x00000627      0x1ae build/sam_e70_xplained_ultra/production/_ext/1171490990/exceptions.o
 .debug_abbrev  0x000007d5       0xfa build/sam_e70_xplained_ultra/production/_ext/60165520/plib_clk.o
 .debug_abbrev  0x000008cf      0x160 build/sam_e70_xplained_ultra/production/_ext/60177924/plib_pio.o
 .debug_abbrev  0x00000a2f      0x179 build/sam_e70_xplained_ultra/production/_ext/1865468468/plib_nvic.o
 .debug_abbrev  0x00000ba8      0x2b0 build/sam_e70_xplained_ultra/production/_ext/1171490990/startup.o
 .debug_abbrev  0x00000e58      0x1f1 build/sam_e70_xplained_ultra/production/_ext/1881668453/sys_int.o
 .debug_abbrev  0x00001049      0x422 build/sam_e70_xplained_ultra/production/_ext/1360937237/app.o
 .debug_abbrev  0x0000146b      0x1df build/sam_e70_xplained_ultra/production/_ext/1171490990/tasks.o
 .debug_abbrev  0x0000164a      0x36f build/sam_e70_xplained_ultra/production/_ext/1645245335/crypto.o
 .debug_abbrev  0x000019b9      0x3a4 build/sam_e70_xplained_ultra/production/_ext/1645245335/des3.o
 .debug_abbrev  0x00001d5d      0x395 build/sam_e70_xplained_ultra/production/_ext/1645245335/hmac.o
 .debug_abbrev  0x000020f2      0x344 build/sam_e70_xplained_ultra/production/_ext/1645245335/md5.o
 .debug_abbrev  0x00002436      0x3bf build/sam_e70_xplained_ultra/production/_ext/1645245335/sha512.o
 .debug_abbrev  0x000027f5      0x372 build/sam_e70_xplained_ultra/production/_ext/1645245335/aes_pic32c.o
 .debug_abbrev  0x00002b67      0x337 build/sam_e70_xplained_ultra/production/_ext/1645245335/sha_pic32c.o
 .debug_abbrev  0x00002e9e      0x36f build/sam_e70_xplained_ultra/production/_ext/1645245335/sha256_pic32c.o
 .debug_abbrev  0x0000320d      0x2f4 build/sam_e70_xplained_ultra/production/_ext/1832805299/sys_console.o
 .debug_abbrev  0x00003501      0x370 build/sam_e70_xplained_ultra/production/_ext/1832805299/sys_console_uart.o
 .debug_abbrev  0x00003871      0x36a build/sam_e70_xplained_ultra/production/_ext/1832805299/sys_debug.o
 .debug_abbrev  0x00003bdb      0x4d9 build/sam_e70_xplained_ultra/production/_ext/1832805299/sys_command.o
 .debug_abbrev  0x000040b4      0x50d build/sam_e70_xplained_ultra/production/_ext/101884895/sys_time.o
 .debug_abbrev  0x000045c1      0x228 build/sam_e70_xplained_ultra/production/_ext/829342655/plib_tc1.o
 .debug_abbrev  0x000047e9      0x298 build/sam_e70_xplained_ultra/production/_ext/2001315827/plib_usart1.o
 .debug_abbrev  0x00004a81       0x2a c:/program files (x86)/microchip/xc32/v2.10/bin/bin/../../lib/gcc/pic32c/6.2.1/../../../../pic32c/lib/v7e-m/fpv5/hard\libpic32c.a(data_init.o)
 .debug_abbrev  0x00004aab       0x14 c:/program files (x86)/microchip/xc32/v2.10/bin/bin/../../lib/gcc/pic32c/6.2.1/v7e-m/fpv5/hard\libgcc.a(_aeabi_uldivmod.o)
 .debug_abbrev  0x00004abf      0x201 c:/program files (x86)/microchip/xc32/v2.10/bin/bin/../../lib/gcc/pic32c/6.2.1/v7e-m/fpv5/hard\libgcc.a(_udivmoddi4.o)
 .debug_abbrev  0x00004cc0       0x14 c:/program files (x86)/microchip/xc32/v2.10/bin/bin/../../lib/gcc/pic32c/6.2.1/v7e-m/fpv5/hard\libgcc.a(_dvmd_tls.o)
 .debug_abbrev  0x00004cd4      0x176 c:/program files (x86)/microchip/xc32/v2.10/bin/bin/../../lib/gcc/pic32c/6.2.1/../../../../pic32c/lib/v7e-m/fpv5/hard\libc.a(lib_a-impure.o)
 .debug_abbrev  0x00004e4a       0xa3 c:/program files (x86)/microchip/xc32/v2.10/bin/bin/../../lib/gcc/pic32c/6.2.1/../../../../pic32c/lib/v7e-m/fpv5/hard\libc.a(lib_a-init.o)
 .debug_abbrev  0x00004eed      0x299 c:/program files (x86)/microchip/xc32/v2.10/bin/bin/../../lib/gcc/pic32c/6.2.1/../../../../pic32c/lib/v7e-m/fpv5/hard\libc.a(lib_a-locale.o)
 .debug_abbrev  0x00005186      0x1f8 c:/program files (x86)/microchip/xc32/v2.10/bin/bin/../../lib/gcc/pic32c/6.2.1/../../../../pic32c/lib/v7e-m/fpv5/hard\libc.a(lib_a-malloc.o)
 .debug_abbrev  0x0000537e      0x2ad c:/program files (x86)/microchip/xc32/v2.10/bin/bin/../../lib/gcc/pic32c/6.2.1/../../../../pic32c/lib/v7e-m/fpv5/hard\libc.a(lib_a-mallocr.o)
 .debug_abbrev  0x0000562b      0x203 c:/program files (x86)/microchip/xc32/v2.10/bin/bin/../../lib/gcc/pic32c/6.2.1/../../../../pic32c/lib/v7e-m/fpv5/hard\libc.a(lib_a-mbtowc_r.o)
 .debug_abbrev  0x0000582e      0x1a3 c:/program files (x86)/microchip/xc32/v2.10/bin/bin/../../lib/gcc/pic32c/6.2.1/../../../../pic32c/lib/v7e-m/fpv5/hard\libc.a(lib_a-memcmp.o)
 .debug_abbrev  0x000059d1       0x14 c:/program files (x86)/microchip/xc32/v2.10/bin/bin/../../lib/gcc/pic32c/6.2.1/../../../../pic32c/lib/v7e-m/fpv5/hard\libc.a(lib_a-memcpy.o)
 .debug_abbrev  0x000059e5      0x1bc c:/program files (x86)/microchip/xc32/v2.10/bin/bin/../../lib/gcc/pic32c/6.2.1/../../../../pic32c/lib/v7e-m/fpv5/hard\libc.a(lib_a-memmove.o)
 .debug_abbrev  0x00005ba1      0x1b7 c:/program files (x86)/microchip/xc32/v2.10/bin/bin/../../lib/gcc/pic32c/6.2.1/../../../../pic32c/lib/v7e-m/fpv5/hard\libc.a(lib_a-memset.o)
 .debug_abbrev  0x00005d58      0x1b9 c:/program files (x86)/microchip/xc32/v2.10/bin/bin/../../lib/gcc/pic32c/6.2.1/../../../../pic32c/lib/v7e-m/fpv5/hard\libc.a(lib_a-mlock.o)
 .debug_abbrev  0x00005f11      0x262 c:/program files (x86)/microchip/xc32/v2.10/bin/bin/../../lib/gcc/pic32c/6.2.1/../../../../pic32c/lib/v7e-m/fpv5/hard\libc.a(lib_a-reallocr.o)
 .debug_abbrev  0x00006173      0x1ed c:/program files (x86)/microchip/xc32/v2.10/bin/bin/../../lib/gcc/pic32c/6.2.1/../../../../pic32c/lib/v7e-m/fpv5/hard\libc.a(lib_a-sbrkr.o)
 .debug_abbrev  0x00006360      0x22f c:/program files (x86)/microchip/xc32/v2.10/bin/bin/../../lib/gcc/pic32c/6.2.1/../../../../pic32c/lib/v7e-m/fpv5/hard\libc.a(lib_a-sprintf.o)
 .debug_abbrev  0x0000658f       0x14 c:/program files (x86)/microchip/xc32/v2.10/bin/bin/../../lib/gcc/pic32c/6.2.1/../../../../pic32c/lib/v7e-m/fpv5/hard\libc.a(lib_a-strcmp.o)
 .debug_abbrev  0x000065a3      0x19c c:/program files (x86)/microchip/xc32/v2.10/bin/bin/../../lib/gcc/pic32c/6.2.1/../../../../pic32c/lib/v7e-m/fpv5/hard\libc.a(lib_a-strcpy.o)
 .debug_abbrev  0x0000673f       0x14 c:/program files (x86)/microchip/xc32/v2.10/bin/bin/../../lib/gcc/pic32c/6.2.1/../../../../pic32c/lib/v7e-m/fpv5/hard\libc.a(lib_a-strlen.o)
 .debug_abbrev  0x00006753      0x1ad c:/program files (x86)/microchip/xc32/v2.10/bin/bin/../../lib/gcc/pic32c/6.2.1/../../../../pic32c/lib/v7e-m/fpv5/hard\libc.a(lib_a-strncpy.o)
 .debug_abbrev  0x00006900      0x319 c:/program files (x86)/microchip/xc32/v2.10/bin/bin/../../lib/gcc/pic32c/6.2.1/../../../../pic32c/lib/v7e-m/fpv5/hard\libc.a(lib_a-svfprintf.o)
 .debug_abbrev  0x00006c19      0x22f c:/program files (x86)/microchip/xc32/v2.10/bin/bin/../../lib/gcc/pic32c/6.2.1/../../../../pic32c/lib/v7e-m/fpv5/hard\libc.a(lib_a-vsnprintf.o)
 .debug_abbrev  0x00006e48      0x21f c:/program files (x86)/microchip/xc32/v2.10/bin/bin/../../lib/gcc/pic32c/6.2.1/../../../../pic32c/lib/v7e-m/fpv5/hard\libc.a(lib_a-wctomb_r.o)
 .debug_abbrev  0x00007067      0x242 c:/program files (x86)/microchip/xc32/v2.10/bin/bin/../../lib/gcc/pic32c/6.2.1/../../../../pic32c/lib/v7e-m/fpv5/hard\libc.a(lib_a-__call_atexit.o)
 .debug_abbrev  0x000072a9      0x1e6 c:/program files (x86)/microchip/xc32/v2.10/bin/bin/../../lib/gcc/pic32c/6.2.1/../../../../pic32c/lib/v7e-m/fpv5/hard\libc.a(lib_a-atexit.o)
 .debug_abbrev  0x0000748f      0x176 c:/program files (x86)/microchip/xc32/v2.10/bin/bin/../../lib/gcc/pic32c/6.2.1/../../../../pic32c/lib/v7e-m/fpv5/hard\libc.a(lib_a-ctype_.o)
 .debug_abbrev  0x00007605      0x27a c:/program files (x86)/microchip/xc32/v2.10/bin/bin/../../lib/gcc/pic32c/6.2.1/../../../../pic32c/lib/v7e-m/fpv5/hard\libc.a(lib_a-dtoa.o)
 .debug_abbrev  0x0000787f       0xa6 c:/program files (x86)/microchip/xc32/v2.10/bin/bin/../../lib/gcc/pic32c/6.2.1/../../../../pic32c/lib/v7e-m/fpv5/hard\libc.a(lib_a-fini.o)
 .debug_abbrev  0x00007925      0x24f c:/program files (x86)/microchip/xc32/v2.10/bin/bin/../../lib/gcc/pic32c/6.2.1/../../../../pic32c/lib/v7e-m/fpv5/hard\libc.a(lib_a-freer.o)
 .debug_abbrev  0x00007b74      0x21b c:/program files (x86)/microchip/xc32/v2.10/bin/bin/../../lib/gcc/pic32c/6.2.1/../../../../pic32c/lib/v7e-m/fpv5/hard\libc.a(lib_a-localeconv.o)
 .debug_abbrev  0x00007d8f       0x14 c:/program files (x86)/microchip/xc32/v2.10/bin/bin/../../lib/gcc/pic32c/6.2.1/../../../../pic32c/lib/v7e-m/fpv5/hard\libc.a(lib_a-memchr.o)
 .debug_abbrev  0x00007da3      0x3cc c:/program files (x86)/microchip/xc32/v2.10/bin/bin/../../lib/gcc/pic32c/6.2.1/../../../../pic32c/lib/v7e-m/fpv5/hard\libc.a(lib_a-mprec.o)
 .debug_abbrev  0x0000816f      0x23f c:/program files (x86)/microchip/xc32/v2.10/bin/bin/../../lib/gcc/pic32c/6.2.1/../../../../pic32c/lib/v7e-m/fpv5/hard\libc.a(lib_a-reent.o)
 .debug_abbrev  0x000083ae      0x207 c:/program files (x86)/microchip/xc32/v2.10/bin/bin/../../lib/gcc/pic32c/6.2.1/../../../../pic32c/lib/v7e-m/fpv5/hard\libc.a(lib_a-s_frexp.o)
 .debug_abbrev  0x000085b5      0x2c7 c:/program files (x86)/microchip/xc32/v2.10/bin/bin/../../lib/gcc/pic32c/6.2.1/../../../../pic32c/lib/v7e-m/fpv5/hard\libc.a(lib_a-svfiprintf.o)
 .debug_abbrev  0x0000887c      0x1f2 c:/program files (x86)/microchip/xc32/v2.10/bin/bin/../../lib/gcc/pic32c/6.2.1/../../../../pic32c/lib/v7e-m/fpv5/hard\libc.a(lib_a-__atexit.o)
 .debug_abbrev  0x00008a6e      0x203 c:/program files (x86)/microchip/xc32/v2.10/bin/bin/../../lib/gcc/pic32c/6.2.1/../../../../pic32c/lib/v7e-m/fpv5/hard\libc.a(lib_a-callocr.o)
 .debug_abbrev  0x00008c71       0x2a c:/program files (x86)/microchip/xc32/v2.10/bin/bin/../../lib/gcc/pic32c/6.2.1/../../../../pic32c/lib/v7e-m/fpv5/hard\libpic32c.a(sbrk.o)

.debug_loc      0x00000000    0x2103f
 .debug_loc     0x00000000       0x20 build/sam_e70_xplained_ultra/production/_ext/1360937237/main.o
 .debug_loc     0x00000020       0x41 build/sam_e70_xplained_ultra/production/_ext/1171490990/initialization.o
 .debug_loc     0x00000061       0x84 build/sam_e70_xplained_ultra/production/_ext/60177924/plib_pio.o
 .debug_loc     0x000000e5       0xb5 build/sam_e70_xplained_ultra/production/_ext/1865468468/plib_nvic.o
 .debug_loc     0x0000019a       0x59 build/sam_e70_xplained_ultra/production/_ext/1171490990/startup.o
 .debug_loc     0x000001f3       0xaa build/sam_e70_xplained_ultra/production/_ext/1881668453/sys_int.o
 .debug_loc     0x0000029d      0x5af build/sam_e70_xplained_ultra/production/_ext/1360937237/app.o
 .debug_loc     0x0000084c       0x20 build/sam_e70_xplained_ultra/production/_ext/1171490990/tasks.o
 .debug_loc     0x0000086c     0x2a05 build/sam_e70_xplained_ultra/production/_ext/1645245335/crypto.o
 .debug_loc     0x00003271     0x8263 build/sam_e70_xplained_ultra/production/_ext/1645245335/des3.o
 .debug_loc     0x0000b4d4      0xf93 build/sam_e70_xplained_ultra/production/_ext/1645245335/hmac.o
 .debug_loc     0x0000c467      0x9f6 build/sam_e70_xplained_ultra/production/_ext/1645245335/md5.o
 .debug_loc     0x0000ce5d     0x10a4 build/sam_e70_xplained_ultra/production/_ext/1645245335/sha512.o
 .debug_loc     0x0000df01      0x9d0 build/sam_e70_xplained_ultra/production/_ext/1645245335/aes_pic32c.o
 .debug_loc     0x0000e8d1      0x537 build/sam_e70_xplained_ultra/production/_ext/1645245335/sha_pic32c.o
 .debug_loc     0x0000ee08      0x539 build/sam_e70_xplained_ultra/production/_ext/1645245335/sha256_pic32c.o
 .debug_loc     0x0000f341      0x5fd build/sam_e70_xplained_ultra/production/_ext/1832805299/sys_console.o
 .debug_loc     0x0000f93e      0x4ab build/sam_e70_xplained_ultra/production/_ext/1832805299/sys_console_uart.o
 .debug_loc     0x0000fde9      0x184 build/sam_e70_xplained_ultra/production/_ext/1832805299/sys_debug.o
 .debug_loc     0x0000ff6d     0x1257 build/sam_e70_xplained_ultra/production/_ext/1832805299/sys_command.o
 .debug_loc     0x000111c4     0x1115 build/sam_e70_xplained_ultra/production/_ext/101884895/sys_time.o
 .debug_loc     0x000122d9       0x8e build/sam_e70_xplained_ultra/production/_ext/829342655/plib_tc1.o
 .debug_loc     0x00012367      0x732 build/sam_e70_xplained_ultra/production/_ext/2001315827/plib_usart1.o
 .debug_loc     0x00012a99       0x14 c:/program files (x86)/microchip/xc32/v2.10/bin/bin/../../lib/gcc/pic32c/6.2.1/../../../../pic32c/lib/v7e-m/fpv5/hard\libpic32c.a(data_init.o)
 .debug_loc     0x00012aad      0xda6 c:/program files (x86)/microchip/xc32/v2.10/bin/bin/../../lib/gcc/pic32c/6.2.1/v7e-m/fpv5/hard\libgcc.a(_udivmoddi4.o)
 .debug_loc     0x00013853       0xce c:/program files (x86)/microchip/xc32/v2.10/bin/bin/../../lib/gcc/pic32c/6.2.1/../../../../pic32c/lib/v7e-m/fpv5/hard\libc.a(lib_a-init.o)
 .debug_loc     0x00013921      0x173 c:/program files (x86)/microchip/xc32/v2.10/bin/bin/../../lib/gcc/pic32c/6.2.1/../../../../pic32c/lib/v7e-m/fpv5/hard\libc.a(lib_a-locale.o)
 .debug_loc     0x00013a94       0x58 c:/program files (x86)/microchip/xc32/v2.10/bin/bin/../../lib/gcc/pic32c/6.2.1/../../../../pic32c/lib/v7e-m/fpv5/hard\libc.a(lib_a-malloc.o)
 .debug_loc     0x00013aec      0xc66 c:/program files (x86)/microchip/xc32/v2.10/bin/bin/../../lib/gcc/pic32c/6.2.1/../../../../pic32c/lib/v7e-m/fpv5/hard\libc.a(lib_a-mallocr.o)
 .debug_loc     0x00014752      0x259 c:/program files (x86)/microchip/xc32/v2.10/bin/bin/../../lib/gcc/pic32c/6.2.1/../../../../pic32c/lib/v7e-m/fpv5/hard\libc.a(lib_a-mbtowc_r.o)
 .debug_loc     0x000149ab      0x1da c:/program files (x86)/microchip/xc32/v2.10/bin/bin/../../lib/gcc/pic32c/6.2.1/../../../../pic32c/lib/v7e-m/fpv5/hard\libc.a(lib_a-memcmp.o)
 .debug_loc     0x00014b85      0x289 c:/program files (x86)/microchip/xc32/v2.10/bin/bin/../../lib/gcc/pic32c/6.2.1/../../../../pic32c/lib/v7e-m/fpv5/hard\libc.a(lib_a-memmove.o)
 .debug_loc     0x00014e0e      0x1f5 c:/program files (x86)/microchip/xc32/v2.10/bin/bin/../../lib/gcc/pic32c/6.2.1/../../../../pic32c/lib/v7e-m/fpv5/hard\libc.a(lib_a-memset.o)
 .debug_loc     0x00015003      0xf24 c:/program files (x86)/microchip/xc32/v2.10/bin/bin/../../lib/gcc/pic32c/6.2.1/../../../../pic32c/lib/v7e-m/fpv5/hard\libc.a(lib_a-reallocr.o)
 .debug_loc     0x00015f27       0x6d c:/program files (x86)/microchip/xc32/v2.10/bin/bin/../../lib/gcc/pic32c/6.2.1/../../../../pic32c/lib/v7e-m/fpv5/hard\libc.a(lib_a-sbrkr.o)
 .debug_loc     0x00015f94      0x134 c:/program files (x86)/microchip/xc32/v2.10/bin/bin/../../lib/gcc/pic32c/6.2.1/../../../../pic32c/lib/v7e-m/fpv5/hard\libc.a(lib_a-sprintf.o)
 .debug_loc     0x000160c8       0x21 c:/program files (x86)/microchip/xc32/v2.10/bin/bin/../../lib/gcc/pic32c/6.2.1/../../../../pic32c/lib/v7e-m/fpv5/hard\libc.a(lib_a-strcpy.o)
 .debug_loc     0x000160e9      0x175 c:/program files (x86)/microchip/xc32/v2.10/bin/bin/../../lib/gcc/pic32c/6.2.1/../../../../pic32c/lib/v7e-m/fpv5/hard\libc.a(lib_a-strncpy.o)
 .debug_loc     0x0001625e     0x36ff c:/program files (x86)/microchip/xc32/v2.10/bin/bin/../../lib/gcc/pic32c/6.2.1/../../../../pic32c/lib/v7e-m/fpv5/hard\libc.a(lib_a-svfprintf.o)
 .debug_loc     0x0001995d      0x2cf c:/program files (x86)/microchip/xc32/v2.10/bin/bin/../../lib/gcc/pic32c/6.2.1/../../../../pic32c/lib/v7e-m/fpv5/hard\libc.a(lib_a-vsnprintf.o)
 .debug_loc     0x00019c2c      0x124 c:/program files (x86)/microchip/xc32/v2.10/bin/bin/../../lib/gcc/pic32c/6.2.1/../../../../pic32c/lib/v7e-m/fpv5/hard\libc.a(lib_a-wctomb_r.o)
 .debug_loc     0x00019d50      0x1dd c:/program files (x86)/microchip/xc32/v2.10/bin/bin/../../lib/gcc/pic32c/6.2.1/../../../../pic32c/lib/v7e-m/fpv5/hard\libc.a(lib_a-__call_atexit.o)
 .debug_loc     0x00019f2d       0x2c c:/program files (x86)/microchip/xc32/v2.10/bin/bin/../../lib/gcc/pic32c/6.2.1/../../../../pic32c/lib/v7e-m/fpv5/hard\libc.a(lib_a-atexit.o)
 .debug_loc     0x00019f59     0x2aab c:/program files (x86)/microchip/xc32/v2.10/bin/bin/../../lib/gcc/pic32c/6.2.1/../../../../pic32c/lib/v7e-m/fpv5/hard\libc.a(lib_a-dtoa.o)
 .debug_loc     0x0001ca04       0x88 c:/program files (x86)/microchip/xc32/v2.10/bin/bin/../../lib/gcc/pic32c/6.2.1/../../../../pic32c/lib/v7e-m/fpv5/hard\libc.a(lib_a-fini.o)
 .debug_loc     0x0001ca8c      0x5dd c:/program files (x86)/microchip/xc32/v2.10/bin/bin/../../lib/gcc/pic32c/6.2.1/../../../../pic32c/lib/v7e-m/fpv5/hard\libc.a(lib_a-freer.o)
 .debug_loc     0x0001d069       0x63 c:/program files (x86)/microchip/xc32/v2.10/bin/bin/../../lib/gcc/pic32c/6.2.1/../../../../pic32c/lib/v7e-m/fpv5/hard\libc.a(lib_a-localeconv.o)
 .debug_loc     0x0001d0cc     0x2030 c:/program files (x86)/microchip/xc32/v2.10/bin/bin/../../lib/gcc/pic32c/6.2.1/../../../../pic32c/lib/v7e-m/fpv5/hard\libc.a(lib_a-mprec.o)
 .debug_loc     0x0001f0fc      0x175 c:/program files (x86)/microchip/xc32/v2.10/bin/bin/../../lib/gcc/pic32c/6.2.1/../../../../pic32c/lib/v7e-m/fpv5/hard\libc.a(lib_a-reent.o)
 .debug_loc     0x0001f271      0x119 c:/program files (x86)/microchip/xc32/v2.10/bin/bin/../../lib/gcc/pic32c/6.2.1/../../../../pic32c/lib/v7e-m/fpv5/hard\libc.a(lib_a-s_frexp.o)
 .debug_loc     0x0001f38a     0x184d c:/program files (x86)/microchip/xc32/v2.10/bin/bin/../../lib/gcc/pic32c/6.2.1/../../../../pic32c/lib/v7e-m/fpv5/hard\libc.a(lib_a-svfiprintf.o)
 .debug_loc     0x00020bd7      0x1b7 c:/program files (x86)/microchip/xc32/v2.10/bin/bin/../../lib/gcc/pic32c/6.2.1/../../../../pic32c/lib/v7e-m/fpv5/hard\libc.a(lib_a-__atexit.o)
 .debug_loc     0x00020d8e      0x2b1 c:/program files (x86)/microchip/xc32/v2.10/bin/bin/../../lib/gcc/pic32c/6.2.1/../../../../pic32c/lib/v7e-m/fpv5/hard\libc.a(lib_a-callocr.o)

.debug_aranges  0x00000000     0x10c0
 .debug_aranges
                0x00000000       0x20 build/sam_e70_xplained_ultra/production/_ext/1360937237/main.o
 .debug_aranges
                0x00000020       0x20 build/sam_e70_xplained_ultra/production/_ext/1171490990/initialization.o
 .debug_aranges
                0x00000040       0x20 build/sam_e70_xplained_ultra/production/_ext/1171490990/interrupts.o
 .debug_aranges
                0x00000060       0x48 build/sam_e70_xplained_ultra/production/_ext/1171490990/exceptions.o
 .debug_aranges
                0x000000a8       0x20 build/sam_e70_xplained_ultra/production/_ext/60165520/plib_clk.o
 .debug_aranges
                0x000000c8       0x60 build/sam_e70_xplained_ultra/production/_ext/60177924/plib_pio.o
 .debug_aranges
                0x00000128       0x20 build/sam_e70_xplained_ultra/production/_ext/1865468468/plib_nvic.o
 .debug_aranges
                0x00000148       0x20 build/sam_e70_xplained_ultra/production/_ext/1171490990/startup.o
 .debug_aranges
                0x00000168       0x38 build/sam_e70_xplained_ultra/production/_ext/1881668453/sys_int.o
 .debug_aranges
                0x000001a0       0xc0 build/sam_e70_xplained_ultra/production/_ext/1360937237/app.o
 .debug_aranges
                0x00000260       0x20 build/sam_e70_xplained_ultra/production/_ext/1171490990/tasks.o
 .debug_aranges
                0x00000280      0x1c8 build/sam_e70_xplained_ultra/production/_ext/1645245335/crypto.o
 .debug_aranges
                0x00000448       0x88 build/sam_e70_xplained_ultra/production/_ext/1645245335/des3.o
 .debug_aranges
                0x000004d0       0x58 build/sam_e70_xplained_ultra/production/_ext/1645245335/hmac.o
 .debug_aranges
                0x00000528       0x58 build/sam_e70_xplained_ultra/production/_ext/1645245335/md5.o
 .debug_aranges
                0x00000580       0x90 build/sam_e70_xplained_ultra/production/_ext/1645245335/sha512.o
 .debug_aranges
                0x00000610       0x68 build/sam_e70_xplained_ultra/production/_ext/1645245335/aes_pic32c.o
 .debug_aranges
                0x00000678       0x38 build/sam_e70_xplained_ultra/production/_ext/1645245335/sha_pic32c.o
 .debug_aranges
                0x000006b0       0x40 build/sam_e70_xplained_ultra/production/_ext/1645245335/sha256_pic32c.o
 .debug_aranges
                0x000006f0       0x60 build/sam_e70_xplained_ultra/production/_ext/1832805299/sys_console.o
 .debug_aranges
                0x00000750       0x68 build/sam_e70_xplained_ultra/production/_ext/1832805299/sys_console_uart.o
 .debug_aranges
                0x000007b8       0x60 build/sam_e70_xplained_ultra/production/_ext/1832805299/sys_debug.o
 .debug_aranges
                0x00000818       0xd0 build/sam_e70_xplained_ultra/production/_ext/1832805299/sys_command.o
 .debug_aranges
                0x000008e8      0x100 build/sam_e70_xplained_ultra/production/_ext/101884895/sys_time.o
 .debug_aranges
                0x000009e8       0x60 build/sam_e70_xplained_ultra/production/_ext/829342655/plib_tc1.o
 .debug_aranges
                0x00000a48       0x78 build/sam_e70_xplained_ultra/production/_ext/2001315827/plib_usart1.o
 .debug_aranges
                0x00000ac0       0x20 c:/program files (x86)/microchip/xc32/v2.10/bin/bin/../../lib/gcc/pic32c/6.2.1/../../../../pic32c/lib/v7e-m/fpv5/hard\libpic32c.a(data_init.o)
 .debug_aranges
                0x00000ae0       0x20 c:/program files (x86)/microchip/xc32/v2.10/bin/bin/../../lib/gcc/pic32c/6.2.1/v7e-m/fpv5/hard\libgcc.a(_aeabi_uldivmod.o)
 .debug_aranges
                0x00000b00       0x20 c:/program files (x86)/microchip/xc32/v2.10/bin/bin/../../lib/gcc/pic32c/6.2.1/v7e-m/fpv5/hard\libgcc.a(_udivmoddi4.o)
 .debug_aranges
                0x00000b20       0x20 c:/program files (x86)/microchip/xc32/v2.10/bin/bin/../../lib/gcc/pic32c/6.2.1/v7e-m/fpv5/hard\libgcc.a(_dvmd_tls.o)
 .debug_aranges
                0x00000b40       0x18 c:/program files (x86)/microchip/xc32/v2.10/bin/bin/../../lib/gcc/pic32c/6.2.1/../../../../pic32c/lib/v7e-m/fpv5/hard\libc.a(lib_a-impure.o)
 .debug_aranges
                0x00000b58       0x20 c:/program files (x86)/microchip/xc32/v2.10/bin/bin/../../lib/gcc/pic32c/6.2.1/../../../../pic32c/lib/v7e-m/fpv5/hard\libc.a(lib_a-init.o)
 .debug_aranges
                0x00000b78       0x40 c:/program files (x86)/microchip/xc32/v2.10/bin/bin/../../lib/gcc/pic32c/6.2.1/../../../../pic32c/lib/v7e-m/fpv5/hard\libc.a(lib_a-locale.o)
 .debug_aranges
                0x00000bb8       0x28 c:/program files (x86)/microchip/xc32/v2.10/bin/bin/../../lib/gcc/pic32c/6.2.1/../../../../pic32c/lib/v7e-m/fpv5/hard\libc.a(lib_a-malloc.o)
 .debug_aranges
                0x00000be0       0x20 c:/program files (x86)/microchip/xc32/v2.10/bin/bin/../../lib/gcc/pic32c/6.2.1/../../../../pic32c/lib/v7e-m/fpv5/hard\libc.a(lib_a-mallocr.o)
 .debug_aranges
                0x00000c00       0x28 c:/program files (x86)/microchip/xc32/v2.10/bin/bin/../../lib/gcc/pic32c/6.2.1/../../../../pic32c/lib/v7e-m/fpv5/hard\libc.a(lib_a-mbtowc_r.o)
 .debug_aranges
                0x00000c28       0x20 c:/program files (x86)/microchip/xc32/v2.10/bin/bin/../../lib/gcc/pic32c/6.2.1/../../../../pic32c/lib/v7e-m/fpv5/hard\libc.a(lib_a-memcmp.o)
 .debug_aranges
                0x00000c48       0x20 c:/program files (x86)/microchip/xc32/v2.10/bin/bin/../../lib/gcc/pic32c/6.2.1/../../../../pic32c/lib/v7e-m/fpv5/hard\libc.a(lib_a-memcpy.o)
 .debug_aranges
                0x00000c68       0x20 c:/program files (x86)/microchip/xc32/v2.10/bin/bin/../../lib/gcc/pic32c/6.2.1/../../../../pic32c/lib/v7e-m/fpv5/hard\libc.a(lib_a-memmove.o)
 .debug_aranges
                0x00000c88       0x20 c:/program files (x86)/microchip/xc32/v2.10/bin/bin/../../lib/gcc/pic32c/6.2.1/../../../../pic32c/lib/v7e-m/fpv5/hard\libc.a(lib_a-memset.o)
 .debug_aranges
                0x00000ca8       0x20 c:/program files (x86)/microchip/xc32/v2.10/bin/bin/../../lib/gcc/pic32c/6.2.1/../../../../pic32c/lib/v7e-m/fpv5/hard\libc.a(lib_a-mlock.o)
 .debug_aranges
                0x00000cc8       0x20 c:/program files (x86)/microchip/xc32/v2.10/bin/bin/../../lib/gcc/pic32c/6.2.1/../../../../pic32c/lib/v7e-m/fpv5/hard\libc.a(lib_a-reallocr.o)
 .debug_aranges
                0x00000ce8       0x20 c:/program files (x86)/microchip/xc32/v2.10/bin/bin/../../lib/gcc/pic32c/6.2.1/../../../../pic32c/lib/v7e-m/fpv5/hard\libc.a(lib_a-sbrkr.o)
 .debug_aranges
                0x00000d08       0x28 c:/program files (x86)/microchip/xc32/v2.10/bin/bin/../../lib/gcc/pic32c/6.2.1/../../../../pic32c/lib/v7e-m/fpv5/hard\libc.a(lib_a-sprintf.o)
 .debug_aranges
                0x00000d30       0x20 c:/program files (x86)/microchip/xc32/v2.10/bin/bin/../../lib/gcc/pic32c/6.2.1/../../../../pic32c/lib/v7e-m/fpv5/hard\libc.a(lib_a-strcmp.o)
 .debug_aranges
                0x00000d50       0x20 c:/program files (x86)/microchip/xc32/v2.10/bin/bin/../../lib/gcc/pic32c/6.2.1/../../../../pic32c/lib/v7e-m/fpv5/hard\libc.a(lib_a-strcpy.o)
 .debug_aranges
                0x00000d70       0x20 c:/program files (x86)/microchip/xc32/v2.10/bin/bin/../../lib/gcc/pic32c/6.2.1/../../../../pic32c/lib/v7e-m/fpv5/hard\libc.a(lib_a-strlen.o)
 .debug_aranges
                0x00000d90       0x20 c:/program files (x86)/microchip/xc32/v2.10/bin/bin/../../lib/gcc/pic32c/6.2.1/../../../../pic32c/lib/v7e-m/fpv5/hard\libc.a(lib_a-strncpy.o)
 .debug_aranges
                0x00000db0       0x20 c:/program files (x86)/microchip/xc32/v2.10/bin/bin/../../lib/gcc/pic32c/6.2.1/../../../../pic32c/lib/v7e-m/fpv5/hard\libc.a(lib_a-svfprintf.o)
 .debug_aranges
                0x00000dd0       0x28 c:/program files (x86)/microchip/xc32/v2.10/bin/bin/../../lib/gcc/pic32c/6.2.1/../../../../pic32c/lib/v7e-m/fpv5/hard\libc.a(lib_a-vsnprintf.o)
 .debug_aranges
                0x00000df8       0x28 c:/program files (x86)/microchip/xc32/v2.10/bin/bin/../../lib/gcc/pic32c/6.2.1/../../../../pic32c/lib/v7e-m/fpv5/hard\libc.a(lib_a-wctomb_r.o)
 .debug_aranges
                0x00000e20       0x28 c:/program files (x86)/microchip/xc32/v2.10/bin/bin/../../lib/gcc/pic32c/6.2.1/../../../../pic32c/lib/v7e-m/fpv5/hard\libc.a(lib_a-__call_atexit.o)
 .debug_aranges
                0x00000e48       0x20 c:/program files (x86)/microchip/xc32/v2.10/bin/bin/../../lib/gcc/pic32c/6.2.1/../../../../pic32c/lib/v7e-m/fpv5/hard\libc.a(lib_a-atexit.o)
 .debug_aranges
                0x00000e68       0x18 c:/program files (x86)/microchip/xc32/v2.10/bin/bin/../../lib/gcc/pic32c/6.2.1/../../../../pic32c/lib/v7e-m/fpv5/hard\libc.a(lib_a-ctype_.o)
 .debug_aranges
                0x00000e80       0x28 c:/program files (x86)/microchip/xc32/v2.10/bin/bin/../../lib/gcc/pic32c/6.2.1/../../../../pic32c/lib/v7e-m/fpv5/hard\libc.a(lib_a-dtoa.o)
 .debug_aranges
                0x00000ea8       0x20 c:/program files (x86)/microchip/xc32/v2.10/bin/bin/../../lib/gcc/pic32c/6.2.1/../../../../pic32c/lib/v7e-m/fpv5/hard\libc.a(lib_a-fini.o)
 .debug_aranges
                0x00000ec8       0x28 c:/program files (x86)/microchip/xc32/v2.10/bin/bin/../../lib/gcc/pic32c/6.2.1/../../../../pic32c/lib/v7e-m/fpv5/hard\libc.a(lib_a-freer.o)
 .debug_aranges
                0x00000ef0       0x30 c:/program files (x86)/microchip/xc32/v2.10/bin/bin/../../lib/gcc/pic32c/6.2.1/../../../../pic32c/lib/v7e-m/fpv5/hard\libc.a(lib_a-localeconv.o)
 .debug_aranges
                0x00000f20       0x20 c:/program files (x86)/microchip/xc32/v2.10/bin/bin/../../lib/gcc/pic32c/6.2.1/../../../../pic32c/lib/v7e-m/fpv5/hard\libc.a(lib_a-memchr.o)
 .debug_aranges
                0x00000f40       0xb0 c:/program files (x86)/microchip/xc32/v2.10/bin/bin/../../lib/gcc/pic32c/6.2.1/../../../../pic32c/lib/v7e-m/fpv5/hard\libc.a(lib_a-mprec.o)
 .debug_aranges
                0x00000ff0       0x28 c:/program files (x86)/microchip/xc32/v2.10/bin/bin/../../lib/gcc/pic32c/6.2.1/../../../../pic32c/lib/v7e-m/fpv5/hard\libc.a(lib_a-reent.o)
 .debug_aranges
                0x00001018       0x20 c:/program files (x86)/microchip/xc32/v2.10/bin/bin/../../lib/gcc/pic32c/6.2.1/../../../../pic32c/lib/v7e-m/fpv5/hard\libc.a(lib_a-s_frexp.o)
 .debug_aranges
                0x00001038       0x28 c:/program files (x86)/microchip/xc32/v2.10/bin/bin/../../lib/gcc/pic32c/6.2.1/../../../../pic32c/lib/v7e-m/fpv5/hard\libc.a(lib_a-svfiprintf.o)
 .debug_aranges
                0x00001060       0x20 c:/program files (x86)/microchip/xc32/v2.10/bin/bin/../../lib/gcc/pic32c/6.2.1/../../../../pic32c/lib/v7e-m/fpv5/hard\libc.a(lib_a-__atexit.o)
 .debug_aranges
                0x00001080       0x20 c:/program files (x86)/microchip/xc32/v2.10/bin/bin/../../lib/gcc/pic32c/6.2.1/../../../../pic32c/lib/v7e-m/fpv5/hard\libc.a(lib_a-callocr.o)
 .debug_aranges
                0x000010a0       0x20 c:/program files (x86)/microchip/xc32/v2.10/bin/bin/../../lib/gcc/pic32c/6.2.1/../../../../pic32c/lib/v7e-m/fpv5/hard\libpic32c.a(sbrk.o)

.debug_ranges   0x00000000     0x13f8
 .debug_ranges  0x00000000       0x10 build/sam_e70_xplained_ultra/production/_ext/1360937237/main.o
 .debug_ranges  0x00000010       0x10 build/sam_e70_xplained_ultra/production/_ext/1171490990/initialization.o
 .debug_ranges  0x00000020       0x10 build/sam_e70_xplained_ultra/production/_ext/1171490990/interrupts.o
 .debug_ranges  0x00000030       0x38 build/sam_e70_xplained_ultra/production/_ext/1171490990/exceptions.o
 .debug_ranges  0x00000068       0x10 build/sam_e70_xplained_ultra/production/_ext/60165520/plib_clk.o
 .debug_ranges  0x00000078       0x50 build/sam_e70_xplained_ultra/production/_ext/60177924/plib_pio.o
 .debug_ranges  0x000000c8       0x10 build/sam_e70_xplained_ultra/production/_ext/1865468468/plib_nvic.o
 .debug_ranges  0x000000d8       0x10 build/sam_e70_xplained_ultra/production/_ext/1171490990/startup.o
 .debug_ranges  0x000000e8       0x28 build/sam_e70_xplained_ultra/production/_ext/1881668453/sys_int.o
 .debug_ranges  0x00000110       0xb0 build/sam_e70_xplained_ultra/production/_ext/1360937237/app.o
 .debug_ranges  0x000001c0       0x10 build/sam_e70_xplained_ultra/production/_ext/1171490990/tasks.o
 .debug_ranges  0x000001d0      0x1b8 build/sam_e70_xplained_ultra/production/_ext/1645245335/crypto.o
 .debug_ranges  0x00000388       0xf0 build/sam_e70_xplained_ultra/production/_ext/1645245335/des3.o
 .debug_ranges  0x00000478       0x68 build/sam_e70_xplained_ultra/production/_ext/1645245335/hmac.o
 .debug_ranges  0x000004e0       0x60 build/sam_e70_xplained_ultra/production/_ext/1645245335/md5.o
 .debug_ranges  0x00000540      0x120 build/sam_e70_xplained_ultra/production/_ext/1645245335/sha512.o
 .debug_ranges  0x00000660       0x58 build/sam_e70_xplained_ultra/production/_ext/1645245335/aes_pic32c.o
 .debug_ranges  0x000006b8       0x28 build/sam_e70_xplained_ultra/production/_ext/1645245335/sha_pic32c.o
 .debug_ranges  0x000006e0       0x30 build/sam_e70_xplained_ultra/production/_ext/1645245335/sha256_pic32c.o
 .debug_ranges  0x00000710       0x50 build/sam_e70_xplained_ultra/production/_ext/1832805299/sys_console.o
 .debug_ranges  0x00000760       0x88 build/sam_e70_xplained_ultra/production/_ext/1832805299/sys_console_uart.o
 .debug_ranges  0x000007e8       0x50 build/sam_e70_xplained_ultra/production/_ext/1832805299/sys_debug.o
 .debug_ranges  0x00000838      0x1a8 build/sam_e70_xplained_ultra/production/_ext/1832805299/sys_command.o
 .debug_ranges  0x000009e0      0x120 build/sam_e70_xplained_ultra/production/_ext/101884895/sys_time.o
 .debug_ranges  0x00000b00       0x50 build/sam_e70_xplained_ultra/production/_ext/829342655/plib_tc1.o
 .debug_ranges  0x00000b50       0x80 build/sam_e70_xplained_ultra/production/_ext/2001315827/plib_usart1.o
 .debug_ranges  0x00000bd0       0x10 c:/program files (x86)/microchip/xc32/v2.10/bin/bin/../../lib/gcc/pic32c/6.2.1/../../../../pic32c/lib/v7e-m/fpv5/hard\libpic32c.a(data_init.o)
 .debug_ranges  0x00000be0       0xd0 c:/program files (x86)/microchip/xc32/v2.10/bin/bin/../../lib/gcc/pic32c/6.2.1/v7e-m/fpv5/hard\libgcc.a(_udivmoddi4.o)
 .debug_ranges  0x00000cb0       0x10 c:/program files (x86)/microchip/xc32/v2.10/bin/bin/../../lib/gcc/pic32c/6.2.1/../../../../pic32c/lib/v7e-m/fpv5/hard\libc.a(lib_a-init.o)
 .debug_ranges  0x00000cc0       0x50 c:/program files (x86)/microchip/xc32/v2.10/bin/bin/../../lib/gcc/pic32c/6.2.1/../../../../pic32c/lib/v7e-m/fpv5/hard\libc.a(lib_a-locale.o)
 .debug_ranges  0x00000d10       0x18 c:/program files (x86)/microchip/xc32/v2.10/bin/bin/../../lib/gcc/pic32c/6.2.1/../../../../pic32c/lib/v7e-m/fpv5/hard\libc.a(lib_a-malloc.o)
 .debug_ranges  0x00000d28       0x40 c:/program files (x86)/microchip/xc32/v2.10/bin/bin/../../lib/gcc/pic32c/6.2.1/../../../../pic32c/lib/v7e-m/fpv5/hard\libc.a(lib_a-mallocr.o)
 .debug_ranges  0x00000d68       0x18 c:/program files (x86)/microchip/xc32/v2.10/bin/bin/../../lib/gcc/pic32c/6.2.1/../../../../pic32c/lib/v7e-m/fpv5/hard\libc.a(lib_a-mbtowc_r.o)
 .debug_ranges  0x00000d80       0x10 c:/program files (x86)/microchip/xc32/v2.10/bin/bin/../../lib/gcc/pic32c/6.2.1/../../../../pic32c/lib/v7e-m/fpv5/hard\libc.a(lib_a-memcmp.o)
 .debug_ranges  0x00000d90       0x10 c:/program files (x86)/microchip/xc32/v2.10/bin/bin/../../lib/gcc/pic32c/6.2.1/../../../../pic32c/lib/v7e-m/fpv5/hard\libc.a(lib_a-memmove.o)
 .debug_ranges  0x00000da0       0x10 c:/program files (x86)/microchip/xc32/v2.10/bin/bin/../../lib/gcc/pic32c/6.2.1/../../../../pic32c/lib/v7e-m/fpv5/hard\libc.a(lib_a-memset.o)
 .debug_ranges  0x00000db0       0x10 c:/program files (x86)/microchip/xc32/v2.10/bin/bin/../../lib/gcc/pic32c/6.2.1/../../../../pic32c/lib/v7e-m/fpv5/hard\libc.a(lib_a-mlock.o)
 .debug_ranges  0x00000dc0      0x118 c:/program files (x86)/microchip/xc32/v2.10/bin/bin/../../lib/gcc/pic32c/6.2.1/../../../../pic32c/lib/v7e-m/fpv5/hard\libc.a(lib_a-reallocr.o)
 .debug_ranges  0x00000ed8       0x10 c:/program files (x86)/microchip/xc32/v2.10/bin/bin/../../lib/gcc/pic32c/6.2.1/../../../../pic32c/lib/v7e-m/fpv5/hard\libc.a(lib_a-sbrkr.o)
 .debug_ranges  0x00000ee8       0x18 c:/program files (x86)/microchip/xc32/v2.10/bin/bin/../../lib/gcc/pic32c/6.2.1/../../../../pic32c/lib/v7e-m/fpv5/hard\libc.a(lib_a-sprintf.o)
 .debug_ranges  0x00000f00       0x10 c:/program files (x86)/microchip/xc32/v2.10/bin/bin/../../lib/gcc/pic32c/6.2.1/../../../../pic32c/lib/v7e-m/fpv5/hard\libc.a(lib_a-strcpy.o)
 .debug_ranges  0x00000f10       0x10 c:/program files (x86)/microchip/xc32/v2.10/bin/bin/../../lib/gcc/pic32c/6.2.1/../../../../pic32c/lib/v7e-m/fpv5/hard\libc.a(lib_a-strncpy.o)
 .debug_ranges  0x00000f20      0x1b0 c:/program files (x86)/microchip/xc32/v2.10/bin/bin/../../lib/gcc/pic32c/6.2.1/../../../../pic32c/lib/v7e-m/fpv5/hard\libc.a(lib_a-svfprintf.o)
 .debug_ranges  0x000010d0       0x18 c:/program files (x86)/microchip/xc32/v2.10/bin/bin/../../lib/gcc/pic32c/6.2.1/../../../../pic32c/lib/v7e-m/fpv5/hard\libc.a(lib_a-vsnprintf.o)
 .debug_ranges  0x000010e8       0x18 c:/program files (x86)/microchip/xc32/v2.10/bin/bin/../../lib/gcc/pic32c/6.2.1/../../../../pic32c/lib/v7e-m/fpv5/hard\libc.a(lib_a-wctomb_r.o)
 .debug_ranges  0x00001100       0x38 c:/program files (x86)/microchip/xc32/v2.10/bin/bin/../../lib/gcc/pic32c/6.2.1/../../../../pic32c/lib/v7e-m/fpv5/hard\libc.a(lib_a-__call_atexit.o)
 .debug_ranges  0x00001138       0x10 c:/program files (x86)/microchip/xc32/v2.10/bin/bin/../../lib/gcc/pic32c/6.2.1/../../../../pic32c/lib/v7e-m/fpv5/hard\libc.a(lib_a-atexit.o)
 .debug_ranges  0x00001148       0x18 c:/program files (x86)/microchip/xc32/v2.10/bin/bin/../../lib/gcc/pic32c/6.2.1/../../../../pic32c/lib/v7e-m/fpv5/hard\libc.a(lib_a-dtoa.o)
 .debug_ranges  0x00001160       0x10 c:/program files (x86)/microchip/xc32/v2.10/bin/bin/../../lib/gcc/pic32c/6.2.1/../../../../pic32c/lib/v7e-m/fpv5/hard\libc.a(lib_a-fini.o)
 .debug_ranges  0x00001170       0x18 c:/program files (x86)/microchip/xc32/v2.10/bin/bin/../../lib/gcc/pic32c/6.2.1/../../../../pic32c/lib/v7e-m/fpv5/hard\libc.a(lib_a-freer.o)
 .debug_ranges  0x00001188       0x20 c:/program files (x86)/microchip/xc32/v2.10/bin/bin/../../lib/gcc/pic32c/6.2.1/../../../../pic32c/lib/v7e-m/fpv5/hard\libc.a(lib_a-localeconv.o)
 .debug_ranges  0x000011a8      0x130 c:/program files (x86)/microchip/xc32/v2.10/bin/bin/../../lib/gcc/pic32c/6.2.1/../../../../pic32c/lib/v7e-m/fpv5/hard\libc.a(lib_a-mprec.o)
 .debug_ranges  0x000012d8       0x18 c:/program files (x86)/microchip/xc32/v2.10/bin/bin/../../lib/gcc/pic32c/6.2.1/../../../../pic32c/lib/v7e-m/fpv5/hard\libc.a(lib_a-reent.o)
 .debug_ranges  0x000012f0       0x48 c:/program files (x86)/microchip/xc32/v2.10/bin/bin/../../lib/gcc/pic32c/6.2.1/../../../../pic32c/lib/v7e-m/fpv5/hard\libc.a(lib_a-s_frexp.o)
 .debug_ranges  0x00001338       0x50 c:/program files (x86)/microchip/xc32/v2.10/bin/bin/../../lib/gcc/pic32c/6.2.1/../../../../pic32c/lib/v7e-m/fpv5/hard\libc.a(lib_a-svfiprintf.o)
 .debug_ranges  0x00001388       0x10 c:/program files (x86)/microchip/xc32/v2.10/bin/bin/../../lib/gcc/pic32c/6.2.1/../../../../pic32c/lib/v7e-m/fpv5/hard\libc.a(lib_a-__atexit.o)
 .debug_ranges  0x00001398       0x50 c:/program files (x86)/microchip/xc32/v2.10/bin/bin/../../lib/gcc/pic32c/6.2.1/../../../../pic32c/lib/v7e-m/fpv5/hard\libc.a(lib_a-callocr.o)
 .debug_ranges  0x000013e8       0x10 c:/program files (x86)/microchip/xc32/v2.10/bin/bin/../../lib/gcc/pic32c/6.2.1/../../../../pic32c/lib/v7e-m/fpv5/hard\libpic32c.a(sbrk.o)

.debug_line     0x00000000     0xd4ce
 .debug_line    0x00000000      0x25e build/sam_e70_xplained_ultra/production/_ext/1360937237/main.o
 .debug_line    0x0000025e      0x502 build/sam_e70_xplained_ultra/production/_ext/1171490990/initialization.o
 .debug_line    0x00000760      0x28c build/sam_e70_xplained_ultra/production/_ext/1171490990/interrupts.o
 .debug_line    0x000009ec      0x2ab build/sam_e70_xplained_ultra/production/_ext/1171490990/exceptions.o
 .debug_line    0x00000c97      0x180 build/sam_e70_xplained_ultra/production/_ext/60165520/plib_clk.o
 .debug_line    0x00000e17      0x21f build/sam_e70_xplained_ultra/production/_ext/60177924/plib_pio.o
 .debug_line    0x00001036      0x19c build/sam_e70_xplained_ultra/production/_ext/1865468468/plib_nvic.o
 .debug_line    0x000011d2      0x31c build/sam_e70_xplained_ultra/production/_ext/1171490990/startup.o
 .debug_line    0x000014ee      0x225 build/sam_e70_xplained_ultra/production/_ext/1881668453/sys_int.o
 .debug_line    0x00001713      0x63b build/sam_e70_xplained_ultra/production/_ext/1360937237/app.o
 .debug_line    0x00001d4e      0x28e build/sam_e70_xplained_ultra/production/_ext/1171490990/tasks.o
 .debug_line    0x00001fdc      0x821 build/sam_e70_xplained_ultra/production/_ext/1645245335/crypto.o
 .debug_line    0x000027fd      0x532 build/sam_e70_xplained_ultra/production/_ext/1645245335/des3.o
 .debug_line    0x00002d2f      0x4b2 build/sam_e70_xplained_ultra/production/_ext/1645245335/hmac.o
 .debug_line    0x000031e1      0x2e1 build/sam_e70_xplained_ultra/production/_ext/1645245335/md5.o
 .debug_line    0x000034c2      0xa63 build/sam_e70_xplained_ultra/production/_ext/1645245335/sha512.o
 .debug_line    0x00003f25      0x380 build/sam_e70_xplained_ultra/production/_ext/1645245335/aes_pic32c.o
 .debug_line    0x000042a5      0x3d8 build/sam_e70_xplained_ultra/production/_ext/1645245335/sha_pic32c.o
 .debug_line    0x0000467d      0x3f9 build/sam_e70_xplained_ultra/production/_ext/1645245335/sha256_pic32c.o
 .debug_line    0x00004a76      0x346 build/sam_e70_xplained_ultra/production/_ext/1832805299/sys_console.o
 .debug_line    0x00004dbc      0x453 build/sam_e70_xplained_ultra/production/_ext/1832805299/sys_console_uart.o
 .debug_line    0x0000520f      0x321 build/sam_e70_xplained_ultra/production/_ext/1832805299/sys_debug.o
 .debug_line    0x00005530      0x62e build/sam_e70_xplained_ultra/production/_ext/1832805299/sys_command.o
 .debug_line    0x00005b5e      0x600 build/sam_e70_xplained_ultra/production/_ext/101884895/sys_time.o
 .debug_line    0x0000615e      0x265 build/sam_e70_xplained_ultra/production/_ext/829342655/plib_tc1.o
 .debug_line    0x000063c3      0x36b build/sam_e70_xplained_ultra/production/_ext/2001315827/plib_usart1.o
 .debug_line    0x0000672e       0xe5 c:/program files (x86)/microchip/xc32/v2.10/bin/bin/../../lib/gcc/pic32c/6.2.1/../../../../pic32c/lib/v7e-m/fpv5/hard\libpic32c.a(data_init.o)
 .debug_line    0x00006813       0xa3 c:/program files (x86)/microchip/xc32/v2.10/bin/bin/../../lib/gcc/pic32c/6.2.1/v7e-m/fpv5/hard\libgcc.a(_aeabi_uldivmod.o)
 .debug_line    0x000068b6      0x4cd c:/program files (x86)/microchip/xc32/v2.10/bin/bin/../../lib/gcc/pic32c/6.2.1/v7e-m/fpv5/hard\libgcc.a(_udivmoddi4.o)
 .debug_line    0x00006d83       0xa3 c:/program files (x86)/microchip/xc32/v2.10/bin/bin/../../lib/gcc/pic32c/6.2.1/v7e-m/fpv5/hard\libgcc.a(_dvmd_tls.o)
 .debug_line    0x00006e26      0x196 c:/program files (x86)/microchip/xc32/v2.10/bin/bin/../../lib/gcc/pic32c/6.2.1/../../../../pic32c/lib/v7e-m/fpv5/hard\libc.a(lib_a-impure.o)
 .debug_line    0x00006fbc      0x120 c:/program files (x86)/microchip/xc32/v2.10/bin/bin/../../lib/gcc/pic32c/6.2.1/../../../../pic32c/lib/v7e-m/fpv5/hard\libc.a(lib_a-init.o)
 .debug_line    0x000070dc      0x354 c:/program files (x86)/microchip/xc32/v2.10/bin/bin/../../lib/gcc/pic32c/6.2.1/../../../../pic32c/lib/v7e-m/fpv5/hard\libc.a(lib_a-locale.o)
 .debug_line    0x00007430      0x23d c:/program files (x86)/microchip/xc32/v2.10/bin/bin/../../lib/gcc/pic32c/6.2.1/../../../../pic32c/lib/v7e-m/fpv5/hard\libc.a(lib_a-malloc.o)
 .debug_line    0x0000766d      0x3de c:/program files (x86)/microchip/xc32/v2.10/bin/bin/../../lib/gcc/pic32c/6.2.1/../../../../pic32c/lib/v7e-m/fpv5/hard\libc.a(lib_a-mallocr.o)
 .debug_line    0x00007a4b      0x301 c:/program files (x86)/microchip/xc32/v2.10/bin/bin/../../lib/gcc/pic32c/6.2.1/../../../../pic32c/lib/v7e-m/fpv5/hard\libc.a(lib_a-mbtowc_r.o)
 .debug_line    0x00007d4c      0x23c c:/program files (x86)/microchip/xc32/v2.10/bin/bin/../../lib/gcc/pic32c/6.2.1/../../../../pic32c/lib/v7e-m/fpv5/hard\libc.a(lib_a-memcmp.o)
 .debug_line    0x00007f88       0xfb c:/program files (x86)/microchip/xc32/v2.10/bin/bin/../../lib/gcc/pic32c/6.2.1/../../../../pic32c/lib/v7e-m/fpv5/hard\libc.a(lib_a-memcpy.o)
 .debug_line    0x00008083      0x2fe c:/program files (x86)/microchip/xc32/v2.10/bin/bin/../../lib/gcc/pic32c/6.2.1/../../../../pic32c/lib/v7e-m/fpv5/hard\libc.a(lib_a-memmove.o)
 .debug_line    0x00008381      0x300 c:/program files (x86)/microchip/xc32/v2.10/bin/bin/../../lib/gcc/pic32c/6.2.1/../../../../pic32c/lib/v7e-m/fpv5/hard\libc.a(lib_a-memset.o)
 .debug_line    0x00008681      0x1a5 c:/program files (x86)/microchip/xc32/v2.10/bin/bin/../../lib/gcc/pic32c/6.2.1/../../../../pic32c/lib/v7e-m/fpv5/hard\libc.a(lib_a-mlock.o)
 .debug_line    0x00008826      0x2ab c:/program files (x86)/microchip/xc32/v2.10/bin/bin/../../lib/gcc/pic32c/6.2.1/../../../../pic32c/lib/v7e-m/fpv5/hard\libc.a(lib_a-reallocr.o)
 .debug_line    0x00008ad1      0x230 c:/program files (x86)/microchip/xc32/v2.10/bin/bin/../../lib/gcc/pic32c/6.2.1/../../../../pic32c/lib/v7e-m/fpv5/hard\libc.a(lib_a-sbrkr.o)
 .debug_line    0x00008d01      0x29d c:/program files (x86)/microchip/xc32/v2.10/bin/bin/../../lib/gcc/pic32c/6.2.1/../../../../pic32c/lib/v7e-m/fpv5/hard\libc.a(lib_a-sprintf.o)
 .debug_line    0x00008f9e      0x174 c:/program files (x86)/microchip/xc32/v2.10/bin/bin/../../lib/gcc/pic32c/6.2.1/../../../../pic32c/lib/v7e-m/fpv5/hard\libc.a(lib_a-strcmp.o)
 .debug_line    0x00009112      0x224 c:/program files (x86)/microchip/xc32/v2.10/bin/bin/../../lib/gcc/pic32c/6.2.1/../../../../pic32c/lib/v7e-m/fpv5/hard\libc.a(lib_a-strcpy.o)
 .debug_line    0x00009336       0xec c:/program files (x86)/microchip/xc32/v2.10/bin/bin/../../lib/gcc/pic32c/6.2.1/../../../../pic32c/lib/v7e-m/fpv5/hard\libc.a(lib_a-strlen.o)
 .debug_line    0x00009422      0x23d c:/program files (x86)/microchip/xc32/v2.10/bin/bin/../../lib/gcc/pic32c/6.2.1/../../../../pic32c/lib/v7e-m/fpv5/hard\libc.a(lib_a-strncpy.o)
 .debug_line    0x0000965f      0xa0e c:/program files (x86)/microchip/xc32/v2.10/bin/bin/../../lib/gcc/pic32c/6.2.1/../../../../pic32c/lib/v7e-m/fpv5/hard\libc.a(lib_a-svfprintf.o)
 .debug_line    0x0000a06d      0x29e c:/program files (x86)/microchip/xc32/v2.10/bin/bin/../../lib/gcc/pic32c/6.2.1/../../../../pic32c/lib/v7e-m/fpv5/hard\libc.a(lib_a-vsnprintf.o)
 .debug_line    0x0000a30b      0x2fc c:/program files (x86)/microchip/xc32/v2.10/bin/bin/../../lib/gcc/pic32c/6.2.1/../../../../pic32c/lib/v7e-m/fpv5/hard\libc.a(lib_a-wctomb_r.o)
 .debug_line    0x0000a607      0x280 c:/program files (x86)/microchip/xc32/v2.10/bin/bin/../../lib/gcc/pic32c/6.2.1/../../../../pic32c/lib/v7e-m/fpv5/hard\libc.a(lib_a-__call_atexit.o)
 .debug_line    0x0000a887      0x22b c:/program files (x86)/microchip/xc32/v2.10/bin/bin/../../lib/gcc/pic32c/6.2.1/../../../../pic32c/lib/v7e-m/fpv5/hard\libc.a(lib_a-atexit.o)
 .debug_line    0x0000aab2      0x23d c:/program files (x86)/microchip/xc32/v2.10/bin/bin/../../lib/gcc/pic32c/6.2.1/../../../../pic32c/lib/v7e-m/fpv5/hard\libc.a(lib_a-ctype_.o)
 .debug_line    0x0000acef      0x72b c:/program files (x86)/microchip/xc32/v2.10/bin/bin/../../lib/gcc/pic32c/6.2.1/../../../../pic32c/lib/v7e-m/fpv5/hard\libc.a(lib_a-dtoa.o)
 .debug_line    0x0000b41a      0x117 c:/program files (x86)/microchip/xc32/v2.10/bin/bin/../../lib/gcc/pic32c/6.2.1/../../../../pic32c/lib/v7e-m/fpv5/hard\libc.a(lib_a-fini.o)
 .debug_line    0x0000b531      0x2ff c:/program files (x86)/microchip/xc32/v2.10/bin/bin/../../lib/gcc/pic32c/6.2.1/../../../../pic32c/lib/v7e-m/fpv5/hard\libc.a(lib_a-freer.o)
 .debug_line    0x0000b830      0x280 c:/program files (x86)/microchip/xc32/v2.10/bin/bin/../../lib/gcc/pic32c/6.2.1/../../../../pic32c/lib/v7e-m/fpv5/hard\libc.a(lib_a-localeconv.o)
 .debug_line    0x0000bab0       0xe1 c:/program files (x86)/microchip/xc32/v2.10/bin/bin/../../lib/gcc/pic32c/6.2.1/../../../../pic32c/lib/v7e-m/fpv5/hard\libc.a(lib_a-memchr.o)
 .debug_line    0x0000bb91      0x75a c:/program files (x86)/microchip/xc32/v2.10/bin/bin/../../lib/gcc/pic32c/6.2.1/../../../../pic32c/lib/v7e-m/fpv5/hard\libc.a(lib_a-mprec.o)
 .debug_line    0x0000c2eb      0x259 c:/program files (x86)/microchip/xc32/v2.10/bin/bin/../../lib/gcc/pic32c/6.2.1/../../../../pic32c/lib/v7e-m/fpv5/hard\libc.a(lib_a-reent.o)
 .debug_line    0x0000c544      0x33d c:/program files (x86)/microchip/xc32/v2.10/bin/bin/../../lib/gcc/pic32c/6.2.1/../../../../pic32c/lib/v7e-m/fpv5/hard\libc.a(lib_a-s_frexp.o)
 .debug_line    0x0000c881      0x772 c:/program files (x86)/microchip/xc32/v2.10/bin/bin/../../lib/gcc/pic32c/6.2.1/../../../../pic32c/lib/v7e-m/fpv5/hard\libc.a(lib_a-svfiprintf.o)
 .debug_line    0x0000cff3      0x25e c:/program files (x86)/microchip/xc32/v2.10/bin/bin/../../lib/gcc/pic32c/6.2.1/../../../../pic32c/lib/v7e-m/fpv5/hard\libc.a(lib_a-__atexit.o)
 .debug_line    0x0000d251      0x1d3 c:/program files (x86)/microchip/xc32/v2.10/bin/bin/../../lib/gcc/pic32c/6.2.1/../../../../pic32c/lib/v7e-m/fpv5/hard\libc.a(lib_a-callocr.o)
 .debug_line    0x0000d424       0xaa c:/program files (x86)/microchip/xc32/v2.10/bin/bin/../../lib/gcc/pic32c/6.2.1/../../../../pic32c/lib/v7e-m/fpv5/hard\libpic32c.a(sbrk.o)

.debug_str      0x00000000     0x1d54
 .debug_str     0x00000000       0x27 build/sam_e70_xplained_ultra/production/_ext/1360937237/main.o
 .debug_str     0x00000027       0xd3 build/sam_e70_xplained_ultra/production/_ext/1171490990/initialization.o
 .debug_str     0x000000fa        0xe build/sam_e70_xplained_ultra/production/_ext/1171490990/interrupts.o
 .debug_str     0x00000108        0xe build/sam_e70_xplained_ultra/production/_ext/1171490990/exceptions.o
 .debug_str     0x00000116        0xa build/sam_e70_xplained_ultra/production/_ext/60165520/plib_clk.o
 .debug_str     0x00000120       0x46 build/sam_e70_xplained_ultra/production/_ext/60177924/plib_pio.o
 .debug_str     0x00000166       0x28 build/sam_e70_xplained_ultra/production/_ext/1865468468/plib_nvic.o
 .debug_str     0x0000018e       0x79 build/sam_e70_xplained_ultra/production/_ext/1171490990/startup.o
 .debug_str     0x00000207       0x10 build/sam_e70_xplained_ultra/production/_ext/1881668453/sys_int.o
 .debug_str     0x00000217      0x393 build/sam_e70_xplained_ultra/production/_ext/1360937237/app.o
 .debug_str     0x000005aa       0x38 build/sam_e70_xplained_ultra/production/_ext/1171490990/tasks.o
 .debug_str     0x000005e2      0x477 build/sam_e70_xplained_ultra/production/_ext/1645245335/crypto.o
 .debug_str     0x00000a59       0x15 build/sam_e70_xplained_ultra/production/_ext/1645245335/des3.o
 .debug_str     0x00000a6e      0x10e build/sam_e70_xplained_ultra/production/_ext/1645245335/hmac.o
 .debug_str     0x00000b7c        0xe build/sam_e70_xplained_ultra/production/_ext/1645245335/md5.o
 .debug_str     0x00000b8a       0x1c build/sam_e70_xplained_ultra/production/_ext/1645245335/sha512.o
 .debug_str     0x00000ba6       0x26 build/sam_e70_xplained_ultra/production/_ext/1645245335/aes_pic32c.o
 .debug_str     0x00000bcc       0x3a build/sam_e70_xplained_ultra/production/_ext/1645245335/sha_pic32c.o
 .debug_str     0x00000c06       0x41 build/sam_e70_xplained_ultra/production/_ext/1645245335/sha256_pic32c.o
 .debug_str     0x00000c47       0x1b build/sam_e70_xplained_ultra/production/_ext/1832805299/sys_console.o
 .debug_str     0x00000c62       0x8f build/sam_e70_xplained_ultra/production/_ext/1832805299/sys_console_uart.o
 .debug_str     0x00000cf1       0x3c build/sam_e70_xplained_ultra/production/_ext/1832805299/sys_debug.o
 .debug_str     0x00000d2d       0xc3 build/sam_e70_xplained_ultra/production/_ext/1832805299/sys_command.o
 .debug_str     0x00000df0       0xc3 build/sam_e70_xplained_ultra/production/_ext/101884895/sys_time.o
 .debug_str     0x00000eb3        0xa build/sam_e70_xplained_ultra/production/_ext/829342655/plib_tc1.o
 .debug_str     0x00000ebd       0x10 build/sam_e70_xplained_ultra/production/_ext/2001315827/plib_usart1.o
 .debug_str     0x00000ecd        0x0 c:/program files (x86)/microchip/xc32/v2.10/bin/bin/../../lib/gcc/pic32c/6.2.1/../../../../pic32c/lib/v7e-m/fpv5/hard\libpic32c.a(data_init.o)
 .debug_str     0x00000ecd        0xe c:/program files (x86)/microchip/xc32/v2.10/bin/bin/../../lib/gcc/pic32c/6.2.1/v7e-m/fpv5/hard\libgcc.a(_udivmoddi4.o)
 .debug_str     0x00000edb        0xe c:/program files (x86)/microchip/xc32/v2.10/bin/bin/../../lib/gcc/pic32c/6.2.1/../../../../pic32c/lib/v7e-m/fpv5/hard\libc.a(lib_a-impure.o)
 .debug_str     0x00000ee9        0x0 c:/program files (x86)/microchip/xc32/v2.10/bin/bin/../../lib/gcc/pic32c/6.2.1/../../../../pic32c/lib/v7e-m/fpv5/hard\libc.a(lib_a-init.o)
 .debug_str     0x00000ee9      0x139 c:/program files (x86)/microchip/xc32/v2.10/bin/bin/../../lib/gcc/pic32c/6.2.1/../../../../pic32c/lib/v7e-m/fpv5/hard\libc.a(lib_a-locale.o)
 .debug_str     0x00001022       0x18 c:/program files (x86)/microchip/xc32/v2.10/bin/bin/../../lib/gcc/pic32c/6.2.1/../../../../pic32c/lib/v7e-m/fpv5/hard\libc.a(lib_a-malloc.o)
 .debug_str     0x0000103a       0x36 c:/program files (x86)/microchip/xc32/v2.10/bin/bin/../../lib/gcc/pic32c/6.2.1/../../../../pic32c/lib/v7e-m/fpv5/hard\libc.a(lib_a-mallocr.o)
 .debug_str     0x00001070      0x119 c:/program files (x86)/microchip/xc32/v2.10/bin/bin/../../lib/gcc/pic32c/6.2.1/../../../../pic32c/lib/v7e-m/fpv5/hard\libc.a(lib_a-mbtowc_r.o)
 .debug_str     0x00001189        0xe c:/program files (x86)/microchip/xc32/v2.10/bin/bin/../../lib/gcc/pic32c/6.2.1/../../../../pic32c/lib/v7e-m/fpv5/hard\libc.a(lib_a-memcmp.o)
 .debug_str     0x00001197      0x119 c:/program files (x86)/microchip/xc32/v2.10/bin/bin/../../lib/gcc/pic32c/6.2.1/../../../../pic32c/lib/v7e-m/fpv5/hard\libc.a(lib_a-memmove.o)
 .debug_str     0x000012b0      0x119 c:/program files (x86)/microchip/xc32/v2.10/bin/bin/../../lib/gcc/pic32c/6.2.1/../../../../pic32c/lib/v7e-m/fpv5/hard\libc.a(lib_a-memset.o)
 .debug_str     0x000013c9        0xe c:/program files (x86)/microchip/xc32/v2.10/bin/bin/../../lib/gcc/pic32c/6.2.1/../../../../pic32c/lib/v7e-m/fpv5/hard\libc.a(lib_a-mlock.o)
 .debug_str     0x000013d7       0x42 c:/program files (x86)/microchip/xc32/v2.10/bin/bin/../../lib/gcc/pic32c/6.2.1/../../../../pic32c/lib/v7e-m/fpv5/hard\libc.a(lib_a-reallocr.o)
 .debug_str     0x00001419        0xe c:/program files (x86)/microchip/xc32/v2.10/bin/bin/../../lib/gcc/pic32c/6.2.1/../../../../pic32c/lib/v7e-m/fpv5/hard\libc.a(lib_a-sbrkr.o)
 .debug_str     0x00001427       0x1b c:/program files (x86)/microchip/xc32/v2.10/bin/bin/../../lib/gcc/pic32c/6.2.1/../../../../pic32c/lib/v7e-m/fpv5/hard\libc.a(lib_a-sprintf.o)
 .debug_str     0x00001442        0xe c:/program files (x86)/microchip/xc32/v2.10/bin/bin/../../lib/gcc/pic32c/6.2.1/../../../../pic32c/lib/v7e-m/fpv5/hard\libc.a(lib_a-strcpy.o)
 .debug_str     0x00001450        0xe c:/program files (x86)/microchip/xc32/v2.10/bin/bin/../../lib/gcc/pic32c/6.2.1/../../../../pic32c/lib/v7e-m/fpv5/hard\libc.a(lib_a-strncpy.o)
 .debug_str     0x0000145e      0x13d c:/program files (x86)/microchip/xc32/v2.10/bin/bin/../../lib/gcc/pic32c/6.2.1/../../../../pic32c/lib/v7e-m/fpv5/hard\libc.a(lib_a-svfprintf.o)
 .debug_str     0x0000159b       0x1b c:/program files (x86)/microchip/xc32/v2.10/bin/bin/../../lib/gcc/pic32c/6.2.1/../../../../pic32c/lib/v7e-m/fpv5/hard\libc.a(lib_a-vsnprintf.o)
 .debug_str     0x000015b6      0x119 c:/program files (x86)/microchip/xc32/v2.10/bin/bin/../../lib/gcc/pic32c/6.2.1/../../../../pic32c/lib/v7e-m/fpv5/hard\libc.a(lib_a-wctomb_r.o)
 .debug_str     0x000016cf        0xe c:/program files (x86)/microchip/xc32/v2.10/bin/bin/../../lib/gcc/pic32c/6.2.1/../../../../pic32c/lib/v7e-m/fpv5/hard\libc.a(lib_a-__call_atexit.o)
 .debug_str     0x000016dd       0x22 c:/program files (x86)/microchip/xc32/v2.10/bin/bin/../../lib/gcc/pic32c/6.2.1/../../../../pic32c/lib/v7e-m/fpv5/hard\libc.a(lib_a-atexit.o)
 .debug_str     0x000016ff      0x119 c:/program files (x86)/microchip/xc32/v2.10/bin/bin/../../lib/gcc/pic32c/6.2.1/../../../../pic32c/lib/v7e-m/fpv5/hard\libc.a(lib_a-ctype_.o)
 .debug_str     0x00001818      0x14c c:/program files (x86)/microchip/xc32/v2.10/bin/bin/../../lib/gcc/pic32c/6.2.1/../../../../pic32c/lib/v7e-m/fpv5/hard\libc.a(lib_a-dtoa.o)
 .debug_str     0x00001964        0x0 c:/program files (x86)/microchip/xc32/v2.10/bin/bin/../../lib/gcc/pic32c/6.2.1/../../../../pic32c/lib/v7e-m/fpv5/hard\libc.a(lib_a-fini.o)
 .debug_str     0x00001964       0x36 c:/program files (x86)/microchip/xc32/v2.10/bin/bin/../../lib/gcc/pic32c/6.2.1/../../../../pic32c/lib/v7e-m/fpv5/hard\libc.a(lib_a-freer.o)
 .debug_str     0x0000199a      0x119 c:/program files (x86)/microchip/xc32/v2.10/bin/bin/../../lib/gcc/pic32c/6.2.1/../../../../pic32c/lib/v7e-m/fpv5/hard\libc.a(lib_a-localeconv.o)
 .debug_str     0x00001ab3      0x123 c:/program files (x86)/microchip/xc32/v2.10/bin/bin/../../lib/gcc/pic32c/6.2.1/../../../../pic32c/lib/v7e-m/fpv5/hard\libc.a(lib_a-mprec.o)
 .debug_str     0x00001bd6        0xe c:/program files (x86)/microchip/xc32/v2.10/bin/bin/../../lib/gcc/pic32c/6.2.1/../../../../pic32c/lib/v7e-m/fpv5/hard\libc.a(lib_a-reent.o)
 .debug_str     0x00001be4        0xe c:/program files (x86)/microchip/xc32/v2.10/bin/bin/../../lib/gcc/pic32c/6.2.1/../../../../pic32c/lib/v7e-m/fpv5/hard\libc.a(lib_a-s_frexp.o)
 .debug_str     0x00001bf2      0x13c c:/program files (x86)/microchip/xc32/v2.10/bin/bin/../../lib/gcc/pic32c/6.2.1/../../../../pic32c/lib/v7e-m/fpv5/hard\libc.a(lib_a-svfiprintf.o)
 .debug_str     0x00001d2e        0xe c:/program files (x86)/microchip/xc32/v2.10/bin/bin/../../lib/gcc/pic32c/6.2.1/../../../../pic32c/lib/v7e-m/fpv5/hard\libc.a(lib_a-__atexit.o)
 .debug_str     0x00001d3c       0x18 c:/program files (x86)/microchip/xc32/v2.10/bin/bin/../../lib/gcc/pic32c/6.2.1/../../../../pic32c/lib/v7e-m/fpv5/hard\libc.a(lib_a-callocr.o)
 .debug_str     0x00001d54        0x0 c:/program files (x86)/microchip/xc32/v2.10/bin/bin/../../lib/gcc/pic32c/6.2.1/../../../../pic32c/lib/v7e-m/fpv5/hard\libpic32c.a(sbrk.o)

.debug_frame    0x00000000     0x29ec
 .debug_frame   0x00000000       0x28 build/sam_e70_xplained_ultra/production/_ext/1360937237/main.o
 .debug_frame   0x00000028       0x28 build/sam_e70_xplained_ultra/production/_ext/1171490990/initialization.o
 .debug_frame   0x00000050       0x20 build/sam_e70_xplained_ultra/production/_ext/1171490990/interrupts.o
 .debug_frame   0x00000070       0x70 build/sam_e70_xplained_ultra/production/_ext/1171490990/exceptions.o
 .debug_frame   0x000000e0       0x20 build/sam_e70_xplained_ultra/production/_ext/60165520/plib_clk.o
 .debug_frame   0x00000100       0xa0 build/sam_e70_xplained_ultra/production/_ext/60177924/plib_pio.o
 .debug_frame   0x000001a0       0x20 build/sam_e70_xplained_ultra/production/_ext/1865468468/plib_nvic.o
 .debug_frame   0x000001c0       0x30 build/sam_e70_xplained_ultra/production/_ext/1171490990/startup.o
 .debug_frame   0x000001f0       0x5c build/sam_e70_xplained_ultra/production/_ext/1881668453/sys_int.o
 .debug_frame   0x0000024c      0x308 build/sam_e70_xplained_ultra/production/_ext/1360937237/app.o
 .debug_frame   0x00000554       0x28 build/sam_e70_xplained_ultra/production/_ext/1171490990/tasks.o
 .debug_frame   0x0000057c      0x65c build/sam_e70_xplained_ultra/production/_ext/1645245335/crypto.o
 .debug_frame   0x00000bd8      0x1c8 build/sam_e70_xplained_ultra/production/_ext/1645245335/des3.o
 .debug_frame   0x00000da0       0xf0 build/sam_e70_xplained_ultra/production/_ext/1645245335/hmac.o
 .debug_frame   0x00000e90      0x128 build/sam_e70_xplained_ultra/production/_ext/1645245335/md5.o
 .debug_frame   0x00000fb8      0x21c build/sam_e70_xplained_ultra/production/_ext/1645245335/sha512.o
 .debug_frame   0x000011d4      0x124 build/sam_e70_xplained_ultra/production/_ext/1645245335/aes_pic32c.o
 .debug_frame   0x000012f8       0x90 build/sam_e70_xplained_ultra/production/_ext/1645245335/sha_pic32c.o
 .debug_frame   0x00001388       0xa0 build/sam_e70_xplained_ultra/production/_ext/1645245335/sha256_pic32c.o
 .debug_frame   0x00001428      0x110 build/sam_e70_xplained_ultra/production/_ext/1832805299/sys_console.o
 .debug_frame   0x00001538      0x104 build/sam_e70_xplained_ultra/production/_ext/1832805299/sys_console_uart.o
 .debug_frame   0x0000163c       0xd4 build/sam_e70_xplained_ultra/production/_ext/1832805299/sys_debug.o
 .debug_frame   0x00001710      0x2e0 build/sam_e70_xplained_ultra/production/_ext/1832805299/sys_command.o
 .debug_frame   0x000019f0      0x2dc build/sam_e70_xplained_ultra/production/_ext/101884895/sys_time.o
 .debug_frame   0x00001ccc       0xb4 build/sam_e70_xplained_ultra/production/_ext/829342655/plib_tc1.o
 .debug_frame   0x00001d80      0x120 build/sam_e70_xplained_ultra/production/_ext/2001315827/plib_usart1.o
 .debug_frame   0x00001ea0       0x30 c:/program files (x86)/microchip/xc32/v2.10/bin/bin/../../lib/gcc/pic32c/6.2.1/../../../../pic32c/lib/v7e-m/fpv5/hard\libpic32c.a(data_init.o)
 .debug_frame   0x00001ed0       0x2c c:/program files (x86)/microchip/xc32/v2.10/bin/bin/../../lib/gcc/pic32c/6.2.1/v7e-m/fpv5/hard\libgcc.a(_aeabi_uldivmod.o)
 .debug_frame   0x00001efc       0x34 c:/program files (x86)/microchip/xc32/v2.10/bin/bin/../../lib/gcc/pic32c/6.2.1/v7e-m/fpv5/hard\libgcc.a(_udivmoddi4.o)
 .debug_frame   0x00001f30       0x2c c:/program files (x86)/microchip/xc32/v2.10/bin/bin/../../lib/gcc/pic32c/6.2.1/../../../../pic32c/lib/v7e-m/fpv5/hard\libc.a(lib_a-init.o)
 .debug_frame   0x00001f5c       0x6c c:/program files (x86)/microchip/xc32/v2.10/bin/bin/../../lib/gcc/pic32c/6.2.1/../../../../pic32c/lib/v7e-m/fpv5/hard\libc.a(lib_a-locale.o)
 .debug_frame   0x00001fc8       0x30 c:/program files (x86)/microchip/xc32/v2.10/bin/bin/../../lib/gcc/pic32c/6.2.1/../../../../pic32c/lib/v7e-m/fpv5/hard\libc.a(lib_a-malloc.o)
 .debug_frame   0x00001ff8       0x58 c:/program files (x86)/microchip/xc32/v2.10/bin/bin/../../lib/gcc/pic32c/6.2.1/../../../../pic32c/lib/v7e-m/fpv5/hard\libc.a(lib_a-mallocr.o)
 .debug_frame   0x00002050       0x4c c:/program files (x86)/microchip/xc32/v2.10/bin/bin/../../lib/gcc/pic32c/6.2.1/../../../../pic32c/lib/v7e-m/fpv5/hard\libc.a(lib_a-mbtowc_r.o)
 .debug_frame   0x0000209c       0x3c c:/program files (x86)/microchip/xc32/v2.10/bin/bin/../../lib/gcc/pic32c/6.2.1/../../../../pic32c/lib/v7e-m/fpv5/hard\libc.a(lib_a-memcmp.o)
 .debug_frame   0x000020d8       0x30 c:/program files (x86)/microchip/xc32/v2.10/bin/bin/../../lib/gcc/pic32c/6.2.1/../../../../pic32c/lib/v7e-m/fpv5/hard\libc.a(lib_a-memmove.o)
 .debug_frame   0x00002108       0x34 c:/program files (x86)/microchip/xc32/v2.10/bin/bin/../../lib/gcc/pic32c/6.2.1/../../../../pic32c/lib/v7e-m/fpv5/hard\libc.a(lib_a-memset.o)
 .debug_frame   0x0000213c       0x30 c:/program files (x86)/microchip/xc32/v2.10/bin/bin/../../lib/gcc/pic32c/6.2.1/../../../../pic32c/lib/v7e-m/fpv5/hard\libc.a(lib_a-mlock.o)
 .debug_frame   0x0000216c       0x68 c:/program files (x86)/microchip/xc32/v2.10/bin/bin/../../lib/gcc/pic32c/6.2.1/../../../../pic32c/lib/v7e-m/fpv5/hard\libc.a(lib_a-reallocr.o)
 .debug_frame   0x000021d4       0x2c c:/program files (x86)/microchip/xc32/v2.10/bin/bin/../../lib/gcc/pic32c/6.2.1/../../../../pic32c/lib/v7e-m/fpv5/hard\libc.a(lib_a-sbrkr.o)
 .debug_frame   0x00002200       0x84 c:/program files (x86)/microchip/xc32/v2.10/bin/bin/../../lib/gcc/pic32c/6.2.1/../../../../pic32c/lib/v7e-m/fpv5/hard\libc.a(lib_a-sprintf.o)
 .debug_frame   0x00002284       0x68 c:/program files (x86)/microchip/xc32/v2.10/bin/bin/../../lib/gcc/pic32c/6.2.1/../../../../pic32c/lib/v7e-m/fpv5/hard\libc.a(lib_a-strcmp.o)
 .debug_frame   0x000022ec       0x20 c:/program files (x86)/microchip/xc32/v2.10/bin/bin/../../lib/gcc/pic32c/6.2.1/../../../../pic32c/lib/v7e-m/fpv5/hard\libc.a(lib_a-strcpy.o)
 .debug_frame   0x0000230c       0x34 c:/program files (x86)/microchip/xc32/v2.10/bin/bin/../../lib/gcc/pic32c/6.2.1/../../../../pic32c/lib/v7e-m/fpv5/hard\libc.a(lib_a-strncpy.o)
 .debug_frame   0x00002340       0x68 c:/program files (x86)/microchip/xc32/v2.10/bin/bin/../../lib/gcc/pic32c/6.2.1/../../../../pic32c/lib/v7e-m/fpv5/hard\libc.a(lib_a-svfprintf.o)
 .debug_frame   0x000023a8       0x60 c:/program files (x86)/microchip/xc32/v2.10/bin/bin/../../lib/gcc/pic32c/6.2.1/../../../../pic32c/lib/v7e-m/fpv5/hard\libc.a(lib_a-vsnprintf.o)
 .debug_frame   0x00002408       0x3c c:/program files (x86)/microchip/xc32/v2.10/bin/bin/../../lib/gcc/pic32c/6.2.1/../../../../pic32c/lib/v7e-m/fpv5/hard\libc.a(lib_a-wctomb_r.o)
 .debug_frame   0x00002444       0x50 c:/program files (x86)/microchip/xc32/v2.10/bin/bin/../../lib/gcc/pic32c/6.2.1/../../../../pic32c/lib/v7e-m/fpv5/hard\libc.a(lib_a-__call_atexit.o)
 .debug_frame   0x00002494       0x20 c:/program files (x86)/microchip/xc32/v2.10/bin/bin/../../lib/gcc/pic32c/6.2.1/../../../../pic32c/lib/v7e-m/fpv5/hard\libc.a(lib_a-atexit.o)
 .debug_frame   0x000024b4       0x84 c:/program files (x86)/microchip/xc32/v2.10/bin/bin/../../lib/gcc/pic32c/6.2.1/../../../../pic32c/lib/v7e-m/fpv5/hard\libc.a(lib_a-dtoa.o)
 .debug_frame   0x00002538       0x34 c:/program files (x86)/microchip/xc32/v2.10/bin/bin/../../lib/gcc/pic32c/6.2.1/../../../../pic32c/lib/v7e-m/fpv5/hard\libc.a(lib_a-fini.o)
 .debug_frame   0x0000256c       0x74 c:/program files (x86)/microchip/xc32/v2.10/bin/bin/../../lib/gcc/pic32c/6.2.1/../../../../pic32c/lib/v7e-m/fpv5/hard\libc.a(lib_a-freer.o)
 .debug_frame   0x000025e0       0x40 c:/program files (x86)/microchip/xc32/v2.10/bin/bin/../../lib/gcc/pic32c/6.2.1/../../../../pic32c/lib/v7e-m/fpv5/hard\libc.a(lib_a-localeconv.o)
 .debug_frame   0x00002620      0x248 c:/program files (x86)/microchip/xc32/v2.10/bin/bin/../../lib/gcc/pic32c/6.2.1/../../../../pic32c/lib/v7e-m/fpv5/hard\libc.a(lib_a-mprec.o)
 .debug_frame   0x00002868       0x58 c:/program files (x86)/microchip/xc32/v2.10/bin/bin/../../lib/gcc/pic32c/6.2.1/../../../../pic32c/lib/v7e-m/fpv5/hard\libc.a(lib_a-reent.o)
 .debug_frame   0x000028c0       0x38 c:/program files (x86)/microchip/xc32/v2.10/bin/bin/../../lib/gcc/pic32c/6.2.1/../../../../pic32c/lib/v7e-m/fpv5/hard\libc.a(lib_a-s_frexp.o)
 .debug_frame   0x000028f8       0x78 c:/program files (x86)/microchip/xc32/v2.10/bin/bin/../../lib/gcc/pic32c/6.2.1/../../../../pic32c/lib/v7e-m/fpv5/hard\libc.a(lib_a-svfiprintf.o)
 .debug_frame   0x00002970       0x34 c:/program files (x86)/microchip/xc32/v2.10/bin/bin/../../lib/gcc/pic32c/6.2.1/../../../../pic32c/lib/v7e-m/fpv5/hard\libc.a(lib_a-__atexit.o)
 .debug_frame   0x000029a4       0x28 c:/program files (x86)/microchip/xc32/v2.10/bin/bin/../../lib/gcc/pic32c/6.2.1/../../../../pic32c/lib/v7e-m/fpv5/hard\libc.a(lib_a-callocr.o)
 .debug_frame   0x000029cc       0x20 c:/program files (x86)/microchip/xc32/v2.10/bin/bin/../../lib/gcc/pic32c/6.2.1/../../../../pic32c/lib/v7e-m/fpv5/hard\libpic32c.a(sbrk.o)

.stack          0x20412d70      0x100
 .stack         0x20412d70      0x100 stack

.bss.printBuffer%1
                0x20400054     0xc800
 .bss.printBuffer
                0x20400054     0xc800 build/sam_e70_xplained_ultra/production/_ext/1360937237/app.o
                0x20400054                printBuffer

.data.impure_data%2
                0x2040c858      0x428
 .data.impure_data
                0x2040c858      0x428 c:/program files (x86)/microchip/xc32/v2.10/bin/bin/../../lib/gcc/pic32c/6.2.1/../../../../pic32c/lib/v7e-m/fpv5/hard\libc.a(lib_a-impure.o)

.data.__malloc_av_%3
                0x2040cc80      0x408
 .data.__malloc_av_
                0x2040cc80      0x408 c:/program files (x86)/microchip/xc32/v2.10/bin/bin/../../lib/gcc/pic32c/6.2.1/../../../../pic32c/lib/v7e-m/fpv5/hard\libc.a(lib_a-mallocr.o)
                0x2040cc80                __malloc_av_

.bss.printBuff%4
                0x2040d088      0x400
 .bss.printBuff
                0x2040d088      0x400 build/sam_e70_xplained_ultra/production/_ext/1832805299/sys_command.o

.bss.wrQueueElements%5
                0x2040d488      0x200
 .bss.wrQueueElements
                0x2040d488      0x200 build/sam_e70_xplained_ultra/production/_ext/1832805299/sys_console_uart.o

.bss.timers%6   0x2040d688      0x190
 .bss.timers    0x2040d688      0x190 build/sam_e70_xplained_ultra/production/_ext/101884895/sys_time.o

.data.__global_locale%7
                0x2040d818      0x16c
 .data.__global_locale
                0x2040d818      0x16c c:/program files (x86)/microchip/xc32/v2.10/bin/bin/../../lib/gcc/pic32c/6.2.1/../../../../pic32c/lib/v7e-m/fpv5/hard\libc.a(lib_a-locale.o)
                0x2040d818                __global_locale

.bss.saveCmd.7394%8
                0x2040d984       0x81
 .bss.saveCmd.7394
                0x2040d984       0x81 build/sam_e70_xplained_ultra/production/_ext/1832805299/sys_command.o

.bss._usrCmdTbl%9
                0x2040da08       0x80
 .bss._usrCmdTbl
                0x2040da08       0x80 build/sam_e70_xplained_ultra/production/_ext/1832805299/sys_command.o

.bss.readBuff%10
                0x2040da88       0x80
 .bss.readBuff  0x2040da88       0x80 build/sam_e70_xplained_ultra/production/_ext/1832805299/sys_command.o

.data.appData%11
                0x2040db08       0x50
 .data.appData  0x2040db08       0x50 build/sam_e70_xplained_ultra/production/_ext/1360937237/app.o
                0x2040db08                appData

.bss.rdQueueElements%12
                0x2040db58       0x50
 .bss.rdQueueElements
                0x2040db58       0x50 build/sam_e70_xplained_ultra/production/_ext/1832805299/sys_console_uart.o

.data.consUartData%13
                0x2040dba8       0x50
 .data.consUartData
                0x2040dba8       0x50 build/sam_e70_xplained_ultra/production/_ext/1832805299/sys_console_uart.o
                0x2040dba8                consUartData

.bss.gSystemCounterObj%14
                0x2040dbf8       0x30
 .bss.gSystemCounterObj
                0x2040dbf8       0x30 build/sam_e70_xplained_ultra/production/_ext/101884895/sys_time.o

.bss.__malloc_current_mallinfo%15
                0x2040dc28       0x28
 .bss.__malloc_current_mallinfo
                0x2040dc28       0x28 c:/program files (x86)/microchip/xc32/v2.10/bin/bin/../../lib/gcc/pic32c/6.2.1/../../../../pic32c/lib/v7e-m/fpv5/hard\libc.a(lib_a-mallocr.o)
                0x2040dc28                __malloc_current_mallinfo

.data.consUsartDevDesc%16
                0x2040dc50       0x20
 .data.consUsartDevDesc
                0x2040dc50       0x20 build/sam_e70_xplained_ultra/production/_ext/1832805299/sys_console_uart.o
                0x2040dc50                consUsartDevDesc

.bss%17         0x2040dc70       0x1c
 .bss           0x2040dc70       0x1c c:/program files (x86)/microchip/xc32/v2.10/bin/bin/../../lib/gcc/pic32c/6.2.1/v7e-m/fpv5/hard/crtbegin.o

.bss._cmdAppData%18
                0x2040dc8c       0x18
 .bss._cmdAppData
                0x2040dc8c       0x18 build/sam_e70_xplained_ultra/production/_ext/1832805299/sys_command.o

.data.sysTimePlibAPI%19
                0x2040dca4       0x14
 .data.sysTimePlibAPI
                0x2040dca4       0x14 build/sam_e70_xplained_ultra/production/_ext/1171490990/initialization.o
                0x2040dca4                sysTimePlibAPI

.bss.aes_configuration%20
                0x2040dcb8       0x14
 .bss.aes_configuration
                0x2040dcb8       0x14 build/sam_e70_xplained_ultra/production/_ext/1645245335/aes_pic32c.o

.data.readQueue%21
                0x2040dccc       0x14
 .data.readQueue
                0x2040dccc       0x14 build/sam_e70_xplained_ultra/production/_ext/1832805299/sys_console_uart.o

.data.writeQueue%22
                0x2040dce0       0x14
 .data.writeQueue
                0x2040dce0       0x14 build/sam_e70_xplained_ultra/production/_ext/1832805299/sys_console_uart.o

.data.sysTimeInitData%23
                0x2040dcf4        0xc
 .data.sysTimeInitData
                0x2040dcf4        0xc build/sam_e70_xplained_ultra/production/_ext/1171490990/initialization.o
                0x2040dcf4                sysTimeInitData

.bss.consoleDeviceInstance%24
                0x2040dd00        0xc
 .bss.consoleDeviceInstance
                0x2040dd00        0xc build/sam_e70_xplained_ultra/production/_ext/1832805299/sys_console.o

.bss.cmdIODevList%25
                0x2040dd0c        0xc
 .bss.cmdIODevList
                0x2040dd0c        0xc build/sam_e70_xplained_ultra/production/_ext/1832805299/sys_command.o

.data.consUsartInit0%26
                0x2040dd18        0x8
 .data.consUsartInit0
                0x2040dd18        0x8 build/sam_e70_xplained_ultra/production/_ext/1171490990/initialization.o
                0x2040dd18                consUsartInit0

.bss._cmdList%27
                0x2040dd20        0x8
 .bss._cmdList  0x2040dd20        0x8 build/sam_e70_xplained_ultra/production/_ext/1832805299/sys_command.o

.data.debugInit%28
                0x2040c854        0x4
 .data.debugInit
                0x2040c854        0x4 build/sam_e70_xplained_ultra/production/_ext/1171490990/initialization.o
                0x2040c854                debugInit

.bss.j.12373%29
                0x2040dd28        0x4
 .bss.j.12373   0x2040dd28        0x4 build/sam_e70_xplained_ultra/production/_ext/1360937237/app.o

.bss._pCurrCmdN%30
                0x2040dd2c        0x4
 .bss._pCurrCmdN
                0x2040dd2c        0x4 build/sam_e70_xplained_ultra/production/_ext/1832805299/sys_command.o

.bss.printBuffPtr%31
                0x2040dd30        0x4
 .bss.printBuffPtr
                0x2040dd30        0x4 build/sam_e70_xplained_ultra/production/_ext/1832805299/sys_command.o

.bss.TC1_CH0_TimerStatus%32
                0x2040dd34        0x4
 .bss.TC1_CH0_TimerStatus
                0x2040dd34        0x4 build/sam_e70_xplained_ultra/production/_ext/829342655/plib_tc1.o

.data._impure_ptr%33
                0x2040dd38        0x4
 .data._impure_ptr
                0x2040dd38        0x4 c:/program files (x86)/microchip/xc32/v2.10/bin/bin/../../lib/gcc/pic32c/6.2.1/../../../../pic32c/lib/v7e-m/fpv5/hard\libc.a(lib_a-impure.o)
                0x2040dd38                _impure_ptr

.bss.__malloc_max_sbrked_mem%34
                0x2040dd3c        0x4
 .bss.__malloc_max_sbrked_mem
                0x2040dd3c        0x4 c:/program files (x86)/microchip/xc32/v2.10/bin/bin/../../lib/gcc/pic32c/6.2.1/../../../../pic32c/lib/v7e-m/fpv5/hard\libc.a(lib_a-mallocr.o)
                0x2040dd3c                __malloc_max_sbrked_mem

.bss.__malloc_max_total_mem%35
                0x2040dd40        0x4
 .bss.__malloc_max_total_mem
                0x2040dd40        0x4 c:/program files (x86)/microchip/xc32/v2.10/bin/bin/../../lib/gcc/pic32c/6.2.1/../../../../pic32c/lib/v7e-m/fpv5/hard\libc.a(lib_a-mallocr.o)
                0x2040dd40                __malloc_max_total_mem

.bss.__malloc_top_pad%36
                0x2040dd44        0x4
 .bss.__malloc_top_pad
                0x2040dd44        0x4 c:/program files (x86)/microchip/xc32/v2.10/bin/bin/../../lib/gcc/pic32c/6.2.1/../../../../pic32c/lib/v7e-m/fpv5/hard\libc.a(lib_a-mallocr.o)
                0x2040dd44                __malloc_top_pad

.data.__malloc_sbrk_base%37
                0x2040dd48        0x4
 .data.__malloc_sbrk_base
                0x2040dd48        0x4 c:/program files (x86)/microchip/xc32/v2.10/bin/bin/../../lib/gcc/pic32c/6.2.1/../../../../pic32c/lib/v7e-m/fpv5/hard\libc.a(lib_a-mallocr.o)
                0x2040dd48                __malloc_sbrk_base

.data.__malloc_trim_threshold%38
                0x2040dd4c        0x4
 .data.__malloc_trim_threshold
                0x2040dd4c        0x4 c:/program files (x86)/microchip/xc32/v2.10/bin/bin/../../lib/gcc/pic32c/6.2.1/../../../../pic32c/lib/v7e-m/fpv5/hard\libc.a(lib_a-mallocr.o)
                0x2040dd4c                __malloc_trim_threshold

.bss%39         0x2040dd50        0x4
 .bss           0x2040dd50        0x4 c:/program files (x86)/microchip/xc32/v2.10/bin/bin/../../lib/gcc/pic32c/6.2.1/../../../../pic32c/lib/v7e-m/fpv5/hard\libpic32c.a(sbrk.o)

.bss.sysCmdInit%40
                0x2040dd54        0x3
 .bss.sysCmdInit
                0x2040dd54        0x3 build/sam_e70_xplained_ultra/production/_ext/1171490990/initialization.o
                0x2040dd54                sysCmdInit

.jcr%z1         0x00000000        0x0
 .jcr           0x00000000        0x0 c:/program files (x86)/microchip/xc32/v2.10/bin/bin/../../lib/gcc/pic32c/6.2.1/v7e-m/fpv5/hard/crtbegin.o

.eh_frame%z2    0x00000000        0x0
 .eh_frame      0x00000000        0x0 c:/program files (x86)/microchip/xc32/v2.10/bin/bin/../../lib/gcc/pic32c/6.2.1/v7e-m/fpv5/hard/crtbegin.o

.text._Transform%41
                0x00400194     0x2754
 .text._Transform
                0x00400194     0x2754 build/sam_e70_xplained_ultra/production/_ext/1645245335/sha512.o

.text._svfprintf_r%42
                0x004028e8     0x18f0
 .text._svfprintf_r
                0x004028e8     0x18f0 c:/program files (x86)/microchip/xc32/v2.10/bin/bin/../../lib/gcc/pic32c/6.2.1/../../../../pic32c/lib/v7e-m/fpv5/hard\libc.a(lib_a-svfprintf.o)
                0x004028e8                _svfprintf_r

.dinit%43       0x004041d8      0xce0
 .dinit         0x004041d8      0xce0 data_init

.text._dtoa_r%44
                0x00404eb8      0xc4c
 .text._dtoa_r  0x00404eb8      0xc4c c:/program files (x86)/microchip/xc32/v2.10/bin/bin/../../lib/gcc/pic32c/6.2.1/../../../../pic32c/lib/v7e-m/fpv5/hard\libc.a(lib_a-dtoa.o)
                0x00404eb8                _dtoa_r

.rodata%45      0x00405b04      0xb04
 .rodata        0x00405b04      0xb04 build/sam_e70_xplained_ultra/production/_ext/1360937237/app.o

.rodata.Spbox%46
                0x00406608      0x800
 .rodata.Spbox  0x00406608      0x800 build/sam_e70_xplained_ultra/production/_ext/1645245335/des3.o

.text.Transform%47
                0x00406e08      0x6e0
 .text.Transform
                0x00406e08      0x6e0 build/sam_e70_xplained_ultra/production/_ext/1645245335/md5.o

.text._malloc_r%48
                0x004074e8      0x550
 .text._malloc_r
                0x004074e8      0x550 c:/program files (x86)/microchip/xc32/v2.10/bin/bin/../../lib/gcc/pic32c/6.2.1/../../../../pic32c/lib/v7e-m/fpv5/hard\libc.a(lib_a-mallocr.o)
                0x004074e8                _malloc_r

.text._realloc_r%49
                0x00407a38      0x34c
 .text._realloc_r
                0x00407a38      0x34c c:/program files (x86)/microchip/xc32/v2.10/bin/bin/../../lib/gcc/pic32c/6.2.1/../../../../pic32c/lib/v7e-m/fpv5/hard\libc.a(lib_a-reallocr.o)
                0x00407a38                _realloc_r

.text.SYS_CMD_Tasks%50
                0x00407d84      0x314
 .text.SYS_CMD_Tasks
                0x00407d84      0x314 build/sam_e70_xplained_ultra/production/_ext/1832805299/sys_command.o
                0x00407d84                SYS_CMD_Tasks

.text.APP_Tasks%51
                0x00408098      0x304
 .text.APP_Tasks
                0x00408098      0x304 build/sam_e70_xplained_ultra/production/_ext/1360937237/app.o
                0x00408098                APP_Tasks

.text%52        0x0040839c      0x2dc
 .text          0x0040839c      0x2dc c:/program files (x86)/microchip/xc32/v2.10/bin/bin/../../lib/gcc/pic32c/6.2.1/v7e-m/fpv5/hard\libgcc.a(_udivmoddi4.o)
                0x0040839c                __udivmoddi4

.text%53        0x00408680      0x2dc
 .text          0x00408680      0x2dc c:/program files (x86)/microchip/xc32/v2.10/bin/bin/../../lib/gcc/pic32c/6.2.1/../../../../pic32c/lib/v7e-m/fpv5/hard\libc.a(lib_a-strcmp.o)
                0x00408688                strcmp

.text.wc_Sha512Final%54
                0x00408960      0x290
 .text.wc_Sha512Final
                0x00408960      0x290 build/sam_e70_xplained_ultra/production/_ext/1645245335/sha512.o
                0x00408960                wc_Sha512Final

.text.wc_Sha384Final%55
                0x00408bf0      0x290
 .text.wc_Sha384Final
                0x00408bf0      0x290 build/sam_e70_xplained_ultra/production/_ext/1645245335/sha512.o
                0x00408bf0                wc_Sha384Final

.rodata.K512%56
                0x00408e80      0x280
 .rodata.K512   0x00408e80      0x280 build/sam_e70_xplained_ultra/production/_ext/1645245335/sha512.o

.text.wc_HmacSetKey%57
                0x00409100      0x23e
 .text.wc_HmacSetKey
                0x00409100      0x23e build/sam_e70_xplained_ultra/production/_ext/1645245335/hmac.o
                0x00409100                wc_HmacSetKey

.rodata%58      0x00409340      0x218
 .rodata        0x00409340      0x218 build/sam_e70_xplained_ultra/production/_ext/1832805299/sys_command.o

.text._free_r%59
                0x00409558      0x1cc
 .text._free_r  0x00409558      0x1cc c:/program files (x86)/microchip/xc32/v2.10/bin/bin/../../lib/gcc/pic32c/6.2.1/../../../../pic32c/lib/v7e-m/fpv5/hard\libc.a(lib_a-freer.o)
                0x00409558                _free_r

.text.ParseCmdBuffer%60
                0x00409724      0x1b8
 .text.ParseCmdBuffer
                0x00409724      0x1b8 build/sam_e70_xplained_ultra/production/_ext/1832805299/sys_command.o

.text.wc_HmacFinal%61
                0x004098dc      0x190
 .text.wc_HmacFinal
                0x004098dc      0x190 build/sam_e70_xplained_ultra/production/_ext/1645245335/hmac.o
                0x004098dc                wc_HmacFinal

.text.CommandHelp%62
                0x00409a6c      0x190
 .text.CommandHelp
                0x00409a6c      0x190 build/sam_e70_xplained_ultra/production/_ext/1832805299/sys_command.o

.text.aes_test%63
                0x00409bfc      0x184
 .text.aes_test
                0x00409bfc      0x184 build/sam_e70_xplained_ultra/production/_ext/1360937237/app.o
                0x00409bfc                aes_test

.text.DesSetKey%64
                0x00409d80      0x164
 .text.DesSetKey
                0x00409d80      0x164 build/sam_e70_xplained_ultra/production/_ext/1645245335/des3.o

.text.Console_UART_Tasks%65
                0x00409ee4      0x154
 .text.Console_UART_Tasks
                0x00409ee4      0x154 build/sam_e70_xplained_ultra/production/_ext/1832805299/sys_console_uart.o
                0x00409ee4                Console_UART_Tasks

.text%66        0x0040a038      0x134
 .text          0x0040a038      0x134 c:/program files (x86)/microchip/xc32/v2.10/bin/bin/../../lib/gcc/pic32c/6.2.1/../../../../pic32c/lib/v7e-m/fpv5/hard\libc.a(lib_a-memcpy.o)
                0x0040a038                memcpy

.text.DesRawProcessBlock%67
                0x0040a16c      0x130
 .text.DesRawProcessBlock
                0x0040a16c      0x130 build/sam_e70_xplained_ultra/production/_ext/1645245335/des3.o

.text.Des3ProcessBlock%68
                0x0040a29c      0x130
 .text.Des3ProcessBlock
                0x0040a29c      0x130 build/sam_e70_xplained_ultra/production/_ext/1645245335/des3.o

.text.quorem%69
                0x0040a3cc      0x128
 .text.quorem   0x0040a3cc      0x128 c:/program files (x86)/microchip/xc32/v2.10/bin/bin/../../lib/gcc/pic32c/6.2.1/../../../../pic32c/lib/v7e-m/fpv5/hard\libc.a(lib_a-dtoa.o)

.text.USART1_InterruptHandler%70
                0x0040a4f4      0x124
 .text.USART1_InterruptHandler
                0x0040a4f4      0x124 build/sam_e70_xplained_ultra/production/_ext/2001315827/plib_usart1.o
                0x0040a4f4                USART1_InterruptHandler

.text.__multiply%71
                0x0040a618      0x124
 .text.__multiply
                0x0040a618      0x124 c:/program files (x86)/microchip/xc32/v2.10/bin/bin/../../lib/gcc/pic32c/6.2.1/../../../../pic32c/lib/v7e-m/fpv5/hard\libc.a(lib_a-mprec.o)
                0x0040a618                __multiply

.text.Reset_Handler%72
                0x0040a73c      0x118
 .text.Reset_Handler
                0x0040a73c      0x118 build/sam_e70_xplained_ultra/production/_ext/1171490990/startup.o
                0x0040a73c                Reset_Handler

.text.DesProcessBlock%73
                0x0040a854      0x118
 .text.DesProcessBlock
                0x0040a854      0x118 build/sam_e70_xplained_ultra/production/_ext/1645245335/des3.o

.text.__mdiff%74
                0x0040a96c      0x108
 .text.__mdiff  0x0040a96c      0x108 c:/program files (x86)/microchip/xc32/v2.10/bin/bin/../../lib/gcc/pic32c/6.2.1/../../../../pic32c/lib/v7e-m/fpv5/hard\libc.a(lib_a-mprec.o)
                0x0040a96c                __mdiff

.rodata._ctype_%75
                0x0040aa74      0x104
 .rodata._ctype_
                0x0040aa74      0x104 c:/program files (x86)/microchip/xc32/v2.10/bin/bin/../../lib/gcc/pic32c/6.2.1/../../../../pic32c/lib/v7e-m/fpv5/hard\libc.a(lib_a-ctype_.o)
                0x0040aa74                _ctype_

.text.__ssprint_r%76
                0x0040ab78       0xfc
 .text.__ssprint_r
                0x0040ab78       0xfc c:/program files (x86)/microchip/xc32/v2.10/bin/bin/../../lib/gcc/pic32c/6.2.1/../../../../pic32c/lib/v7e-m/fpv5/hard\libc.a(lib_a-svfiprintf.o)
                0x0040ab78                __ssprint_r

.text.wc_Sha512Update%77
                0x0040ac74       0xea
 .text.wc_Sha512Update
                0x0040ac74       0xea build/sam_e70_xplained_ultra/production/_ext/1645245335/sha512.o
                0x0040ac74                wc_Sha512Update

.text.wc_Sha384Update%78
                0x0040ad5e       0xea
 .text.wc_Sha384Update
                0x0040ad5e       0xea build/sam_e70_xplained_ultra/production/_ext/1645245335/sha512.o
                0x0040ad5e                wc_Sha384Update

.text.des3_test%79
                0x0040ae48       0xe8
 .text.des3_test
                0x0040ae48       0xe8 build/sam_e70_xplained_ultra/production/_ext/1360937237/app.o
                0x0040ae48                des3_test

.text.Sha256Process%80
                0x0040af30       0xdc
 .text.Sha256Process
                0x0040af30       0xdc build/sam_e70_xplained_ultra/production/_ext/1645245335/sha256_pic32c.o

.text%81        0x0040b040       0xdc
 .text          0x0040b040       0xdc c:/program files (x86)/microchip/xc32/v2.10/bin/bin/../../lib/gcc/pic32c/6.2.1/../../../../pic32c/lib/v7e-m/fpv5/hard\libc.a(lib_a-strlen.o)
                0x0040b040                strlen

.text.hmac_sha_test%82
                0x0040b11c       0xcc
 .text.hmac_sha_test
                0x0040b11c       0xcc build/sam_e70_xplained_ultra/production/_ext/1360937237/app.o
                0x0040b11c                hmac_sha_test

.text.hmac_sha256_test%83
                0x0040b1e8       0xcc
 .text.hmac_sha256_test
                0x0040b1e8       0xcc build/sam_e70_xplained_ultra/production/_ext/1360937237/app.o
                0x0040b1e8                hmac_sha256_test

.text.hmac_sha384_test%84
                0x0040b2b4       0xcc
 .text.hmac_sha384_test
                0x0040b2b4       0xcc build/sam_e70_xplained_ultra/production/_ext/1360937237/app.o
                0x0040b2b4                hmac_sha384_test

.text.wc_AesCbcEncrypt%85
                0x0040b380       0xcc
 .text.wc_AesCbcEncrypt
                0x0040b380       0xcc build/sam_e70_xplained_ultra/production/_ext/1645245335/aes_pic32c.o
                0x0040b380                wc_AesCbcEncrypt

.text.hmac_md5_test%86
                0x0040b44c       0xc8
 .text.hmac_md5_test
                0x0040b44c       0xc8 build/sam_e70_xplained_ultra/production/_ext/1360937237/app.o
                0x0040b44c                hmac_md5_test

.text.hmac_sha512_test%87
                0x0040b514       0xc8
 .text.hmac_sha512_test
                0x0040b514       0xc8 build/sam_e70_xplained_ultra/production/_ext/1360937237/app.o
                0x0040b514                hmac_sha512_test

.text.Sha1Process%88
                0x0040b5dc       0xc8
 .text.Sha1Process
                0x0040b5dc       0xc8 build/sam_e70_xplained_ultra/production/_ext/1645245335/sha_pic32c.o

.text.TIME_PLIB_Callback%89
                0x0040b6a4       0xc8
 .text.TIME_PLIB_Callback
                0x0040b6a4       0xc8 build/sam_e70_xplained_ultra/production/_ext/101884895/sys_time.o

.text.memmove%90
                0x0040b76c       0xc8
 .text.memmove  0x0040b76c       0xc8 c:/program files (x86)/microchip/xc32/v2.10/bin/bin/../../lib/gcc/pic32c/6.2.1/../../../../pic32c/lib/v7e-m/fpv5/hard\libc.a(lib_a-memmove.o)
                0x0040b76c                memmove

.rodata.__mprec_tens%91
                0x0040b838       0xc8
 .rodata.__mprec_tens
                0x0040b838       0xc8 c:/program files (x86)/microchip/xc32/v2.10/bin/bin/../../lib/gcc/pic32c/6.2.1/../../../../pic32c/lib/v7e-m/fpv5/hard\libc.a(lib_a-mprec.o)
                0x0040b838                __mprec_tens

.text.wc_Md5Final%92
                0x0040b900       0xc4
 .text.wc_Md5Final
                0x0040b900       0xc4 build/sam_e70_xplained_ultra/production/_ext/1645245335/md5.o
                0x0040b900                wc_Md5Final

.text.des_test%93
                0x0040b9c4       0xc0
 .text.des_test
                0x0040b9c4       0xc0 build/sam_e70_xplained_ultra/production/_ext/1360937237/app.o
                0x0040b9c4                des_test

.text.sha_test%94
                0x0040ba84       0xbc
 .text.sha_test
                0x0040ba84       0xbc build/sam_e70_xplained_ultra/production/_ext/1360937237/app.o
                0x0040ba84                sha_test

.text.strcpy%95
                0x0040bb40       0xbc
 .text.strcpy   0x0040bb40       0xbc c:/program files (x86)/microchip/xc32/v2.10/bin/bin/../../lib/gcc/pic32c/6.2.1/../../../../pic32c/lib/v7e-m/fpv5/hard\libc.a(lib_a-strcpy.o)
                0x0040bb40                strcpy

.text.__d2b%96  0x0040bbfc       0xbc
 .text.__d2b    0x0040bbfc       0xbc c:/program files (x86)/microchip/xc32/v2.10/bin/bin/../../lib/gcc/pic32c/6.2.1/../../../../pic32c/lib/v7e-m/fpv5/hard\libc.a(lib_a-mprec.o)
                0x0040bbfc                __d2b

.text.wc_InitSha512_ex%97
                0x0040bcb8       0xb8
 .text.wc_InitSha512_ex
                0x0040bcb8       0xb8 build/sam_e70_xplained_ultra/production/_ext/1645245335/sha512.o
                0x0040bcb8                wc_InitSha512_ex

.text.wc_InitSha384_ex%98
                0x0040bd70       0xb8
 .text.wc_InitSha384_ex
                0x0040bd70       0xb8 build/sam_e70_xplained_ultra/production/_ext/1645245335/sha512.o
                0x0040bd70                wc_InitSha384_ex

.text.md5_test%99
                0x0040be28       0xb4
 .text.md5_test
                0x0040be28       0xb4 build/sam_e70_xplained_ultra/production/_ext/1360937237/app.o
                0x0040be28                md5_test

.text.wc_Des3_CbcDecrypt%100
                0x0040bedc       0xb2
 .text.wc_Des3_CbcDecrypt
                0x0040bedc       0xb2 build/sam_e70_xplained_ultra/production/_ext/1645245335/des3.o
                0x0040bedc                wc_Des3_CbcDecrypt

.text.wc_AesCbcDecrypt%101
                0x0040bf90       0xa8
 .text.wc_AesCbcDecrypt
                0x0040bf90       0xa8 build/sam_e70_xplained_ultra/production/_ext/1645245335/aes_pic32c.o
                0x0040bf90                wc_AesCbcDecrypt

.text.__lshift%102
                0x0040c038       0xa4
 .text.__lshift
                0x0040c038       0xa4 c:/program files (x86)/microchip/xc32/v2.10/bin/bin/../../lib/gcc/pic32c/6.2.1/../../../../pic32c/lib/v7e-m/fpv5/hard\libc.a(lib_a-mprec.o)
                0x0040c038                __lshift

.text.__register_exitproc%103
                0x0040c0dc       0xa4
 .text.__register_exitproc
                0x0040c0dc       0xa4 c:/program files (x86)/microchip/xc32/v2.10/bin/bin/../../lib/gcc/pic32c/6.2.1/../../../../pic32c/lib/v7e-m/fpv5/hard\libc.a(lib_a-__atexit.o)
                0x0040c0dc                __register_exitproc

.text.DisplayNodeMsg%104
                0x0040c180       0xa0
 .text.DisplayNodeMsg
                0x0040c180       0xa0 build/sam_e70_xplained_ultra/production/_ext/1832805299/sys_command.o

.text%105       0x0040c220       0xa0
 .text          0x0040c220       0xa0 c:/program files (x86)/microchip/xc32/v2.10/bin/bin/../../lib/gcc/pic32c/6.2.1/../../../../pic32c/lib/v7e-m/fpv5/hard\libc.a(lib_a-memchr.o)
                0x0040c220                memchr

.text.__pow5mult%106
                0x0040c2c0       0xa0
 .text.__pow5mult
                0x0040c2c0       0xa0 c:/program files (x86)/microchip/xc32/v2.10/bin/bin/../../lib/gcc/pic32c/6.2.1/../../../../pic32c/lib/v7e-m/fpv5/hard\libc.a(lib_a-mprec.o)
                0x0040c2c0                __pow5mult

.text.wc_Des3_CbcEncrypt%107
                0x0040c360       0x9e
 .text.wc_Des3_CbcEncrypt
                0x0040c360       0x9e build/sam_e70_xplained_ultra/production/_ext/1645245335/des3.o
                0x0040c360                wc_Des3_CbcEncrypt

.text.wc_AesCtrEncrypt%108
                0x0040c400       0x9c
 .text.wc_AesCtrEncrypt
                0x0040c400       0x9c build/sam_e70_xplained_ultra/production/_ext/1645245335/aes_pic32c.o
                0x0040c400                wc_AesCtrEncrypt

.text.wc_Sha256Final%109
                0x0040c49c       0x9c
 .text.wc_Sha256Final
                0x0040c49c       0x9c build/sam_e70_xplained_ultra/production/_ext/1645245335/sha256_pic32c.o
                0x0040c49c                wc_Sha256Final

.text.memset%110
                0x0040c538       0x9c
 .text.memset   0x0040c538       0x9c c:/program files (x86)/microchip/xc32/v2.10/bin/bin/../../lib/gcc/pic32c/6.2.1/../../../../pic32c/lib/v7e-m/fpv5/hard\libc.a(lib_a-memset.o)
                0x0040c538                memset

.text.sha256_test%111
                0x0040c5d4       0x94
 .text.sha256_test
                0x0040c5d4       0x94 build/sam_e70_xplained_ultra/production/_ext/1360937237/app.o
                0x0040c5d4                sha256_test

.text.wc_InitSha256%112
                0x0040c668       0x94
 .text.wc_InitSha256
                0x0040c668       0x94 build/sam_e70_xplained_ultra/production/_ext/1645245335/sha256_pic32c.o
                0x0040c668                wc_InitSha256

.text.__pic32c_data_initialization%113
                0x0040c6fc       0x94
 .text.__pic32c_data_initialization
                0x0040c6fc       0x94 c:/program files (x86)/microchip/xc32/v2.10/bin/bin/../../lib/gcc/pic32c/6.2.1/../../../../pic32c/lib/v7e-m/fpv5/hard\libpic32c.a(data_init.o)
                0x0040c6fc                __pic32c_data_initialization

.text._malloc_trim_r%114
                0x0040c790       0x94
 .text._malloc_trim_r
                0x0040c790       0x94 c:/program files (x86)/microchip/xc32/v2.10/bin/bin/../../lib/gcc/pic32c/6.2.1/../../../../pic32c/lib/v7e-m/fpv5/hard\libc.a(lib_a-freer.o)
                0x0040c790                _malloc_trim_r

.text.wc_ShaFinal%115
                0x0040c824       0x90
 .text.wc_ShaFinal
                0x0040c824       0x90 build/sam_e70_xplained_ultra/production/_ext/1645245335/sha_pic32c.o
                0x0040c824                wc_ShaFinal

.text.SYS_CMD_DELETE%116
                0x0040c8b4       0x8c
 .text.SYS_CMD_DELETE
                0x0040c8b4       0x8c build/sam_e70_xplained_ultra/production/_ext/1832805299/sys_command.o
                0x0040c8b4                SYS_CMD_DELETE

.text.wc_Des_CbcDecrypt%117
                0x0040c940       0x88
 .text.wc_Des_CbcDecrypt
                0x0040c940       0x88 build/sam_e70_xplained_ultra/production/_ext/1645245335/des3.o
                0x0040c940                wc_Des_CbcDecrypt

.text.wc_Md5Update%118
                0x0040c9c8       0x88
 .text.wc_Md5Update
                0x0040c9c8       0x88 build/sam_e70_xplained_ultra/production/_ext/1645245335/md5.o
                0x0040c9c8                wc_Md5Update

.text.SYS_CMD_Initialize%119
                0x0040ca50       0x88
 .text.SYS_CMD_Initialize
                0x0040ca50       0x88 build/sam_e70_xplained_ultra/production/_ext/1832805299/sys_command.o
                0x0040ca50                SYS_CMD_Initialize

.text.wc_HmacUpdate%120
                0x0040cad8       0x84
 .text.wc_HmacUpdate
                0x0040cad8       0x84 build/sam_e70_xplained_ultra/production/_ext/1645245335/hmac.o
                0x0040cad8                wc_HmacUpdate

.text.wc_ShaUpdate%121
                0x0040cb5c       0x82
 .text.wc_ShaUpdate
                0x0040cb5c       0x82 build/sam_e70_xplained_ultra/production/_ext/1645245335/sha_pic32c.o
                0x0040cb5c                wc_ShaUpdate

.text.wc_Sha256Update%122
                0x0040cbde       0x82
 .text.wc_Sha256Update
                0x0040cbde       0x82 build/sam_e70_xplained_ultra/production/_ext/1645245335/sha256_pic32c.o
                0x0040cbde                wc_Sha256Update

.rodata.sha_padding%123
                0x0040cc60       0x80
 .rodata.sha_padding
                0x0040cc60       0x80 build/sam_e70_xplained_ultra/production/_ext/1645245335/sha256_pic32c.o

.text.SendCommandPrint%124
                0x0040cce0       0x80
 .text.SendCommandPrint
                0x0040cce0       0x80 build/sam_e70_xplained_ultra/production/_ext/1832805299/sys_command.o

.text.SYS_CMD_PRINT%125
                0x0040cd60       0x80
 .text.SYS_CMD_PRINT
                0x0040cd60       0x80 build/sam_e70_xplained_ultra/production/_ext/1832805299/sys_command.o
                0x0040cd60                SYS_CMD_PRINT

.text.timer_addToList%126
                0x0040cde0       0x80
 .text.timer_addToList
                0x0040cde0       0x80 build/sam_e70_xplained_ultra/production/_ext/101884895/sys_time.o

.text.__multadd%127
                0x0040ce60       0x80
 .text.__multadd
                0x0040ce60       0x80 c:/program files (x86)/microchip/xc32/v2.10/bin/bin/../../lib/gcc/pic32c/6.2.1/../../../../pic32c/lib/v7e-m/fpv5/hard\libc.a(lib_a-mprec.o)
                0x0040ce60                __multadd

.text.wc_Des_CbcEncrypt%128
                0x0040cee0       0x7e
 .text.wc_Des_CbcEncrypt
                0x0040cee0       0x7e build/sam_e70_xplained_ultra/production/_ext/1645245335/des3.o
                0x0040cee0                wc_Des_CbcEncrypt

.text.sha384_test%129
                0x0040cf60       0x7c
 .text.sha384_test
                0x0040cf60       0x7c build/sam_e70_xplained_ultra/production/_ext/1360937237/app.o
                0x0040cf60                sha384_test

.text.sha512_test%130
                0x0040cfdc       0x7c
 .text.sha512_test
                0x0040cfdc       0x7c build/sam_e70_xplained_ultra/production/_ext/1360937237/app.o
                0x0040cfdc                sha512_test

.text.frexp%131
                0x0040d058       0x7c
 .text.frexp    0x0040d058       0x7c c:/program files (x86)/microchip/xc32/v2.10/bin/bin/../../lib/gcc/pic32c/6.2.1/../../../../pic32c/lib/v7e-m/fpv5/hard\libc.a(lib_a-s_frexp.o)
                0x0040d058                frexp

.text.wc_Des3_SetKey%132
                0x0040d0d4       0x76
 .text.wc_Des3_SetKey
                0x0040d0d4       0x76 build/sam_e70_xplained_ultra/production/_ext/1645245335/des3.o
                0x0040d0d4                wc_Des3_SetKey

.text.CLK_Initialize%133
                0x0040d14c       0x74
 .text.CLK_Initialize
                0x0040d14c       0x74 build/sam_e70_xplained_ultra/production/_ext/60165520/plib_clk.o
                0x0040d14c                CLK_Initialize

.text.timer_removeFromList%134
                0x0040d1c0       0x74
 .text.timer_removeFromList
                0x0040d1c0       0x74 build/sam_e70_xplained_ultra/production/_ext/101884895/sys_time.o

.text._vsnprintf_r%135
                0x0040d234       0x74
 .text._vsnprintf_r
                0x0040d234       0x74 c:/program files (x86)/microchip/xc32/v2.10/bin/bin/../../lib/gcc/pic32c/6.2.1/../../../../pic32c/lib/v7e-m/fpv5/hard\libc.a(lib_a-vsnprintf.o)
                0x0040d234                _vsnprintf_r

.text.PIO_Initialize%136
                0x0040d2a8       0x70
 .text.PIO_Initialize
                0x0040d2a8       0x70 build/sam_e70_xplained_ultra/production/_ext/60177924/plib_pio.o
                0x0040d2a8                PIO_Initialize

.text.SYS_TIME_Initialize%137
                0x0040d318       0x70
 .text.SYS_TIME_Initialize
                0x0040d318       0x70 build/sam_e70_xplained_ultra/production/_ext/101884895/sys_time.o
                0x0040d318                SYS_TIME_Initialize

.text%138       0x0040d388       0x6c
 .text          0x0040d388       0x6c c:/program files (x86)/microchip/xc32/v2.10/bin/bin/../../lib/gcc/pic32c/6.2.1/v7e-m/fpv5/hard/crtbegin.o

.text.SYS_Initialize%139
                0x0040d3f4       0x68
 .text.SYS_Initialize
                0x0040d3f4       0x68 build/sam_e70_xplained_ultra/production/_ext/1171490990/initialization.o
                0x0040d3f4                SYS_Initialize

.text.SYS_CMDIO_ADD%140
                0x0040d45c       0x64
 .text.SYS_CMDIO_ADD
                0x0040d45c       0x64 build/sam_e70_xplained_ultra/production/_ext/1832805299/sys_command.o
                0x0040d45c                SYS_CMDIO_ADD

.text.strncpy%141
                0x0040d4c0       0x64
 .text.strncpy  0x0040d4c0       0x64 c:/program files (x86)/microchip/xc32/v2.10/bin/bin/../../lib/gcc/pic32c/6.2.1/../../../../pic32c/lib/v7e-m/fpv5/hard\libc.a(lib_a-strncpy.o)
                0x0040d4c0                strncpy

.text.wc_InitSha%142
                0x0040d524       0x60
 .text.wc_InitSha
                0x0040d524       0x60 build/sam_e70_xplained_ultra/production/_ext/1645245335/sha_pic32c.o
                0x0040d524                wc_InitSha

.text.memcmp%143
                0x0040d584       0x60
 .text.memcmp   0x0040d584       0x60 c:/program files (x86)/microchip/xc32/v2.10/bin/bin/../../lib/gcc/pic32c/6.2.1/../../../../pic32c/lib/v7e-m/fpv5/hard\libc.a(lib_a-memcmp.o)
                0x0040d584                memcmp

.text.__lo0bits%144
                0x0040d5e4       0x60
 .text.__lo0bits
                0x0040d5e4       0x60 c:/program files (x86)/microchip/xc32/v2.10/bin/bin/../../lib/gcc/pic32c/6.2.1/../../../../pic32c/lib/v7e-m/fpv5/hard\libc.a(lib_a-mprec.o)
                0x0040d5e4                __lo0bits

.text._calloc_r%145
                0x0040d644       0x60
 .text._calloc_r
                0x0040d644       0x60 c:/program files (x86)/microchip/xc32/v2.10/bin/bin/../../lib/gcc/pic32c/6.2.1/../../../../pic32c/lib/v7e-m/fpv5/hard\libc.a(lib_a-callocr.o)
                0x0040d644                _calloc_r

.text.HmacKeyInnerHash%146
                0x0040d6a4       0x5e
 .text.HmacKeyInnerHash
                0x0040d6a4       0x5e build/sam_e70_xplained_ultra/production/_ext/1645245335/hmac.o

.text.Console_UART_Read%147
                0x0040d704       0x5c
 .text.Console_UART_Read
                0x0040d704       0x5c build/sam_e70_xplained_ultra/production/_ext/1832805299/sys_console_uart.o
                0x0040d704                Console_UART_Read

.text.wc_AesSetKey%148
                0x0040d760       0x58
 .text.wc_AesSetKey
                0x0040d760       0x58 build/sam_e70_xplained_ultra/production/_ext/1645245335/aes_pic32c.o
                0x0040d760                wc_AesSetKey

.text.__libc_init_array%149
                0x0040d7b8       0x50
 .text.__libc_init_array
                0x0040d7b8       0x50 c:/program files (x86)/microchip/xc32/v2.10/bin/bin/../../lib/gcc/pic32c/6.2.1/../../../../pic32c/lib/v7e-m/fpv5/hard\libc.a(lib_a-init.o)
                0x0040d7b8                __libc_init_array

.text.Console_UART_Write%150
                0x0040d808       0x4c
 .text.Console_UART_Write
                0x0040d808       0x4c build/sam_e70_xplained_ultra/production/_ext/1832805299/sys_console_uart.o
                0x0040d808                Console_UART_Write

.text.sprintf%151
                0x0040d854       0x4c
 .text.sprintf  0x0040d854       0x4c c:/program files (x86)/microchip/xc32/v2.10/bin/bin/../../lib/gcc/pic32c/6.2.1/../../../../pic32c/lib/v7e-m/fpv5/hard\libc.a(lib_a-sprintf.o)
                0x0040d854                __sprintf_dis
                0x0040d854                __sprintf_s
                0x0040d854                sprintf
                0x0040d854                __sprintf_oxXs

.text._Balloc%152
                0x0040d8a0       0x4c
 .text._Balloc  0x0040d8a0       0x4c c:/program files (x86)/microchip/xc32/v2.10/bin/bin/../../lib/gcc/pic32c/6.2.1/../../../../pic32c/lib/v7e-m/fpv5/hard\libc.a(lib_a-mprec.o)
                0x0040d8a0                _Balloc

.text.SYS_CONSOLE_Initialize%153
                0x0040d8ec       0x48
 .text.SYS_CONSOLE_Initialize
                0x0040d8ec       0x48 build/sam_e70_xplained_ultra/production/_ext/1832805299/sys_console.o
                0x0040d8ec                SYS_CONSOLE_Initialize

.text.Console_UART_Status%154
                0x0040d934       0x48
 .text.Console_UART_Status
                0x0040d934       0x48 build/sam_e70_xplained_ultra/production/_ext/1832805299/sys_console_uart.o
                0x0040d934                Console_UART_Status

.text.CommandCleanup%155
                0x0040d97c       0x48
 .text.CommandCleanup
                0x0040d97c       0x48 build/sam_e70_xplained_ultra/production/_ext/1832805299/sys_command.o

.text.USART1_Write%156
                0x0040d9c4       0x48
 .text.USART1_Write
                0x0040d9c4       0x48 build/sam_e70_xplained_ultra/production/_ext/2001315827/plib_usart1.o
                0x0040d9c4                USART1_Write

.text.SYS_INT_SourceDisable%157
                0x0040da0c       0x44
 .text.SYS_INT_SourceDisable
                0x0040da0c       0x44 build/sam_e70_xplained_ultra/production/_ext/1881668453/sys_int.o
                0x0040da0c                SYS_INT_SourceDisable

.text.USART1_ErrorGet%158
                0x0040da50       0x44
 .text.USART1_ErrorGet
                0x0040da50       0x44 build/sam_e70_xplained_ultra/production/_ext/2001315827/plib_usart1.o
                0x0040da50                USART1_ErrorGet

.rodata%159     0x0040da94       0x44
 .rodata        0x0040da94       0x44 c:/program files (x86)/microchip/xc32/v2.10/bin/bin/../../lib/gcc/pic32c/6.2.1/../../../../pic32c/lib/v7e-m/fpv5/hard\libc.a(lib_a-svfprintf.o)

.text.NVIC_Initialize%160
                0x0040dad8       0x40
 .text.NVIC_Initialize
                0x0040dad8       0x40 build/sam_e70_xplained_ultra/production/_ext/1865468468/plib_nvic.o
                0x0040dad8                NVIC_Initialize

.text.random_test%161
                0x0040db18       0x40
 .text.random_test
                0x0040db18       0x40 build/sam_e70_xplained_ultra/production/_ext/1360937237/app.o
                0x0040db18                random_test

.rodata.sha_padding%162
                0x0040db58       0x40
 .rodata.sha_padding
                0x0040db58       0x40 build/sam_e70_xplained_ultra/production/_ext/1645245335/sha_pic32c.o

.text.SYS_CONSOLE_Status%163
                0x0040db98       0x40
 .text.SYS_CONSOLE_Status
                0x0040db98       0x40 build/sam_e70_xplained_ultra/production/_ext/1832805299/sys_console.o
                0x0040db98                SYS_CONSOLE_Status

.text.__hi0bits%164
                0x0040dbd8       0x40
 .text.__hi0bits
                0x0040dbd8       0x40 c:/program files (x86)/microchip/xc32/v2.10/bin/bin/../../lib/gcc/pic32c/6.2.1/../../../../pic32c/lib/v7e-m/fpv5/hard\libc.a(lib_a-mprec.o)
                0x0040dbd8                __hi0bits

.text.Console_UART_Flush%165
                0x0040dc18       0x3c
 .text.Console_UART_Flush
                0x0040dc18       0x3c build/sam_e70_xplained_ultra/production/_ext/1832805299/sys_console_uart.o
                0x0040dc18                Console_UART_Flush

.text.CommandQuit%166
                0x0040dc54       0x3c
 .text.CommandQuit
                0x0040dc54       0x3c build/sam_e70_xplained_ultra/production/_ext/1832805299/sys_command.o

.text.USART1_Initialize%167
                0x0040dc90       0x3c
 .text.USART1_Initialize
                0x0040dc90       0x3c build/sam_e70_xplained_ultra/production/_ext/2001315827/plib_usart1.o
                0x0040dc90                USART1_Initialize

.text.USART1_Read%168
                0x0040dccc       0x3c
 .text.USART1_Read
                0x0040dccc       0x3c build/sam_e70_xplained_ultra/production/_ext/2001315827/plib_usart1.o
                0x0040dccc                USART1_Read

.text.wc_AesSetIV%169
                0x0040dd08       0x3a
 .text.wc_AesSetIV
                0x0040dd08       0x3a build/sam_e70_xplained_ultra/production/_ext/1645245335/aes_pic32c.o
                0x0040dd08                wc_AesSetIV

.text.timerHardwarePeriod_update%170
                0x0040dd42       0x3a
 .text.timerHardwarePeriod_update
                0x0040dd42       0x3a build/sam_e70_xplained_ultra/production/_ext/101884895/sys_time.o

.rodata.pc1%171
                0x0040dd7c       0x38
 .rodata.pc1    0x0040dd7c       0x38 build/sam_e70_xplained_ultra/production/_ext/1645245335/des3.o

.text.wc_InitMd5_ex%172
                0x0040ddb4       0x38
 .text.wc_InitMd5_ex
                0x0040ddb4       0x38 build/sam_e70_xplained_ultra/production/_ext/1645245335/md5.o
                0x0040ddb4                wc_InitMd5_ex

.text.AesWriteKey%173
                0x0040ddec       0x38
 .text.AesWriteKey
                0x0040ddec       0x38 build/sam_e70_xplained_ultra/production/_ext/1645245335/aes_pic32c.o

.text.__mcmp%174
                0x0040de24       0x38
 .text.__mcmp   0x0040de24       0x38 c:/program files (x86)/microchip/xc32/v2.10/bin/bin/../../lib/gcc/pic32c/6.2.1/../../../../pic32c/lib/v7e-m/fpv5/hard\libc.a(lib_a-mprec.o)
                0x0040de24                __mcmp

.text.SYS_CONSOLE_Read%175
                0x0040b00c       0x34
 .text.SYS_CONSOLE_Read
                0x0040b00c       0x34 build/sam_e70_xplained_ultra/production/_ext/1832805299/sys_console.o
                0x0040b00c                SYS_CONSOLE_Read

.text.__libc_fini_array%176
                0x0040de5c       0x34
 .text.__libc_fini_array
                0x0040de5c       0x34 c:/program files (x86)/microchip/xc32/v2.10/bin/bin/../../lib/gcc/pic32c/6.2.1/../../../../pic32c/lib/v7e-m/fpv5/hard\libc.a(lib_a-fini.o)
                0x0040de5c                __libc_fini_array

.rodata.pc2%177
                0x0040de90       0x30
 .rodata.pc2    0x0040de90       0x30 build/sam_e70_xplained_ultra/production/_ext/1645245335/des3.o

.text.SYS_CONSOLE_Write%178
                0x0040dec0       0x30
 .text.SYS_CONSOLE_Write
                0x0040dec0       0x30 build/sam_e70_xplained_ultra/production/_ext/1832805299/sys_console.o
                0x0040dec0                SYS_CONSOLE_Write

.text.SYS_TIME_CounterGet%179
                0x0040def0       0x30
 .text.SYS_TIME_CounterGet
                0x0040def0       0x30 build/sam_e70_xplained_ultra/production/_ext/101884895/sys_time.o
                0x0040def0                SYS_TIME_CounterGet

.text%180       0x0040df20       0x30
 .text          0x0040df20       0x30 c:/program files (x86)/microchip/xc32/v2.10/bin/bin/../../lib/gcc/pic32c/6.2.1/v7e-m/fpv5/hard\libgcc.a(_aeabi_uldivmod.o)
                0x0040df20                __aeabi_uldivmod

.text.__ascii_mbtowc%181
                0x0040df50       0x2c
 .text.__ascii_mbtowc
                0x0040df50       0x2c c:/program files (x86)/microchip/xc32/v2.10/bin/bin/../../lib/gcc/pic32c/6.2.1/../../../../pic32c/lib/v7e-m/fpv5/hard\libc.a(lib_a-mbtowc_r.o)
                0x0040df50                __ascii_mbtowc

.text._sbrk%182
                0x0040df7c       0x2c
 .text._sbrk    0x0040df7c       0x2c c:/program files (x86)/microchip/xc32/v2.10/bin/bin/../../lib/gcc/pic32c/6.2.1/../../../../pic32c/lib/v7e-m/fpv5/hard\libpic32c.a(sbrk.o)
                0x0040df7c                _sbrk

.text.wc_Des3_SetIV%183
                0x0040dfa8       0x28
 .text.wc_Des3_SetIV
                0x0040dfa8       0x28 build/sam_e70_xplained_ultra/production/_ext/1645245335/des3.o
                0x0040dfa8                wc_Des3_SetIV

.text.ReadCommandCharacter%184
                0x0040dfd0       0x28
 .text.ReadCommandCharacter
                0x0040dfd0       0x28 build/sam_e70_xplained_ultra/production/_ext/1832805299/sys_command.o

.text.SendCommandCharacter%185
                0x0040dff8       0x28
 .text.SendCommandCharacter
                0x0040dff8       0x28 build/sam_e70_xplained_ultra/production/_ext/1832805299/sys_command.o

.text.time_resourceUnlock%186
                0x0040e020       0x28
 .text.time_resourceUnlock
                0x0040e020       0x28 build/sam_e70_xplained_ultra/production/_ext/101884895/sys_time.o

.text.TC1_CH0_TimerInitialize%187
                0x0040e048       0x28
 .text.TC1_CH0_TimerInitialize
                0x0040e048       0x28 build/sam_e70_xplained_ultra/production/_ext/829342655/plib_tc1.o
                0x0040e048                TC1_CH0_TimerInitialize

.rodata.__mprec_bigtens%188
                0x0040e070       0x28
 .rodata.__mprec_bigtens
                0x0040e070       0x28 c:/program files (x86)/microchip/xc32/v2.10/bin/bin/../../lib/gcc/pic32c/6.2.1/../../../../pic32c/lib/v7e-m/fpv5/hard\libc.a(lib_a-mprec.o)
                0x0040e070                __mprec_bigtens

.text.SYS_CMDIO_GET_HANDLE%189
                0x0040e098       0x24
 .text.SYS_CMDIO_GET_HANDLE
                0x0040e098       0x24 build/sam_e70_xplained_ultra/production/_ext/1832805299/sys_command.o
                0x0040e098                SYS_CMDIO_GET_HANDLE

.rodata._builtinCmdTbl%190
                0x0040e0bc       0x24
 .rodata._builtinCmdTbl
                0x0040e0bc       0x24 build/sam_e70_xplained_ultra/production/_ext/1832805299/sys_command.o

.text.TC1_CH0_InterruptHandler%191
                0x0040e0e0       0x24
 .text.TC1_CH0_InterruptHandler
                0x0040e0e0       0x24 build/sam_e70_xplained_ultra/production/_ext/829342655/plib_tc1.o
                0x0040e0e0                TC1_CH0_InterruptHandler

.text._sbrk_r%192
                0x0040e104       0x24
 .text._sbrk_r  0x0040e104       0x24 c:/program files (x86)/microchip/xc32/v2.10/bin/bin/../../lib/gcc/pic32c/6.2.1/../../../../pic32c/lib/v7e-m/fpv5/hard\libc.a(lib_a-sbrkr.o)
                0x0040e104                _sbrk_r

.text.CRYPT_AES_KeySet%193
                0x0040e128       0x20
 .text.CRYPT_AES_KeySet
                0x0040e128       0x20 build/sam_e70_xplained_ultra/production/_ext/1645245335/crypto.o
                0x0040e128                CRYPT_AES_KeySet

.rodata.bytebit%194
                0x0040e148       0x20
 .rodata.bytebit
                0x0040e148       0x20 build/sam_e70_xplained_ultra/production/_ext/1645245335/des3.o

.text.Console_UART_ReadC%195
                0x0040e168       0x20
 .text.Console_UART_ReadC
                0x0040e168       0x20 build/sam_e70_xplained_ultra/production/_ext/1832805299/sys_console_uart.o
                0x0040e168                Console_UART_ReadC

.text.SYS_DEBUG_Initialize%196
                0x0040e188       0x20
 .text.SYS_DEBUG_Initialize
                0x0040e188       0x20 build/sam_e70_xplained_ultra/production/_ext/1832805299/sys_debug.o
                0x0040e188                SYS_DEBUG_Initialize

.text.vsnprintf%197
                0x0040e1a8       0x20
 .text.vsnprintf
                0x0040e1a8       0x20 c:/program files (x86)/microchip/xc32/v2.10/bin/bin/../../lib/gcc/pic32c/6.2.1/../../../../pic32c/lib/v7e-m/fpv5/hard\libc.a(lib_a-vsnprintf.o)
                0x0040e1a8                vsnprintf

.text.CRYPT_RNG_BlockGenerate%198
                0x0040e1c8       0x1e
 .text.CRYPT_RNG_BlockGenerate
                0x0040e1c8       0x1e build/sam_e70_xplained_ultra/production/_ext/1645245335/crypto.o
                0x0040e1c8                CRYPT_RNG_BlockGenerate

.text.CRYPT_TDES_CBC_Encrypt%199
                0x0040e1e6       0x1e
 .text.CRYPT_TDES_CBC_Encrypt
                0x0040e1e6       0x1e build/sam_e70_xplained_ultra/production/_ext/1645245335/crypto.o
                0x0040e1e6                CRYPT_TDES_CBC_Encrypt

.text.CRYPT_TDES_CBC_Decrypt%200
                0x0040e204       0x1e
 .text.CRYPT_TDES_CBC_Decrypt
                0x0040e204       0x1e build/sam_e70_xplained_ultra/production/_ext/1645245335/crypto.o
                0x0040e204                CRYPT_TDES_CBC_Decrypt

.text.CRYPT_AES_CBC_Encrypt%201
                0x0040e222       0x1e
 .text.CRYPT_AES_CBC_Encrypt
                0x0040e222       0x1e build/sam_e70_xplained_ultra/production/_ext/1645245335/crypto.o
                0x0040e222                CRYPT_AES_CBC_Encrypt

.text.CRYPT_AES_CBC_Decrypt%202
                0x0040e240       0x1e
 .text.CRYPT_AES_CBC_Decrypt
                0x0040e240       0x1e build/sam_e70_xplained_ultra/production/_ext/1645245335/crypto.o
                0x0040e240                CRYPT_AES_CBC_Decrypt

.text.CRYPT_AES_CTR_Encrypt%203
                0x0040e25e       0x1e
 .text.CRYPT_AES_CTR_Encrypt
                0x0040e25e       0x1e build/sam_e70_xplained_ultra/production/_ext/1645245335/crypto.o
                0x0040e25e                CRYPT_AES_CTR_Encrypt

.text.wc_Des_SetKey%204
                0x0040e27c       0x1c
 .text.wc_Des_SetKey
                0x0040e27c       0x1c build/sam_e70_xplained_ultra/production/_ext/1645245335/des3.o
                0x0040e27c                wc_Des_SetKey

.text.SYS_CONSOLE_Tasks%205
                0x0040e298       0x1c
 .text.SYS_CONSOLE_Tasks
                0x0040e298       0x1c build/sam_e70_xplained_ultra/production/_ext/1832805299/sys_console.o
                0x0040e298                SYS_CONSOLE_Tasks

.text.popQueue%206
                0x0040e2b4       0x1c
 .text.popQueue
                0x0040e2b4       0x1c build/sam_e70_xplained_ultra/production/_ext/1832805299/sys_console_uart.o

.text.__ascii_wctomb%207
                0x0040e2d0       0x1c
 .text.__ascii_wctomb
                0x0040e2d0       0x1c c:/program files (x86)/microchip/xc32/v2.10/bin/bin/../../lib/gcc/pic32c/6.2.1/../../../../pic32c/lib/v7e-m/fpv5/hard\libc.a(lib_a-wctomb_r.o)
                0x0040e2d0                __ascii_wctomb

.text._localeconv_r%208
                0x0040e2ec       0x1c
 .text._localeconv_r
                0x0040e2ec       0x1c c:/program files (x86)/microchip/xc32/v2.10/bin/bin/../../lib/gcc/pic32c/6.2.1/../../../../pic32c/lib/v7e-m/fpv5/hard\libc.a(lib_a-localeconv.o)
                0x0040e2ec                _localeconv_r

.text.wc_Des_SetIV%209
                0x0040e308       0x1a
 .text.wc_Des_SetIV
                0x0040e308       0x1a build/sam_e70_xplained_ultra/production/_ext/1645245335/des3.o
                0x0040e308                wc_Des_SetIV

.text.SYS_Tasks%210
                0x0040e324       0x18
 .text.SYS_Tasks
                0x0040e324       0x18 build/sam_e70_xplained_ultra/production/_ext/1171490990/tasks.o
                0x0040e324                SYS_Tasks

.text.CRYPT_MD5_DataAdd%211
                0x0040e33c       0x18
 .text.CRYPT_MD5_DataAdd
                0x0040e33c       0x18 build/sam_e70_xplained_ultra/production/_ext/1645245335/crypto.o
                0x0040e33c                CRYPT_MD5_DataAdd

.text.CRYPT_MD5_Finalize%212
                0x0040e354       0x18
 .text.CRYPT_MD5_Finalize
                0x0040e354       0x18 build/sam_e70_xplained_ultra/production/_ext/1645245335/crypto.o
                0x0040e354                CRYPT_MD5_Finalize

.text.CRYPT_SHA_DataAdd%213
                0x0040e36c       0x18
 .text.CRYPT_SHA_DataAdd
                0x0040e36c       0x18 build/sam_e70_xplained_ultra/production/_ext/1645245335/crypto.o
                0x0040e36c                CRYPT_SHA_DataAdd

.text.CRYPT_SHA_Finalize%214
                0x0040e384       0x18
 .text.CRYPT_SHA_Finalize
                0x0040e384       0x18 build/sam_e70_xplained_ultra/production/_ext/1645245335/crypto.o
                0x0040e384                CRYPT_SHA_Finalize

.text.CRYPT_SHA256_DataAdd%215
                0x0040e39c       0x18
 .text.CRYPT_SHA256_DataAdd
                0x0040e39c       0x18 build/sam_e70_xplained_ultra/production/_ext/1645245335/crypto.o
                0x0040e39c                CRYPT_SHA256_DataAdd

.text.CRYPT_SHA256_Finalize%216
                0x0040e3b4       0x18
 .text.CRYPT_SHA256_Finalize
                0x0040e3b4       0x18 build/sam_e70_xplained_ultra/production/_ext/1645245335/crypto.o
                0x0040e3b4                CRYPT_SHA256_Finalize

.text.CRYPT_SHA384_DataAdd%217
                0x0040e3cc       0x18
 .text.CRYPT_SHA384_DataAdd
                0x0040e3cc       0x18 build/sam_e70_xplained_ultra/production/_ext/1645245335/crypto.o
                0x0040e3cc                CRYPT_SHA384_DataAdd

.text.CRYPT_SHA384_Finalize%218
                0x0040e3e4       0x18
 .text.CRYPT_SHA384_Finalize
                0x0040e3e4       0x18 build/sam_e70_xplained_ultra/production/_ext/1645245335/crypto.o
                0x0040e3e4                CRYPT_SHA384_Finalize

.text.CRYPT_SHA512_DataAdd%219
                0x0040e3fc       0x18
 .text.CRYPT_SHA512_DataAdd
                0x0040e3fc       0x18 build/sam_e70_xplained_ultra/production/_ext/1645245335/crypto.o
                0x0040e3fc                CRYPT_SHA512_DataAdd

.text.CRYPT_SHA512_Finalize%220
                0x0040e414       0x18
 .text.CRYPT_SHA512_Finalize
                0x0040e414       0x18 build/sam_e70_xplained_ultra/production/_ext/1645245335/crypto.o
                0x0040e414                CRYPT_SHA512_Finalize

.text.CRYPT_TDES_KeySet%221
                0x0040e42c       0x18
 .text.CRYPT_TDES_KeySet
                0x0040e42c       0x18 build/sam_e70_xplained_ultra/production/_ext/1645245335/crypto.o
                0x0040e42c                CRYPT_TDES_KeySet

.text.AesWriteIV%222
                0x0040e444       0x18
 .text.AesWriteIV
                0x0040e444       0x18 build/sam_e70_xplained_ultra/production/_ext/1645245335/aes_pic32c.o

.text.Console_UART_RegisterCallback%223
                0x0040e45c       0x18
 .text.Console_UART_RegisterCallback
                0x0040e45c       0x18 build/sam_e70_xplained_ultra/production/_ext/1832805299/sys_console_uart.o
                0x0040e45c                Console_UART_RegisterCallback

.text.UARTDeviceReadCallback%224
                0x0040e474       0x18
 .text.UARTDeviceReadCallback
                0x0040e474       0x18 build/sam_e70_xplained_ultra/production/_ext/1832805299/sys_console_uart.o
                0x0040e474                UARTDeviceReadCallback

.text.CommandReset%225
                0x0040e48c       0x18
 .text.CommandReset
                0x0040e48c       0x18 build/sam_e70_xplained_ultra/production/_ext/1832805299/sys_command.o

.text.SendCommandMessage%226
                0x0040e4a4       0x18
 .text.SendCommandMessage
                0x0040e4a4       0x18 build/sam_e70_xplained_ultra/production/_ext/1832805299/sys_command.o

.rodata.sysConsoleApi%227
                0x0040e4bc       0x18
 .rodata.sysConsoleApi
                0x0040e4bc       0x18 build/sam_e70_xplained_ultra/production/_ext/1832805299/sys_command.o
                0x0040e4bc                sysConsoleApi

.text.wc_InitMd5%228
                0x0040e4d4       0x16
 .text.wc_InitMd5
                0x0040e4d4       0x16 build/sam_e70_xplained_ultra/production/_ext/1645245335/md5.o
                0x0040e4d4                wc_InitMd5

.text.time_resourceLock%229
                0x0040e4ec       0x14
 .text.time_resourceLock
                0x0040e4ec       0x14 build/sam_e70_xplained_ultra/production/_ext/101884895/sys_time.o

.rodata%230     0x0040e500       0x14
 .rodata        0x0040e500       0x14 c:/program files (x86)/microchip/xc32/v2.10/bin/bin/../../lib/gcc/pic32c/6.2.1/../../../../pic32c/lib/v7e-m/fpv5/hard\libc.a(lib_a-locale.o)

.text.register_fini%231
                0x0040e514       0x14
 .text.register_fini
                0x0040e514       0x14 c:/program files (x86)/microchip/xc32/v2.10/bin/bin/../../lib/gcc/pic32c/6.2.1/../../../../pic32c/lib/v7e-m/fpv5/hard\libc.a(lib_a-__call_atexit.o)

.rodata%232     0x0040e528       0x14
 .rodata        0x0040e528       0x14 c:/program files (x86)/microchip/xc32/v2.10/bin/bin/../../lib/gcc/pic32c/6.2.1/../../../../pic32c/lib/v7e-m/fpv5/hard\libc.a(lib_a-dtoa.o)

.text._Bfree%233
                0x0040e53c       0x14
 .text._Bfree   0x0040e53c       0x14 c:/program files (x86)/microchip/xc32/v2.10/bin/bin/../../lib/gcc/pic32c/6.2.1/../../../../pic32c/lib/v7e-m/fpv5/hard\libc.a(lib_a-mprec.o)
                0x0040e53c                _Bfree

.text.__i2b%234
                0x0040e550       0x14
 .text.__i2b    0x0040e550       0x14 c:/program files (x86)/microchip/xc32/v2.10/bin/bin/../../lib/gcc/pic32c/6.2.1/../../../../pic32c/lib/v7e-m/fpv5/hard\libc.a(lib_a-mprec.o)
                0x0040e550                __i2b

.text.SYS_INT_Disable%235
                0x0040e564       0x12
 .text.SYS_INT_Disable
                0x0040e564       0x12 build/sam_e70_xplained_ultra/production/_ext/1881668453/sys_int.o
                0x0040e564                SYS_INT_Disable

.text.SYS_INT_Restore%236
                0x0040e576       0x12
 .text.SYS_INT_Restore
                0x0040e576       0x12 build/sam_e70_xplained_ultra/production/_ext/1881668453/sys_int.o
                0x0040e576                SYS_INT_Restore

.text.CRYPT_MD5_Initialize%237
                0x0040e588       0x12
 .text.CRYPT_MD5_Initialize
                0x0040e588       0x12 build/sam_e70_xplained_ultra/production/_ext/1645245335/crypto.o
                0x0040e588                CRYPT_MD5_Initialize

.text.IsCommandReady%238
                0x0040e59a       0x12
 .text.IsCommandReady
                0x0040e59a       0x12 build/sam_e70_xplained_ultra/production/_ext/1832805299/sys_command.o

.text.CRYPT_SHA_Initialize%239
                0x0040e5ac       0x10
 .text.CRYPT_SHA_Initialize
                0x0040e5ac       0x10 build/sam_e70_xplained_ultra/production/_ext/1645245335/crypto.o
                0x0040e5ac                CRYPT_SHA_Initialize

.text.CRYPT_SHA256_Initialize%240
                0x0040e5bc       0x10
 .text.CRYPT_SHA256_Initialize
                0x0040e5bc       0x10 build/sam_e70_xplained_ultra/production/_ext/1645245335/crypto.o
                0x0040e5bc                CRYPT_SHA256_Initialize

.text.CRYPT_SHA384_Initialize%241
                0x0040e5cc       0x10
 .text.CRYPT_SHA384_Initialize
                0x0040e5cc       0x10 build/sam_e70_xplained_ultra/production/_ext/1645245335/crypto.o
                0x0040e5cc                CRYPT_SHA384_Initialize

.text.CRYPT_SHA512_Initialize%242
                0x0040e5dc       0x10
 .text.CRYPT_SHA512_Initialize
                0x0040e5dc       0x10 build/sam_e70_xplained_ultra/production/_ext/1645245335/crypto.o
                0x0040e5dc                CRYPT_SHA512_Initialize

.text.CRYPT_RNG_Initialize%243
                0x0040e5ec       0x10
 .text.CRYPT_RNG_Initialize
                0x0040e5ec       0x10 build/sam_e70_xplained_ultra/production/_ext/1645245335/crypto.o
                0x0040e5ec                CRYPT_RNG_Initialize

.rodata.totrot%244
                0x0040e5fc       0x10
 .rodata.totrot
                0x0040e5fc       0x10 build/sam_e70_xplained_ultra/production/_ext/1645245335/des3.o

.text.UARTDeviceWriteCallback%245
                0x0040e60c       0x10
 .text.UARTDeviceWriteCallback
                0x0040e60c       0x10 build/sam_e70_xplained_ultra/production/_ext/1832805299/sys_console_uart.o
                0x0040e60c                UARTDeviceWriteCallback

.text.USART1_WriteCallbackRegister%246
                0x0040e61c       0x10
 .text.USART1_WriteCallbackRegister
                0x0040e61c       0x10 build/sam_e70_xplained_ultra/production/_ext/2001315827/plib_usart1.o
                0x0040e61c                USART1_WriteCallbackRegister

.text.USART1_ReadCallbackRegister%247
                0x0040e62c       0x10
 .text.USART1_ReadCallbackRegister
                0x0040e62c       0x10 build/sam_e70_xplained_ultra/production/_ext/2001315827/plib_usart1.o
                0x0040e62c                USART1_ReadCallbackRegister

.text.malloc%248
                0x0040e63c       0x10
 .text.malloc   0x0040e63c       0x10 c:/program files (x86)/microchip/xc32/v2.10/bin/bin/../../lib/gcc/pic32c/6.2.1/../../../../pic32c/lib/v7e-m/fpv5/hard\libc.a(lib_a-malloc.o)
                0x0040e63c                malloc

.text.free%249  0x0040e64c       0x10
 .text.free     0x0040e64c       0x10 c:/program files (x86)/microchip/xc32/v2.10/bin/bin/../../lib/gcc/pic32c/6.2.1/../../../../pic32c/lib/v7e-m/fpv5/hard\libc.a(lib_a-malloc.o)
                0x0040e64c                free

.rodata.blanks.8352%250
                0x0040e65c       0x10
 .rodata.blanks.8352
                0x0040e65c       0x10 c:/program files (x86)/microchip/xc32/v2.10/bin/bin/../../lib/gcc/pic32c/6.2.1/../../../../pic32c/lib/v7e-m/fpv5/hard\libc.a(lib_a-svfprintf.o)

.rodata.zeroes.8353%251
                0x0040e66c       0x10
 .rodata.zeroes.8353
                0x0040e66c       0x10 c:/program files (x86)/microchip/xc32/v2.10/bin/bin/../../lib/gcc/pic32c/6.2.1/../../../../pic32c/lib/v7e-m/fpv5/hard\libc.a(lib_a-svfprintf.o)

.text.main%252  0x0040e67c        0xe
 .text.main     0x0040e67c        0xe build/sam_e70_xplained_ultra/production/_ext/1360937237/main.o
                0x0040e67c                main

.text.wc_InitSha512%253
                0x0040e68a        0xe
 .text.wc_InitSha512
                0x0040e68a        0xe build/sam_e70_xplained_ultra/production/_ext/1645245335/sha512.o
                0x0040e68a                wc_InitSha512

.text.wc_InitSha384%254
                0x0040e698        0xe
 .text.wc_InitSha384
                0x0040e698        0xe build/sam_e70_xplained_ultra/production/_ext/1645245335/sha512.o
                0x0040e698                wc_InitSha384

.text.APP_Initialize%255
                0x0040e6a8        0xc
 .text.APP_Initialize
                0x0040e6a8        0xc build/sam_e70_xplained_ultra/production/_ext/1360937237/app.o
                0x0040e6a8                APP_Initialize

.text.TC1_CH0_TimerStart%256
                0x0040e6b4        0xc
 .text.TC1_CH0_TimerStart
                0x0040e6b4        0xc build/sam_e70_xplained_ultra/production/_ext/829342655/plib_tc1.o
                0x0040e6b4                TC1_CH0_TimerStart

.text.TC1_CH0_TimerStop%257
                0x0040e6c0        0xc
 .text.TC1_CH0_TimerStop
                0x0040e6c0        0xc build/sam_e70_xplained_ultra/production/_ext/829342655/plib_tc1.o
                0x0040e6c0                TC1_CH0_TimerStop

.text.TC1_CH0_TimerPeriodSet%258
                0x0040e6cc        0xc
 .text.TC1_CH0_TimerPeriodSet
                0x0040e6cc        0xc build/sam_e70_xplained_ultra/production/_ext/829342655/plib_tc1.o
                0x0040e6cc                TC1_CH0_TimerPeriodSet

.text.TC1_CH0_TimerCounterGet%259
                0x0040e6d8        0xc
 .text.TC1_CH0_TimerCounterGet
                0x0040e6d8        0xc build/sam_e70_xplained_ultra/production/_ext/829342655/plib_tc1.o
                0x0040e6d8                TC1_CH0_TimerCounterGet

.text.TC1_CH0_TimerCallbackRegister%260
                0x0040e6e4        0xc
 .text.TC1_CH0_TimerCallbackRegister
                0x0040e6e4        0xc build/sam_e70_xplained_ultra/production/_ext/829342655/plib_tc1.o
                0x0040e6e4                TC1_CH0_TimerCallbackRegister

.text.USART1_ReadCountGet%261
                0x0040e6f0        0xc
 .text.USART1_ReadCountGet
                0x0040e6f0        0xc build/sam_e70_xplained_ultra/production/_ext/2001315827/plib_usart1.o
                0x0040e6f0                USART1_ReadCountGet

.text.atexit%262
                0x0040e6fc        0xc
 .text.atexit   0x0040e6fc        0xc c:/program files (x86)/microchip/xc32/v2.10/bin/bin/../../lib/gcc/pic32c/6.2.1/../../../../pic32c/lib/v7e-m/fpv5/hard\libc.a(lib_a-atexit.o)
                0x0040e6fc                atexit

.rodata.p05.7179%263
                0x0040e708        0xc
 .rodata.p05.7179
                0x0040e708        0xc c:/program files (x86)/microchip/xc32/v2.10/bin/bin/../../lib/gcc/pic32c/6.2.1/../../../../pic32c/lib/v7e-m/fpv5/hard\libc.a(lib_a-mprec.o)

.text.GetCommandCharacter%264
                0x0040895c        0x4
 .text.GetCommandCharacter
                0x0040895c        0x4 build/sam_e70_xplained_ultra/production/_ext/1832805299/sys_command.o

.rodata._seqDownArrow%265
                0x0040b834        0x4
 .rodata._seqDownArrow
                0x0040b834        0x4 build/sam_e70_xplained_ultra/production/_ext/1832805299/sys_command.o

.rodata._seqLeftArrow%266
                0x00408678        0x4
 .rodata._seqLeftArrow
                0x00408678        0x4 build/sam_e70_xplained_ultra/production/_ext/1832805299/sys_command.o

.rodata._seqRightArrow%267
                0x0040867c        0x4
 .rodata._seqRightArrow
                0x0040867c        0x4 build/sam_e70_xplained_ultra/production/_ext/1832805299/sys_command.o

.rodata._seqUpArrow%268
                0x0040e714        0x4
 .rodata._seqUpArrow
                0x0040e714        0x4 build/sam_e70_xplained_ultra/production/_ext/1832805299/sys_command.o

.text%269       0x0040e718        0x4
 .text          0x0040e718        0x4 c:/program files (x86)/microchip/xc32/v2.10/bin/bin/../../lib/gcc/pic32c/6.2.1/v7e-m/fpv5/hard\libgcc.a(_dvmd_tls.o)
                0x0040e718                __aeabi_idiv0
                0x0040e718                __aeabi_ldiv0

.rodata._global_impure_ptr%270
                0x0040e71c        0x4
 .rodata._global_impure_ptr
                0x0040e71c        0x4 c:/program files (x86)/microchip/xc32/v2.10/bin/bin/../../lib/gcc/pic32c/6.2.1/../../../../pic32c/lib/v7e-m/fpv5/hard\libc.a(lib_a-impure.o)
                0x0040e71c                _global_impure_ptr

.text.__malloc_lock%271
                0x0040e720        0x4
 .text.__malloc_lock
                0x0040e720        0x4 c:/program files (x86)/microchip/xc32/v2.10/bin/bin/../../lib/gcc/pic32c/6.2.1/../../../../pic32c/lib/v7e-m/fpv5/hard\libc.a(lib_a-mlock.o)
                0x0040e720                __malloc_lock

.text.__malloc_unlock%272
                0x0040e724        0x4
 .text.__malloc_unlock
                0x0040e724        0x4 c:/program files (x86)/microchip/xc32/v2.10/bin/bin/../../lib/gcc/pic32c/6.2.1/../../../../pic32c/lib/v7e-m/fpv5/hard\libc.a(lib_a-mlock.o)
                0x0040e724                __malloc_unlock

.text.Dummy_Handler%273
                0x0040933e        0x2
 .text.Dummy_Handler
                0x0040933e        0x2 build/sam_e70_xplained_ultra/production/_ext/1171490990/interrupts.o
                0x0040933e                DACC_Handler
                0x0040933e                SVCall_Handler
                0x0040933e                TC0_CH2_Handler
                0x0040933e                TC3_CH1_Handler
                0x0040933e                UART3_Handler
                0x0040933e                UART2_Handler
                0x0040933e                TRNG_Handler
                0x0040933e                SysTick_Handler
                0x0040933e                AFEC1_Handler
                0x0040933e                PendSV_Handler
                0x0040933e                TC0_CH1_Handler
                0x0040933e                QSPI_Handler
                0x0040933e                ISI_Handler
                0x0040933e                MCAN0_INT0_Handler
                0x0040933e                USART0_Handler
                0x0040933e                TC1_CH2_Handler
                0x0040933e                RTT_Handler
                0x0040933e                USBHS_Handler
                0x0040933e                IXC_Handler
                0x0040933e                CCF_Handler
                0x0040933e                PIOB_Handler
                0x0040933e                RTC_Handler
                0x0040933e                WDT0_Handler
                0x0040933e                MCAN1_INT1_Handler
                0x0040933e                HSMCI_Handler
                0x0040933e                UART1_Handler
                0x0040933e                Dummy_Handler
                0x0040933e                TWIHS1_Handler
                0x0040933e                TC3_CH2_Handler
                0x0040933e                XDMAC_Handler
                0x0040933e                UART4_Handler
                0x0040933e                TC2_CH0_Handler
                0x0040933e                PWM1_Handler
                0x0040933e                PWM0_Handler
                0x0040933e                PIOA_Handler
                0x0040933e                AFEC0_Handler
                0x0040933e                CCW_Handler
                0x0040933e                TC3_CH0_Handler
                0x0040933e                SSC_Handler
                0x0040933e                ACC_Handler
                0x0040933e                PMC_Handler
                0x0040933e                GMAC_Handler
                0x0040933e                TC2_CH2_Handler
                0x0040933e                MCAN0_INT1_Handler
                0x0040933e                GMAC_Q5_Handler
                0x0040933e                SUPC_Handler
                0x0040933e                TC2_CH1_Handler
                0x0040933e                MCAN1_INT0_Handler
                0x0040933e                EFC_Handler
                0x0040933e                GMAC_Q1_Handler
                0x0040933e                USART2_Handler
                0x0040933e                SDRAMC_Handler
                0x0040933e                GMAC_Q2_Handler
                0x0040933e                PIOE_Handler
                0x0040933e                SPI1_Handler
                0x0040933e                TC1_CH1_Handler
                0x0040933e                GMAC_Q3_Handler
                0x0040933e                PIOD_Handler
                0x0040933e                TWIHS2_Handler
                0x0040933e                RSWDT0_Handler
                0x0040933e                I2SC0_Handler
                0x0040933e                UART0_Handler
                0x0040933e                I2SC1_Handler
                0x0040933e                TC0_CH0_Handler
                0x0040933e                PIOC_Handler
                0x0040933e                GMAC_Q4_Handler
                0x0040933e                FPU_Handler
                0x0040933e                RSTC_Handler
                0x0040933e                ICM_Handler
                0x0040933e                AES_Handler
                0x0040933e                TWIHS0_Handler
                0x0040933e                SPI0_Handler

.text.NonMaskableInt_Handler%274
                0x0040bf8e        0x2
 .text.NonMaskableInt_Handler
                0x0040bf8e        0x2 build/sam_e70_xplained_ultra/production/_ext/1171490990/exceptions.o
                0x0040bf8e                NonMaskableInt_Handler

.text.HardFault_Handler%275
                0x0040c3fe        0x2
 .text.HardFault_Handler
                0x0040c3fe        0x2 build/sam_e70_xplained_ultra/production/_ext/1171490990/exceptions.o
                0x0040c3fe                HardFault_Handler

.text.DebugMonitor_Handler%276
                0x0040cf5e        0x2
 .text.DebugMonitor_Handler
                0x0040cf5e        0x2 build/sam_e70_xplained_ultra/production/_ext/1171490990/exceptions.o
                0x0040cf5e                DebugMonitor_Handler

.text.MemoryManagement_Handler%277
                0x0040d14a        0x2
 .text.MemoryManagement_Handler
                0x0040d14a        0x2 build/sam_e70_xplained_ultra/production/_ext/1171490990/exceptions.o
                0x0040d14a                MemoryManagement_Handler

.text.BusFault_Handler%278
                0x0040d702        0x2
 .text.BusFault_Handler
                0x0040d702        0x2 build/sam_e70_xplained_ultra/production/_ext/1171490990/exceptions.o
                0x0040d702                BusFault_Handler

.text.UsageFault_Handler%279
                0x0040e322        0x2
 .text.UsageFault_Handler
                0x0040e322        0x2 build/sam_e70_xplained_ultra/production/_ext/1171490990/exceptions.o
                0x0040e322                UsageFault_Handler
